; Listing generated by Microsoft (R) Optimizing Compiler Version 19.29.30137.0 

	TITLE	C:\Users\theob\Documents\GitHub\as-pts1\travail\ProjetTutore1\Debug\Animator.obj
	.686P
	.XMM
	include listing.inc
	.model	flat

INCLUDELIB MSVCRTD
INCLUDELIB OLDNAMES

msvcjmc	SEGMENT
__A2143F22_corecrt_stdio_config@h DB 01H
__829E1958_corecrt_wstdio@h DB 01H
__6DFAE8B8_stdio@h DB 01H
__1FEB9909_corecrt_memcpy_s@h DB 01H
__C6E16F6F_corecrt_wconio@h DB 01H
__6D390390_corecrt_wio@h DB 01H
__9200769A_corecrt_wstring@h DB 01H
__1157D6BA_corecrt_wtime@h DB 01H
__1DC1E279_stat@h DB 01H
__93DC0B45_wchar@h DB 01H
__47F37C5A_xtr1common DB 01H
__81812A28_cstddef DB 01H
__741AE07E_corecrt_math@h DB 01H
__B49664B7_stdlib@h DB 01H
__244AF085_cstdlib DB 01H
__7FE5F402_limits DB 01H
__589FA321_type_traits DB 01H
__97D3638F_vcruntime_new@h DB 01H
__DD5FCA34_compare DB 01H
__A751F051_corecrt_memory@h DB 01H
__32E5F013_string@h DB 01H
__12269DE6_xutility DB 01H
__C69F69CF_tuple DB 01H
__20BB4341_malloc@h DB 01H
__B0A13A33_vcruntime_exception@h DB 01H
__FF458F76_exception DB 01H
__79D216CD_xmemory DB 01H
__69958C8C_xtree DB 01H
__374A57BA_xpolymorphic_allocator@h DB 01H
__65ADBEC9_vcruntime_typeinfo@h DB 01H
__62F96EFF_typeinfo DB 01H
__A0B61CF9_time@h DB 01H
__DDB379A0_xthreads@h DB 01H
__14D0A8C0_atomic DB 01H
__C34BF88C_memory DB 01H
__60BC708E_cmath DB 01H
__68B92D9D_xbit_ops@h DB 01H
__0D019051_xstring DB 01H
__0F13B0E8_xhash DB 01H
__BFE0F84B_functional DB 01H
__1589CDA2_algorithm DB 01H
__324884E2_vector DB 01H
__B2B5E639_FrameAnimation@hpp DB 01H
__760BB52B_stdexcept DB 01H
__A4685E82_xcall_once@h DB 01H
__1B354CA2_system_error DB 01H
__EF0EAF83_xfacet DB 01H
__B2D2BA86_ctype@h DB 01H
__7D708D37_xlocinfo DB 01H
__D23FE460_xlocale DB 01H
__4495FA24_xiosbase DB 01H
__4CB88277_xlocnum DB 01H
__845859A3_ios DB 01H
__98EE5594_InputStream@hpp DB 01H
__489ACE24_NonCopyable@hpp DB 01H
__B7987E10_string DB 01H
__FE33131C_xlocmes DB 01H
__67DA974F_xlocmon DB 01H
__D96D2425_xloctime DB 01H
__54960FDB_Thread@inl DB 01H
__7A0EAAD2_ContextSettings@hpp DB 01H
__A5094FF8_Drawable@hpp DB 01H
__617EE64B_Glyph@hpp DB 01H
__4B7B7884_Font@hpp DB 01H
__6E70D40E_Animator@h DB 01H
__6C52B218_Animator@cpp DB 01H
__68A60A21_locale DB 01H
__C12F3EA4_ostream DB 01H
__74AB0D97_streambuf DB 01H
__038A2AA6_iterator DB 01H
__B30C2184_iosfwd DB 01H
__1347750E_utility DB 01H
__E458E21C_xstddef DB 01H
__E273110D_Vector2@inl DB 01H
__23F118AA_Vector2@hpp DB 01H
__6AE60262_Rect@inl DB 01H
__AB640BC5_Rect@hpp DB 01H
__D138E2DC_Animator@inl DB 01H
__7BF085A0_Animator@hpp DB 01H
__F54903A0_xatomic@h DB 01H
__84DB8D4B_map DB 01H
msvcjmc	ENDS
CONST	SEGMENT
$SG98451 DB	'C', 00H, ':', 00H, '\', 00H, 'U', 00H, 's', 00H, 'e', 00H
	DB	'r', 00H, 's', 00H, '\', 00H, 't', 00H, 'h', 00H, 'e', 00H, 'o'
	DB	00H, 'b', 00H, '\', 00H, 'D', 00H, 'o', 00H, 'c', 00H, 'u', 00H
	DB	'm', 00H, 'e', 00H, 'n', 00H, 't', 00H, 's', 00H, '\', 00H, 'G'
	DB	00H, 'i', 00H, 't', 00H, 'H', 00H, 'u', 00H, 'b', 00H, '\', 00H
	DB	'a', 00H, 's', 00H, '-', 00H, 'p', 00H, 't', 00H, 's', 00H, '1'
	DB	00H, '\', 00H, 't', 00H, 'r', 00H, 'a', 00H, 'v', 00H, 'a', 00H
	DB	'i', 00H, 'l', 00H, '\', 00H, 'P', 00H, 'r', 00H, 'o', 00H, 'j'
	DB	00H, 'e', 00H, 't', 00H, 'T', 00H, 'u', 00H, 't', 00H, 'o', 00H
	DB	'r', 00H, 'e', 00H, '1', 00H, '\', 00H, 'v', 00H, 'c', 00H, 'p'
	DB	00H, 'k', 00H, 'g', 00H, '_', 00H, 'i', 00H, 'n', 00H, 's', 00H
	DB	't', 00H, 'a', 00H, 'l', 00H, 'l', 00H, 'e', 00H, 'd', 00H, '\'
	DB	00H, 'x', 00H, '8', 00H, '6', 00H, '-', 00H, 'w', 00H, 'i', 00H
	DB	'n', 00H, 'd', 00H, 'o', 00H, 'w', 00H, 's', 00H, '\', 00H, 'x'
	DB	00H, '8', 00H, '6', 00H, '-', 00H, 'w', 00H, 'i', 00H, 'n', 00H
	DB	'd', 00H, 'o', 00H, 'w', 00H, 's', 00H, '\', 00H, 'i', 00H, 'n'
	DB	00H, 'c', 00H, 'l', 00H, 'u', 00H, 'd', 00H, 'e', 00H, '\', 00H
	DB	'T', 00H, 'h', 00H, 'o', 00H, 'r', 00H, '\', 00H, 'A', 00H, 'n'
	DB	00H, 'i', 00H, 'm', 00H, 'a', 00H, 't', 00H, 'i', 00H, 'o', 00H
	DB	'n', 00H, 's', 00H, '\', 00H, 'D', 00H, 'e', 00H, 't', 00H, 'a'
	DB	00H, 'i', 00H, 'l', 00H, '\', 00H, 'A', 00H, 'n', 00H, 'i', 00H
	DB	'm', 00H, 'a', 00H, 't', 00H, 'o', 00H, 'r', 00H, '.', 00H, 'i'
	DB	00H, 'n', 00H, 'l', 00H, 00H, 00H
$SG98452 DB	'i', 00H, 's', 00H, 'P', 00H, 'l', 00H, 'a', 00H, 'y', 00H
	DB	'i', 00H, 'n', 00H, 'g', 00H, 'A', 00H, 'n', 00H, 'i', 00H, 'm'
	DB	00H, 'a', 00H, 't', 00H, 'i', 00H, 'o', 00H, 'n', 00H, '(', 00H
	DB	')', 00H, 00H, 00H
	ORG $+2
$SG99810 DB	'C', 00H, ':', 00H, '\', 00H, 'U', 00H, 's', 00H, 'e', 00H
	DB	'r', 00H, 's', 00H, '\', 00H, 't', 00H, 'h', 00H, 'e', 00H, 'o'
	DB	00H, 'b', 00H, '\', 00H, 'D', 00H, 'o', 00H, 'c', 00H, 'u', 00H
	DB	'm', 00H, 'e', 00H, 'n', 00H, 't', 00H, 's', 00H, '\', 00H, 'G'
	DB	00H, 'i', 00H, 't', 00H, 'H', 00H, 'u', 00H, 'b', 00H, '\', 00H
	DB	'a', 00H, 's', 00H, '-', 00H, 'p', 00H, 't', 00H, 's', 00H, '1'
	DB	00H, '\', 00H, 't', 00H, 'r', 00H, 'a', 00H, 'v', 00H, 'a', 00H
	DB	'i', 00H, 'l', 00H, '\', 00H, 'P', 00H, 'r', 00H, 'o', 00H, 'j'
	DB	00H, 'e', 00H, 't', 00H, 'T', 00H, 'u', 00H, 't', 00H, 'o', 00H
	DB	'r', 00H, 'e', 00H, '1', 00H, '\', 00H, 'v', 00H, 'c', 00H, 'p'
	DB	00H, 'k', 00H, 'g', 00H, '_', 00H, 'i', 00H, 'n', 00H, 's', 00H
	DB	't', 00H, 'a', 00H, 'l', 00H, 'l', 00H, 'e', 00H, 'd', 00H, '\'
	DB	00H, 'x', 00H, '8', 00H, '6', 00H, '-', 00H, 'w', 00H, 'i', 00H
	DB	'n', 00H, 'd', 00H, 'o', 00H, 'w', 00H, 's', 00H, '\', 00H, 'x'
	DB	00H, '8', 00H, '6', 00H, '-', 00H, 'w', 00H, 'i', 00H, 'n', 00H
	DB	'd', 00H, 'o', 00H, 'w', 00H, 's', 00H, '\', 00H, 'i', 00H, 'n'
	DB	00H, 'c', 00H, 'l', 00H, 'u', 00H, 'd', 00H, 'e', 00H, '\', 00H
	DB	'T', 00H, 'h', 00H, 'o', 00H, 'r', 00H, '\', 00H, 'A', 00H, 'n'
	DB	00H, 'i', 00H, 'm', 00H, 'a', 00H, 't', 00H, 'i', 00H, 'o', 00H
	DB	'n', 00H, 's', 00H, '\', 00H, 'F', 00H, 'r', 00H, 'a', 00H, 'm'
	DB	00H, 'e', 00H, 'A', 00H, 'n', 00H, 'i', 00H, 'm', 00H, 'a', 00H
	DB	't', 00H, 'i', 00H, 'o', 00H, 'n', 00H, '.', 00H, 'h', 00H, 'p'
	DB	00H, 'p', 00H, 00H, 00H
	ORG $+2
$SG99811 DB	'!', 00H, 'm', 00H, 'F', 00H, 'r', 00H, 'a', 00H, 'm', 00H
	DB	'e', 00H, 's', 00H, '.', 00H, 'e', 00H, 'm', 00H, 'p', 00H, 't'
	DB	00H, 'y', 00H, '(', 00H, ')', 00H, 00H, 00H
	ORG $+2
$SG99812 DB	'C', 00H, ':', 00H, '\', 00H, 'U', 00H, 's', 00H, 'e', 00H
	DB	'r', 00H, 's', 00H, '\', 00H, 't', 00H, 'h', 00H, 'e', 00H, 'o'
	DB	00H, 'b', 00H, '\', 00H, 'D', 00H, 'o', 00H, 'c', 00H, 'u', 00H
	DB	'm', 00H, 'e', 00H, 'n', 00H, 't', 00H, 's', 00H, '\', 00H, 'G'
	DB	00H, 'i', 00H, 't', 00H, 'H', 00H, 'u', 00H, 'b', 00H, '\', 00H
	DB	'a', 00H, 's', 00H, '-', 00H, 'p', 00H, 't', 00H, 's', 00H, '1'
	DB	00H, '\', 00H, 't', 00H, 'r', 00H, 'a', 00H, 'v', 00H, 'a', 00H
	DB	'i', 00H, 'l', 00H, '\', 00H, 'P', 00H, 'r', 00H, 'o', 00H, 'j'
	DB	00H, 'e', 00H, 't', 00H, 'T', 00H, 'u', 00H, 't', 00H, 'o', 00H
	DB	'r', 00H, 'e', 00H, '1', 00H, '\', 00H, 'v', 00H, 'c', 00H, 'p'
	DB	00H, 'k', 00H, 'g', 00H, '_', 00H, 'i', 00H, 'n', 00H, 's', 00H
	DB	't', 00H, 'a', 00H, 'l', 00H, 'l', 00H, 'e', 00H, 'd', 00H, '\'
	DB	00H, 'x', 00H, '8', 00H, '6', 00H, '-', 00H, 'w', 00H, 'i', 00H
	DB	'n', 00H, 'd', 00H, 'o', 00H, 'w', 00H, 's', 00H, '\', 00H, 'x'
	DB	00H, '8', 00H, '6', 00H, '-', 00H, 'w', 00H, 'i', 00H, 'n', 00H
	DB	'd', 00H, 'o', 00H, 'w', 00H, 's', 00H, '\', 00H, 'i', 00H, 'n'
	DB	00H, 'c', 00H, 'l', 00H, 'u', 00H, 'd', 00H, 'e', 00H, '\', 00H
	DB	'T', 00H, 'h', 00H, 'o', 00H, 'r', 00H, '\', 00H, 'A', 00H, 'n'
	DB	00H, 'i', 00H, 'm', 00H, 'a', 00H, 't', 00H, 'i', 00H, 'o', 00H
	DB	'n', 00H, 's', 00H, '\', 00H, 'F', 00H, 'r', 00H, 'a', 00H, 'm'
	DB	00H, 'e', 00H, 'A', 00H, 'n', 00H, 'i', 00H, 'm', 00H, 'a', 00H
	DB	't', 00H, 'i', 00H, 'o', 00H, 'n', 00H, '.', 00H, 'h', 00H, 'p'
	DB	00H, 'p', 00H, 00H, 00H
	ORG $+2
$SG98082 DB	'invalid argument', 00H
	ORG $+3
$SG99813 DB	'p', 00H, 'r', 00H, 'o', 00H, 'g', 00H, 'r', 00H, 'e', 00H
	DB	's', 00H, 's', 00H, ' ', 00H, '>', 00H, '=', 00H, ' ', 00H, '0'
	DB	00H, '.', 00H, 'f', 00H, ' ', 00H, '&', 00H, '&', 00H, ' ', 00H
	DB	'p', 00H, 'r', 00H, 'o', 00H, 'g', 00H, 'r', 00H, 'e', 00H, 's'
	DB	00H, 's', 00H, ' ', 00H, '<', 00H, '=', 00H, ' ', 00H, '1', 00H
	DB	'.', 00H, 'f', 00H, 00H, 00H
	ORG $+2
$SG92109 DB	'C', 00H, ':', 00H, '\', 00H, 'U', 00H, 's', 00H, 'e', 00H
	DB	'r', 00H, 's', 00H, '\', 00H, 't', 00H, 'h', 00H, 'e', 00H, 'o'
	DB	00H, 'b', 00H, '\', 00H, 'D', 00H, 'o', 00H, 'c', 00H, 'u', 00H
	DB	'm', 00H, 'e', 00H, 'n', 00H, 't', 00H, 's', 00H, '\', 00H, 'G'
	DB	00H, 'i', 00H, 't', 00H, 'H', 00H, 'u', 00H, 'b', 00H, '\', 00H
	DB	'a', 00H, 's', 00H, '-', 00H, 'p', 00H, 't', 00H, 's', 00H, '1'
	DB	00H, '\', 00H, 't', 00H, 'r', 00H, 'a', 00H, 'v', 00H, 'a', 00H
	DB	'i', 00H, 'l', 00H, '\', 00H, 'P', 00H, 'r', 00H, 'o', 00H, 'j'
	DB	00H, 'e', 00H, 't', 00H, 'T', 00H, 'u', 00H, 't', 00H, 'o', 00H
	DB	'r', 00H, 'e', 00H, '1', 00H, '\', 00H, 'v', 00H, 'c', 00H, 'p'
	DB	00H, 'k', 00H, 'g', 00H, '_', 00H, 'i', 00H, 'n', 00H, 's', 00H
	DB	't', 00H, 'a', 00H, 'l', 00H, 'l', 00H, 'e', 00H, 'd', 00H, '\'
	DB	00H, 'x', 00H, '8', 00H, '6', 00H, '-', 00H, 'w', 00H, 'i', 00H
	DB	'n', 00H, 'd', 00H, 'o', 00H, 'w', 00H, 's', 00H, '\', 00H, 'x'
	DB	00H, '8', 00H, '6', 00H, '-', 00H, 'w', 00H, 'i', 00H, 'n', 00H
	DB	'd', 00H, 'o', 00H, 'w', 00H, 's', 00H, '\', 00H, 'i', 00H, 'n'
	DB	00H, 'c', 00H, 'l', 00H, 'u', 00H, 'd', 00H, 'e', 00H, '\', 00H
	DB	'T', 00H, 'h', 00H, 'o', 00H, 'r', 00H, '\', 00H, 'A', 00H, 'n'
	DB	00H, 'i', 00H, 'm', 00H, 'a', 00H, 't', 00H, 'i', 00H, 'o', 00H
	DB	'n', 00H, 's', 00H, '\', 00H, 'D', 00H, 'e', 00H, 't', 00H, 'a'
	DB	00H, 'i', 00H, 'l', 00H, '\', 00H, 'A', 00H, 'n', 00H, 'i', 00H
	DB	'm', 00H, 'a', 00H, 't', 00H, 'o', 00H, 'r', 00H, '.', 00H, 'i'
	DB	00H, 'n', 00H, 'l', 00H, 00H, 00H
$SG98083 DB	'%s', 00H
	ORG $+1
$SG92110 DB	'm', 00H, 'A', 00H, 'n', 00H, 'i', 00H, 'm', 00H, 'a', 00H
	DB	't', 00H, 'i', 00H, 'o', 00H, 'n', 00H, 'M', 00H, 'a', 00H, 'p'
	DB	00H, '.', 00H, 'f', 00H, 'i', 00H, 'n', 00H, 'd', 00H, '(', 00H
	DB	'i', 00H, 'd', 00H, ')', 00H, ' ', 00H, '=', 00H, '=', 00H, ' '
	DB	00H, 'm', 00H, 'A', 00H, 'n', 00H, 'i', 00H, 'm', 00H, 'a', 00H
	DB	't', 00H, 'i', 00H, 'o', 00H, 'n', 00H, 'M', 00H, 'a', 00H, 'p'
	DB	00H, '.', 00H, 'e', 00H, 'n', 00H, 'd', 00H, '(', 00H, ')', 00H
	DB	00H, 00H
$SG81867 DB	'walkLeft', 00H
	ORG $+3
$SG92124 DB	'C', 00H, ':', 00H, '\', 00H, 'U', 00H, 's', 00H, 'e', 00H
	DB	'r', 00H, 's', 00H, '\', 00H, 't', 00H, 'h', 00H, 'e', 00H, 'o'
	DB	00H, 'b', 00H, '\', 00H, 'D', 00H, 'o', 00H, 'c', 00H, 'u', 00H
	DB	'm', 00H, 'e', 00H, 'n', 00H, 't', 00H, 's', 00H, '\', 00H, 'G'
	DB	00H, 'i', 00H, 't', 00H, 'H', 00H, 'u', 00H, 'b', 00H, '\', 00H
	DB	'a', 00H, 's', 00H, '-', 00H, 'p', 00H, 't', 00H, 's', 00H, '1'
	DB	00H, '\', 00H, 't', 00H, 'r', 00H, 'a', 00H, 'v', 00H, 'a', 00H
	DB	'i', 00H, 'l', 00H, '\', 00H, 'P', 00H, 'r', 00H, 'o', 00H, 'j'
	DB	00H, 'e', 00H, 't', 00H, 'T', 00H, 'u', 00H, 't', 00H, 'o', 00H
	DB	'r', 00H, 'e', 00H, '1', 00H, '\', 00H, 'v', 00H, 'c', 00H, 'p'
	DB	00H, 'k', 00H, 'g', 00H, '_', 00H, 'i', 00H, 'n', 00H, 's', 00H
	DB	't', 00H, 'a', 00H, 'l', 00H, 'l', 00H, 'e', 00H, 'd', 00H, '\'
	DB	00H, 'x', 00H, '8', 00H, '6', 00H, '-', 00H, 'w', 00H, 'i', 00H
	DB	'n', 00H, 'd', 00H, 'o', 00H, 'w', 00H, 's', 00H, '\', 00H, 'x'
	DB	00H, '8', 00H, '6', 00H, '-', 00H, 'w', 00H, 'i', 00H, 'n', 00H
	DB	'd', 00H, 'o', 00H, 'w', 00H, 's', 00H, '\', 00H, 'i', 00H, 'n'
	DB	00H, 'c', 00H, 'l', 00H, 'u', 00H, 'd', 00H, 'e', 00H, '\', 00H
	DB	'T', 00H, 'h', 00H, 'o', 00H, 'r', 00H, '\', 00H, 'A', 00H, 'n'
	DB	00H, 'i', 00H, 'm', 00H, 'a', 00H, 't', 00H, 'i', 00H, 'o', 00H
	DB	'n', 00H, 's', 00H, '\', 00H, 'D', 00H, 'e', 00H, 't', 00H, 'a'
	DB	00H, 'i', 00H, 'l', 00H, '\', 00H, 'A', 00H, 'n', 00H, 'i', 00H
	DB	'm', 00H, 'a', 00H, 't', 00H, 'o', 00H, 'r', 00H, '.', 00H, 'i'
	DB	00H, 'n', 00H, 'l', 00H, 00H, 00H
$SG92125 DB	'i', 00H, 't', 00H, 'r', 00H, ' ', 00H, '!', 00H, '=', 00H
	DB	' ', 00H, 'm', 00H, 'A', 00H, 'n', 00H, 'i', 00H, 'm', 00H, 'a'
	DB	00H, 't', 00H, 'i', 00H, 'o', 00H, 'n', 00H, 'M', 00H, 'a', 00H
	DB	'p', 00H, '.', 00H, 'e', 00H, 'n', 00H, 'd', 00H, '(', 00H, ')'
	DB	00H, 00H, 00H
	ORG $+2
$SG81868 DB	'walkRight', 00H
	ORG $+2
$SG94399 DB	'C:\Program Files (x86)\Microsoft Visual Studio\2019\Comm'
	DB	'unity\VC\Tools\MSVC\14.29.30133\include\xlocale', 00H
$SG98084 DB	'C:\Program Files (x86)\Microsoft Visual Studio\2019\Comm'
	DB	'unity\VC\Tools\MSVC\14.29.30133\include\xmemory', 00H
$SG98085 DB	'C', 00H, ':', 00H, '\', 00H, 'P', 00H, 'r', 00H, 'o', 00H
	DB	'g', 00H, 'r', 00H, 'a', 00H, 'm', 00H, ' ', 00H, 'F', 00H, 'i'
	DB	00H, 'l', 00H, 'e', 00H, 's', 00H, ' ', 00H, '(', 00H, 'x', 00H
	DB	'8', 00H, '6', 00H, ')', 00H, '\', 00H, 'M', 00H, 'i', 00H, 'c'
	DB	00H, 'r', 00H, 'o', 00H, 's', 00H, 'o', 00H, 'f', 00H, 't', 00H
	DB	' ', 00H, 'V', 00H, 'i', 00H, 's', 00H, 'u', 00H, 'a', 00H, 'l'
	DB	00H, ' ', 00H, 'S', 00H, 't', 00H, 'u', 00H, 'd', 00H, 'i', 00H
	DB	'o', 00H, '\', 00H, '2', 00H, '0', 00H, '1', 00H, '9', 00H, '\'
	DB	00H, 'C', 00H, 'o', 00H, 'm', 00H, 'm', 00H, 'u', 00H, 'n', 00H
	DB	'i', 00H, 't', 00H, 'y', 00H, '\', 00H, 'V', 00H, 'C', 00H, '\'
	DB	00H, 'T', 00H, 'o', 00H, 'o', 00H, 'l', 00H, 's', 00H, '\', 00H
	DB	'M', 00H, 'S', 00H, 'V', 00H, 'C', 00H, '\', 00H, '1', 00H, '4'
	DB	00H, '.', 00H, '2', 00H, '9', 00H, '.', 00H, '3', 00H, '0', 00H
	DB	'1', 00H, '3', 00H, '3', 00H, '\', 00H, 'i', 00H, 'n', 00H, 'c'
	DB	00H, 'l', 00H, 'u', 00H, 'd', 00H, 'e', 00H, '\', 00H, 'x', 00H
	DB	'm', 00H, 'e', 00H, 'm', 00H, 'o', 00H, 'r', 00H, 'y', 00H, 00H
	DB	00H
$SG98086 DB	's', 00H, 't', 00H, 'd', 00H, ':', 00H, ':', 00H, '_', 00H
	DB	'A', 00H, 'l', 00H, 'l', 00H, 'o', 00H, 'c', 00H, 'a', 00H, 't'
	DB	00H, 'e', 00H, '_', 00H, 'm', 00H, 'a', 00H, 'n', 00H, 'u', 00H
	DB	'a', 00H, 'l', 00H, 'l', 00H, 'y', 00H, '_', 00H, 'v', 00H, 'e'
	DB	00H, 'c', 00H, 't', 00H, 'o', 00H, 'r', 00H, '_', 00H, 'a', 00H
	DB	'l', 00H, 'i', 00H, 'g', 00H, 'n', 00H, 'e', 00H, 'd', 00H, 00H
	DB	00H
	ORG $+2
$SG98087 DB	'"', 00H, 'i', 00H, 'n', 00H, 'v', 00H, 'a', 00H, 'l', 00H
	DB	'i', 00H, 'd', 00H, ' ', 00H, 'a', 00H, 'r', 00H, 'g', 00H, 'u'
	DB	00H, 'm', 00H, 'e', 00H, 'n', 00H, 't', 00H, '"', 00H, 00H, 00H
	ORG $+2
$SG81869 DB	'idle', 00H
	ORG $+3
$SG81870 DB	'jump', 00H
	ORG $+3
$SG81871 DB	'crouch', 00H
	ORG $+1
$SG81873 DB	'idle', 00H
CONST	ENDS
PUBLIC	?__empty_global_delete@@YAXPAX@Z		; __empty_global_delete
PUBLIC	?__empty_global_delete@@YAXPAXI@Z		; __empty_global_delete
PUBLIC	?__empty_global_delete@@YAXPAXW4align_val_t@std@@@Z ; __empty_global_delete
PUBLIC	?__empty_global_delete@@YAXPAXIW4align_val_t@std@@@Z ; __empty_global_delete
PUBLIC	_wmemcpy
PUBLIC	?is_constant_evaluated@std@@YA_NXZ		; std::is_constant_evaluated
PUBLIC	?max@?$numeric_limits@H@std@@SAHXZ		; std::numeric_limits<int>::max
PUBLIC	??2@YAPAXIPAX@Z					; operator new
PUBLIC	??Mstd@@YA_NUstrong_ordering@0@$$T@Z		; std::operator<
PUBLIC	??0exception@std@@QAE@QBDH@Z			; std::exception::exception
PUBLIC	??0exception@std@@QAE@ABV01@@Z			; std::exception::exception
PUBLIC	??1exception@std@@UAE@XZ			; std::exception::~exception
PUBLIC	?what@exception@std@@UBEPBDXZ			; std::exception::what
PUBLIC	??_Gexception@std@@UAEPAXI@Z			; std::exception::`scalar deleting destructor'
PUBLIC	??0bad_alloc@std@@AAE@QBD@Z			; std::bad_alloc::bad_alloc
PUBLIC	??1bad_alloc@std@@UAE@XZ			; std::bad_alloc::~bad_alloc
PUBLIC	??0bad_alloc@std@@QAE@ABV01@@Z			; std::bad_alloc::bad_alloc
PUBLIC	??_Gbad_alloc@std@@UAEPAXI@Z			; std::bad_alloc::`scalar deleting destructor'
PUBLIC	??0bad_array_new_length@std@@QAE@XZ		; std::bad_array_new_length::bad_array_new_length
PUBLIC	??1bad_array_new_length@std@@UAE@XZ		; std::bad_array_new_length::~bad_array_new_length
PUBLIC	??0bad_array_new_length@std@@QAE@ABV01@@Z	; std::bad_array_new_length::bad_array_new_length
PUBLIC	??_Gbad_array_new_length@std@@UAEPAXI@Z		; std::bad_array_new_length::`scalar deleting destructor'
PUBLIC	?_Throw_bad_array_new_length@std@@YAXXZ		; std::_Throw_bad_array_new_length
PUBLIC	?_Allocate@_Default_allocate_traits@std@@SAPAXI@Z ; std::_Default_allocate_traits::_Allocate
PUBLIC	?_Adjust_manually_vector_aligned@std@@YAXAAPAXAAI@Z ; std::_Adjust_manually_vector_aligned
PUBLIC	??$_Convert_size@I@std@@YAII@Z			; std::_Convert_size<unsigned int>
PUBLIC	??0_Container_proxy@std@@QAE@PAU_Container_base12@1@@Z ; std::_Container_proxy::_Container_proxy
PUBLIC	??0_Container_base12@std@@QAE@XZ		; std::_Container_base12::_Container_base12
PUBLIC	?_Orphan_all@_Container_base12@std@@QAEXXZ	; std::_Container_base12::_Orphan_all
PUBLIC	?_Swap_proxy_and_iterators@_Container_base12@std@@QAEXAAU12@@Z ; std::_Container_base12::_Swap_proxy_and_iterators
PUBLIC	?_Orphan_all_unlocked_v3@_Container_base12@std@@AAEXXZ ; std::_Container_base12::_Orphan_all_unlocked_v3
PUBLIC	?_Swap_proxy_and_iterators_unlocked@_Container_base12@std@@AAEXAAU12@@Z ; std::_Container_base12::_Swap_proxy_and_iterators_unlocked
PUBLIC	?_Orphan_all_locked_v3@_Container_base12@std@@AAEXXZ ; std::_Container_base12::_Orphan_all_locked_v3
PUBLIC	?_Swap_proxy_and_iterators_locked@_Container_base12@std@@AAEXAAU12@@Z ; std::_Container_base12::_Swap_proxy_and_iterators_locked
PUBLIC	??0_Iterator_base12@std@@QAE@XZ			; std::_Iterator_base12::_Iterator_base12
PUBLIC	??0_Iterator_base12@std@@QAE@ABU01@@Z		; std::_Iterator_base12::_Iterator_base12
PUBLIC	??4_Iterator_base12@std@@QAEAAU01@ABU01@@Z	; std::_Iterator_base12::operator=
PUBLIC	??1_Iterator_base12@std@@QAE@XZ			; std::_Iterator_base12::~_Iterator_base12
PUBLIC	?_Adopt@_Iterator_base12@std@@QAEXPBU_Container_base12@2@@Z ; std::_Iterator_base12::_Adopt
PUBLIC	?_Getcont@_Iterator_base12@std@@QBEPBU_Container_base12@2@XZ ; std::_Iterator_base12::_Getcont
PUBLIC	?_Assign_unlocked@_Iterator_base12@std@@AAEXABU12@@Z ; std::_Iterator_base12::_Assign_unlocked
PUBLIC	?_Assign_locked@_Iterator_base12@std@@AAEXABU12@@Z ; std::_Iterator_base12::_Assign_locked
PUBLIC	?_Adopt_unlocked@_Iterator_base12@std@@AAEXPBU_Container_base12@2@@Z ; std::_Iterator_base12::_Adopt_unlocked
PUBLIC	?_Adopt_locked@_Iterator_base12@std@@AAEXPBU_Container_base12@2@@Z ; std::_Iterator_base12::_Adopt_locked
PUBLIC	?_Orphan_me_unlocked_v3@_Iterator_base12@std@@AAEXXZ ; std::_Iterator_base12::_Orphan_me_unlocked_v3
PUBLIC	?_Orphan_me_locked_v3@_Iterator_base12@std@@AAEXXZ ; std::_Iterator_base12::_Orphan_me_locked_v3
PUBLIC	?_Release@_Basic_container_proxy_ptr12@std@@QAEXXZ ; std::_Basic_container_proxy_ptr12::_Release
PUBLIC	??0_Basic_container_proxy_ptr12@std@@IAE@XZ	; std::_Basic_container_proxy_ptr12::_Basic_container_proxy_ptr12
PUBLIC	??$addressof@U_Container_base12@std@@@std@@YAPAU_Container_base12@0@AAU10@@Z ; std::addressof<std::_Container_base12>
PUBLIC	??$_Construct_in_place@U_Container_proxy@std@@PAU_Container_base12@2@@std@@YAXAAU_Container_proxy@0@$$QAPAU_Container_base12@0@@Z ; std::_Construct_in_place<std::_Container_proxy,std::_Container_base12 *>
PUBLIC	?_Throw_tree_length_error@std@@YAXXZ		; std::_Throw_tree_length_error
PUBLIC	?copy@?$_Char_traits@DH@std@@SAPADQADQBDI@Z	; std::_Char_traits<char,int>::copy
PUBLIC	?move@?$_Char_traits@DH@std@@SAPADQADQBDI@Z	; std::_Char_traits<char,int>::move
PUBLIC	?assign@?$_Char_traits@DH@std@@SAPADQADID@Z	; std::_Char_traits<char,int>::assign
PUBLIC	?compare@?$_Narrow_char_traits@DH@std@@SAHQBD0I@Z ; std::_Narrow_char_traits<char,int>::compare
PUBLIC	?length@?$_Narrow_char_traits@DH@std@@SAIQBD@Z	; std::_Narrow_char_traits<char,int>::length
PUBLIC	?assign@?$_Narrow_char_traits@DH@std@@SAPADQADID@Z ; std::_Narrow_char_traits<char,int>::assign
PUBLIC	?assign@?$_Narrow_char_traits@DH@std@@SAXAADABD@Z ; std::_Narrow_char_traits<char,int>::assign
PUBLIC	?_Xlen_string@std@@YAXXZ			; std::_Xlen_string
PUBLIC	??0?$allocator@D@std@@QAE@XZ			; std::allocator<char>::allocator<char>
PUBLIC	?deallocate@?$allocator@D@std@@QAEXQADI@Z	; std::allocator<char>::deallocate
PUBLIC	?allocate@?$allocator@D@std@@QAEPADI@Z		; std::allocator<char>::allocate
PUBLIC	?max_size@?$_Default_allocator_traits@V?$allocator@D@std@@@std@@SAIABV?$allocator@D@2@@Z ; std::_Default_allocator_traits<std::allocator<char> >::max_size
PUBLIC	?select_on_container_copy_construction@?$_Default_allocator_traits@V?$allocator@D@std@@@std@@SA?AV?$allocator@D@2@ABV32@@Z ; std::_Default_allocator_traits<std::allocator<char> >::select_on_container_copy_construction
PUBLIC	??0?$_String_val@U?$_Simple_types@D@std@@@std@@QAE@XZ ; std::_String_val<std::_Simple_types<char> >::_String_val<std::_Simple_types<char> >
PUBLIC	?_Myptr@?$_String_val@U?$_Simple_types@D@std@@@std@@QAEPADXZ ; std::_String_val<std::_Simple_types<char> >::_Myptr
PUBLIC	?_Myptr@?$_String_val@U?$_Simple_types@D@std@@@std@@QBEPBDXZ ; std::_String_val<std::_Simple_types<char> >::_Myptr
PUBLIC	?_Large_string_engaged@?$_String_val@U?$_Simple_types@D@std@@@std@@QBE_NXZ ; std::_String_val<std::_Simple_types<char> >::_Large_string_engaged
PUBLIC	??0_Bxty@?$_String_val@U?$_Simple_types@D@std@@@std@@QAE@XZ ; std::_String_val<std::_Simple_types<char> >::_Bxty::_Bxty
PUBLIC	??1_Bxty@?$_String_val@U?$_Simple_types@D@std@@@std@@QAE@XZ ; std::_String_val<std::_Simple_types<char> >::_Bxty::~_Bxty
PUBLIC	??1?$_String_val@U?$_Simple_types@D@std@@@std@@QAE@XZ ; std::_String_val<std::_Simple_types<char> >::~_String_val<std::_Simple_types<char> >
PUBLIC	??0?$basic_string@DU?$char_traits@D@std@@V?$allocator@D@2@@std@@QAE@ABV01@@Z ; std::basic_string<char,std::char_traits<char>,std::allocator<char> >::basic_string<char,std::char_traits<char>,std::allocator<char> >
PUBLIC	??0?$basic_string@DU?$char_traits@D@std@@V?$allocator@D@2@@std@@QAE@XZ ; std::basic_string<char,std::char_traits<char>,std::allocator<char> >::basic_string<char,std::char_traits<char>,std::allocator<char> >
PUBLIC	??0?$basic_string@DU?$char_traits@D@std@@V?$allocator@D@2@@std@@QAE@QBD@Z ; std::basic_string<char,std::char_traits<char>,std::allocator<char> >::basic_string<char,std::char_traits<char>,std::allocator<char> >
PUBLIC	??0?$basic_string@DU?$char_traits@D@std@@V?$allocator@D@2@@std@@QAE@$$QAV01@@Z ; std::basic_string<char,std::char_traits<char>,std::allocator<char> >::basic_string<char,std::char_traits<char>,std::allocator<char> >
PUBLIC	?_Memcpy_val_from@?$basic_string@DU?$char_traits@D@std@@V?$allocator@D@2@@std@@AAEXABV12@@Z ; std::basic_string<char,std::char_traits<char>,std::allocator<char> >::_Memcpy_val_from
PUBLIC	?_Take_contents@?$basic_string@DU?$char_traits@D@std@@V?$allocator@D@2@@std@@AAEXAAV12@@Z ; std::basic_string<char,std::char_traits<char>,std::allocator<char> >::_Take_contents
PUBLIC	?_Construct_lv_contents@?$basic_string@DU?$char_traits@D@std@@V?$allocator@D@2@@std@@AAEXABV12@@Z ; std::basic_string<char,std::char_traits<char>,std::allocator<char> >::_Construct_lv_contents
PUBLIC	??1?$basic_string@DU?$char_traits@D@std@@V?$allocator@D@2@@std@@QAE@XZ ; std::basic_string<char,std::char_traits<char>,std::allocator<char> >::~basic_string<char,std::char_traits<char>,std::allocator<char> >
PUBLIC	?assign@?$basic_string@DU?$char_traits@D@std@@V?$allocator@D@2@@std@@QAEAAV12@QBDI@Z ; std::basic_string<char,std::char_traits<char>,std::allocator<char> >::assign
PUBLIC	?assign@?$basic_string@DU?$char_traits@D@std@@V?$allocator@D@2@@std@@QAEAAV12@QBD@Z ; std::basic_string<char,std::char_traits<char>,std::allocator<char> >::assign
PUBLIC	?max_size@?$basic_string@DU?$char_traits@D@std@@V?$allocator@D@2@@std@@QBEIXZ ; std::basic_string<char,std::char_traits<char>,std::allocator<char> >::max_size
PUBLIC	?compare@?$basic_string@DU?$char_traits@D@std@@V?$allocator@D@2@@std@@QBEHABV12@@Z ; std::basic_string<char,std::char_traits<char>,std::allocator<char> >::compare
PUBLIC	?_Calculate_growth@?$basic_string@DU?$char_traits@D@std@@V?$allocator@D@2@@std@@CAIIII@Z ; std::basic_string<char,std::char_traits<char>,std::allocator<char> >::_Calculate_growth
PUBLIC	?_Calculate_growth@?$basic_string@DU?$char_traits@D@std@@V?$allocator@D@2@@std@@ABEII@Z ; std::basic_string<char,std::char_traits<char>,std::allocator<char> >::_Calculate_growth
PUBLIC	?_Tidy_init@?$basic_string@DU?$char_traits@D@std@@V?$allocator@D@2@@std@@AAEXXZ ; std::basic_string<char,std::char_traits<char>,std::allocator<char> >::_Tidy_init
PUBLIC	?_Tidy_deallocate@?$basic_string@DU?$char_traits@D@std@@V?$allocator@D@2@@std@@AAEXXZ ; std::basic_string<char,std::char_traits<char>,std::allocator<char> >::_Tidy_deallocate
PUBLIC	?_Swap_proxy_and_iterators@?$basic_string@DU?$char_traits@D@std@@V?$allocator@D@2@@std@@AAEXAAV12@@Z ; std::basic_string<char,std::char_traits<char>,std::allocator<char> >::_Swap_proxy_and_iterators
PUBLIC	?_Getal@?$basic_string@DU?$char_traits@D@std@@V?$allocator@D@2@@std@@AAEAAV?$allocator@D@2@XZ ; std::basic_string<char,std::char_traits<char>,std::allocator<char> >::_Getal
PUBLIC	?_Getal@?$basic_string@DU?$char_traits@D@std@@V?$allocator@D@2@@std@@ABEABV?$allocator@D@2@XZ ; std::basic_string<char,std::char_traits<char>,std::allocator<char> >::_Getal
PUBLIC	?_Get_first@?$_Compressed_pair@V?$allocator@D@std@@V?$_String_val@U?$_Simple_types@D@std@@@2@$00@std@@QAEAAV?$allocator@D@2@XZ ; std::_Compressed_pair<std::allocator<char>,std::_String_val<std::_Simple_types<char> >,1>::_Get_first
PUBLIC	?_Get_first@?$_Compressed_pair@V?$allocator@D@std@@V?$_String_val@U?$_Simple_types@D@std@@@2@$00@std@@QBEABV?$allocator@D@2@XZ ; std::_Compressed_pair<std::allocator<char>,std::_String_val<std::_Simple_types<char> >,1>::_Get_first
PUBLIC	??1?$_Compressed_pair@V?$allocator@D@std@@V?$_String_val@U?$_Simple_types@D@std@@@2@$00@std@@QAE@XZ ; std::_Compressed_pair<std::allocator<char>,std::_String_val<std::_Simple_types<char> >,1>::~_Compressed_pair<std::allocator<char>,std::_String_val<std::_Simple_types<char> >,1>
PUBLIC	??0?$Rect@H@sf@@QAE@HHHH@Z			; sf::Rect<int>::Rect<int>
PUBLIC	?begin@?$vector@UFrame@detail@thor@@V?$allocator@UFrame@detail@thor@@@std@@@std@@QBE?AV?$_Vector_const_iterator@V?$_Vector_val@U?$_Simple_types@UFrame@detail@thor@@@std@@@std@@@2@XZ ; std::vector<thor::detail::Frame,std::allocator<thor::detail::Frame> >::begin
PUBLIC	?end@?$vector@UFrame@detail@thor@@V?$allocator@UFrame@detail@thor@@@std@@@std@@QBE?AV?$_Vector_const_iterator@V?$_Vector_val@U?$_Simple_types@UFrame@detail@thor@@@std@@@std@@@2@XZ ; std::vector<thor::detail::Frame,std::allocator<thor::detail::Frame> >::end
PUBLIC	?empty@?$vector@UFrame@detail@thor@@V?$allocator@UFrame@detail@thor@@@std@@@std@@QBE_NXZ ; std::vector<thor::detail::Frame,std::allocator<thor::detail::Frame> >::empty
PUBLIC	??0?$_Vector_const_iterator@V?$_Vector_val@U?$_Simple_types@UFrame@detail@thor@@@std@@@std@@@std@@QAE@PAUFrame@detail@thor@@PBU_Container_base12@1@@Z ; std::_Vector_const_iterator<std::_Vector_val<std::_Simple_types<thor::detail::Frame> > >::_Vector_const_iterator<std::_Vector_val<std::_Simple_types<thor::detail::Frame> > >
PUBLIC	??D?$_Vector_const_iterator@V?$_Vector_val@U?$_Simple_types@UFrame@detail@thor@@@std@@@std@@@std@@QBEABUFrame@detail@thor@@XZ ; std::_Vector_const_iterator<std::_Vector_val<std::_Simple_types<thor::detail::Frame> > >::operator*
PUBLIC	??E?$_Vector_const_iterator@V?$_Vector_val@U?$_Simple_types@UFrame@detail@thor@@@std@@@std@@@std@@QAEAAV01@XZ ; std::_Vector_const_iterator<std::_Vector_val<std::_Simple_types<thor::detail::Frame> > >::operator++
PUBLIC	??8?$_Vector_const_iterator@V?$_Vector_val@U?$_Simple_types@UFrame@detail@thor@@@std@@@std@@@std@@QBE_NABV01@@Z ; std::_Vector_const_iterator<std::_Vector_val<std::_Simple_types<thor::detail::Frame> > >::operator==
PUBLIC	?_Compat@?$_Vector_const_iterator@V?$_Vector_val@U?$_Simple_types@UFrame@detail@thor@@@std@@@std@@@std@@QBEXABV12@@Z ; std::_Vector_const_iterator<std::_Vector_val<std::_Simple_types<thor::detail::Frame> > >::_Compat
PUBLIC	??1?$_Vector_const_iterator@V?$_Vector_val@U?$_Simple_types@UFrame@detail@thor@@@std@@@std@@@std@@QAE@XZ ; std::_Vector_const_iterator<std::_Vector_val<std::_Simple_types<thor::detail::Frame> > >::~_Vector_const_iterator<std::_Vector_val<std::_Simple_types<thor::detail::Frame> > >
PUBLIC	?__autoclassinit2@?$_Vector_const_iterator@V?$_Vector_val@U?$_Simple_types@UFrame@detail@thor@@@std@@@std@@@std@@QAEXI@Z ; std::_Vector_const_iterator<std::_Vector_val<std::_Simple_types<thor::detail::Frame> > >::__autoclassinit2
PUBLIC	??$_Maklocstr@_W@std@@YAPA_WPBDPA_WABU_Cvtvec@@@Z ; std::_Maklocstr<wchar_t>
PUBLIC	?_Maklocwcs@std@@YAPA_WPB_W@Z			; std::_Maklocwcs
PUBLIC	??$_Maklocstr@D@std@@YAPADPBDPADABU_Cvtvec@@@Z	; std::_Maklocstr<char>
PUBLIC	??$_Getvals@_W@?$time_get@DV?$istreambuf_iterator@DU?$char_traits@D@std@@@std@@@std@@IAEX_WABV_Locinfo@1@@Z ; std::time_get<char,std::istreambuf_iterator<char,std::char_traits<char> > >::_Getvals<wchar_t>
PUBLIC	??$_Getvals@_W@?$time_get@_WV?$istreambuf_iterator@_WU?$char_traits@_W@std@@@std@@@std@@IAEX_WABV_Locinfo@1@@Z ; std::time_get<wchar_t,std::istreambuf_iterator<wchar_t,std::char_traits<wchar_t> > >::_Getvals<wchar_t>
PUBLIC	??R?$less@V?$basic_string@DU?$char_traits@D@std@@V?$allocator@D@2@@std@@@std@@QBE_NABV?$basic_string@DU?$char_traits@D@std@@V?$allocator@D@2@@1@0@Z ; std::less<std::basic_string<char,std::char_traits<char>,std::allocator<char> > >::operator()
PUBLIC	?generatePlayerAnimation@Animator@@QAEXXZ	; Animator::generatePlayerAnimation
PUBLIC	??1Animator@@QAE@XZ				; Animator::~Animator
PUBLIC	?addFrames@@YAXAAVFrameAnimation@thor@@HHHM@Z	; addFrames
PUBLIC	??0?$Animator@VSprite@sf@@V?$basic_string@DU?$char_traits@D@std@@V?$allocator@D@2@@std@@@thor@@QAE@XZ ; thor::Animator<sf::Sprite,std::basic_string<char,std::char_traits<char>,std::allocator<char> > >::Animator<sf::Sprite,std::basic_string<char,std::char_traits<char>,std::allocator<char> > >
PUBLIC	??0?$Animator@VSprite@sf@@V?$basic_string@DU?$char_traits@D@std@@V?$allocator@D@2@@std@@@thor@@QAE@ABV01@@Z ; thor::Animator<sf::Sprite,std::basic_string<char,std::char_traits<char>,std::allocator<char> > >::Animator<sf::Sprite,std::basic_string<char,std::char_traits<char>,std::allocator<char> > >
PUBLIC	??1?$Animator@VSprite@sf@@V?$basic_string@DU?$char_traits@D@std@@V?$allocator@D@2@@std@@@thor@@QAE@XZ ; thor::Animator<sf::Sprite,std::basic_string<char,std::char_traits<char>,std::allocator<char> > >::~Animator<sf::Sprite,std::basic_string<char,std::char_traits<char>,std::allocator<char> > >
PUBLIC	?addAnimation@?$Animator@VSprite@sf@@V?$basic_string@DU?$char_traits@D@std@@V?$allocator@D@2@@std@@@thor@@QAEXABV?$basic_string@DU?$char_traits@D@std@@V?$allocator@D@2@@std@@ABV?$function@$$A6AXAAVSprite@sf@@M@Z@4@VTime@sf@@@Z ; thor::Animator<sf::Sprite,std::basic_string<char,std::char_traits<char>,std::allocator<char> > >::addAnimation
PUBLIC	?playAnimation@?$Animator@VSprite@sf@@V?$basic_string@DU?$char_traits@D@std@@V?$allocator@D@2@@std@@@thor@@QAEXABV?$basic_string@DU?$char_traits@D@std@@V?$allocator@D@2@@std@@_N@Z ; thor::Animator<sf::Sprite,std::basic_string<char,std::char_traits<char>,std::allocator<char> > >::playAnimation
PUBLIC	?isPlayingAnimation@?$Animator@VSprite@sf@@V?$basic_string@DU?$char_traits@D@std@@V?$allocator@D@2@@std@@@thor@@QBE_NXZ ; thor::Animator<sf::Sprite,std::basic_string<char,std::char_traits<char>,std::allocator<char> > >::isPlayingAnimation
PUBLIC	?getPlayingAnimation@?$Animator@VSprite@sf@@V?$basic_string@DU?$char_traits@D@std@@V?$allocator@D@2@@std@@@thor@@QBE?AV?$basic_string@DU?$char_traits@D@std@@V?$allocator@D@2@@std@@XZ ; thor::Animator<sf::Sprite,std::basic_string<char,std::char_traits<char>,std::allocator<char> > >::getPlayingAnimation
PUBLIC	??0?$allocator@U?$_Tree_node@U?$pair@$$CBV?$basic_string@DU?$char_traits@D@std@@V?$allocator@D@2@@std@@U?$pair@V?$function@$$A6AXAAVSprite@sf@@M@Z@std@@VTime@sf@@@2@@std@@PAX@std@@@std@@QAE@XZ ; std::allocator<std::_Tree_node<std::pair<std::basic_string<char,std::char_traits<char>,std::allocator<char> > const ,std::pair<std::function<void __cdecl(sf::Sprite &,float)>,sf::Time> >,void *> >::allocator<std::_Tree_node<std::pair<std::basic_string<char,std::char_traits<char>,std::allocator<char> > const ,std::pair<std::function<void __cdecl(sf::Sprite &,float)>,sf::Time> >,void *> >
PUBLIC	?deallocate@?$allocator@U?$_Tree_node@U?$pair@$$CBV?$basic_string@DU?$char_traits@D@std@@V?$allocator@D@2@@std@@U?$pair@V?$function@$$A6AXAAVSprite@sf@@M@Z@std@@VTime@sf@@@2@@std@@PAX@std@@@std@@QAEXQAU?$_Tree_node@U?$pair@$$CBV?$basic_string@DU?$char_traits@D@std@@V?$allocator@D@2@@std@@U?$pair@V?$function@$$A6AXAAVSprite@sf@@M@Z@std@@VTime@sf@@@2@@std@@PAX@2@I@Z ; std::allocator<std::_Tree_node<std::pair<std::basic_string<char,std::char_traits<char>,std::allocator<char> > const ,std::pair<std::function<void __cdecl(sf::Sprite &,float)>,sf::Time> >,void *> >::deallocate
PUBLIC	?allocate@?$allocator@U?$_Tree_node@U?$pair@$$CBV?$basic_string@DU?$char_traits@D@std@@V?$allocator@D@2@@std@@U?$pair@V?$function@$$A6AXAAVSprite@sf@@M@Z@std@@VTime@sf@@@2@@std@@PAX@std@@@std@@QAEPAU?$_Tree_node@U?$pair@$$CBV?$basic_string@DU?$char_traits@D@std@@V?$allocator@D@2@@std@@U?$pair@V?$function@$$A6AXAAVSprite@sf@@M@Z@std@@VTime@sf@@@2@@std@@PAX@2@I@Z ; std::allocator<std::_Tree_node<std::pair<std::basic_string<char,std::char_traits<char>,std::allocator<char> > const ,std::pair<std::function<void __cdecl(sf::Sprite &,float)>,sf::Time> >,void *> >::allocate
PUBLIC	?deallocate@?$_Default_allocator_traits@V?$allocator@U?$_Tree_node@U?$pair@$$CBV?$basic_string@DU?$char_traits@D@std@@V?$allocator@D@2@@std@@U?$pair@V?$function@$$A6AXAAVSprite@sf@@M@Z@std@@VTime@sf@@@2@@std@@PAX@std@@@std@@@std@@SAXAAV?$allocator@U?$_Tree_node@U?$pair@$$CBV?$basic_string@DU?$char_traits@D@std@@V?$allocator@D@2@@std@@U?$pair@V?$function@$$A6AXAAVSprite@sf@@M@Z@std@@VTime@sf@@@2@@std@@PAX@std@@@2@QAU?$_Tree_node@U?$pair@$$CBV?$basic_string@DU?$char_traits@D@std@@V?$allocator@D@2@@std@@U?$pair@V?$function@$$A6AXAAVSprite@sf@@M@Z@std@@VTime@sf@@@2@@std@@PAX@2@I@Z ; std::_Default_allocator_traits<std::allocator<std::_Tree_node<std::pair<std::basic_string<char,std::char_traits<char>,std::allocator<char> > const ,std::pair<std::function<void __cdecl(sf::Sprite &,float)>,sf::Time> >,void *> > >::deallocate
PUBLIC	?max_size@?$_Default_allocator_traits@V?$allocator@U?$_Tree_node@U?$pair@$$CBV?$basic_string@DU?$char_traits@D@std@@V?$allocator@D@2@@std@@U?$pair@V?$function@$$A6AXAAVSprite@sf@@M@Z@std@@VTime@sf@@@2@@std@@PAX@std@@@std@@@std@@SAIABV?$allocator@U?$_Tree_node@U?$pair@$$CBV?$basic_string@DU?$char_traits@D@std@@V?$allocator@D@2@@std@@U?$pair@V?$function@$$A6AXAAVSprite@sf@@M@Z@std@@VTime@sf@@@2@@std@@PAX@std@@@2@@Z ; std::_Default_allocator_traits<std::allocator<std::_Tree_node<std::pair<std::basic_string<char,std::char_traits<char>,std::allocator<char> > const ,std::pair<std::function<void __cdecl(sf::Sprite &,float)>,sf::Time> >,void *> > >::max_size
PUBLIC	??0?$_Tree@V?$_Tmap_traits@V?$basic_string@DU?$char_traits@D@std@@V?$allocator@D@2@@std@@U?$pair@V?$function@$$A6AXAAVSprite@sf@@M@Z@std@@VTime@sf@@@2@U?$less@V?$basic_string@DU?$char_traits@D@std@@V?$allocator@D@2@@std@@@2@V?$allocator@U?$pair@$$CBV?$basic_string@DU?$char_traits@D@std@@V?$allocator@D@2@@std@@U?$pair@V?$function@$$A6AXAAVSprite@sf@@M@Z@std@@VTime@sf@@@2@@std@@@2@$0A@@std@@@std@@QAE@ABU?$less@V?$basic_string@DU?$char_traits@D@std@@V?$allocator@D@2@@std@@@1@@Z ; std::_Tree<std::_Tmap_traits<std::basic_string<char,std::char_traits<char>,std::allocator<char> >,std::pair<std::function<void __cdecl(sf::Sprite &,float)>,sf::Time>,std::less<std::basic_string<char,std::char_traits<char>,std::allocator<char> > >,std::allocator<std::pair<std::basic_string<char,std::char_traits<char>,std::allocator<char> > const ,std::pair<std::function<void __cdecl(sf::Sprite &,float)>,sf::Time> > >,0> >::_Tree<std::_Tmap_traits<std::basic_string<char,std::char_traits<char>,std::allocator<char> >,std::pair<std::function<void __cdecl(sf::Sprite &,float)>,sf::Time>,std::less<std::basic_string<char,std::char_traits<char>,std::allocator<char> > >,std::allocator<std::pair<std::basic_string<char,std::char_traits<char>,std::allocator<char> > const ,std::pair<std::function<void __cdecl(sf::Sprite &,float)>,sf::Time> > >,0> >
PUBLIC	??1?$_Tree@V?$_Tmap_traits@V?$basic_string@DU?$char_traits@D@std@@V?$allocator@D@2@@std@@U?$pair@V?$function@$$A6AXAAVSprite@sf@@M@Z@std@@VTime@sf@@@2@U?$less@V?$basic_string@DU?$char_traits@D@std@@V?$allocator@D@2@@std@@@2@V?$allocator@U?$pair@$$CBV?$basic_string@DU?$char_traits@D@std@@V?$allocator@D@2@@std@@U?$pair@V?$function@$$A6AXAAVSprite@sf@@M@Z@std@@VTime@sf@@@2@@std@@@2@$0A@@std@@@std@@QAE@XZ ; std::_Tree<std::_Tmap_traits<std::basic_string<char,std::char_traits<char>,std::allocator<char> >,std::pair<std::function<void __cdecl(sf::Sprite &,float)>,sf::Time>,std::less<std::basic_string<char,std::char_traits<char>,std::allocator<char> > >,std::allocator<std::pair<std::basic_string<char,std::char_traits<char>,std::allocator<char> > const ,std::pair<std::function<void __cdecl(sf::Sprite &,float)>,sf::Time> > >,0> >::~_Tree<std::_Tmap_traits<std::basic_string<char,std::char_traits<char>,std::allocator<char> >,std::pair<std::function<void __cdecl(sf::Sprite &,float)>,sf::Time>,std::less<std::basic_string<char,std::char_traits<char>,std::allocator<char> > >,std::allocator<std::pair<std::basic_string<char,std::char_traits<char>,std::allocator<char> > const ,std::pair<std::function<void __cdecl(sf::Sprite &,float)>,sf::Time> > >,0> >
PUBLIC	?_Copy_assign@?$_Tree@V?$_Tmap_traits@V?$basic_string@DU?$char_traits@D@std@@V?$allocator@D@2@@std@@U?$pair@V?$function@$$A6AXAAVSprite@sf@@M@Z@std@@VTime@sf@@@2@U?$less@V?$basic_string@DU?$char_traits@D@std@@V?$allocator@D@2@@std@@@2@V?$allocator@U?$pair@$$CBV?$basic_string@DU?$char_traits@D@std@@V?$allocator@D@2@@std@@U?$pair@V?$function@$$A6AXAAVSprite@sf@@M@Z@std@@VTime@sf@@@2@@std@@@2@$0A@@std@@@std@@AAEXABV12@U?$integral_constant@_N$0A@@2@@Z ; std::_Tree<std::_Tmap_traits<std::basic_string<char,std::char_traits<char>,std::allocator<char> >,std::pair<std::function<void __cdecl(sf::Sprite &,float)>,sf::Time>,std::less<std::basic_string<char,std::char_traits<char>,std::allocator<char> > >,std::allocator<std::pair<std::basic_string<char,std::char_traits<char>,std::allocator<char> > const ,std::pair<std::function<void __cdecl(sf::Sprite &,float)>,sf::Time> > >,0> >::_Copy_assign
PUBLIC	??4?$_Tree@V?$_Tmap_traits@V?$basic_string@DU?$char_traits@D@std@@V?$allocator@D@2@@std@@U?$pair@V?$function@$$A6AXAAVSprite@sf@@M@Z@std@@VTime@sf@@@2@U?$less@V?$basic_string@DU?$char_traits@D@std@@V?$allocator@D@2@@std@@@2@V?$allocator@U?$pair@$$CBV?$basic_string@DU?$char_traits@D@std@@V?$allocator@D@2@@std@@U?$pair@V?$function@$$A6AXAAVSprite@sf@@M@Z@std@@VTime@sf@@@2@@std@@@2@$0A@@std@@@std@@QAEAAV01@ABV01@@Z ; std::_Tree<std::_Tmap_traits<std::basic_string<char,std::char_traits<char>,std::allocator<char> >,std::pair<std::function<void __cdecl(sf::Sprite &,float)>,sf::Time>,std::less<std::basic_string<char,std::char_traits<char>,std::allocator<char> > >,std::allocator<std::pair<std::basic_string<char,std::char_traits<char>,std::allocator<char> > const ,std::pair<std::function<void __cdecl(sf::Sprite &,float)>,sf::Time> > >,0> >::operator=
PUBLIC	?end@?$_Tree@V?$_Tmap_traits@V?$basic_string@DU?$char_traits@D@std@@V?$allocator@D@2@@std@@U?$pair@V?$function@$$A6AXAAVSprite@sf@@M@Z@std@@VTime@sf@@@2@U?$less@V?$basic_string@DU?$char_traits@D@std@@V?$allocator@D@2@@std@@@2@V?$allocator@U?$pair@$$CBV?$basic_string@DU?$char_traits@D@std@@V?$allocator@D@2@@std@@U?$pair@V?$function@$$A6AXAAVSprite@sf@@M@Z@std@@VTime@sf@@@2@@std@@@2@$0A@@std@@@std@@QAE?AV?$_Tree_iterator@V?$_Tree_val@U?$_Tree_simple_types@U?$pair@$$CBV?$basic_string@DU?$char_traits@D@std@@V?$allocator@D@2@@std@@U?$pair@V?$function@$$A6AXAAVSprite@sf@@M@Z@std@@VTime@sf@@@2@@std@@@std@@@std@@@2@XZ ; std::_Tree<std::_Tmap_traits<std::basic_string<char,std::char_traits<char>,std::allocator<char> >,std::pair<std::function<void __cdecl(sf::Sprite &,float)>,sf::Time>,std::less<std::basic_string<char,std::char_traits<char>,std::allocator<char> > >,std::allocator<std::pair<std::basic_string<char,std::char_traits<char>,std::allocator<char> > const ,std::pair<std::function<void __cdecl(sf::Sprite &,float)>,sf::Time> > >,0> >::end
PUBLIC	?end@?$_Tree@V?$_Tmap_traits@V?$basic_string@DU?$char_traits@D@std@@V?$allocator@D@2@@std@@U?$pair@V?$function@$$A6AXAAVSprite@sf@@M@Z@std@@VTime@sf@@@2@U?$less@V?$basic_string@DU?$char_traits@D@std@@V?$allocator@D@2@@std@@@2@V?$allocator@U?$pair@$$CBV?$basic_string@DU?$char_traits@D@std@@V?$allocator@D@2@@std@@U?$pair@V?$function@$$A6AXAAVSprite@sf@@M@Z@std@@VTime@sf@@@2@@std@@@2@$0A@@std@@@std@@QBE?AV?$_Tree_const_iterator@V?$_Tree_val@U?$_Tree_simple_types@U?$pair@$$CBV?$basic_string@DU?$char_traits@D@std@@V?$allocator@D@2@@std@@U?$pair@V?$function@$$A6AXAAVSprite@sf@@M@Z@std@@VTime@sf@@@2@@std@@@std@@@std@@@2@XZ ; std::_Tree<std::_Tmap_traits<std::basic_string<char,std::char_traits<char>,std::allocator<char> >,std::pair<std::function<void __cdecl(sf::Sprite &,float)>,sf::Time>,std::less<std::basic_string<char,std::char_traits<char>,std::allocator<char> > >,std::allocator<std::pair<std::basic_string<char,std::char_traits<char>,std::allocator<char> > const ,std::pair<std::function<void __cdecl(sf::Sprite &,float)>,sf::Time> > >,0> >::end
PUBLIC	?max_size@?$_Tree@V?$_Tmap_traits@V?$basic_string@DU?$char_traits@D@std@@V?$allocator@D@2@@std@@U?$pair@V?$function@$$A6AXAAVSprite@sf@@M@Z@std@@VTime@sf@@@2@U?$less@V?$basic_string@DU?$char_traits@D@std@@V?$allocator@D@2@@std@@@2@V?$allocator@U?$pair@$$CBV?$basic_string@DU?$char_traits@D@std@@V?$allocator@D@2@@std@@U?$pair@V?$function@$$A6AXAAVSprite@sf@@M@Z@std@@VTime@sf@@@2@@std@@@2@$0A@@std@@@std@@QBEIXZ ; std::_Tree<std::_Tmap_traits<std::basic_string<char,std::char_traits<char>,std::allocator<char> >,std::pair<std::function<void __cdecl(sf::Sprite &,float)>,sf::Time>,std::less<std::basic_string<char,std::char_traits<char>,std::allocator<char> > >,std::allocator<std::pair<std::basic_string<char,std::char_traits<char>,std::allocator<char> > const ,std::pair<std::function<void __cdecl(sf::Sprite &,float)>,sf::Time> > >,0> >::max_size
PUBLIC	?clear@?$_Tree@V?$_Tmap_traits@V?$basic_string@DU?$char_traits@D@std@@V?$allocator@D@2@@std@@U?$pair@V?$function@$$A6AXAAVSprite@sf@@M@Z@std@@VTime@sf@@@2@U?$less@V?$basic_string@DU?$char_traits@D@std@@V?$allocator@D@2@@std@@@2@V?$allocator@U?$pair@$$CBV?$basic_string@DU?$char_traits@D@std@@V?$allocator@D@2@@std@@U?$pair@V?$function@$$A6AXAAVSprite@sf@@M@Z@std@@VTime@sf@@@2@@std@@@2@$0A@@std@@@std@@QAEXXZ ; std::_Tree<std::_Tmap_traits<std::basic_string<char,std::char_traits<char>,std::allocator<char> >,std::pair<std::function<void __cdecl(sf::Sprite &,float)>,sf::Time>,std::less<std::basic_string<char,std::char_traits<char>,std::allocator<char> > >,std::allocator<std::pair<std::basic_string<char,std::char_traits<char>,std::allocator<char> > const ,std::pair<std::function<void __cdecl(sf::Sprite &,float)>,sf::Time> > >,0> >::clear
PUBLIC	?find@?$_Tree@V?$_Tmap_traits@V?$basic_string@DU?$char_traits@D@std@@V?$allocator@D@2@@std@@U?$pair@V?$function@$$A6AXAAVSprite@sf@@M@Z@std@@VTime@sf@@@2@U?$less@V?$basic_string@DU?$char_traits@D@std@@V?$allocator@D@2@@std@@@2@V?$allocator@U?$pair@$$CBV?$basic_string@DU?$char_traits@D@std@@V?$allocator@D@2@@std@@U?$pair@V?$function@$$A6AXAAVSprite@sf@@M@Z@std@@VTime@sf@@@2@@std@@@2@$0A@@std@@@std@@QAE?AV?$_Tree_iterator@V?$_Tree_val@U?$_Tree_simple_types@U?$pair@$$CBV?$basic_string@DU?$char_traits@D@std@@V?$allocator@D@2@@std@@U?$pair@V?$function@$$A6AXAAVSprite@sf@@M@Z@std@@VTime@sf@@@2@@std@@@std@@@std@@@2@ABV?$basic_string@DU?$char_traits@D@std@@V?$allocator@D@2@@2@@Z ; std::_Tree<std::_Tmap_traits<std::basic_string<char,std::char_traits<char>,std::allocator<char> >,std::pair<std::function<void __cdecl(sf::Sprite &,float)>,sf::Time>,std::less<std::basic_string<char,std::char_traits<char>,std::allocator<char> > >,std::allocator<std::pair<std::basic_string<char,std::char_traits<char>,std::allocator<char> > const ,std::pair<std::function<void __cdecl(sf::Sprite &,float)>,sf::Time> > >,0> >::find
PUBLIC	?_Check_grow_by_1@?$_Tree@V?$_Tmap_traits@V?$basic_string@DU?$char_traits@D@std@@V?$allocator@D@2@@std@@U?$pair@V?$function@$$A6AXAAVSprite@sf@@M@Z@std@@VTime@sf@@@2@U?$less@V?$basic_string@DU?$char_traits@D@std@@V?$allocator@D@2@@std@@@2@V?$allocator@U?$pair@$$CBV?$basic_string@DU?$char_traits@D@std@@V?$allocator@D@2@@std@@U?$pair@V?$function@$$A6AXAAVSprite@sf@@M@Z@std@@VTime@sf@@@2@@std@@@2@$0A@@std@@@std@@IAEXXZ ; std::_Tree<std::_Tmap_traits<std::basic_string<char,std::char_traits<char>,std::allocator<char> >,std::pair<std::function<void __cdecl(sf::Sprite &,float)>,sf::Time>,std::less<std::basic_string<char,std::char_traits<char>,std::allocator<char> > >,std::allocator<std::pair<std::basic_string<char,std::char_traits<char>,std::allocator<char> > const ,std::pair<std::function<void __cdecl(sf::Sprite &,float)>,sf::Time> > >,0> >::_Check_grow_by_1
PUBLIC	?_Alloc_sentinel_and_proxy@?$_Tree@V?$_Tmap_traits@V?$basic_string@DU?$char_traits@D@std@@V?$allocator@D@2@@std@@U?$pair@V?$function@$$A6AXAAVSprite@sf@@M@Z@std@@VTime@sf@@@2@U?$less@V?$basic_string@DU?$char_traits@D@std@@V?$allocator@D@2@@std@@@2@V?$allocator@U?$pair@$$CBV?$basic_string@DU?$char_traits@D@std@@V?$allocator@D@2@@std@@U?$pair@V?$function@$$A6AXAAVSprite@sf@@M@Z@std@@VTime@sf@@@2@@std@@@2@$0A@@std@@@std@@IAEXXZ ; std::_Tree<std::_Tmap_traits<std::basic_string<char,std::char_traits<char>,std::allocator<char> >,std::pair<std::function<void __cdecl(sf::Sprite &,float)>,sf::Time>,std::less<std::basic_string<char,std::char_traits<char>,std::allocator<char> > >,std::allocator<std::pair<std::basic_string<char,std::char_traits<char>,std::allocator<char> > const ,std::pair<std::function<void __cdecl(sf::Sprite &,float)>,sf::Time> > >,0> >::_Alloc_sentinel_and_proxy
PUBLIC	?_Getcomp@?$_Tree@V?$_Tmap_traits@V?$basic_string@DU?$char_traits@D@std@@V?$allocator@D@2@@std@@U?$pair@V?$function@$$A6AXAAVSprite@sf@@M@Z@std@@VTime@sf@@@2@U?$less@V?$basic_string@DU?$char_traits@D@std@@V?$allocator@D@2@@std@@@2@V?$allocator@U?$pair@$$CBV?$basic_string@DU?$char_traits@D@std@@V?$allocator@D@2@@std@@U?$pair@V?$function@$$A6AXAAVSprite@sf@@M@Z@std@@VTime@sf@@@2@@std@@@2@$0A@@std@@@std@@IAEAAU?$less@V?$basic_string@DU?$char_traits@D@std@@V?$allocator@D@2@@std@@@2@XZ ; std::_Tree<std::_Tmap_traits<std::basic_string<char,std::char_traits<char>,std::allocator<char> >,std::pair<std::function<void __cdecl(sf::Sprite &,float)>,sf::Time>,std::less<std::basic_string<char,std::char_traits<char>,std::allocator<char> > >,std::allocator<std::pair<std::basic_string<char,std::char_traits<char>,std::allocator<char> > const ,std::pair<std::function<void __cdecl(sf::Sprite &,float)>,sf::Time> > >,0> >::_Getcomp
PUBLIC	?_Getcomp@?$_Tree@V?$_Tmap_traits@V?$basic_string@DU?$char_traits@D@std@@V?$allocator@D@2@@std@@U?$pair@V?$function@$$A6AXAAVSprite@sf@@M@Z@std@@VTime@sf@@@2@U?$less@V?$basic_string@DU?$char_traits@D@std@@V?$allocator@D@2@@std@@@2@V?$allocator@U?$pair@$$CBV?$basic_string@DU?$char_traits@D@std@@V?$allocator@D@2@@std@@U?$pair@V?$function@$$A6AXAAVSprite@sf@@M@Z@std@@VTime@sf@@@2@@std@@@2@$0A@@std@@@std@@IBEABU?$less@V?$basic_string@DU?$char_traits@D@std@@V?$allocator@D@2@@std@@@2@XZ ; std::_Tree<std::_Tmap_traits<std::basic_string<char,std::char_traits<char>,std::allocator<char> >,std::pair<std::function<void __cdecl(sf::Sprite &,float)>,sf::Time>,std::less<std::basic_string<char,std::char_traits<char>,std::allocator<char> > >,std::allocator<std::pair<std::basic_string<char,std::char_traits<char>,std::allocator<char> > const ,std::pair<std::function<void __cdecl(sf::Sprite &,float)>,sf::Time> > >,0> >::_Getcomp
PUBLIC	?_Getal@?$_Tree@V?$_Tmap_traits@V?$basic_string@DU?$char_traits@D@std@@V?$allocator@D@2@@std@@U?$pair@V?$function@$$A6AXAAVSprite@sf@@M@Z@std@@VTime@sf@@@2@U?$less@V?$basic_string@DU?$char_traits@D@std@@V?$allocator@D@2@@std@@@2@V?$allocator@U?$pair@$$CBV?$basic_string@DU?$char_traits@D@std@@V?$allocator@D@2@@std@@U?$pair@V?$function@$$A6AXAAVSprite@sf@@M@Z@std@@VTime@sf@@@2@@std@@@2@$0A@@std@@@std@@IAEAAV?$allocator@U?$_Tree_node@U?$pair@$$CBV?$basic_string@DU?$char_traits@D@std@@V?$allocator@D@2@@std@@U?$pair@V?$function@$$A6AXAAVSprite@sf@@M@Z@std@@VTime@sf@@@2@@std@@PAX@std@@@2@XZ ; std::_Tree<std::_Tmap_traits<std::basic_string<char,std::char_traits<char>,std::allocator<char> >,std::pair<std::function<void __cdecl(sf::Sprite &,float)>,sf::Time>,std::less<std::basic_string<char,std::char_traits<char>,std::allocator<char> > >,std::allocator<std::pair<std::basic_string<char,std::char_traits<char>,std::allocator<char> > const ,std::pair<std::function<void __cdecl(sf::Sprite &,float)>,sf::Time> > >,0> >::_Getal
PUBLIC	?_Getal@?$_Tree@V?$_Tmap_traits@V?$basic_string@DU?$char_traits@D@std@@V?$allocator@D@2@@std@@U?$pair@V?$function@$$A6AXAAVSprite@sf@@M@Z@std@@VTime@sf@@@2@U?$less@V?$basic_string@DU?$char_traits@D@std@@V?$allocator@D@2@@std@@@2@V?$allocator@U?$pair@$$CBV?$basic_string@DU?$char_traits@D@std@@V?$allocator@D@2@@std@@U?$pair@V?$function@$$A6AXAAVSprite@sf@@M@Z@std@@VTime@sf@@@2@@std@@@2@$0A@@std@@@std@@IBEABV?$allocator@U?$_Tree_node@U?$pair@$$CBV?$basic_string@DU?$char_traits@D@std@@V?$allocator@D@2@@std@@U?$pair@V?$function@$$A6AXAAVSprite@sf@@M@Z@std@@VTime@sf@@@2@@std@@PAX@std@@@2@XZ ; std::_Tree<std::_Tmap_traits<std::basic_string<char,std::char_traits<char>,std::allocator<char> >,std::pair<std::function<void __cdecl(sf::Sprite &,float)>,sf::Time>,std::less<std::basic_string<char,std::char_traits<char>,std::allocator<char> > >,std::allocator<std::pair<std::basic_string<char,std::char_traits<char>,std::allocator<char> > const ,std::pair<std::function<void __cdecl(sf::Sprite &,float)>,sf::Time> > >,0> >::_Getal
PUBLIC	?_Get_scary@?$_Tree@V?$_Tmap_traits@V?$basic_string@DU?$char_traits@D@std@@V?$allocator@D@2@@std@@U?$pair@V?$function@$$A6AXAAVSprite@sf@@M@Z@std@@VTime@sf@@@2@U?$less@V?$basic_string@DU?$char_traits@D@std@@V?$allocator@D@2@@std@@@2@V?$allocator@U?$pair@$$CBV?$basic_string@DU?$char_traits@D@std@@V?$allocator@D@2@@std@@U?$pair@V?$function@$$A6AXAAVSprite@sf@@M@Z@std@@VTime@sf@@@2@@std@@@2@$0A@@std@@@std@@IAEPAV?$_Tree_val@U?$_Tree_simple_types@U?$pair@$$CBV?$basic_string@DU?$char_traits@D@std@@V?$allocator@D@2@@std@@U?$pair@V?$function@$$A6AXAAVSprite@sf@@M@Z@std@@VTime@sf@@@2@@std@@@std@@@2@XZ ; std::_Tree<std::_Tmap_traits<std::basic_string<char,std::char_traits<char>,std::allocator<char> >,std::pair<std::function<void __cdecl(sf::Sprite &,float)>,sf::Time>,std::less<std::basic_string<char,std::char_traits<char>,std::allocator<char> > >,std::allocator<std::pair<std::basic_string<char,std::char_traits<char>,std::allocator<char> > const ,std::pair<std::function<void __cdecl(sf::Sprite &,float)>,sf::Time> > >,0> >::_Get_scary
PUBLIC	?_Get_scary@?$_Tree@V?$_Tmap_traits@V?$basic_string@DU?$char_traits@D@std@@V?$allocator@D@2@@std@@U?$pair@V?$function@$$A6AXAAVSprite@sf@@M@Z@std@@VTime@sf@@@2@U?$less@V?$basic_string@DU?$char_traits@D@std@@V?$allocator@D@2@@std@@@2@V?$allocator@U?$pair@$$CBV?$basic_string@DU?$char_traits@D@std@@V?$allocator@D@2@@std@@U?$pair@V?$function@$$A6AXAAVSprite@sf@@M@Z@std@@VTime@sf@@@2@@std@@@2@$0A@@std@@@std@@IBEPBV?$_Tree_val@U?$_Tree_simple_types@U?$pair@$$CBV?$basic_string@DU?$char_traits@D@std@@V?$allocator@D@2@@std@@U?$pair@V?$function@$$A6AXAAVSprite@sf@@M@Z@std@@VTime@sf@@@2@@std@@@std@@@2@XZ ; std::_Tree<std::_Tmap_traits<std::basic_string<char,std::char_traits<char>,std::allocator<char> >,std::pair<std::function<void __cdecl(sf::Sprite &,float)>,sf::Time>,std::less<std::basic_string<char,std::char_traits<char>,std::allocator<char> > >,std::allocator<std::pair<std::basic_string<char,std::char_traits<char>,std::allocator<char> > const ,std::pair<std::function<void __cdecl(sf::Sprite &,float)>,sf::Time> > >,0> >::_Get_scary
PUBLIC	??0?$_Tree_val@U?$_Tree_simple_types@U?$pair@$$CBV?$basic_string@DU?$char_traits@D@std@@V?$allocator@D@2@@std@@U?$pair@V?$function@$$A6AXAAVSprite@sf@@M@Z@std@@VTime@sf@@@2@@std@@@std@@@std@@QAE@XZ ; std::_Tree_val<std::_Tree_simple_types<std::pair<std::basic_string<char,std::char_traits<char>,std::allocator<char> > const ,std::pair<std::function<void __cdecl(sf::Sprite &,float)>,sf::Time> > > >::_Tree_val<std::_Tree_simple_types<std::pair<std::basic_string<char,std::char_traits<char>,std::allocator<char> > const ,std::pair<std::function<void __cdecl(sf::Sprite &,float)>,sf::Time> > > >
PUBLIC	?_Max@?$_Tree_val@U?$_Tree_simple_types@U?$pair@$$CBV?$basic_string@DU?$char_traits@D@std@@V?$allocator@D@2@@std@@U?$pair@V?$function@$$A6AXAAVSprite@sf@@M@Z@std@@VTime@sf@@@2@@std@@@std@@@std@@SAPAU?$_Tree_node@U?$pair@$$CBV?$basic_string@DU?$char_traits@D@std@@V?$allocator@D@2@@std@@U?$pair@V?$function@$$A6AXAAVSprite@sf@@M@Z@std@@VTime@sf@@@2@@std@@PAX@2@PAU32@@Z ; std::_Tree_val<std::_Tree_simple_types<std::pair<std::basic_string<char,std::char_traits<char>,std::allocator<char> > const ,std::pair<std::function<void __cdecl(sf::Sprite &,float)>,sf::Time> > > >::_Max
PUBLIC	?_Min@?$_Tree_val@U?$_Tree_simple_types@U?$pair@$$CBV?$basic_string@DU?$char_traits@D@std@@V?$allocator@D@2@@std@@U?$pair@V?$function@$$A6AXAAVSprite@sf@@M@Z@std@@VTime@sf@@@2@@std@@@std@@@std@@SAPAU?$_Tree_node@U?$pair@$$CBV?$basic_string@DU?$char_traits@D@std@@V?$allocator@D@2@@std@@U?$pair@V?$function@$$A6AXAAVSprite@sf@@M@Z@std@@VTime@sf@@@2@@std@@PAX@2@PAU32@@Z ; std::_Tree_val<std::_Tree_simple_types<std::pair<std::basic_string<char,std::char_traits<char>,std::allocator<char> > const ,std::pair<std::function<void __cdecl(sf::Sprite &,float)>,sf::Time> > > >::_Min
PUBLIC	?_Lrotate@?$_Tree_val@U?$_Tree_simple_types@U?$pair@$$CBV?$basic_string@DU?$char_traits@D@std@@V?$allocator@D@2@@std@@U?$pair@V?$function@$$A6AXAAVSprite@sf@@M@Z@std@@VTime@sf@@@2@@std@@@std@@@std@@QAEXPAU?$_Tree_node@U?$pair@$$CBV?$basic_string@DU?$char_traits@D@std@@V?$allocator@D@2@@std@@U?$pair@V?$function@$$A6AXAAVSprite@sf@@M@Z@std@@VTime@sf@@@2@@std@@PAX@2@@Z ; std::_Tree_val<std::_Tree_simple_types<std::pair<std::basic_string<char,std::char_traits<char>,std::allocator<char> > const ,std::pair<std::function<void __cdecl(sf::Sprite &,float)>,sf::Time> > > >::_Lrotate
PUBLIC	?_Rrotate@?$_Tree_val@U?$_Tree_simple_types@U?$pair@$$CBV?$basic_string@DU?$char_traits@D@std@@V?$allocator@D@2@@std@@U?$pair@V?$function@$$A6AXAAVSprite@sf@@M@Z@std@@VTime@sf@@@2@@std@@@std@@@std@@QAEXPAU?$_Tree_node@U?$pair@$$CBV?$basic_string@DU?$char_traits@D@std@@V?$allocator@D@2@@std@@U?$pair@V?$function@$$A6AXAAVSprite@sf@@M@Z@std@@VTime@sf@@@2@@std@@PAX@2@@Z ; std::_Tree_val<std::_Tree_simple_types<std::pair<std::basic_string<char,std::char_traits<char>,std::allocator<char> > const ,std::pair<std::function<void __cdecl(sf::Sprite &,float)>,sf::Time> > > >::_Rrotate
PUBLIC	?_Insert_node@?$_Tree_val@U?$_Tree_simple_types@U?$pair@$$CBV?$basic_string@DU?$char_traits@D@std@@V?$allocator@D@2@@std@@U?$pair@V?$function@$$A6AXAAVSprite@sf@@M@Z@std@@VTime@sf@@@2@@std@@@std@@@std@@QAEPAU?$_Tree_node@U?$pair@$$CBV?$basic_string@DU?$char_traits@D@std@@V?$allocator@D@2@@std@@U?$pair@V?$function@$$A6AXAAVSprite@sf@@M@Z@std@@VTime@sf@@@2@@std@@PAX@2@U?$_Tree_id@PAU?$_Tree_node@U?$pair@$$CBV?$basic_string@DU?$char_traits@D@std@@V?$allocator@D@2@@std@@U?$pair@V?$function@$$A6AXAAVSprite@sf@@M@Z@std@@VTime@sf@@@2@@std@@PAX@std@@@2@QAU32@@Z ; std::_Tree_val<std::_Tree_simple_types<std::pair<std::basic_string<char,std::char_traits<char>,std::allocator<char> > const ,std::pair<std::function<void __cdecl(sf::Sprite &,float)>,sf::Time> > > >::_Insert_node
PUBLIC	?_Orphan_ptr@?$_Tree_val@U?$_Tree_simple_types@U?$pair@$$CBV?$basic_string@DU?$char_traits@D@std@@V?$allocator@D@2@@std@@U?$pair@V?$function@$$A6AXAAVSprite@sf@@M@Z@std@@VTime@sf@@@2@@std@@@std@@@std@@QAEXQAU?$_Tree_node@U?$pair@$$CBV?$basic_string@DU?$char_traits@D@std@@V?$allocator@D@2@@std@@U?$pair@V?$function@$$A6AXAAVSprite@sf@@M@Z@std@@VTime@sf@@@2@@std@@PAX@2@@Z ; std::_Tree_val<std::_Tree_simple_types<std::pair<std::basic_string<char,std::char_traits<char>,std::allocator<char> > const ,std::pair<std::function<void __cdecl(sf::Sprite &,float)>,sf::Time> > > >::_Orphan_ptr
PUBLIC	?_Get_first@?$_Compressed_pair@V?$allocator@U?$_Tree_node@U?$pair@$$CBV?$basic_string@DU?$char_traits@D@std@@V?$allocator@D@2@@std@@U?$pair@V?$function@$$A6AXAAVSprite@sf@@M@Z@std@@VTime@sf@@@2@@std@@PAX@std@@@std@@V?$_Tree_val@U?$_Tree_simple_types@U?$pair@$$CBV?$basic_string@DU?$char_traits@D@std@@V?$allocator@D@2@@std@@U?$pair@V?$function@$$A6AXAAVSprite@sf@@M@Z@std@@VTime@sf@@@2@@std@@@std@@@2@$00@std@@QAEAAV?$allocator@U?$_Tree_node@U?$pair@$$CBV?$basic_string@DU?$char_traits@D@std@@V?$allocator@D@2@@std@@U?$pair@V?$function@$$A6AXAAVSprite@sf@@M@Z@std@@VTime@sf@@@2@@std@@PAX@std@@@2@XZ ; std::_Compressed_pair<std::allocator<std::_Tree_node<std::pair<std::basic_string<char,std::char_traits<char>,std::allocator<char> > const ,std::pair<std::function<void __cdecl(sf::Sprite &,float)>,sf::Time> >,void *> >,std::_Tree_val<std::_Tree_simple_types<std::pair<std::basic_string<char,std::char_traits<char>,std::allocator<char> > const ,std::pair<std::function<void __cdecl(sf::Sprite &,float)>,sf::Time> > > >,1>::_Get_first
PUBLIC	?_Get_first@?$_Compressed_pair@V?$allocator@U?$_Tree_node@U?$pair@$$CBV?$basic_string@DU?$char_traits@D@std@@V?$allocator@D@2@@std@@U?$pair@V?$function@$$A6AXAAVSprite@sf@@M@Z@std@@VTime@sf@@@2@@std@@PAX@std@@@std@@V?$_Tree_val@U?$_Tree_simple_types@U?$pair@$$CBV?$basic_string@DU?$char_traits@D@std@@V?$allocator@D@2@@std@@U?$pair@V?$function@$$A6AXAAVSprite@sf@@M@Z@std@@VTime@sf@@@2@@std@@@std@@@2@$00@std@@QBEABV?$allocator@U?$_Tree_node@U?$pair@$$CBV?$basic_string@DU?$char_traits@D@std@@V?$allocator@D@2@@std@@U?$pair@V?$function@$$A6AXAAVSprite@sf@@M@Z@std@@VTime@sf@@@2@@std@@PAX@std@@@2@XZ ; std::_Compressed_pair<std::allocator<std::_Tree_node<std::pair<std::basic_string<char,std::char_traits<char>,std::allocator<char> > const ,std::pair<std::function<void __cdecl(sf::Sprite &,float)>,sf::Time> >,void *> >,std::_Tree_val<std::_Tree_simple_types<std::pair<std::basic_string<char,std::char_traits<char>,std::allocator<char> > const ,std::pair<std::function<void __cdecl(sf::Sprite &,float)>,sf::Time> > > >,1>::_Get_first
PUBLIC	?_Get_first@?$_Compressed_pair@U?$less@V?$basic_string@DU?$char_traits@D@std@@V?$allocator@D@2@@std@@@std@@V?$_Compressed_pair@V?$allocator@U?$_Tree_node@U?$pair@$$CBV?$basic_string@DU?$char_traits@D@std@@V?$allocator@D@2@@std@@U?$pair@V?$function@$$A6AXAAVSprite@sf@@M@Z@std@@VTime@sf@@@2@@std@@PAX@std@@@std@@V?$_Tree_val@U?$_Tree_simple_types@U?$pair@$$CBV?$basic_string@DU?$char_traits@D@std@@V?$allocator@D@2@@std@@U?$pair@V?$function@$$A6AXAAVSprite@sf@@M@Z@std@@VTime@sf@@@2@@std@@@std@@@2@$00@2@$00@std@@QAEAAU?$less@V?$basic_string@DU?$char_traits@D@std@@V?$allocator@D@2@@std@@@2@XZ ; std::_Compressed_pair<std::less<std::basic_string<char,std::char_traits<char>,std::allocator<char> > >,std::_Compressed_pair<std::allocator<std::_Tree_node<std::pair<std::basic_string<char,std::char_traits<char>,std::allocator<char> > const ,std::pair<std::function<void __cdecl(sf::Sprite &,float)>,sf::Time> >,void *> >,std::_Tree_val<std::_Tree_simple_types<std::pair<std::basic_string<char,std::char_traits<char>,std::allocator<char> > const ,std::pair<std::function<void __cdecl(sf::Sprite &,float)>,sf::Time> > > >,1>,1>::_Get_first
PUBLIC	?_Get_first@?$_Compressed_pair@U?$less@V?$basic_string@DU?$char_traits@D@std@@V?$allocator@D@2@@std@@@std@@V?$_Compressed_pair@V?$allocator@U?$_Tree_node@U?$pair@$$CBV?$basic_string@DU?$char_traits@D@std@@V?$allocator@D@2@@std@@U?$pair@V?$function@$$A6AXAAVSprite@sf@@M@Z@std@@VTime@sf@@@2@@std@@PAX@std@@@std@@V?$_Tree_val@U?$_Tree_simple_types@U?$pair@$$CBV?$basic_string@DU?$char_traits@D@std@@V?$allocator@D@2@@std@@U?$pair@V?$function@$$A6AXAAVSprite@sf@@M@Z@std@@VTime@sf@@@2@@std@@@std@@@2@$00@2@$00@std@@QBEABU?$less@V?$basic_string@DU?$char_traits@D@std@@V?$allocator@D@2@@std@@@2@XZ ; std::_Compressed_pair<std::less<std::basic_string<char,std::char_traits<char>,std::allocator<char> > >,std::_Compressed_pair<std::allocator<std::_Tree_node<std::pair<std::basic_string<char,std::char_traits<char>,std::allocator<char> > const ,std::pair<std::function<void __cdecl(sf::Sprite &,float)>,sf::Time> >,void *> >,std::_Tree_val<std::_Tree_simple_types<std::pair<std::basic_string<char,std::char_traits<char>,std::allocator<char> > const ,std::pair<std::function<void __cdecl(sf::Sprite &,float)>,sf::Time> > > >,1>,1>::_Get_first
PUBLIC	??0?$map@V?$basic_string@DU?$char_traits@D@std@@V?$allocator@D@2@@std@@U?$pair@V?$function@$$A6AXAAVSprite@sf@@M@Z@std@@VTime@sf@@@2@U?$less@V?$basic_string@DU?$char_traits@D@std@@V?$allocator@D@2@@std@@@2@V?$allocator@U?$pair@$$CBV?$basic_string@DU?$char_traits@D@std@@V?$allocator@D@2@@std@@U?$pair@V?$function@$$A6AXAAVSprite@sf@@M@Z@std@@VTime@sf@@@2@@std@@@2@@std@@QAE@XZ ; std::map<std::basic_string<char,std::char_traits<char>,std::allocator<char> >,std::pair<std::function<void __cdecl(sf::Sprite &,float)>,sf::Time>,std::less<std::basic_string<char,std::char_traits<char>,std::allocator<char> > >,std::allocator<std::pair<std::basic_string<char,std::char_traits<char>,std::allocator<char> > const ,std::pair<std::function<void __cdecl(sf::Sprite &,float)>,sf::Time> > > >::map<std::basic_string<char,std::char_traits<char>,std::allocator<char> >,std::pair<std::function<void __cdecl(sf::Sprite &,float)>,sf::Time>,std::less<std::basic_string<char,std::char_traits<char>,std::allocator<char> > >,std::allocator<std::pair<std::basic_string<char,std::char_traits<char>,std::allocator<char> > const ,std::pair<std::function<void __cdecl(sf::Sprite &,float)>,sf::Time> > > >
PUBLIC	??4?$map@V?$basic_string@DU?$char_traits@D@std@@V?$allocator@D@2@@std@@U?$pair@V?$function@$$A6AXAAVSprite@sf@@M@Z@std@@VTime@sf@@@2@U?$less@V?$basic_string@DU?$char_traits@D@std@@V?$allocator@D@2@@std@@@2@V?$allocator@U?$pair@$$CBV?$basic_string@DU?$char_traits@D@std@@V?$allocator@D@2@@std@@U?$pair@V?$function@$$A6AXAAVSprite@sf@@M@Z@std@@VTime@sf@@@2@@std@@@2@@std@@QAEAAV01@ABV01@@Z ; std::map<std::basic_string<char,std::char_traits<char>,std::allocator<char> >,std::pair<std::function<void __cdecl(sf::Sprite &,float)>,sf::Time>,std::less<std::basic_string<char,std::char_traits<char>,std::allocator<char> > >,std::allocator<std::pair<std::basic_string<char,std::char_traits<char>,std::allocator<char> > const ,std::pair<std::function<void __cdecl(sf::Sprite &,float)>,sf::Time> > > >::operator=
PUBLIC	??1?$map@V?$basic_string@DU?$char_traits@D@std@@V?$allocator@D@2@@std@@U?$pair@V?$function@$$A6AXAAVSprite@sf@@M@Z@std@@VTime@sf@@@2@U?$less@V?$basic_string@DU?$char_traits@D@std@@V?$allocator@D@2@@std@@@2@V?$allocator@U?$pair@$$CBV?$basic_string@DU?$char_traits@D@std@@V?$allocator@D@2@@std@@U?$pair@V?$function@$$A6AXAAVSprite@sf@@M@Z@std@@VTime@sf@@@2@@std@@@2@@std@@QAE@XZ ; std::map<std::basic_string<char,std::char_traits<char>,std::allocator<char> >,std::pair<std::function<void __cdecl(sf::Sprite &,float)>,sf::Time>,std::less<std::basic_string<char,std::char_traits<char>,std::allocator<char> > >,std::allocator<std::pair<std::basic_string<char,std::char_traits<char>,std::allocator<char> > const ,std::pair<std::function<void __cdecl(sf::Sprite &,float)>,sf::Time> > > >::~map<std::basic_string<char,std::char_traits<char>,std::allocator<char> >,std::pair<std::function<void __cdecl(sf::Sprite &,float)>,sf::Time>,std::less<std::basic_string<char,std::char_traits<char>,std::allocator<char> > >,std::allocator<std::pair<std::basic_string<char,std::char_traits<char>,std::allocator<char> > const ,std::pair<std::function<void __cdecl(sf::Sprite &,float)>,sf::Time> > > >
PUBLIC	?playAnimation@?$Animator@VSprite@sf@@V?$basic_string@DU?$char_traits@D@std@@V?$allocator@D@2@@std@@@thor@@AAEXV?$_Tree_iterator@V?$_Tree_val@U?$_Tree_simple_types@U?$pair@$$CBV?$basic_string@DU?$char_traits@D@std@@V?$allocator@D@2@@std@@U?$pair@V?$function@$$A6AXAAVSprite@sf@@M@Z@std@@VTime@sf@@@2@@std@@@std@@@std@@@std@@_N@Z ; thor::Animator<sf::Sprite,std::basic_string<char,std::char_traits<char>,std::allocator<char> > >::playAnimation
PUBLIC	??0?$_Tree_unchecked_const_iterator@V?$_Tree_val@U?$_Tree_simple_types@U?$pair@$$CBV?$basic_string@DU?$char_traits@D@std@@V?$allocator@D@2@@std@@U?$pair@V?$function@$$A6AXAAVSprite@sf@@M@Z@std@@VTime@sf@@@2@@std@@@std@@@std@@U_Iterator_base12@2@@std@@QAE@XZ ; std::_Tree_unchecked_const_iterator<std::_Tree_val<std::_Tree_simple_types<std::pair<std::basic_string<char,std::char_traits<char>,std::allocator<char> > const ,std::pair<std::function<void __cdecl(sf::Sprite &,float)>,sf::Time> > > >,std::_Iterator_base12>::_Tree_unchecked_const_iterator<std::_Tree_val<std::_Tree_simple_types<std::pair<std::basic_string<char,std::char_traits<char>,std::allocator<char> > const ,std::pair<std::function<void __cdecl(sf::Sprite &,float)>,sf::Time> > > >,std::_Iterator_base12>
PUBLIC	??0?$_Tree_unchecked_const_iterator@V?$_Tree_val@U?$_Tree_simple_types@U?$pair@$$CBV?$basic_string@DU?$char_traits@D@std@@V?$allocator@D@2@@std@@U?$pair@V?$function@$$A6AXAAVSprite@sf@@M@Z@std@@VTime@sf@@@2@@std@@@std@@@std@@U_Iterator_base12@2@@std@@QAE@PAU?$_Tree_node@U?$pair@$$CBV?$basic_string@DU?$char_traits@D@std@@V?$allocator@D@2@@std@@U?$pair@V?$function@$$A6AXAAVSprite@sf@@M@Z@std@@VTime@sf@@@2@@std@@PAX@1@PBV?$_Tree_val@U?$_Tree_simple_types@U?$pair@$$CBV?$basic_string@DU?$char_traits@D@std@@V?$allocator@D@2@@std@@U?$pair@V?$function@$$A6AXAAVSprite@sf@@M@Z@std@@VTime@sf@@@2@@std@@@std@@@1@@Z ; std::_Tree_unchecked_const_iterator<std::_Tree_val<std::_Tree_simple_types<std::pair<std::basic_string<char,std::char_traits<char>,std::allocator<char> > const ,std::pair<std::function<void __cdecl(sf::Sprite &,float)>,sf::Time> > > >,std::_Iterator_base12>::_Tree_unchecked_const_iterator<std::_Tree_val<std::_Tree_simple_types<std::pair<std::basic_string<char,std::char_traits<char>,std::allocator<char> > const ,std::pair<std::function<void __cdecl(sf::Sprite &,float)>,sf::Time> > > >,std::_Iterator_base12>
PUBLIC	??1?$_Tree_unchecked_const_iterator@V?$_Tree_val@U?$_Tree_simple_types@U?$pair@$$CBV?$basic_string@DU?$char_traits@D@std@@V?$allocator@D@2@@std@@U?$pair@V?$function@$$A6AXAAVSprite@sf@@M@Z@std@@VTime@sf@@@2@@std@@@std@@@std@@U_Iterator_base12@2@@std@@QAE@XZ ; std::_Tree_unchecked_const_iterator<std::_Tree_val<std::_Tree_simple_types<std::pair<std::basic_string<char,std::char_traits<char>,std::allocator<char> > const ,std::pair<std::function<void __cdecl(sf::Sprite &,float)>,sf::Time> > > >,std::_Iterator_base12>::~_Tree_unchecked_const_iterator<std::_Tree_val<std::_Tree_simple_types<std::pair<std::basic_string<char,std::char_traits<char>,std::allocator<char> > const ,std::pair<std::function<void __cdecl(sf::Sprite &,float)>,sf::Time> > > >,std::_Iterator_base12>
PUBLIC	??0?$_Tree_unchecked_const_iterator@V?$_Tree_val@U?$_Tree_simple_types@U?$pair@$$CBV?$basic_string@DU?$char_traits@D@std@@V?$allocator@D@2@@std@@U?$pair@V?$function@$$A6AXAAVSprite@sf@@M@Z@std@@VTime@sf@@@2@@std@@@std@@@std@@U_Iterator_base12@2@@std@@QAE@ABV01@@Z ; std::_Tree_unchecked_const_iterator<std::_Tree_val<std::_Tree_simple_types<std::pair<std::basic_string<char,std::char_traits<char>,std::allocator<char> > const ,std::pair<std::function<void __cdecl(sf::Sprite &,float)>,sf::Time> > > >,std::_Iterator_base12>::_Tree_unchecked_const_iterator<std::_Tree_val<std::_Tree_simple_types<std::pair<std::basic_string<char,std::char_traits<char>,std::allocator<char> > const ,std::pair<std::function<void __cdecl(sf::Sprite &,float)>,sf::Time> > > >,std::_Iterator_base12>
PUBLIC	??0?$_Tree_unchecked_const_iterator@V?$_Tree_val@U?$_Tree_simple_types@U?$pair@$$CBV?$basic_string@DU?$char_traits@D@std@@V?$allocator@D@2@@std@@U?$pair@V?$function@$$A6AXAAVSprite@sf@@M@Z@std@@VTime@sf@@@2@@std@@@std@@@std@@U_Iterator_base12@2@@std@@QAE@$$QAV01@@Z ; std::_Tree_unchecked_const_iterator<std::_Tree_val<std::_Tree_simple_types<std::pair<std::basic_string<char,std::char_traits<char>,std::allocator<char> > const ,std::pair<std::function<void __cdecl(sf::Sprite &,float)>,sf::Time> > > >,std::_Iterator_base12>::_Tree_unchecked_const_iterator<std::_Tree_val<std::_Tree_simple_types<std::pair<std::basic_string<char,std::char_traits<char>,std::allocator<char> > const ,std::pair<std::function<void __cdecl(sf::Sprite &,float)>,sf::Time> > > >,std::_Iterator_base12>
PUBLIC	??4?$_Tree_unchecked_const_iterator@V?$_Tree_val@U?$_Tree_simple_types@U?$pair@$$CBV?$basic_string@DU?$char_traits@D@std@@V?$allocator@D@2@@std@@U?$pair@V?$function@$$A6AXAAVSprite@sf@@M@Z@std@@VTime@sf@@@2@@std@@@std@@@std@@U_Iterator_base12@2@@std@@QAEAAV01@ABV01@@Z ; std::_Tree_unchecked_const_iterator<std::_Tree_val<std::_Tree_simple_types<std::pair<std::basic_string<char,std::char_traits<char>,std::allocator<char> > const ,std::pair<std::function<void __cdecl(sf::Sprite &,float)>,sf::Time> > > >,std::_Iterator_base12>::operator=
PUBLIC	??4?$_Tree_unchecked_const_iterator@V?$_Tree_val@U?$_Tree_simple_types@U?$pair@$$CBV?$basic_string@DU?$char_traits@D@std@@V?$allocator@D@2@@std@@U?$pair@V?$function@$$A6AXAAVSprite@sf@@M@Z@std@@VTime@sf@@@2@@std@@@std@@@std@@U_Iterator_base12@2@@std@@QAEAAV01@$$QAV01@@Z ; std::_Tree_unchecked_const_iterator<std::_Tree_val<std::_Tree_simple_types<std::pair<std::basic_string<char,std::char_traits<char>,std::allocator<char> > const ,std::pair<std::function<void __cdecl(sf::Sprite &,float)>,sf::Time> > > >,std::_Iterator_base12>::operator=
PUBLIC	??D?$_Tree_const_iterator@V?$_Tree_val@U?$_Tree_simple_types@U?$pair@$$CBV?$basic_string@DU?$char_traits@D@std@@V?$allocator@D@2@@std@@U?$pair@V?$function@$$A6AXAAVSprite@sf@@M@Z@std@@VTime@sf@@@2@@std@@@std@@@std@@@std@@QBEABU?$pair@$$CBV?$basic_string@DU?$char_traits@D@std@@V?$allocator@D@2@@std@@U?$pair@V?$function@$$A6AXAAVSprite@sf@@M@Z@std@@VTime@sf@@@2@@1@XZ ; std::_Tree_const_iterator<std::_Tree_val<std::_Tree_simple_types<std::pair<std::basic_string<char,std::char_traits<char>,std::allocator<char> > const ,std::pair<std::function<void __cdecl(sf::Sprite &,float)>,sf::Time> > > > >::operator*
PUBLIC	??8?$_Tree_const_iterator@V?$_Tree_val@U?$_Tree_simple_types@U?$pair@$$CBV?$basic_string@DU?$char_traits@D@std@@V?$allocator@D@2@@std@@U?$pair@V?$function@$$A6AXAAVSprite@sf@@M@Z@std@@VTime@sf@@@2@@std@@@std@@@std@@@std@@QBE_NABV01@@Z ; std::_Tree_const_iterator<std::_Tree_val<std::_Tree_simple_types<std::pair<std::basic_string<char,std::char_traits<char>,std::allocator<char> > const ,std::pair<std::function<void __cdecl(sf::Sprite &,float)>,sf::Time> > > > >::operator==
PUBLIC	??0?$_Tree_const_iterator@V?$_Tree_val@U?$_Tree_simple_types@U?$pair@$$CBV?$basic_string@DU?$char_traits@D@std@@V?$allocator@D@2@@std@@U?$pair@V?$function@$$A6AXAAVSprite@sf@@M@Z@std@@VTime@sf@@@2@@std@@@std@@@std@@@std@@QAE@XZ ; std::_Tree_const_iterator<std::_Tree_val<std::_Tree_simple_types<std::pair<std::basic_string<char,std::char_traits<char>,std::allocator<char> > const ,std::pair<std::function<void __cdecl(sf::Sprite &,float)>,sf::Time> > > > >::_Tree_const_iterator<std::_Tree_val<std::_Tree_simple_types<std::pair<std::basic_string<char,std::char_traits<char>,std::allocator<char> > const ,std::pair<std::function<void __cdecl(sf::Sprite &,float)>,sf::Time> > > > >
PUBLIC	??1?$_Tree_const_iterator@V?$_Tree_val@U?$_Tree_simple_types@U?$pair@$$CBV?$basic_string@DU?$char_traits@D@std@@V?$allocator@D@2@@std@@U?$pair@V?$function@$$A6AXAAVSprite@sf@@M@Z@std@@VTime@sf@@@2@@std@@@std@@@std@@@std@@QAE@XZ ; std::_Tree_const_iterator<std::_Tree_val<std::_Tree_simple_types<std::pair<std::basic_string<char,std::char_traits<char>,std::allocator<char> > const ,std::pair<std::function<void __cdecl(sf::Sprite &,float)>,sf::Time> > > > >::~_Tree_const_iterator<std::_Tree_val<std::_Tree_simple_types<std::pair<std::basic_string<char,std::char_traits<char>,std::allocator<char> > const ,std::pair<std::function<void __cdecl(sf::Sprite &,float)>,sf::Time> > > > >
PUBLIC	??0?$_Tree_const_iterator@V?$_Tree_val@U?$_Tree_simple_types@U?$pair@$$CBV?$basic_string@DU?$char_traits@D@std@@V?$allocator@D@2@@std@@U?$pair@V?$function@$$A6AXAAVSprite@sf@@M@Z@std@@VTime@sf@@@2@@std@@@std@@@std@@@std@@QAE@ABV01@@Z ; std::_Tree_const_iterator<std::_Tree_val<std::_Tree_simple_types<std::pair<std::basic_string<char,std::char_traits<char>,std::allocator<char> > const ,std::pair<std::function<void __cdecl(sf::Sprite &,float)>,sf::Time> > > > >::_Tree_const_iterator<std::_Tree_val<std::_Tree_simple_types<std::pair<std::basic_string<char,std::char_traits<char>,std::allocator<char> > const ,std::pair<std::function<void __cdecl(sf::Sprite &,float)>,sf::Time> > > > >
PUBLIC	??0?$_Tree_const_iterator@V?$_Tree_val@U?$_Tree_simple_types@U?$pair@$$CBV?$basic_string@DU?$char_traits@D@std@@V?$allocator@D@2@@std@@U?$pair@V?$function@$$A6AXAAVSprite@sf@@M@Z@std@@VTime@sf@@@2@@std@@@std@@@std@@@std@@QAE@$$QAV01@@Z ; std::_Tree_const_iterator<std::_Tree_val<std::_Tree_simple_types<std::pair<std::basic_string<char,std::char_traits<char>,std::allocator<char> > const ,std::pair<std::function<void __cdecl(sf::Sprite &,float)>,sf::Time> > > > >::_Tree_const_iterator<std::_Tree_val<std::_Tree_simple_types<std::pair<std::basic_string<char,std::char_traits<char>,std::allocator<char> > const ,std::pair<std::function<void __cdecl(sf::Sprite &,float)>,sf::Time> > > > >
PUBLIC	??4?$_Tree_const_iterator@V?$_Tree_val@U?$_Tree_simple_types@U?$pair@$$CBV?$basic_string@DU?$char_traits@D@std@@V?$allocator@D@2@@std@@U?$pair@V?$function@$$A6AXAAVSprite@sf@@M@Z@std@@VTime@sf@@@2@@std@@@std@@@std@@@std@@QAEAAV01@ABV01@@Z ; std::_Tree_const_iterator<std::_Tree_val<std::_Tree_simple_types<std::pair<std::basic_string<char,std::char_traits<char>,std::allocator<char> > const ,std::pair<std::function<void __cdecl(sf::Sprite &,float)>,sf::Time> > > > >::operator=
PUBLIC	??4?$_Tree_const_iterator@V?$_Tree_val@U?$_Tree_simple_types@U?$pair@$$CBV?$basic_string@DU?$char_traits@D@std@@V?$allocator@D@2@@std@@U?$pair@V?$function@$$A6AXAAVSprite@sf@@M@Z@std@@VTime@sf@@@2@@std@@@std@@@std@@@std@@QAEAAV01@$$QAV01@@Z ; std::_Tree_const_iterator<std::_Tree_val<std::_Tree_simple_types<std::pair<std::basic_string<char,std::char_traits<char>,std::allocator<char> > const ,std::pair<std::function<void __cdecl(sf::Sprite &,float)>,sf::Time> > > > >::operator=
PUBLIC	??0?$_Tree_const_iterator@V?$_Tree_val@U?$_Tree_simple_types@U?$pair@$$CBV?$basic_string@DU?$char_traits@D@std@@V?$allocator@D@2@@std@@U?$pair@V?$function@$$A6AXAAVSprite@sf@@M@Z@std@@VTime@sf@@@2@@std@@@std@@@std@@@std@@QAE@PAU?$_Tree_node@U?$pair@$$CBV?$basic_string@DU?$char_traits@D@std@@V?$allocator@D@2@@std@@U?$pair@V?$function@$$A6AXAAVSprite@sf@@M@Z@std@@VTime@sf@@@2@@std@@PAX@1@PBV?$_Tree_val@U?$_Tree_simple_types@U?$pair@$$CBV?$basic_string@DU?$char_traits@D@std@@V?$allocator@D@2@@std@@U?$pair@V?$function@$$A6AXAAVSprite@sf@@M@Z@std@@VTime@sf@@@2@@std@@@std@@@1@@Z ; std::_Tree_const_iterator<std::_Tree_val<std::_Tree_simple_types<std::pair<std::basic_string<char,std::char_traits<char>,std::allocator<char> > const ,std::pair<std::function<void __cdecl(sf::Sprite &,float)>,sf::Time> > > > >::_Tree_const_iterator<std::_Tree_val<std::_Tree_simple_types<std::pair<std::basic_string<char,std::char_traits<char>,std::allocator<char> > const ,std::pair<std::function<void __cdecl(sf::Sprite &,float)>,sf::Time> > > > >
PUBLIC	??D?$_Tree_iterator@V?$_Tree_val@U?$_Tree_simple_types@U?$pair@$$CBV?$basic_string@DU?$char_traits@D@std@@V?$allocator@D@2@@std@@U?$pair@V?$function@$$A6AXAAVSprite@sf@@M@Z@std@@VTime@sf@@@2@@std@@@std@@@std@@@std@@QBEAAU?$pair@$$CBV?$basic_string@DU?$char_traits@D@std@@V?$allocator@D@2@@std@@U?$pair@V?$function@$$A6AXAAVSprite@sf@@M@Z@std@@VTime@sf@@@2@@1@XZ ; std::_Tree_iterator<std::_Tree_val<std::_Tree_simple_types<std::pair<std::basic_string<char,std::char_traits<char>,std::allocator<char> > const ,std::pair<std::function<void __cdecl(sf::Sprite &,float)>,sf::Time> > > > >::operator*
PUBLIC	??C?$_Tree_iterator@V?$_Tree_val@U?$_Tree_simple_types@U?$pair@$$CBV?$basic_string@DU?$char_traits@D@std@@V?$allocator@D@2@@std@@U?$pair@V?$function@$$A6AXAAVSprite@sf@@M@Z@std@@VTime@sf@@@2@@std@@@std@@@std@@@std@@QBEPAU?$pair@$$CBV?$basic_string@DU?$char_traits@D@std@@V?$allocator@D@2@@std@@U?$pair@V?$function@$$A6AXAAVSprite@sf@@M@Z@std@@VTime@sf@@@2@@1@XZ ; std::_Tree_iterator<std::_Tree_val<std::_Tree_simple_types<std::pair<std::basic_string<char,std::char_traits<char>,std::allocator<char> > const ,std::pair<std::function<void __cdecl(sf::Sprite &,float)>,sf::Time> > > > >::operator->
PUBLIC	??0?$_Tree_iterator@V?$_Tree_val@U?$_Tree_simple_types@U?$pair@$$CBV?$basic_string@DU?$char_traits@D@std@@V?$allocator@D@2@@std@@U?$pair@V?$function@$$A6AXAAVSprite@sf@@M@Z@std@@VTime@sf@@@2@@std@@@std@@@std@@@std@@QAE@XZ ; std::_Tree_iterator<std::_Tree_val<std::_Tree_simple_types<std::pair<std::basic_string<char,std::char_traits<char>,std::allocator<char> > const ,std::pair<std::function<void __cdecl(sf::Sprite &,float)>,sf::Time> > > > >::_Tree_iterator<std::_Tree_val<std::_Tree_simple_types<std::pair<std::basic_string<char,std::char_traits<char>,std::allocator<char> > const ,std::pair<std::function<void __cdecl(sf::Sprite &,float)>,sf::Time> > > > >
PUBLIC	??1?$_Tree_iterator@V?$_Tree_val@U?$_Tree_simple_types@U?$pair@$$CBV?$basic_string@DU?$char_traits@D@std@@V?$allocator@D@2@@std@@U?$pair@V?$function@$$A6AXAAVSprite@sf@@M@Z@std@@VTime@sf@@@2@@std@@@std@@@std@@@std@@QAE@XZ ; std::_Tree_iterator<std::_Tree_val<std::_Tree_simple_types<std::pair<std::basic_string<char,std::char_traits<char>,std::allocator<char> > const ,std::pair<std::function<void __cdecl(sf::Sprite &,float)>,sf::Time> > > > >::~_Tree_iterator<std::_Tree_val<std::_Tree_simple_types<std::pair<std::basic_string<char,std::char_traits<char>,std::allocator<char> > const ,std::pair<std::function<void __cdecl(sf::Sprite &,float)>,sf::Time> > > > >
PUBLIC	??0?$_Tree_iterator@V?$_Tree_val@U?$_Tree_simple_types@U?$pair@$$CBV?$basic_string@DU?$char_traits@D@std@@V?$allocator@D@2@@std@@U?$pair@V?$function@$$A6AXAAVSprite@sf@@M@Z@std@@VTime@sf@@@2@@std@@@std@@@std@@@std@@QAE@ABV01@@Z ; std::_Tree_iterator<std::_Tree_val<std::_Tree_simple_types<std::pair<std::basic_string<char,std::char_traits<char>,std::allocator<char> > const ,std::pair<std::function<void __cdecl(sf::Sprite &,float)>,sf::Time> > > > >::_Tree_iterator<std::_Tree_val<std::_Tree_simple_types<std::pair<std::basic_string<char,std::char_traits<char>,std::allocator<char> > const ,std::pair<std::function<void __cdecl(sf::Sprite &,float)>,sf::Time> > > > >
PUBLIC	??0?$_Tree_iterator@V?$_Tree_val@U?$_Tree_simple_types@U?$pair@$$CBV?$basic_string@DU?$char_traits@D@std@@V?$allocator@D@2@@std@@U?$pair@V?$function@$$A6AXAAVSprite@sf@@M@Z@std@@VTime@sf@@@2@@std@@@std@@@std@@@std@@QAE@$$QAV01@@Z ; std::_Tree_iterator<std::_Tree_val<std::_Tree_simple_types<std::pair<std::basic_string<char,std::char_traits<char>,std::allocator<char> > const ,std::pair<std::function<void __cdecl(sf::Sprite &,float)>,sf::Time> > > > >::_Tree_iterator<std::_Tree_val<std::_Tree_simple_types<std::pair<std::basic_string<char,std::char_traits<char>,std::allocator<char> > const ,std::pair<std::function<void __cdecl(sf::Sprite &,float)>,sf::Time> > > > >
PUBLIC	??4?$_Tree_iterator@V?$_Tree_val@U?$_Tree_simple_types@U?$pair@$$CBV?$basic_string@DU?$char_traits@D@std@@V?$allocator@D@2@@std@@U?$pair@V?$function@$$A6AXAAVSprite@sf@@M@Z@std@@VTime@sf@@@2@@std@@@std@@@std@@@std@@QAEAAV01@ABV01@@Z ; std::_Tree_iterator<std::_Tree_val<std::_Tree_simple_types<std::pair<std::basic_string<char,std::char_traits<char>,std::allocator<char> > const ,std::pair<std::function<void __cdecl(sf::Sprite &,float)>,sf::Time> > > > >::operator=
PUBLIC	??4?$_Tree_iterator@V?$_Tree_val@U?$_Tree_simple_types@U?$pair@$$CBV?$basic_string@DU?$char_traits@D@std@@V?$allocator@D@2@@std@@U?$pair@V?$function@$$A6AXAAVSprite@sf@@M@Z@std@@VTime@sf@@@2@@std@@@std@@@std@@@std@@QAEAAV01@$$QAV01@@Z ; std::_Tree_iterator<std::_Tree_val<std::_Tree_simple_types<std::pair<std::basic_string<char,std::char_traits<char>,std::allocator<char> > const ,std::pair<std::function<void __cdecl(sf::Sprite &,float)>,sf::Time> > > > >::operator=
PUBLIC	?__autoclassinit2@?$_Tree_iterator@V?$_Tree_val@U?$_Tree_simple_types@U?$pair@$$CBV?$basic_string@DU?$char_traits@D@std@@V?$allocator@D@2@@std@@U?$pair@V?$function@$$A6AXAAVSprite@sf@@M@Z@std@@VTime@sf@@@2@@std@@@std@@@std@@@std@@QAEXI@Z ; std::_Tree_iterator<std::_Tree_val<std::_Tree_simple_types<std::pair<std::basic_string<char,std::char_traits<char>,std::allocator<char> > const ,std::pair<std::function<void __cdecl(sf::Sprite &,float)>,sf::Time> > > > >::__autoclassinit2
PUBLIC	??0?$_Tree_iterator@V?$_Tree_val@U?$_Tree_simple_types@U?$pair@$$CBV?$basic_string@DU?$char_traits@D@std@@V?$allocator@D@2@@std@@U?$pair@V?$function@$$A6AXAAVSprite@sf@@M@Z@std@@VTime@sf@@@2@@std@@@std@@@std@@@std@@QAE@PAU?$_Tree_node@U?$pair@$$CBV?$basic_string@DU?$char_traits@D@std@@V?$allocator@D@2@@std@@U?$pair@V?$function@$$A6AXAAVSprite@sf@@M@Z@std@@VTime@sf@@@2@@std@@PAX@1@PBV?$_Tree_val@U?$_Tree_simple_types@U?$pair@$$CBV?$basic_string@DU?$char_traits@D@std@@V?$allocator@D@2@@std@@U?$pair@V?$function@$$A6AXAAVSprite@sf@@M@Z@std@@VTime@sf@@@2@@std@@@std@@@1@@Z ; std::_Tree_iterator<std::_Tree_val<std::_Tree_simple_types<std::pair<std::basic_string<char,std::char_traits<char>,std::allocator<char> > const ,std::pair<std::function<void __cdecl(sf::Sprite &,float)>,sf::Time> > > > >::_Tree_iterator<std::_Tree_val<std::_Tree_simple_types<std::pair<std::basic_string<char,std::char_traits<char>,std::allocator<char> > const ,std::pair<std::function<void __cdecl(sf::Sprite &,float)>,sf::Time> > > > >
PUBLIC	?__autoclassinit2@?$Animator@VSprite@sf@@V?$basic_string@DU?$char_traits@D@std@@V?$allocator@D@2@@std@@@thor@@QAEXI@Z ; thor::Animator<sf::Sprite,std::basic_string<char,std::char_traits<char>,std::allocator<char> > >::__autoclassinit2
PUBLIC	??_G?$Animator@VSprite@sf@@V?$basic_string@DU?$char_traits@D@std@@V?$allocator@D@2@@std@@@thor@@QAEPAXI@Z ; thor::Animator<sf::Sprite,std::basic_string<char,std::char_traits<char>,std::allocator<char> > >::`scalar deleting destructor'
PUBLIC	??0?$_Func_class@XAAVSprite@sf@@M@std@@QAE@XZ	; std::_Func_class<void,sf::Sprite &,float>::_Func_class<void,sf::Sprite &,float>
PUBLIC	??1?$_Func_class@XAAVSprite@sf@@M@std@@QAE@XZ	; std::_Func_class<void,sf::Sprite &,float>::~_Func_class<void,sf::Sprite &,float>
PUBLIC	?_Empty@?$_Func_class@XAAVSprite@sf@@M@std@@IBE_NXZ ; std::_Func_class<void,sf::Sprite &,float>::_Empty
PUBLIC	?_Reset_copy@?$_Func_class@XAAVSprite@sf@@M@std@@IAEXABV12@@Z ; std::_Func_class<void,sf::Sprite &,float>::_Reset_copy
PUBLIC	?_Reset_move@?$_Func_class@XAAVSprite@sf@@M@std@@IAEX$$QAV12@@Z ; std::_Func_class<void,sf::Sprite &,float>::_Reset_move
PUBLIC	?_Tidy@?$_Func_class@XAAVSprite@sf@@M@std@@IAEXXZ ; std::_Func_class<void,sf::Sprite &,float>::_Tidy
PUBLIC	?_Local@?$_Func_class@XAAVSprite@sf@@M@std@@ABE_NXZ ; std::_Func_class<void,sf::Sprite &,float>::_Local
PUBLIC	?_Getimpl@?$_Func_class@XAAVSprite@sf@@M@std@@ABEPAV?$_Func_base@XAAVSprite@sf@@M@2@XZ ; std::_Func_class<void,sf::Sprite &,float>::_Getimpl
PUBLIC	?_Set@?$_Func_class@XAAVSprite@sf@@M@std@@AAEXPAV?$_Func_base@XAAVSprite@sf@@M@2@@Z ; std::_Func_class<void,sf::Sprite &,float>::_Set
PUBLIC	??0?$function@$$A6AXAAVSprite@sf@@M@Z@std@@QAE@ABV01@@Z ; std::function<void __cdecl(sf::Sprite &,float)>::function<void __cdecl(sf::Sprite &,float)>
PUBLIC	??0?$function@$$A6AXAAVSprite@sf@@M@Z@std@@QAE@$$QAV01@@Z ; std::function<void __cdecl(sf::Sprite &,float)>::function<void __cdecl(sf::Sprite &,float)>
PUBLIC	??1?$function@$$A6AXAAVSprite@sf@@M@Z@std@@QAE@XZ ; std::function<void __cdecl(sf::Sprite &,float)>::~function<void __cdecl(sf::Sprite &,float)>
PUBLIC	??$?RVSprite@sf@@@FrameAnimation@thor@@QBEXAAVSprite@sf@@M@Z ; thor::FrameAnimation::operator()<sf::Sprite>
PUBLIC	??$?0VFrameAnimation@thor@@$0A@@?$function@$$A6AXAAVSprite@sf@@M@Z@std@@QAE@VFrameAnimation@thor@@@Z ; std::function<void __cdecl(sf::Sprite &,float)>::function<void __cdecl(sf::Sprite &,float)><thor::FrameAnimation,0>
PUBLIC	??$min@I@std@@YAABIABI0@Z			; std::min<unsigned int>
PUBLIC	?deallocate@?$allocator@U_Container_proxy@std@@@std@@QAEXQAU_Container_proxy@2@I@Z ; std::allocator<std::_Container_proxy>::deallocate
PUBLIC	?allocate@?$allocator@U_Container_proxy@std@@@std@@QAEPAU_Container_proxy@2@I@Z ; std::allocator<std::_Container_proxy>::allocate
PUBLIC	??$_Delete_plain_internal@V?$allocator@U_Container_proxy@std@@@std@@@std@@YAXAAV?$allocator@U_Container_proxy@std@@@0@QAU_Container_proxy@0@@Z ; std::_Delete_plain_internal<std::allocator<std::_Container_proxy> >
PUBLIC	??0?$_Container_proxy_ptr12@V?$allocator@U_Container_proxy@std@@@std@@@std@@QAE@AAV?$allocator@U_Container_proxy@std@@@1@AAU_Container_base12@1@@Z ; std::_Container_proxy_ptr12<std::allocator<std::_Container_proxy> >::_Container_proxy_ptr12<std::allocator<std::_Container_proxy> >
PUBLIC	??1?$_Container_proxy_ptr12@V?$allocator@U_Container_proxy@std@@@std@@@std@@QAE@XZ ; std::_Container_proxy_ptr12<std::allocator<std::_Container_proxy> >::~_Container_proxy_ptr12<std::allocator<std::_Container_proxy> >
PUBLIC	??$_Alloc_proxy@V?$allocator@U_Container_proxy@std@@@std@@@_Container_base12@std@@QAEX$$QAV?$allocator@U_Container_proxy@std@@@1@@Z ; std::_Container_base12::_Alloc_proxy<std::allocator<std::_Container_proxy> >
PUBLIC	??$_Traits_compare@U?$char_traits@D@std@@@std@@YAHQBDI0I@Z ; std::_Traits_compare<std::char_traits<char> >
PUBLIC	??$?0D@?$allocator@U_Container_proxy@std@@@std@@QAE@ABV?$allocator@D@1@@Z ; std::allocator<std::_Container_proxy>::allocator<std::_Container_proxy><char>
PUBLIC	??$move@AAV?$allocator@D@std@@@std@@YA$$QAV?$allocator@D@0@AAV10@@Z ; std::move<std::allocator<char> &>
PUBLIC	??$?0V?$allocator@D@std@@$$V@?$_Compressed_pair@V?$allocator@D@std@@V?$_String_val@U?$_Simple_types@D@std@@@2@$00@std@@QAE@U_One_then_variadic_args_t@1@$$QAV?$allocator@D@1@@Z ; std::_Compressed_pair<std::allocator<char>,std::_String_val<std::_Simple_types<char> >,1>::_Compressed_pair<std::allocator<char>,std::_String_val<std::_Simple_types<char> >,1><std::allocator<char> >
PUBLIC	??$?0$$V@?$_Compressed_pair@V?$allocator@D@std@@V?$_String_val@U?$_Simple_types@D@std@@@2@$00@std@@QAE@U_Zero_then_variadic_args_t@1@@Z ; std::_Compressed_pair<std::allocator<char>,std::_String_val<std::_Simple_types<char> >,1>::_Compressed_pair<std::allocator<char>,std::_String_val<std::_Simple_types<char> >,1><>
PUBLIC	??$_Unfancy@U_Container_proxy@std@@@std@@YAPAU_Container_proxy@0@PAU10@@Z ; std::_Unfancy<std::_Container_proxy>
PUBLIC	??0?$_Func_base@XAAVSprite@sf@@M@std@@QAE@XZ	; std::_Func_base<void,sf::Sprite &,float>::_Func_base<void,sf::Sprite &,float>
PUBLIC	??$_Destroy_in_place@PAD@std@@YAXAAPAD@Z	; std::_Destroy_in_place<char *>
PUBLIC	??$_Unfancy@D@std@@YAPADPAD@Z			; std::_Unfancy<char>
PUBLIC	??R<lambda_1>@?1??assign@?$basic_string@DU?$char_traits@D@std@@V?$allocator@D@2@@std@@QAEAAV23@QBDI@Z@QBE@QADI0@Z ; `std::basic_string<char,std::char_traits<char>,std::allocator<char> >::assign'::`2'::<lambda_1>::operator()
PUBLIC	??$_Reallocate_for@V<lambda_1>@?1??assign@?$basic_string@DU?$char_traits@D@std@@V?$allocator@D@2@@std@@QAEAAV34@QBDI@Z@PBD@?$basic_string@DU?$char_traits@D@std@@V?$allocator@D@2@@std@@AAEAAV01@IV<lambda_1>@?1??assign@01@QAEAAV01@QBDI@Z@PBD@Z ; std::basic_string<char,std::char_traits<char>,std::allocator<char> >::_Reallocate_for<`std::basic_string<char,std::char_traits<char>,std::allocator<char> >::assign'::`2'::<lambda_1>,char const *>
PUBLIC	??$_Construct_in_place@PADABQAD@std@@YAXAAPADABQAD@Z ; std::_Construct_in_place<char *,char * const &>
PUBLIC	??$_Construct_in_place@PADAAPAD@std@@YAXAAPAD0@Z ; std::_Construct_in_place<char *,char * &>
PUBLIC	??$max@I@std@@YAABIABI0@Z			; std::max<unsigned int>
PUBLIC	??$_Get_size_of_n@$07@std@@YAII@Z		; std::_Get_size_of_n<8>
PUBLIC	??$_Allocate@$07U_Default_allocate_traits@std@@$0A@@std@@YAPAXI@Z ; std::_Allocate<8,std::_Default_allocate_traits,0>
PUBLIC	??$_Deallocate@$07$0A@@std@@YAXPAXI@Z		; std::_Deallocate<8,0>
PUBLIC	??$_Get_size_of_n@$00@std@@YAII@Z		; std::_Get_size_of_n<1>
PUBLIC	??$addressof@V?$_String_val@U?$_Simple_types@D@std@@@std@@@std@@YAPAV?$_String_val@U?$_Simple_types@D@std@@@0@AAV10@@Z ; std::addressof<std::_String_val<std::_Simple_types<char> > >
PUBLIC	??$addressof@$$CBV?$_String_val@U?$_Simple_types@D@std@@@std@@@std@@YAPBV?$_String_val@U?$_Simple_types@D@std@@@0@ABV10@@Z ; std::addressof<std::_String_val<std::_Simple_types<char> > const >
PUBLIC	??$construct_at@DABDX@std@@YAPADQADABD@Z	; std::construct_at<char,char const &,void>
PUBLIC	??$_Voidify_iter@PAD@std@@YAPAXPAD@Z		; std::_Voidify_iter<char *>
PUBLIC	??$forward@ABD@std@@YAABDABD@Z			; std::forward<char const &>
PUBLIC	??$addressof@U_Container_proxy@std@@@std@@YAPAU_Container_proxy@0@AAU10@@Z ; std::addressof<std::_Container_proxy>
PUBLIC	??$forward@PAU_Container_base12@std@@@std@@YA$$QAPAU_Container_base12@0@AAPAU10@@Z ; std::forward<std::_Container_base12 *>
PUBLIC	??$construct_at@U_Container_proxy@std@@PAU_Container_base12@2@X@std@@YAPAU_Container_proxy@0@QAU10@$$QAPAU_Container_base12@0@@Z ; std::construct_at<std::_Container_proxy,std::_Container_base12 *,void>
PUBLIC	??$_Voidify_iter@PAU_Container_proxy@std@@@std@@YAPAXPAU_Container_proxy@0@@Z ; std::_Voidify_iter<std::_Container_proxy *>
PUBLIC	??$adopt@$$CBV?$Animator@VSprite@sf@@V?$basic_string@DU?$char_traits@D@std@@V?$allocator@D@2@@std@@@thor@@@?$Animator@VSprite@sf@@V?$basic_string@DU?$char_traits@D@std@@V?$allocator@D@2@@std@@@thor@@AAEXABV01@@Z ; thor::Animator<sf::Sprite,std::basic_string<char,std::char_traits<char>,std::allocator<char> > >::adopt<thor::Animator<sf::Sprite,std::basic_string<char,std::char_traits<char>,std::allocator<char> > > const >
PUBLIC	??0?$pair@$$CBV?$basic_string@DU?$char_traits@D@std@@V?$allocator@D@2@@std@@U?$pair@V?$function@$$A6AXAAVSprite@sf@@M@Z@std@@VTime@sf@@@2@@std@@QAE@ABU01@@Z ; std::pair<std::basic_string<char,std::char_traits<char>,std::allocator<char> > const ,std::pair<std::function<void __cdecl(sf::Sprite &,float)>,sf::Time> >::pair<std::basic_string<char,std::char_traits<char>,std::allocator<char> > const ,std::pair<std::function<void __cdecl(sf::Sprite &,float)>,sf::Time> >
PUBLIC	??0?$pair@V?$function@$$A6AXAAVSprite@sf@@M@Z@std@@VTime@sf@@@std@@QAE@ABU01@@Z ; std::pair<std::function<void __cdecl(sf::Sprite &,float)>,sf::Time>::pair<std::function<void __cdecl(sf::Sprite &,float)>,sf::Time>
PUBLIC	??0?$pair@V?$function@$$A6AXAAVSprite@sf@@M@Z@std@@VTime@sf@@@std@@QAE@$$QAU01@@Z ; std::pair<std::function<void __cdecl(sf::Sprite &,float)>,sf::Time>::pair<std::function<void __cdecl(sf::Sprite &,float)>,sf::Time>
PUBLIC	??1?$pair@V?$function@$$A6AXAAVSprite@sf@@M@Z@std@@VTime@sf@@@std@@QAE@XZ ; std::pair<std::function<void __cdecl(sf::Sprite &,float)>,sf::Time>::~pair<std::function<void __cdecl(sf::Sprite &,float)>,sf::Time>
PUBLIC	??1?$pair@$$CBV?$basic_string@DU?$char_traits@D@std@@V?$allocator@D@2@@std@@U?$pair@V?$function@$$A6AXAAVSprite@sf@@M@Z@std@@VTime@sf@@@2@@std@@QAE@XZ ; std::pair<std::basic_string<char,std::char_traits<char>,std::allocator<char> > const ,std::pair<std::function<void __cdecl(sf::Sprite &,float)>,sf::Time> >::~pair<std::basic_string<char,std::char_traits<char>,std::allocator<char> > const ,std::pair<std::function<void __cdecl(sf::Sprite &,float)>,sf::Time> >
PUBLIC	??_G?$pair@$$CBV?$basic_string@DU?$char_traits@D@std@@V?$allocator@D@2@@std@@U?$pair@V?$function@$$A6AXAAVSprite@sf@@M@Z@std@@VTime@sf@@@2@@std@@QAEPAXI@Z ; std::pair<std::basic_string<char,std::char_traits<char>,std::allocator<char> > const ,std::pair<std::function<void __cdecl(sf::Sprite &,float)>,sf::Time> >::`scalar deleting destructor'
PUBLIC	??$?0ABV?$function@$$A6AXAAVSprite@sf@@M@Z@std@@AAVTime@sf@@$0A@@?$pair@V?$function@$$A6AXAAVSprite@sf@@M@Z@std@@VTime@sf@@@std@@QAE@ABV?$function@$$A6AXAAVSprite@sf@@M@Z@1@AAVTime@sf@@@Z ; std::pair<std::function<void __cdecl(sf::Sprite &,float)>,sf::Time>::pair<std::function<void __cdecl(sf::Sprite &,float)>,sf::Time><std::function<void __cdecl(sf::Sprite &,float)> const &,sf::Time &,0>
PUBLIC	??$make_pair@ABV?$basic_string@DU?$char_traits@D@std@@V?$allocator@D@2@@std@@U?$pair@V?$function@$$A6AXAAVSprite@sf@@M@Z@std@@VTime@sf@@@2@@std@@YA?AU?$pair@V?$basic_string@DU?$char_traits@D@std@@V?$allocator@D@2@@std@@U?$pair@V?$function@$$A6AXAAVSprite@sf@@M@Z@std@@VTime@sf@@@2@@0@ABV?$basic_string@DU?$char_traits@D@std@@V?$allocator@D@2@@0@$$QAU?$pair@V?$function@$$A6AXAAVSprite@sf@@M@Z@std@@VTime@sf@@@0@@Z ; std::make_pair<std::basic_string<char,std::char_traits<char>,std::allocator<char> > const &,std::pair<std::function<void __cdecl(sf::Sprite &,float)>,sf::Time> >
PUBLIC	??1?$pair@V?$basic_string@DU?$char_traits@D@std@@V?$allocator@D@2@@std@@U?$pair@V?$function@$$A6AXAAVSprite@sf@@M@Z@std@@VTime@sf@@@2@@std@@QAE@XZ ; std::pair<std::basic_string<char,std::char_traits<char>,std::allocator<char> >,std::pair<std::function<void __cdecl(sf::Sprite &,float)>,sf::Time> >::~pair<std::basic_string<char,std::char_traits<char>,std::allocator<char> >,std::pair<std::function<void __cdecl(sf::Sprite &,float)>,sf::Time> >
PUBLIC	??$?0V?$basic_string@DU?$char_traits@D@std@@V?$allocator@D@2@@std@@U?$pair@V?$function@$$A6AXAAVSprite@sf@@M@Z@std@@VTime@sf@@@1@$0A@@?$pair@$$CBV?$basic_string@DU?$char_traits@D@std@@V?$allocator@D@2@@std@@U?$pair@V?$function@$$A6AXAAVSprite@sf@@M@Z@std@@VTime@sf@@@2@@std@@QAE@$$QAU?$pair@V?$basic_string@DU?$char_traits@D@std@@V?$allocator@D@2@@std@@U?$pair@V?$function@$$A6AXAAVSprite@sf@@M@Z@std@@VTime@sf@@@2@@1@@Z ; std::pair<std::basic_string<char,std::char_traits<char>,std::allocator<char> > const ,std::pair<std::function<void __cdecl(sf::Sprite &,float)>,sf::Time> >::pair<std::basic_string<char,std::char_traits<char>,std::allocator<char> > const ,std::pair<std::function<void __cdecl(sf::Sprite &,float)>,sf::Time> ><std::basic_string<char,std::char_traits<char>,std::allocator<char> >,std::pair<std::function<void __cdecl(sf::Sprite &,float)>,sf::Time>,0>
PUBLIC	??$insert@U?$pair@V?$basic_string@DU?$char_traits@D@std@@V?$allocator@D@2@@std@@U?$pair@V?$function@$$A6AXAAVSprite@sf@@M@Z@std@@VTime@sf@@@2@@std@@$0A@@?$map@V?$basic_string@DU?$char_traits@D@std@@V?$allocator@D@2@@std@@U?$pair@V?$function@$$A6AXAAVSprite@sf@@M@Z@std@@VTime@sf@@@2@U?$less@V?$basic_string@DU?$char_traits@D@std@@V?$allocator@D@2@@std@@@2@V?$allocator@U?$pair@$$CBV?$basic_string@DU?$char_traits@D@std@@V?$allocator@D@2@@std@@U?$pair@V?$function@$$A6AXAAVSprite@sf@@M@Z@std@@VTime@sf@@@2@@std@@@2@@std@@QAE?AU?$pair@V?$_Tree_iterator@V?$_Tree_val@U?$_Tree_simple_types@U?$pair@$$CBV?$basic_string@DU?$char_traits@D@std@@V?$allocator@D@2@@std@@U?$pair@V?$function@$$A6AXAAVSprite@sf@@M@Z@std@@VTime@sf@@@2@@std@@@std@@@std@@@std@@_N@1@$$QAU?$pair@V?$basic_string@DU?$char_traits@D@std@@V?$allocator@D@2@@std@@U?$pair@V?$function@$$A6AXAAVSprite@sf@@M@Z@std@@VTime@sf@@@2@@1@@Z ; std::map<std::basic_string<char,std::char_traits<char>,std::allocator<char> >,std::pair<std::function<void __cdecl(sf::Sprite &,float)>,sf::Time>,std::less<std::basic_string<char,std::char_traits<char>,std::allocator<char> > >,std::allocator<std::pair<std::basic_string<char,std::char_traits<char>,std::allocator<char> > const ,std::pair<std::function<void __cdecl(sf::Sprite &,float)>,sf::Time> > > >::insert<std::pair<std::basic_string<char,std::char_traits<char>,std::allocator<char> >,std::pair<std::function<void __cdecl(sf::Sprite &,float)>,sf::Time> >,0>
PUBLIC	??1?$pair@V?$_Tree_iterator@V?$_Tree_val@U?$_Tree_simple_types@U?$pair@$$CBV?$basic_string@DU?$char_traits@D@std@@V?$allocator@D@2@@std@@U?$pair@V?$function@$$A6AXAAVSprite@sf@@M@Z@std@@VTime@sf@@@2@@std@@@std@@@std@@@std@@_N@std@@QAE@XZ ; std::pair<std::_Tree_iterator<std::_Tree_val<std::_Tree_simple_types<std::pair<std::basic_string<char,std::char_traits<char>,std::allocator<char> > const ,std::pair<std::function<void __cdecl(sf::Sprite &,float)>,sf::Time> > > > >,bool>::~pair<std::_Tree_iterator<std::_Tree_val<std::_Tree_simple_types<std::pair<std::basic_string<char,std::char_traits<char>,std::allocator<char> > const ,std::pair<std::function<void __cdecl(sf::Sprite &,float)>,sf::Time> > > > >,bool>
PUBLIC	??$move@AAVFrameAnimation@thor@@@std@@YA$$QAVFrameAnimation@thor@@AAV12@@Z ; std::move<thor::FrameAnimation &>
PUBLIC	??$_Reset@VFrameAnimation@thor@@@?$_Func_class@XAAVSprite@sf@@M@std@@IAEX$$QAVFrameAnimation@thor@@@Z ; std::_Func_class<void,sf::Sprite &,float>::_Reset<thor::FrameAnimation>
PUBLIC	??$_Deallocate_plain@V?$allocator@U_Container_proxy@std@@@std@@@std@@YAXAAV?$allocator@U_Container_proxy@std@@@0@QAU_Container_proxy@0@@Z ; std::_Deallocate_plain<std::allocator<std::_Container_proxy> >
PUBLIC	??$forward@V?$allocator@D@std@@@std@@YA$$QAV?$allocator@D@0@AAV10@@Z ; std::forward<std::allocator<char> >
PUBLIC	??$addressof@PAD@std@@YAPAPADAAPAD@Z		; std::addressof<char *>
PUBLIC	??$forward@ABQAD@std@@YAABQADABQAD@Z		; std::forward<char * const &>
PUBLIC	??$construct_at@PADABQADX@std@@YAPAPADQAPADABQAD@Z ; std::construct_at<char *,char * const &,void>
PUBLIC	??$_Voidify_iter@PAPAD@std@@YAPAXPAPAD@Z	; std::_Voidify_iter<char * *>
PUBLIC	??$forward@AAPAD@std@@YAAAPADAAPAD@Z		; std::forward<char * &>
PUBLIC	??$construct_at@PADAAPADX@std@@YAPAPADQAPADAAPAD@Z ; std::construct_at<char *,char * &,void>
PUBLIC	??$_Allocate_manually_vector_aligned@U_Default_allocate_traits@std@@@std@@YAPAXI@Z ; std::_Allocate_manually_vector_aligned<std::_Default_allocate_traits>
PUBLIC	??$_Find@V?$basic_string@DU?$char_traits@D@std@@V?$allocator@D@2@@std@@@?$_Tree@V?$_Tmap_traits@V?$basic_string@DU?$char_traits@D@std@@V?$allocator@D@2@@std@@U?$pair@V?$function@$$A6AXAAVSprite@sf@@M@Z@std@@VTime@sf@@@2@U?$less@V?$basic_string@DU?$char_traits@D@std@@V?$allocator@D@2@@std@@@2@V?$allocator@U?$pair@$$CBV?$basic_string@DU?$char_traits@D@std@@V?$allocator@D@2@@std@@U?$pair@V?$function@$$A6AXAAVSprite@sf@@M@Z@std@@VTime@sf@@@2@@std@@@2@$0A@@std@@@std@@ABEPAU?$_Tree_node@U?$pair@$$CBV?$basic_string@DU?$char_traits@D@std@@V?$allocator@D@2@@std@@U?$pair@V?$function@$$A6AXAAVSprite@sf@@M@Z@std@@VTime@sf@@@2@@std@@PAX@1@ABV?$basic_string@DU?$char_traits@D@std@@V?$allocator@D@2@@1@@Z ; std::_Tree<std::_Tmap_traits<std::basic_string<char,std::char_traits<char>,std::allocator<char> >,std::pair<std::function<void __cdecl(sf::Sprite &,float)>,sf::Time>,std::less<std::basic_string<char,std::char_traits<char>,std::allocator<char> > >,std::allocator<std::pair<std::basic_string<char,std::char_traits<char>,std::allocator<char> > const ,std::pair<std::function<void __cdecl(sf::Sprite &,float)>,sf::Time> > >,0> >::_Find<std::basic_string<char,std::char_traits<char>,std::allocator<char> > >
PUBLIC	??$_Erase_head@V?$allocator@U?$_Tree_node@U?$pair@$$CBV?$basic_string@DU?$char_traits@D@std@@V?$allocator@D@2@@std@@U?$pair@V?$function@$$A6AXAAVSprite@sf@@M@Z@std@@VTime@sf@@@2@@std@@PAX@std@@@std@@@?$_Tree_val@U?$_Tree_simple_types@U?$pair@$$CBV?$basic_string@DU?$char_traits@D@std@@V?$allocator@D@2@@std@@U?$pair@V?$function@$$A6AXAAVSprite@sf@@M@Z@std@@VTime@sf@@@2@@std@@@std@@@std@@QAEXAAV?$allocator@U?$_Tree_node@U?$pair@$$CBV?$basic_string@DU?$char_traits@D@std@@V?$allocator@D@2@@std@@U?$pair@V?$function@$$A6AXAAVSprite@sf@@M@Z@std@@VTime@sf@@@2@@std@@PAX@std@@@1@@Z ; std::_Tree_val<std::_Tree_simple_types<std::pair<std::basic_string<char,std::char_traits<char>,std::allocator<char> > const ,std::pair<std::function<void __cdecl(sf::Sprite &,float)>,sf::Time> > > >::_Erase_head<std::allocator<std::_Tree_node<std::pair<std::basic_string<char,std::char_traits<char>,std::allocator<char> > const ,std::pair<std::function<void __cdecl(sf::Sprite &,float)>,sf::Time> >,void *> > >
PUBLIC	??$?0U?$_Tree_node@U?$pair@$$CBV?$basic_string@DU?$char_traits@D@std@@V?$allocator@D@2@@std@@U?$pair@V?$function@$$A6AXAAVSprite@sf@@M@Z@std@@VTime@sf@@@2@@std@@PAX@std@@@?$allocator@U_Container_proxy@std@@@std@@QAE@ABV?$allocator@U?$_Tree_node@U?$pair@$$CBV?$basic_string@DU?$char_traits@D@std@@V?$allocator@D@2@@std@@U?$pair@V?$function@$$A6AXAAVSprite@sf@@M@Z@std@@VTime@sf@@@2@@std@@PAX@std@@@1@@Z ; std::allocator<std::_Container_proxy>::allocator<std::_Container_proxy><std::_Tree_node<std::pair<std::basic_string<char,std::char_traits<char>,std::allocator<char> > const ,std::pair<std::function<void __cdecl(sf::Sprite &,float)>,sf::Time> >,void *> >
PUBLIC	??$addressof@V?$_Tree_val@U?$_Tree_simple_types@U?$pair@$$CBV?$basic_string@DU?$char_traits@D@std@@V?$allocator@D@2@@std@@U?$pair@V?$function@$$A6AXAAVSprite@sf@@M@Z@std@@VTime@sf@@@2@@std@@@std@@@std@@@std@@YAPAV?$_Tree_val@U?$_Tree_simple_types@U?$pair@$$CBV?$basic_string@DU?$char_traits@D@std@@V?$allocator@D@2@@std@@U?$pair@V?$function@$$A6AXAAVSprite@sf@@M@Z@std@@VTime@sf@@@2@@std@@@std@@@0@AAV10@@Z ; std::addressof<std::_Tree_val<std::_Tree_simple_types<std::pair<std::basic_string<char,std::char_traits<char>,std::allocator<char> > const ,std::pair<std::function<void __cdecl(sf::Sprite &,float)>,sf::Time> > > > >
PUBLIC	??$?0ABU?$less@V?$basic_string@DU?$char_traits@D@std@@V?$allocator@D@2@@std@@@std@@U_Zero_then_variadic_args_t@1@@?$_Compressed_pair@U?$less@V?$basic_string@DU?$char_traits@D@std@@V?$allocator@D@2@@std@@@std@@V?$_Compressed_pair@V?$allocator@U?$_Tree_node@U?$pair@$$CBV?$basic_string@DU?$char_traits@D@std@@V?$allocator@D@2@@std@@U?$pair@V?$function@$$A6AXAAVSprite@sf@@M@Z@std@@VTime@sf@@@2@@std@@PAX@std@@@std@@V?$_Tree_val@U?$_Tree_simple_types@U?$pair@$$CBV?$basic_string@DU?$char_traits@D@std@@V?$allocator@D@2@@std@@U?$pair@V?$function@$$A6AXAAVSprite@sf@@M@Z@std@@VTime@sf@@@2@@std@@@std@@@2@$00@2@$00@std@@QAE@U_One_then_variadic_args_t@1@ABU?$less@V?$basic_string@DU?$char_traits@D@std@@V?$allocator@D@2@@std@@@1@$$QAU_Zero_then_variadic_args_t@1@@Z ; std::_Compressed_pair<std::less<std::basic_string<char,std::char_traits<char>,std::allocator<char> > >,std::_Compressed_pair<std::allocator<std::_Tree_node<std::pair<std::basic_string<char,std::char_traits<char>,std::allocator<char> > const ,std::pair<std::function<void __cdecl(sf::Sprite &,float)>,sf::Time> >,void *> >,std::_Tree_val<std::_Tree_simple_types<std::pair<std::basic_string<char,std::char_traits<char>,std::allocator<char> > const ,std::pair<std::function<void __cdecl(sf::Sprite &,float)>,sf::Time> > > >,1>,1>::_Compressed_pair<std::less<std::basic_string<char,std::char_traits<char>,std::allocator<char> > >,std::_Compressed_pair<std::allocator<std::_Tree_node<std::pair<std::basic_string<char,std::char_traits<char>,std::allocator<char> > const ,std::pair<std::function<void __cdecl(sf::Sprite &,float)>,sf::Time> >,void *> >,std::_Tree_val<std::_Tree_simple_types<std::pair<std::basic_string<char,std::char_traits<char>,std::allocator<char> > const ,std::pair<std::function<void __cdecl(sf::Sprite &,float)>,sf::Time> > > >,1>,1><std::less<std::basic_string<char,std::char_traits<char>,std::allocator<char> > > const &,std::_Zero_then_variadic_args_t>
PUBLIC	??$?0$$V@?$_Compressed_pair@V?$allocator@U?$_Tree_node@U?$pair@$$CBV?$basic_string@DU?$char_traits@D@std@@V?$allocator@D@2@@std@@U?$pair@V?$function@$$A6AXAAVSprite@sf@@M@Z@std@@VTime@sf@@@2@@std@@PAX@std@@@std@@V?$_Tree_val@U?$_Tree_simple_types@U?$pair@$$CBV?$basic_string@DU?$char_traits@D@std@@V?$allocator@D@2@@std@@U?$pair@V?$function@$$A6AXAAVSprite@sf@@M@Z@std@@VTime@sf@@@2@@std@@@std@@@2@$00@std@@QAE@U_Zero_then_variadic_args_t@1@@Z ; std::_Compressed_pair<std::allocator<std::_Tree_node<std::pair<std::basic_string<char,std::char_traits<char>,std::allocator<char> > const ,std::pair<std::function<void __cdecl(sf::Sprite &,float)>,sf::Time> >,void *> >,std::_Tree_val<std::_Tree_simple_types<std::pair<std::basic_string<char,std::char_traits<char>,std::allocator<char> > const ,std::pair<std::function<void __cdecl(sf::Sprite &,float)>,sf::Time> > > >,1>::_Compressed_pair<std::allocator<std::_Tree_node<std::pair<std::basic_string<char,std::char_traits<char>,std::allocator<char> > const ,std::pair<std::function<void __cdecl(sf::Sprite &,float)>,sf::Time> >,void *> >,std::_Tree_val<std::_Tree_simple_types<std::pair<std::basic_string<char,std::char_traits<char>,std::allocator<char> > const ,std::pair<std::function<void __cdecl(sf::Sprite &,float)>,sf::Time> > > >,1><>
PUBLIC	??$_Buyheadnode@V?$allocator@U?$_Tree_node@U?$pair@$$CBV?$basic_string@DU?$char_traits@D@std@@V?$allocator@D@2@@std@@U?$pair@V?$function@$$A6AXAAVSprite@sf@@M@Z@std@@VTime@sf@@@2@@std@@PAX@std@@@std@@@?$_Tree_node@U?$pair@$$CBV?$basic_string@DU?$char_traits@D@std@@V?$allocator@D@2@@std@@U?$pair@V?$function@$$A6AXAAVSprite@sf@@M@Z@std@@VTime@sf@@@2@@std@@PAX@std@@SAPAU01@AAV?$allocator@U?$_Tree_node@U?$pair@$$CBV?$basic_string@DU?$char_traits@D@std@@V?$allocator@D@2@@std@@U?$pair@V?$function@$$A6AXAAVSprite@sf@@M@Z@std@@VTime@sf@@@2@@std@@PAX@std@@@1@@Z ; std::_Tree_node<std::pair<std::basic_string<char,std::char_traits<char>,std::allocator<char> > const ,std::pair<std::function<void __cdecl(sf::Sprite &,float)>,sf::Time> >,void *>::_Buyheadnode<std::allocator<std::_Tree_node<std::pair<std::basic_string<char,std::char_traits<char>,std::allocator<char> > const ,std::pair<std::function<void __cdecl(sf::Sprite &,float)>,sf::Time> >,void *> > >
PUBLIC	??$move@ABV?$map@V?$basic_string@DU?$char_traits@D@std@@V?$allocator@D@2@@std@@U?$pair@V?$function@$$A6AXAAVSprite@sf@@M@Z@std@@VTime@sf@@@2@U?$less@V?$basic_string@DU?$char_traits@D@std@@V?$allocator@D@2@@std@@@2@V?$allocator@U?$pair@$$CBV?$basic_string@DU?$char_traits@D@std@@V?$allocator@D@2@@std@@U?$pair@V?$function@$$A6AXAAVSprite@sf@@M@Z@std@@VTime@sf@@@2@@std@@@2@@std@@@std@@YA$$QBV?$map@V?$basic_string@DU?$char_traits@D@std@@V?$allocator@D@2@@std@@U?$pair@V?$function@$$A6AXAAVSprite@sf@@M@Z@std@@VTime@sf@@@2@U?$less@V?$basic_string@DU?$char_traits@D@std@@V?$allocator@D@2@@std@@@2@V?$allocator@U?$pair@$$CBV?$basic_string@DU?$char_traits@D@std@@V?$allocator@D@2@@std@@U?$pair@V?$function@$$A6AXAAVSprite@sf@@M@Z@std@@VTime@sf@@@2@@std@@@2@@0@ABV10@@Z ; std::move<std::map<std::basic_string<char,std::char_traits<char>,std::allocator<char> >,std::pair<std::function<void __cdecl(sf::Sprite &,float)>,sf::Time>,std::less<std::basic_string<char,std::char_traits<char>,std::allocator<char> > >,std::allocator<std::pair<std::basic_string<char,std::char_traits<char>,std::allocator<char> > const ,std::pair<std::function<void __cdecl(sf::Sprite &,float)>,sf::Time> > > > const &>
PUBLIC	??$forward@ABV?$function@$$A6AXAAVSprite@sf@@M@Z@std@@@std@@YAABV?$function@$$A6AXAAVSprite@sf@@M@Z@0@ABV10@@Z ; std::forward<std::function<void __cdecl(sf::Sprite &,float)> const &>
PUBLIC	??$forward@AAVTime@sf@@@std@@YAAAVTime@sf@@AAV12@@Z ; std::forward<sf::Time &>
PUBLIC	??$forward@ABV?$basic_string@DU?$char_traits@D@std@@V?$allocator@D@2@@std@@@std@@YAABV?$basic_string@DU?$char_traits@D@std@@V?$allocator@D@2@@0@ABV10@@Z ; std::forward<std::basic_string<char,std::char_traits<char>,std::allocator<char> > const &>
PUBLIC	??$forward@U?$pair@V?$function@$$A6AXAAVSprite@sf@@M@Z@std@@VTime@sf@@@std@@@std@@YA$$QAU?$pair@V?$function@$$A6AXAAVSprite@sf@@M@Z@std@@VTime@sf@@@0@AAU10@@Z ; std::forward<std::pair<std::function<void __cdecl(sf::Sprite &,float)>,sf::Time> >
PUBLIC	??$?0ABV?$basic_string@DU?$char_traits@D@std@@V?$allocator@D@2@@std@@U?$pair@V?$function@$$A6AXAAVSprite@sf@@M@Z@std@@VTime@sf@@@1@$0A@@?$pair@V?$basic_string@DU?$char_traits@D@std@@V?$allocator@D@2@@std@@U?$pair@V?$function@$$A6AXAAVSprite@sf@@M@Z@std@@VTime@sf@@@2@@std@@QAE@ABV?$basic_string@DU?$char_traits@D@std@@V?$allocator@D@2@@1@$$QAU?$pair@V?$function@$$A6AXAAVSprite@sf@@M@Z@std@@VTime@sf@@@1@@Z ; std::pair<std::basic_string<char,std::char_traits<char>,std::allocator<char> >,std::pair<std::function<void __cdecl(sf::Sprite &,float)>,sf::Time> >::pair<std::basic_string<char,std::char_traits<char>,std::allocator<char> >,std::pair<std::function<void __cdecl(sf::Sprite &,float)>,sf::Time> ><std::basic_string<char,std::char_traits<char>,std::allocator<char> > const &,std::pair<std::function<void __cdecl(sf::Sprite &,float)>,sf::Time>,0>
PUBLIC	??$forward@U?$pair@V?$basic_string@DU?$char_traits@D@std@@V?$allocator@D@2@@std@@U?$pair@V?$function@$$A6AXAAVSprite@sf@@M@Z@std@@VTime@sf@@@2@@std@@@std@@YA$$QAU?$pair@V?$basic_string@DU?$char_traits@D@std@@V?$allocator@D@2@@std@@U?$pair@V?$function@$$A6AXAAVSprite@sf@@M@Z@std@@VTime@sf@@@2@@0@AAU10@@Z ; std::forward<std::pair<std::basic_string<char,std::char_traits<char>,std::allocator<char> >,std::pair<std::function<void __cdecl(sf::Sprite &,float)>,sf::Time> > >
PUBLIC	??$emplace@U?$pair@V?$basic_string@DU?$char_traits@D@std@@V?$allocator@D@2@@std@@U?$pair@V?$function@$$A6AXAAVSprite@sf@@M@Z@std@@VTime@sf@@@2@@std@@@?$_Tree@V?$_Tmap_traits@V?$basic_string@DU?$char_traits@D@std@@V?$allocator@D@2@@std@@U?$pair@V?$function@$$A6AXAAVSprite@sf@@M@Z@std@@VTime@sf@@@2@U?$less@V?$basic_string@DU?$char_traits@D@std@@V?$allocator@D@2@@std@@@2@V?$allocator@U?$pair@$$CBV?$basic_string@DU?$char_traits@D@std@@V?$allocator@D@2@@std@@U?$pair@V?$function@$$A6AXAAVSprite@sf@@M@Z@std@@VTime@sf@@@2@@std@@@2@$0A@@std@@@std@@QAE?AU?$pair@V?$_Tree_iterator@V?$_Tree_val@U?$_Tree_simple_types@U?$pair@$$CBV?$basic_string@DU?$char_traits@D@std@@V?$allocator@D@2@@std@@U?$pair@V?$function@$$A6AXAAVSprite@sf@@M@Z@std@@VTime@sf@@@2@@std@@@std@@@std@@@std@@_N@1@$$QAU?$pair@V?$basic_string@DU?$char_traits@D@std@@V?$allocator@D@2@@std@@U?$pair@V?$function@$$A6AXAAVSprite@sf@@M@Z@std@@VTime@sf@@@2@@1@@Z ; std::_Tree<std::_Tmap_traits<std::basic_string<char,std::char_traits<char>,std::allocator<char> >,std::pair<std::function<void __cdecl(sf::Sprite &,float)>,sf::Time>,std::less<std::basic_string<char,std::char_traits<char>,std::allocator<char> > >,std::allocator<std::pair<std::basic_string<char,std::char_traits<char>,std::allocator<char> > const ,std::pair<std::function<void __cdecl(sf::Sprite &,float)>,sf::Time> > >,0> >::emplace<std::pair<std::basic_string<char,std::char_traits<char>,std::allocator<char> >,std::pair<std::function<void __cdecl(sf::Sprite &,float)>,sf::Time> > >
PUBLIC	??$_Test_callable@VFrameAnimation@thor@@@std@@YA_NABVFrameAnimation@thor@@@Z ; std::_Test_callable<thor::FrameAnimation>
PUBLIC	?_Copy@?$_Func_impl_no_alloc@VFrameAnimation@thor@@XAAVSprite@sf@@M@std@@EBEPAV?$_Func_base@XAAVSprite@sf@@M@2@PAX@Z ; std::_Func_impl_no_alloc<thor::FrameAnimation,void,sf::Sprite &,float>::_Copy
PUBLIC	?_Move@?$_Func_impl_no_alloc@VFrameAnimation@thor@@XAAVSprite@sf@@M@std@@EAEPAV?$_Func_base@XAAVSprite@sf@@M@2@PAX@Z ; std::_Func_impl_no_alloc<thor::FrameAnimation,void,sf::Sprite &,float>::_Move
PUBLIC	?_Do_call@?$_Func_impl_no_alloc@VFrameAnimation@thor@@XAAVSprite@sf@@M@std@@EAEXAAVSprite@sf@@$$QAM@Z ; std::_Func_impl_no_alloc<thor::FrameAnimation,void,sf::Sprite &,float>::_Do_call
PUBLIC	?_Target_type@?$_Func_impl_no_alloc@VFrameAnimation@thor@@XAAVSprite@sf@@M@std@@EBEABVtype_info@@XZ ; std::_Func_impl_no_alloc<thor::FrameAnimation,void,sf::Sprite &,float>::_Target_type
PUBLIC	?_Get@?$_Func_impl_no_alloc@VFrameAnimation@thor@@XAAVSprite@sf@@M@std@@EBEPBXXZ ; std::_Func_impl_no_alloc<thor::FrameAnimation,void,sf::Sprite &,float>::_Get
PUBLIC	?_Delete_this@?$_Func_impl_no_alloc@VFrameAnimation@thor@@XAAVSprite@sf@@M@std@@EAEX_N@Z ; std::_Func_impl_no_alloc<thor::FrameAnimation,void,sf::Sprite &,float>::_Delete_this
PUBLIC	??1?$_Func_impl_no_alloc@VFrameAnimation@thor@@XAAVSprite@sf@@M@std@@QAE@XZ ; std::_Func_impl_no_alloc<thor::FrameAnimation,void,sf::Sprite &,float>::~_Func_impl_no_alloc<thor::FrameAnimation,void,sf::Sprite &,float>
PUBLIC	??_G?$_Func_impl_no_alloc@VFrameAnimation@thor@@XAAVSprite@sf@@M@std@@QAEPAXI@Z ; std::_Func_impl_no_alloc<thor::FrameAnimation,void,sf::Sprite &,float>::`scalar deleting destructor'
PUBLIC	??$forward@VFrameAnimation@thor@@@std@@YA$$QAVFrameAnimation@thor@@AAV12@@Z ; std::forward<thor::FrameAnimation>
PUBLIC	??$?0VFrameAnimation@thor@@$0A@@?$_Func_impl_no_alloc@VFrameAnimation@thor@@XAAVSprite@sf@@M@std@@QAE@$$QAVFrameAnimation@thor@@@Z ; std::_Func_impl_no_alloc<thor::FrameAnimation,void,sf::Sprite &,float>::_Func_impl_no_alloc<thor::FrameAnimation,void,sf::Sprite &,float><thor::FrameAnimation,0>
PUBLIC	?deallocate@?$_Default_allocator_traits@V?$allocator@U_Container_proxy@std@@@std@@@std@@SAXAAV?$allocator@U_Container_proxy@std@@@2@QAU_Container_proxy@2@I@Z ; std::_Default_allocator_traits<std::allocator<std::_Container_proxy> >::deallocate
PUBLIC	??$_Find_lower_bound@V?$basic_string@DU?$char_traits@D@std@@V?$allocator@D@2@@std@@@?$_Tree@V?$_Tmap_traits@V?$basic_string@DU?$char_traits@D@std@@V?$allocator@D@2@@std@@U?$pair@V?$function@$$A6AXAAVSprite@sf@@M@Z@std@@VTime@sf@@@2@U?$less@V?$basic_string@DU?$char_traits@D@std@@V?$allocator@D@2@@std@@@2@V?$allocator@U?$pair@$$CBV?$basic_string@DU?$char_traits@D@std@@V?$allocator@D@2@@std@@U?$pair@V?$function@$$A6AXAAVSprite@sf@@M@Z@std@@VTime@sf@@@2@@std@@@2@$0A@@std@@@std@@IBE?AU?$_Tree_find_result@PAU?$_Tree_node@U?$pair@$$CBV?$basic_string@DU?$char_traits@D@std@@V?$allocator@D@2@@std@@U?$pair@V?$function@$$A6AXAAVSprite@sf@@M@Z@std@@VTime@sf@@@2@@std@@PAX@std@@@1@ABV?$basic_string@DU?$char_traits@D@std@@V?$allocator@D@2@@1@@Z ; std::_Tree<std::_Tmap_traits<std::basic_string<char,std::char_traits<char>,std::allocator<char> >,std::pair<std::function<void __cdecl(sf::Sprite &,float)>,sf::Time>,std::less<std::basic_string<char,std::char_traits<char>,std::allocator<char> > >,std::allocator<std::pair<std::basic_string<char,std::char_traits<char>,std::allocator<char> > const ,std::pair<std::function<void __cdecl(sf::Sprite &,float)>,sf::Time> > >,0> >::_Find_lower_bound<std::basic_string<char,std::char_traits<char>,std::allocator<char> > >
PUBLIC	??$_Lower_bound_duplicate@V?$basic_string@DU?$char_traits@D@std@@V?$allocator@D@2@@std@@@?$_Tree@V?$_Tmap_traits@V?$basic_string@DU?$char_traits@D@std@@V?$allocator@D@2@@std@@U?$pair@V?$function@$$A6AXAAVSprite@sf@@M@Z@std@@VTime@sf@@@2@U?$less@V?$basic_string@DU?$char_traits@D@std@@V?$allocator@D@2@@std@@@2@V?$allocator@U?$pair@$$CBV?$basic_string@DU?$char_traits@D@std@@V?$allocator@D@2@@std@@U?$pair@V?$function@$$A6AXAAVSprite@sf@@M@Z@std@@VTime@sf@@@2@@std@@@2@$0A@@std@@@std@@IBE_NQAU?$_Tree_node@U?$pair@$$CBV?$basic_string@DU?$char_traits@D@std@@V?$allocator@D@2@@std@@U?$pair@V?$function@$$A6AXAAVSprite@sf@@M@Z@std@@VTime@sf@@@2@@std@@PAX@1@ABV?$basic_string@DU?$char_traits@D@std@@V?$allocator@D@2@@1@@Z ; std::_Tree<std::_Tmap_traits<std::basic_string<char,std::char_traits<char>,std::allocator<char> >,std::pair<std::function<void __cdecl(sf::Sprite &,float)>,sf::Time>,std::less<std::basic_string<char,std::char_traits<char>,std::allocator<char> > >,std::allocator<std::pair<std::basic_string<char,std::char_traits<char>,std::allocator<char> > const ,std::pair<std::function<void __cdecl(sf::Sprite &,float)>,sf::Time> > >,0> >::_Lower_bound_duplicate<std::basic_string<char,std::char_traits<char>,std::allocator<char> > >
PUBLIC	??$_Erase_tree@V?$allocator@U?$_Tree_node@U?$pair@$$CBV?$basic_string@DU?$char_traits@D@std@@V?$allocator@D@2@@std@@U?$pair@V?$function@$$A6AXAAVSprite@sf@@M@Z@std@@VTime@sf@@@2@@std@@PAX@std@@@std@@@?$_Tree_val@U?$_Tree_simple_types@U?$pair@$$CBV?$basic_string@DU?$char_traits@D@std@@V?$allocator@D@2@@std@@U?$pair@V?$function@$$A6AXAAVSprite@sf@@M@Z@std@@VTime@sf@@@2@@std@@@std@@@std@@QAEXAAV?$allocator@U?$_Tree_node@U?$pair@$$CBV?$basic_string@DU?$char_traits@D@std@@V?$allocator@D@2@@std@@U?$pair@V?$function@$$A6AXAAVSprite@sf@@M@Z@std@@VTime@sf@@@2@@std@@PAX@std@@@1@PAU?$_Tree_node@U?$pair@$$CBV?$basic_string@DU?$char_traits@D@std@@V?$allocator@D@2@@std@@U?$pair@V?$function@$$A6AXAAVSprite@sf@@M@Z@std@@VTime@sf@@@2@@std@@PAX@1@@Z ; std::_Tree_val<std::_Tree_simple_types<std::pair<std::basic_string<char,std::char_traits<char>,std::allocator<char> > const ,std::pair<std::function<void __cdecl(sf::Sprite &,float)>,sf::Time> > > >::_Erase_tree<std::allocator<std::_Tree_node<std::pair<std::basic_string<char,std::char_traits<char>,std::allocator<char> > const ,std::pair<std::function<void __cdecl(sf::Sprite &,float)>,sf::Time> >,void *> > >
PUBLIC	??$_Freenode0@V?$allocator@U?$_Tree_node@U?$pair@$$CBV?$basic_string@DU?$char_traits@D@std@@V?$allocator@D@2@@std@@U?$pair@V?$function@$$A6AXAAVSprite@sf@@M@Z@std@@VTime@sf@@@2@@std@@PAX@std@@@std@@@?$_Tree_node@U?$pair@$$CBV?$basic_string@DU?$char_traits@D@std@@V?$allocator@D@2@@std@@U?$pair@V?$function@$$A6AXAAVSprite@sf@@M@Z@std@@VTime@sf@@@2@@std@@PAX@std@@SAXAAV?$allocator@U?$_Tree_node@U?$pair@$$CBV?$basic_string@DU?$char_traits@D@std@@V?$allocator@D@2@@std@@U?$pair@V?$function@$$A6AXAAVSprite@sf@@M@Z@std@@VTime@sf@@@2@@std@@PAX@std@@@1@PAU01@@Z ; std::_Tree_node<std::pair<std::basic_string<char,std::char_traits<char>,std::allocator<char> > const ,std::pair<std::function<void __cdecl(sf::Sprite &,float)>,sf::Time> >,void *>::_Freenode0<std::allocator<std::_Tree_node<std::pair<std::basic_string<char,std::char_traits<char>,std::allocator<char> > const ,std::pair<std::function<void __cdecl(sf::Sprite &,float)>,sf::Time> >,void *> > >
PUBLIC	??$forward@ABU?$less@V?$basic_string@DU?$char_traits@D@std@@V?$allocator@D@2@@std@@@std@@@std@@YAABU?$less@V?$basic_string@DU?$char_traits@D@std@@V?$allocator@D@2@@std@@@0@ABU10@@Z ; std::forward<std::less<std::basic_string<char,std::char_traits<char>,std::allocator<char> > > const &>
PUBLIC	??$forward@U_Zero_then_variadic_args_t@std@@@std@@YA$$QAU_Zero_then_variadic_args_t@0@AAU10@@Z ; std::forward<std::_Zero_then_variadic_args_t>
PUBLIC	??$_Construct_in_place@PAU?$_Tree_node@U?$pair@$$CBV?$basic_string@DU?$char_traits@D@std@@V?$allocator@D@2@@std@@U?$pair@V?$function@$$A6AXAAVSprite@sf@@M@Z@std@@VTime@sf@@@2@@std@@PAX@std@@ABQAU12@@std@@YAXAAPAU?$_Tree_node@U?$pair@$$CBV?$basic_string@DU?$char_traits@D@std@@V?$allocator@D@2@@std@@U?$pair@V?$function@$$A6AXAAVSprite@sf@@M@Z@std@@VTime@sf@@@2@@std@@PAX@0@ABQAU10@@Z ; std::_Construct_in_place<std::_Tree_node<std::pair<std::basic_string<char,std::char_traits<char>,std::allocator<char> > const ,std::pair<std::function<void __cdecl(sf::Sprite &,float)>,sf::Time> >,void *> *,std::_Tree_node<std::pair<std::basic_string<char,std::char_traits<char>,std::allocator<char> > const ,std::pair<std::function<void __cdecl(sf::Sprite &,float)>,sf::Time> >,void *> * const &>
PUBLIC	??$_Deallocate@$03$0A@@std@@YAXPAXI@Z		; std::_Deallocate<4,0>
PUBLIC	??$addressof@$$CBVFrameAnimation@thor@@@std@@YAPBVFrameAnimation@thor@@ABV12@@Z ; std::addressof<thor::FrameAnimation const >
PUBLIC	??$forward@AAVSprite@sf@@@std@@YAAAVSprite@sf@@AAV12@@Z ; std::forward<sf::Sprite &>
PUBLIC	??$forward@M@std@@YA$$QAMAAM@Z			; std::forward<float>
PUBLIC	??$_Call@AAVFrameAnimation@thor@@AAVSprite@sf@@M@?$_Invoker_ret@X$00@std@@SAXAAVFrameAnimation@thor@@AAVSprite@sf@@$$QAM@Z ; std::_Invoker_ret<void,1>::_Call<thor::FrameAnimation &,sf::Sprite &,float>
PUBLIC	??$?0ABVFrameAnimation@thor@@$0A@@?$_Func_impl_no_alloc@VFrameAnimation@thor@@XAAVSprite@sf@@M@std@@QAE@ABVFrameAnimation@thor@@@Z ; std::_Func_impl_no_alloc<thor::FrameAnimation,void,sf::Sprite &,float>::_Func_impl_no_alloc<thor::FrameAnimation,void,sf::Sprite &,float><thor::FrameAnimation const &,0>
PUBLIC	??$addressof@$$CBV?$_Tree_val@U?$_Tree_simple_types@U?$pair@$$CBV?$basic_string@DU?$char_traits@D@std@@V?$allocator@D@2@@std@@U?$pair@V?$function@$$A6AXAAVSprite@sf@@M@Z@std@@VTime@sf@@@2@@std@@@std@@@std@@@std@@YAPBV?$_Tree_val@U?$_Tree_simple_types@U?$pair@$$CBV?$basic_string@DU?$char_traits@D@std@@V?$allocator@D@2@@std@@U?$pair@V?$function@$$A6AXAAVSprite@sf@@M@Z@std@@VTime@sf@@@2@@std@@@std@@@0@ABV10@@Z ; std::addressof<std::_Tree_val<std::_Tree_simple_types<std::pair<std::basic_string<char,std::char_traits<char>,std::allocator<char> > const ,std::pair<std::function<void __cdecl(sf::Sprite &,float)>,sf::Time> > > > const >
PUBLIC	??$_Get_size_of_n@$0GA@@std@@YAII@Z		; std::_Get_size_of_n<96>
PUBLIC	??$addressof@$$CBV?$_Tree@V?$_Tmap_traits@V?$basic_string@DU?$char_traits@D@std@@V?$allocator@D@2@@std@@U?$pair@V?$function@$$A6AXAAVSprite@sf@@M@Z@std@@VTime@sf@@@2@U?$less@V?$basic_string@DU?$char_traits@D@std@@V?$allocator@D@2@@std@@@2@V?$allocator@U?$pair@$$CBV?$basic_string@DU?$char_traits@D@std@@V?$allocator@D@2@@std@@U?$pair@V?$function@$$A6AXAAVSprite@sf@@M@Z@std@@VTime@sf@@@2@@std@@@2@$0A@@std@@@std@@@std@@YAPBV?$_Tree@V?$_Tmap_traits@V?$basic_string@DU?$char_traits@D@std@@V?$allocator@D@2@@std@@U?$pair@V?$function@$$A6AXAAVSprite@sf@@M@Z@std@@VTime@sf@@@2@U?$less@V?$basic_string@DU?$char_traits@D@std@@V?$allocator@D@2@@std@@@2@V?$allocator@U?$pair@$$CBV?$basic_string@DU?$char_traits@D@std@@V?$allocator@D@2@@std@@U?$pair@V?$function@$$A6AXAAVSprite@sf@@M@Z@std@@VTime@sf@@@2@@std@@@2@$0A@@std@@@0@ABV10@@Z ; std::addressof<std::_Tree<std::_Tmap_traits<std::basic_string<char,std::char_traits<char>,std::allocator<char> >,std::pair<std::function<void __cdecl(sf::Sprite &,float)>,sf::Time>,std::less<std::basic_string<char,std::char_traits<char>,std::allocator<char> > >,std::allocator<std::pair<std::basic_string<char,std::char_traits<char>,std::allocator<char> > const ,std::pair<std::function<void __cdecl(sf::Sprite &,float)>,sf::Time> > >,0> > const >
PUBLIC	??$_Pocca@V?$allocator@U?$_Tree_node@U?$pair@$$CBV?$basic_string@DU?$char_traits@D@std@@V?$allocator@D@2@@std@@U?$pair@V?$function@$$A6AXAAVSprite@sf@@M@Z@std@@VTime@sf@@@2@@std@@PAX@std@@@std@@@std@@YAXAAV?$allocator@U?$_Tree_node@U?$pair@$$CBV?$basic_string@DU?$char_traits@D@std@@V?$allocator@D@2@@std@@U?$pair@V?$function@$$A6AXAAVSprite@sf@@M@Z@std@@VTime@sf@@@2@@std@@PAX@std@@@0@ABV10@@Z ; std::_Pocca<std::allocator<std::_Tree_node<std::pair<std::basic_string<char,std::char_traits<char>,std::allocator<char> > const ,std::pair<std::function<void __cdecl(sf::Sprite &,float)>,sf::Time> >,void *> > >
PUBLIC	??$_Copy@U_Copy_tag@?$_Tree@V?$_Tmap_traits@V?$basic_string@DU?$char_traits@D@std@@V?$allocator@D@2@@std@@U?$pair@V?$function@$$A6AXAAVSprite@sf@@M@Z@std@@VTime@sf@@@2@U?$less@V?$basic_string@DU?$char_traits@D@std@@V?$allocator@D@2@@std@@@2@V?$allocator@U?$pair@$$CBV?$basic_string@DU?$char_traits@D@std@@V?$allocator@D@2@@std@@U?$pair@V?$function@$$A6AXAAVSprite@sf@@M@Z@std@@VTime@sf@@@2@@std@@@2@$0A@@std@@@std@@@?$_Tree@V?$_Tmap_traits@V?$basic_string@DU?$char_traits@D@std@@V?$allocator@D@2@@std@@U?$pair@V?$function@$$A6AXAAVSprite@sf@@M@Z@std@@VTime@sf@@@2@U?$less@V?$basic_string@DU?$char_traits@D@std@@V?$allocator@D@2@@std@@@2@V?$allocator@U?$pair@$$CBV?$basic_string@DU?$char_traits@D@std@@V?$allocator@D@2@@std@@U?$pair@V?$function@$$A6AXAAVSprite@sf@@M@Z@std@@VTime@sf@@@2@@std@@@2@$0A@@std@@@std@@IAEXABV01@U_Copy_tag@01@@Z ; std::_Tree<std::_Tmap_traits<std::basic_string<char,std::char_traits<char>,std::allocator<char> >,std::pair<std::function<void __cdecl(sf::Sprite &,float)>,sf::Time>,std::less<std::basic_string<char,std::char_traits<char>,std::allocator<char> > >,std::allocator<std::pair<std::basic_string<char,std::char_traits<char>,std::allocator<char> > const ,std::pair<std::function<void __cdecl(sf::Sprite &,float)>,sf::Time> > >,0> >::_Copy<std::_Tree<std::_Tmap_traits<std::basic_string<char,std::char_traits<char>,std::allocator<char> >,std::pair<std::function<void __cdecl(sf::Sprite &,float)>,sf::Time>,std::less<std::basic_string<char,std::char_traits<char>,std::allocator<char> > >,std::allocator<std::pair<std::basic_string<char,std::char_traits<char>,std::allocator<char> > const ,std::pair<std::function<void __cdecl(sf::Sprite &,float)>,sf::Time> > >,0> >::_Copy_tag>
PUBLIC	??$_Emplace@U?$pair@V?$basic_string@DU?$char_traits@D@std@@V?$allocator@D@2@@std@@U?$pair@V?$function@$$A6AXAAVSprite@sf@@M@Z@std@@VTime@sf@@@2@@std@@@?$_Tree@V?$_Tmap_traits@V?$basic_string@DU?$char_traits@D@std@@V?$allocator@D@2@@std@@U?$pair@V?$function@$$A6AXAAVSprite@sf@@M@Z@std@@VTime@sf@@@2@U?$less@V?$basic_string@DU?$char_traits@D@std@@V?$allocator@D@2@@std@@@2@V?$allocator@U?$pair@$$CBV?$basic_string@DU?$char_traits@D@std@@V?$allocator@D@2@@std@@U?$pair@V?$function@$$A6AXAAVSprite@sf@@M@Z@std@@VTime@sf@@@2@@std@@@2@$0A@@std@@@std@@IAE?AU?$pair@PAU?$_Tree_node@U?$pair@$$CBV?$basic_string@DU?$char_traits@D@std@@V?$allocator@D@2@@std@@U?$pair@V?$function@$$A6AXAAVSprite@sf@@M@Z@std@@VTime@sf@@@2@@std@@PAX@std@@_N@1@$$QAU?$pair@V?$basic_string@DU?$char_traits@D@std@@V?$allocator@D@2@@std@@U?$pair@V?$function@$$A6AXAAVSprite@sf@@M@Z@std@@VTime@sf@@@2@@1@@Z ; std::_Tree<std::_Tmap_traits<std::basic_string<char,std::char_traits<char>,std::allocator<char> >,std::pair<std::function<void __cdecl(sf::Sprite &,float)>,sf::Time>,std::less<std::basic_string<char,std::char_traits<char>,std::allocator<char> > >,std::allocator<std::pair<std::basic_string<char,std::char_traits<char>,std::allocator<char> > const ,std::pair<std::function<void __cdecl(sf::Sprite &,float)>,sf::Time> > >,0> >::_Emplace<std::pair<std::basic_string<char,std::char_traits<char>,std::allocator<char> >,std::pair<std::function<void __cdecl(sf::Sprite &,float)>,sf::Time> > >
PUBLIC	??$?0V?$_Tree_iterator@V?$_Tree_val@U?$_Tree_simple_types@U?$pair@$$CBV?$basic_string@DU?$char_traits@D@std@@V?$allocator@D@2@@std@@U?$pair@V?$function@$$A6AXAAVSprite@sf@@M@Z@std@@VTime@sf@@@2@@std@@@std@@@std@@@std@@AB_N$0A@@?$pair@V?$_Tree_iterator@V?$_Tree_val@U?$_Tree_simple_types@U?$pair@$$CBV?$basic_string@DU?$char_traits@D@std@@V?$allocator@D@2@@std@@U?$pair@V?$function@$$A6AXAAVSprite@sf@@M@Z@std@@VTime@sf@@@2@@std@@@std@@@std@@@std@@_N@std@@QAE@$$QAV?$_Tree_iterator@V?$_Tree_val@U?$_Tree_simple_types@U?$pair@$$CBV?$basic_string@DU?$char_traits@D@std@@V?$allocator@D@2@@std@@U?$pair@V?$function@$$A6AXAAVSprite@sf@@M@Z@std@@VTime@sf@@@2@@std@@@std@@@std@@@1@AB_N@Z ; std::pair<std::_Tree_iterator<std::_Tree_val<std::_Tree_simple_types<std::pair<std::basic_string<char,std::char_traits<char>,std::allocator<char> > const ,std::pair<std::function<void __cdecl(sf::Sprite &,float)>,sf::Time> > > > >,bool>::pair<std::_Tree_iterator<std::_Tree_val<std::_Tree_simple_types<std::pair<std::basic_string<char,std::char_traits<char>,std::allocator<char> > const ,std::pair<std::function<void __cdecl(sf::Sprite &,float)>,sf::Time> > > > >,bool><std::_Tree_iterator<std::_Tree_val<std::_Tree_simple_types<std::pair<std::basic_string<char,std::char_traits<char>,std::allocator<char> > const ,std::pair<std::function<void __cdecl(sf::Sprite &,float)>,sf::Time> > > > >,bool const &,0>
PUBLIC	??$_Kfn@$$CBV?$basic_string@DU?$char_traits@D@std@@V?$allocator@D@2@@std@@U?$pair@V?$function@$$A6AXAAVSprite@sf@@M@Z@std@@VTime@sf@@@2@@?$_Tmap_traits@V?$basic_string@DU?$char_traits@D@std@@V?$allocator@D@2@@std@@U?$pair@V?$function@$$A6AXAAVSprite@sf@@M@Z@std@@VTime@sf@@@2@U?$less@V?$basic_string@DU?$char_traits@D@std@@V?$allocator@D@2@@std@@@2@V?$allocator@U?$pair@$$CBV?$basic_string@DU?$char_traits@D@std@@V?$allocator@D@2@@std@@U?$pair@V?$function@$$A6AXAAVSprite@sf@@M@Z@std@@VTime@sf@@@2@@std@@@2@$0A@@std@@SAABV?$basic_string@DU?$char_traits@D@std@@V?$allocator@D@2@@1@ABU?$pair@$$CBV?$basic_string@DU?$char_traits@D@std@@V?$allocator@D@2@@std@@U?$pair@V?$function@$$A6AXAAVSprite@sf@@M@Z@std@@VTime@sf@@@2@@1@@Z ; std::_Tmap_traits<std::basic_string<char,std::char_traits<char>,std::allocator<char> >,std::pair<std::function<void __cdecl(sf::Sprite &,float)>,sf::Time>,std::less<std::basic_string<char,std::char_traits<char>,std::allocator<char> > >,std::allocator<std::pair<std::basic_string<char,std::char_traits<char>,std::allocator<char> > const ,std::pair<std::function<void __cdecl(sf::Sprite &,float)>,sf::Time> > >,0>::_Kfn<std::basic_string<char,std::char_traits<char>,std::allocator<char> > const ,std::pair<std::function<void __cdecl(sf::Sprite &,float)>,sf::Time> >
PUBLIC	??$_Debug_lt_pred@ABU?$less@V?$basic_string@DU?$char_traits@D@std@@V?$allocator@D@2@@std@@@std@@ABV?$basic_string@DU?$char_traits@D@std@@V?$allocator@D@2@@2@ABV32@$0A@@std@@YA_NABU?$less@V?$basic_string@DU?$char_traits@D@std@@V?$allocator@D@2@@std@@@0@ABV?$basic_string@DU?$char_traits@D@std@@V?$allocator@D@2@@0@1@Z ; std::_Debug_lt_pred<std::less<std::basic_string<char,std::char_traits<char>,std::allocator<char> > > const &,std::basic_string<char,std::char_traits<char>,std::allocator<char> > const &,std::basic_string<char,std::char_traits<char>,std::allocator<char> > const &,0>
PUBLIC	??$exchange@PAU?$_Tree_node@U?$pair@$$CBV?$basic_string@DU?$char_traits@D@std@@V?$allocator@D@2@@std@@U?$pair@V?$function@$$A6AXAAVSprite@sf@@M@Z@std@@VTime@sf@@@2@@std@@PAX@std@@AAPAU12@@std@@YAPAU?$_Tree_node@U?$pair@$$CBV?$basic_string@DU?$char_traits@D@std@@V?$allocator@D@2@@std@@U?$pair@V?$function@$$A6AXAAVSprite@sf@@M@Z@std@@VTime@sf@@@2@@std@@PAX@0@AAPAU10@0@Z ; std::exchange<std::_Tree_node<std::pair<std::basic_string<char,std::char_traits<char>,std::allocator<char> > const ,std::pair<std::function<void __cdecl(sf::Sprite &,float)>,sf::Time> >,void *> *,std::_Tree_node<std::pair<std::basic_string<char,std::char_traits<char>,std::allocator<char> > const ,std::pair<std::function<void __cdecl(sf::Sprite &,float)>,sf::Time> >,void *> * &>
PUBLIC	??$_Freenode@V?$allocator@U?$_Tree_node@U?$pair@$$CBV?$basic_string@DU?$char_traits@D@std@@V?$allocator@D@2@@std@@U?$pair@V?$function@$$A6AXAAVSprite@sf@@M@Z@std@@VTime@sf@@@2@@std@@PAX@std@@@std@@@?$_Tree_node@U?$pair@$$CBV?$basic_string@DU?$char_traits@D@std@@V?$allocator@D@2@@std@@U?$pair@V?$function@$$A6AXAAVSprite@sf@@M@Z@std@@VTime@sf@@@2@@std@@PAX@std@@SAXAAV?$allocator@U?$_Tree_node@U?$pair@$$CBV?$basic_string@DU?$char_traits@D@std@@V?$allocator@D@2@@std@@U?$pair@V?$function@$$A6AXAAVSprite@sf@@M@Z@std@@VTime@sf@@@2@@std@@PAX@std@@@1@PAU01@@Z ; std::_Tree_node<std::pair<std::basic_string<char,std::char_traits<char>,std::allocator<char> > const ,std::pair<std::function<void __cdecl(sf::Sprite &,float)>,sf::Time> >,void *>::_Freenode<std::allocator<std::_Tree_node<std::pair<std::basic_string<char,std::char_traits<char>,std::allocator<char> > const ,std::pair<std::function<void __cdecl(sf::Sprite &,float)>,sf::Time> >,void *> > >
PUBLIC	??$_Destroy_in_place@PAU?$_Tree_node@U?$pair@$$CBV?$basic_string@DU?$char_traits@D@std@@V?$allocator@D@2@@std@@U?$pair@V?$function@$$A6AXAAVSprite@sf@@M@Z@std@@VTime@sf@@@2@@std@@PAX@std@@@std@@YAXAAPAU?$_Tree_node@U?$pair@$$CBV?$basic_string@DU?$char_traits@D@std@@V?$allocator@D@2@@std@@U?$pair@V?$function@$$A6AXAAVSprite@sf@@M@Z@std@@VTime@sf@@@2@@std@@PAX@0@@Z ; std::_Destroy_in_place<std::_Tree_node<std::pair<std::basic_string<char,std::char_traits<char>,std::allocator<char> > const ,std::pair<std::function<void __cdecl(sf::Sprite &,float)>,sf::Time> >,void *> *>
PUBLIC	??$addressof@PAU?$_Tree_node@U?$pair@$$CBV?$basic_string@DU?$char_traits@D@std@@V?$allocator@D@2@@std@@U?$pair@V?$function@$$A6AXAAVSprite@sf@@M@Z@std@@VTime@sf@@@2@@std@@PAX@std@@@std@@YAPAPAU?$_Tree_node@U?$pair@$$CBV?$basic_string@DU?$char_traits@D@std@@V?$allocator@D@2@@std@@U?$pair@V?$function@$$A6AXAAVSprite@sf@@M@Z@std@@VTime@sf@@@2@@std@@PAX@0@AAPAU10@@Z ; std::addressof<std::_Tree_node<std::pair<std::basic_string<char,std::char_traits<char>,std::allocator<char> > const ,std::pair<std::function<void __cdecl(sf::Sprite &,float)>,sf::Time> >,void *> *>
PUBLIC	??$forward@ABQAU?$_Tree_node@U?$pair@$$CBV?$basic_string@DU?$char_traits@D@std@@V?$allocator@D@2@@std@@U?$pair@V?$function@$$A6AXAAVSprite@sf@@M@Z@std@@VTime@sf@@@2@@std@@PAX@std@@@std@@YAABQAU?$_Tree_node@U?$pair@$$CBV?$basic_string@DU?$char_traits@D@std@@V?$allocator@D@2@@std@@U?$pair@V?$function@$$A6AXAAVSprite@sf@@M@Z@std@@VTime@sf@@@2@@std@@PAX@0@ABQAU10@@Z ; std::forward<std::_Tree_node<std::pair<std::basic_string<char,std::char_traits<char>,std::allocator<char> > const ,std::pair<std::function<void __cdecl(sf::Sprite &,float)>,sf::Time> >,void *> * const &>
PUBLIC	??$construct_at@PAU?$_Tree_node@U?$pair@$$CBV?$basic_string@DU?$char_traits@D@std@@V?$allocator@D@2@@std@@U?$pair@V?$function@$$A6AXAAVSprite@sf@@M@Z@std@@VTime@sf@@@2@@std@@PAX@std@@ABQAU12@X@std@@YAPAPAU?$_Tree_node@U?$pair@$$CBV?$basic_string@DU?$char_traits@D@std@@V?$allocator@D@2@@std@@U?$pair@V?$function@$$A6AXAAVSprite@sf@@M@Z@std@@VTime@sf@@@2@@std@@PAX@0@QAPAU10@ABQAU10@@Z ; std::construct_at<std::_Tree_node<std::pair<std::basic_string<char,std::char_traits<char>,std::allocator<char> > const ,std::pair<std::function<void __cdecl(sf::Sprite &,float)>,sf::Time> >,void *> *,std::_Tree_node<std::pair<std::basic_string<char,std::char_traits<char>,std::allocator<char> > const ,std::pair<std::function<void __cdecl(sf::Sprite &,float)>,sf::Time> >,void *> * const &,void>
PUBLIC	??$_Voidify_iter@PAPAU?$_Tree_node@U?$pair@$$CBV?$basic_string@DU?$char_traits@D@std@@V?$allocator@D@2@@std@@U?$pair@V?$function@$$A6AXAAVSprite@sf@@M@Z@std@@VTime@sf@@@2@@std@@PAX@std@@@std@@YAPAXPAPAU?$_Tree_node@U?$pair@$$CBV?$basic_string@DU?$char_traits@D@std@@V?$allocator@D@2@@std@@U?$pair@V?$function@$$A6AXAAVSprite@sf@@M@Z@std@@VTime@sf@@@2@@std@@PAX@0@@Z ; std::_Voidify_iter<std::_Tree_node<std::pair<std::basic_string<char,std::char_traits<char>,std::allocator<char> > const ,std::pair<std::function<void __cdecl(sf::Sprite &,float)>,sf::Time> >,void *> * *>
PUBLIC	??$invoke@AAVFrameAnimation@thor@@AAVSprite@sf@@M@std@@YAXAAVFrameAnimation@thor@@AAVSprite@sf@@$$QAM@Z ; std::invoke<thor::FrameAnimation &,sf::Sprite &,float>
PUBLIC	??$forward@ABVFrameAnimation@thor@@@std@@YAABVFrameAnimation@thor@@ABV12@@Z ; std::forward<thor::FrameAnimation const &>
PUBLIC	??$_Copy_nodes@U_Copy_tag@?$_Tree@V?$_Tmap_traits@V?$basic_string@DU?$char_traits@D@std@@V?$allocator@D@2@@std@@U?$pair@V?$function@$$A6AXAAVSprite@sf@@M@Z@std@@VTime@sf@@@2@U?$less@V?$basic_string@DU?$char_traits@D@std@@V?$allocator@D@2@@std@@@2@V?$allocator@U?$pair@$$CBV?$basic_string@DU?$char_traits@D@std@@V?$allocator@D@2@@std@@U?$pair@V?$function@$$A6AXAAVSprite@sf@@M@Z@std@@VTime@sf@@@2@@std@@@2@$0A@@std@@@std@@@?$_Tree@V?$_Tmap_traits@V?$basic_string@DU?$char_traits@D@std@@V?$allocator@D@2@@std@@U?$pair@V?$function@$$A6AXAAVSprite@sf@@M@Z@std@@VTime@sf@@@2@U?$less@V?$basic_string@DU?$char_traits@D@std@@V?$allocator@D@2@@std@@@2@V?$allocator@U?$pair@$$CBV?$basic_string@DU?$char_traits@D@std@@V?$allocator@D@2@@std@@U?$pair@V?$function@$$A6AXAAVSprite@sf@@M@Z@std@@VTime@sf@@@2@@std@@@2@$0A@@std@@@std@@IAEPAU?$_Tree_node@U?$pair@$$CBV?$basic_string@DU?$char_traits@D@std@@V?$allocator@D@2@@std@@U?$pair@V?$function@$$A6AXAAVSprite@sf@@M@Z@std@@VTime@sf@@@2@@std@@PAX@1@PAU21@0U_Copy_tag@01@@Z ; std::_Tree<std::_Tmap_traits<std::basic_string<char,std::char_traits<char>,std::allocator<char> >,std::pair<std::function<void __cdecl(sf::Sprite &,float)>,sf::Time>,std::less<std::basic_string<char,std::char_traits<char>,std::allocator<char> > >,std::allocator<std::pair<std::basic_string<char,std::char_traits<char>,std::allocator<char> > const ,std::pair<std::function<void __cdecl(sf::Sprite &,float)>,sf::Time> > >,0> >::_Copy_nodes<std::_Tree<std::_Tmap_traits<std::basic_string<char,std::char_traits<char>,std::allocator<char> >,std::pair<std::function<void __cdecl(sf::Sprite &,float)>,sf::Time>,std::less<std::basic_string<char,std::char_traits<char>,std::allocator<char> > >,std::allocator<std::pair<std::basic_string<char,std::char_traits<char>,std::allocator<char> > const ,std::pair<std::function<void __cdecl(sf::Sprite &,float)>,sf::Time> > >,0> >::_Copy_tag>
PUBLIC	??$move@AAV?$function@$$A6AXAAVSprite@sf@@M@Z@std@@@std@@YA$$QAV?$function@$$A6AXAAVSprite@sf@@M@Z@0@AAV10@@Z ; std::move<std::function<void __cdecl(sf::Sprite &,float)> &>
PUBLIC	?pointer_to@?$pointer_traits@PAU?$pair@$$CBV?$basic_string@DU?$char_traits@D@std@@V?$allocator@D@2@@std@@U?$pair@V?$function@$$A6AXAAVSprite@sf@@M@Z@std@@VTime@sf@@@2@@std@@@std@@SAPAU?$pair@$$CBV?$basic_string@DU?$char_traits@D@std@@V?$allocator@D@2@@std@@U?$pair@V?$function@$$A6AXAAVSprite@sf@@M@Z@std@@VTime@sf@@@2@@2@AAU32@@Z ; std::pointer_traits<std::pair<std::basic_string<char,std::char_traits<char>,std::allocator<char> > const ,std::pair<std::function<void __cdecl(sf::Sprite &,float)>,sf::Time> > *>::pointer_to
PUBLIC	??$addressof@U?$pair@$$CBV?$basic_string@DU?$char_traits@D@std@@V?$allocator@D@2@@std@@U?$pair@V?$function@$$A6AXAAVSprite@sf@@M@Z@std@@VTime@sf@@@2@@std@@@std@@YAPAU?$pair@$$CBV?$basic_string@DU?$char_traits@D@std@@V?$allocator@D@2@@std@@U?$pair@V?$function@$$A6AXAAVSprite@sf@@M@Z@std@@VTime@sf@@@2@@0@AAU10@@Z ; std::addressof<std::pair<std::basic_string<char,std::char_traits<char>,std::allocator<char> > const ,std::pair<std::function<void __cdecl(sf::Sprite &,float)>,sf::Time> > >
PUBLIC	?_Extract@?$_In_place_key_extract_map@V?$basic_string@DU?$char_traits@D@std@@V?$allocator@D@2@@std@@U?$pair@V?$basic_string@DU?$char_traits@D@std@@V?$allocator@D@2@@std@@U?$pair@V?$function@$$A6AXAAVSprite@sf@@M@Z@std@@VTime@sf@@@2@@2@@std@@SAABV?$basic_string@DU?$char_traits@D@std@@V?$allocator@D@2@@2@ABU?$pair@V?$basic_string@DU?$char_traits@D@std@@V?$allocator@D@2@@std@@U?$pair@V?$function@$$A6AXAAVSprite@sf@@M@Z@std@@VTime@sf@@@2@@2@@Z ; std::_In_place_key_extract_map<std::basic_string<char,std::char_traits<char>,std::allocator<char> >,std::pair<std::basic_string<char,std::char_traits<char>,std::allocator<char> >,std::pair<std::function<void __cdecl(sf::Sprite &,float)>,sf::Time> > >::_Extract
PUBLIC	??0?$_Alloc_construct_ptr@V?$allocator@U?$_Tree_node@U?$pair@$$CBV?$basic_string@DU?$char_traits@D@std@@V?$allocator@D@2@@std@@U?$pair@V?$function@$$A6AXAAVSprite@sf@@M@Z@std@@VTime@sf@@@2@@std@@PAX@std@@@std@@@std@@QAE@AAV?$allocator@U?$_Tree_node@U?$pair@$$CBV?$basic_string@DU?$char_traits@D@std@@V?$allocator@D@2@@std@@U?$pair@V?$function@$$A6AXAAVSprite@sf@@M@Z@std@@VTime@sf@@@2@@std@@PAX@std@@@1@@Z ; std::_Alloc_construct_ptr<std::allocator<std::_Tree_node<std::pair<std::basic_string<char,std::char_traits<char>,std::allocator<char> > const ,std::pair<std::function<void __cdecl(sf::Sprite &,float)>,sf::Time> >,void *> > >::_Alloc_construct_ptr<std::allocator<std::_Tree_node<std::pair<std::basic_string<char,std::char_traits<char>,std::allocator<char> > const ,std::pair<std::function<void __cdecl(sf::Sprite &,float)>,sf::Time> >,void *> > >
PUBLIC	?_Release@?$_Alloc_construct_ptr@V?$allocator@U?$_Tree_node@U?$pair@$$CBV?$basic_string@DU?$char_traits@D@std@@V?$allocator@D@2@@std@@U?$pair@V?$function@$$A6AXAAVSprite@sf@@M@Z@std@@VTime@sf@@@2@@std@@PAX@std@@@std@@@std@@QAEPAU?$_Tree_node@U?$pair@$$CBV?$basic_string@DU?$char_traits@D@std@@V?$allocator@D@2@@std@@U?$pair@V?$function@$$A6AXAAVSprite@sf@@M@Z@std@@VTime@sf@@@2@@std@@PAX@2@XZ ; std::_Alloc_construct_ptr<std::allocator<std::_Tree_node<std::pair<std::basic_string<char,std::char_traits<char>,std::allocator<char> > const ,std::pair<std::function<void __cdecl(sf::Sprite &,float)>,sf::Time> >,void *> > >::_Release
PUBLIC	?_Allocate@?$_Alloc_construct_ptr@V?$allocator@U?$_Tree_node@U?$pair@$$CBV?$basic_string@DU?$char_traits@D@std@@V?$allocator@D@2@@std@@U?$pair@V?$function@$$A6AXAAVSprite@sf@@M@Z@std@@VTime@sf@@@2@@std@@PAX@std@@@std@@@std@@QAEXXZ ; std::_Alloc_construct_ptr<std::allocator<std::_Tree_node<std::pair<std::basic_string<char,std::char_traits<char>,std::allocator<char> > const ,std::pair<std::function<void __cdecl(sf::Sprite &,float)>,sf::Time> >,void *> > >::_Allocate
PUBLIC	??1?$_Alloc_construct_ptr@V?$allocator@U?$_Tree_node@U?$pair@$$CBV?$basic_string@DU?$char_traits@D@std@@V?$allocator@D@2@@std@@U?$pair@V?$function@$$A6AXAAVSprite@sf@@M@Z@std@@VTime@sf@@@2@@std@@PAX@std@@@std@@@std@@QAE@XZ ; std::_Alloc_construct_ptr<std::allocator<std::_Tree_node<std::pair<std::basic_string<char,std::char_traits<char>,std::allocator<char> > const ,std::pair<std::function<void __cdecl(sf::Sprite &,float)>,sf::Time> >,void *> > >::~_Alloc_construct_ptr<std::allocator<std::_Tree_node<std::pair<std::basic_string<char,std::char_traits<char>,std::allocator<char> > const ,std::pair<std::function<void __cdecl(sf::Sprite &,float)>,sf::Time> >,void *> > >
PUBLIC	??0?$_Tree_temp_node_alloc@V?$allocator@U?$_Tree_node@U?$pair@$$CBV?$basic_string@DU?$char_traits@D@std@@V?$allocator@D@2@@std@@U?$pair@V?$function@$$A6AXAAVSprite@sf@@M@Z@std@@VTime@sf@@@2@@std@@PAX@std@@@std@@@std@@QAE@AAV?$allocator@U?$_Tree_node@U?$pair@$$CBV?$basic_string@DU?$char_traits@D@std@@V?$allocator@D@2@@std@@U?$pair@V?$function@$$A6AXAAVSprite@sf@@M@Z@std@@VTime@sf@@@2@@std@@PAX@std@@@1@@Z ; std::_Tree_temp_node_alloc<std::allocator<std::_Tree_node<std::pair<std::basic_string<char,std::char_traits<char>,std::allocator<char> > const ,std::pair<std::function<void __cdecl(sf::Sprite &,float)>,sf::Time> >,void *> > >::_Tree_temp_node_alloc<std::allocator<std::_Tree_node<std::pair<std::basic_string<char,std::char_traits<char>,std::allocator<char> > const ,std::pair<std::function<void __cdecl(sf::Sprite &,float)>,sf::Time> >,void *> > >
PUBLIC	??1?$_Tree_temp_node_alloc@V?$allocator@U?$_Tree_node@U?$pair@$$CBV?$basic_string@DU?$char_traits@D@std@@V?$allocator@D@2@@std@@U?$pair@V?$function@$$A6AXAAVSprite@sf@@M@Z@std@@VTime@sf@@@2@@std@@PAX@std@@@std@@@std@@QAE@XZ ; std::_Tree_temp_node_alloc<std::allocator<std::_Tree_node<std::pair<std::basic_string<char,std::char_traits<char>,std::allocator<char> > const ,std::pair<std::function<void __cdecl(sf::Sprite &,float)>,sf::Time> >,void *> > >::~_Tree_temp_node_alloc<std::allocator<std::_Tree_node<std::pair<std::basic_string<char,std::char_traits<char>,std::allocator<char> > const ,std::pair<std::function<void __cdecl(sf::Sprite &,float)>,sf::Time> >,void *> > >
PUBLIC	??1?$_Tree_temp_node@V?$allocator@U?$_Tree_node@U?$pair@$$CBV?$basic_string@DU?$char_traits@D@std@@V?$allocator@D@2@@std@@U?$pair@V?$function@$$A6AXAAVSprite@sf@@M@Z@std@@VTime@sf@@@2@@std@@PAX@std@@@std@@@std@@QAE@XZ ; std::_Tree_temp_node<std::allocator<std::_Tree_node<std::pair<std::basic_string<char,std::char_traits<char>,std::allocator<char> > const ,std::pair<std::function<void __cdecl(sf::Sprite &,float)>,sf::Time> >,void *> > >::~_Tree_temp_node<std::allocator<std::_Tree_node<std::pair<std::basic_string<char,std::char_traits<char>,std::allocator<char> > const ,std::pair<std::function<void __cdecl(sf::Sprite &,float)>,sf::Time> >,void *> > >
PUBLIC	??$?0U?$pair@V?$basic_string@DU?$char_traits@D@std@@V?$allocator@D@2@@std@@U?$pair@V?$function@$$A6AXAAVSprite@sf@@M@Z@std@@VTime@sf@@@2@@std@@@?$_Tree_temp_node@V?$allocator@U?$_Tree_node@U?$pair@$$CBV?$basic_string@DU?$char_traits@D@std@@V?$allocator@D@2@@std@@U?$pair@V?$function@$$A6AXAAVSprite@sf@@M@Z@std@@VTime@sf@@@2@@std@@PAX@std@@@std@@@std@@QAE@AAV?$allocator@U?$_Tree_node@U?$pair@$$CBV?$basic_string@DU?$char_traits@D@std@@V?$allocator@D@2@@std@@U?$pair@V?$function@$$A6AXAAVSprite@sf@@M@Z@std@@VTime@sf@@@2@@std@@PAX@std@@@1@PAU?$_Tree_node@U?$pair@$$CBV?$basic_string@DU?$char_traits@D@std@@V?$allocator@D@2@@std@@U?$pair@V?$function@$$A6AXAAVSprite@sf@@M@Z@std@@VTime@sf@@@2@@std@@PAX@1@$$QAU?$pair@V?$basic_string@DU?$char_traits@D@std@@V?$allocator@D@2@@std@@U?$pair@V?$function@$$A6AXAAVSprite@sf@@M@Z@std@@VTime@sf@@@2@@1@@Z ; std::_Tree_temp_node<std::allocator<std::_Tree_node<std::pair<std::basic_string<char,std::char_traits<char>,std::allocator<char> > const ,std::pair<std::function<void __cdecl(sf::Sprite &,float)>,sf::Time> >,void *> > >::_Tree_temp_node<std::allocator<std::_Tree_node<std::pair<std::basic_string<char,std::char_traits<char>,std::allocator<char> > const ,std::pair<std::function<void __cdecl(sf::Sprite &,float)>,sf::Time> >,void *> > ><std::pair<std::basic_string<char,std::char_traits<char>,std::allocator<char> >,std::pair<std::function<void __cdecl(sf::Sprite &,float)>,sf::Time> > >
PUBLIC	??$?0AAPAU?$_Tree_node@U?$pair@$$CBV?$basic_string@DU?$char_traits@D@std@@V?$allocator@D@2@@std@@U?$pair@V?$function@$$A6AXAAVSprite@sf@@M@Z@std@@VTime@sf@@@2@@std@@PAX@std@@_N$0A@@?$pair@PAU?$_Tree_node@U?$pair@$$CBV?$basic_string@DU?$char_traits@D@std@@V?$allocator@D@2@@std@@U?$pair@V?$function@$$A6AXAAVSprite@sf@@M@Z@std@@VTime@sf@@@2@@std@@PAX@std@@_N@std@@QAE@AAPAU?$_Tree_node@U?$pair@$$CBV?$basic_string@DU?$char_traits@D@std@@V?$allocator@D@2@@std@@U?$pair@V?$function@$$A6AXAAVSprite@sf@@M@Z@std@@VTime@sf@@@2@@std@@PAX@1@$$QA_N@Z ; std::pair<std::_Tree_node<std::pair<std::basic_string<char,std::char_traits<char>,std::allocator<char> > const ,std::pair<std::function<void __cdecl(sf::Sprite &,float)>,sf::Time> >,void *> *,bool>::pair<std::_Tree_node<std::pair<std::basic_string<char,std::char_traits<char>,std::allocator<char> > const ,std::pair<std::function<void __cdecl(sf::Sprite &,float)>,sf::Time> >,void *> *,bool><std::_Tree_node<std::pair<std::basic_string<char,std::char_traits<char>,std::allocator<char> > const ,std::pair<std::function<void __cdecl(sf::Sprite &,float)>,sf::Time> >,void *> * &,bool,0>
PUBLIC	??$?0PAU?$_Tree_node@U?$pair@$$CBV?$basic_string@DU?$char_traits@D@std@@V?$allocator@D@2@@std@@U?$pair@V?$function@$$A6AXAAVSprite@sf@@M@Z@std@@VTime@sf@@@2@@std@@PAX@std@@_N$0A@@?$pair@PAU?$_Tree_node@U?$pair@$$CBV?$basic_string@DU?$char_traits@D@std@@V?$allocator@D@2@@std@@U?$pair@V?$function@$$A6AXAAVSprite@sf@@M@Z@std@@VTime@sf@@@2@@std@@PAX@std@@_N@std@@QAE@$$QAPAU?$_Tree_node@U?$pair@$$CBV?$basic_string@DU?$char_traits@D@std@@V?$allocator@D@2@@std@@U?$pair@V?$function@$$A6AXAAVSprite@sf@@M@Z@std@@VTime@sf@@@2@@std@@PAX@1@$$QA_N@Z ; std::pair<std::_Tree_node<std::pair<std::basic_string<char,std::char_traits<char>,std::allocator<char> > const ,std::pair<std::function<void __cdecl(sf::Sprite &,float)>,sf::Time> >,void *> *,bool>::pair<std::_Tree_node<std::pair<std::basic_string<char,std::char_traits<char>,std::allocator<char> > const ,std::pair<std::function<void __cdecl(sf::Sprite &,float)>,sf::Time> >,void *> *,bool><std::_Tree_node<std::pair<std::basic_string<char,std::char_traits<char>,std::allocator<char> > const ,std::pair<std::function<void __cdecl(sf::Sprite &,float)>,sf::Time> >,void *> *,bool,0>
PUBLIC	??$forward@V?$_Tree_iterator@V?$_Tree_val@U?$_Tree_simple_types@U?$pair@$$CBV?$basic_string@DU?$char_traits@D@std@@V?$allocator@D@2@@std@@U?$pair@V?$function@$$A6AXAAVSprite@sf@@M@Z@std@@VTime@sf@@@2@@std@@@std@@@std@@@std@@@std@@YA$$QAV?$_Tree_iterator@V?$_Tree_val@U?$_Tree_simple_types@U?$pair@$$CBV?$basic_string@DU?$char_traits@D@std@@V?$allocator@D@2@@std@@U?$pair@V?$function@$$A6AXAAVSprite@sf@@M@Z@std@@VTime@sf@@@2@@std@@@std@@@std@@@0@AAV10@@Z ; std::forward<std::_Tree_iterator<std::_Tree_val<std::_Tree_simple_types<std::pair<std::basic_string<char,std::char_traits<char>,std::allocator<char> > const ,std::pair<std::function<void __cdecl(sf::Sprite &,float)>,sf::Time> > > > > >
PUBLIC	??$forward@AB_N@std@@YAAB_NAB_N@Z		; std::forward<bool const &>
PUBLIC	??$destroy@U?$pair@$$CBV?$basic_string@DU?$char_traits@D@std@@V?$allocator@D@2@@std@@U?$pair@V?$function@$$A6AXAAVSprite@sf@@M@Z@std@@VTime@sf@@@2@@std@@@?$_Default_allocator_traits@V?$allocator@U?$_Tree_node@U?$pair@$$CBV?$basic_string@DU?$char_traits@D@std@@V?$allocator@D@2@@std@@U?$pair@V?$function@$$A6AXAAVSprite@sf@@M@Z@std@@VTime@sf@@@2@@std@@PAX@std@@@std@@@std@@SAXAAV?$allocator@U?$_Tree_node@U?$pair@$$CBV?$basic_string@DU?$char_traits@D@std@@V?$allocator@D@2@@std@@U?$pair@V?$function@$$A6AXAAVSprite@sf@@M@Z@std@@VTime@sf@@@2@@std@@PAX@std@@@1@QAU?$pair@$$CBV?$basic_string@DU?$char_traits@D@std@@V?$allocator@D@2@@std@@U?$pair@V?$function@$$A6AXAAVSprite@sf@@M@Z@std@@VTime@sf@@@2@@1@@Z ; std::_Default_allocator_traits<std::allocator<std::_Tree_node<std::pair<std::basic_string<char,std::char_traits<char>,std::allocator<char> > const ,std::pair<std::function<void __cdecl(sf::Sprite &,float)>,sf::Time> >,void *> > >::destroy<std::pair<std::basic_string<char,std::char_traits<char>,std::allocator<char> > const ,std::pair<std::function<void __cdecl(sf::Sprite &,float)>,sf::Time> > >
PUBLIC	??$_Copy_or_move@U?$pair@$$CBV?$basic_string@DU?$char_traits@D@std@@V?$allocator@D@2@@std@@U?$pair@V?$function@$$A6AXAAVSprite@sf@@M@Z@std@@VTime@sf@@@2@@std@@U?$integral_constant@_N$0A@@2@@?$_Tree@V?$_Tmap_traits@V?$basic_string@DU?$char_traits@D@std@@V?$allocator@D@2@@std@@U?$pair@V?$function@$$A6AXAAVSprite@sf@@M@Z@std@@VTime@sf@@@2@U?$less@V?$basic_string@DU?$char_traits@D@std@@V?$allocator@D@2@@std@@@2@V?$allocator@U?$pair@$$CBV?$basic_string@DU?$char_traits@D@std@@V?$allocator@D@2@@std@@U?$pair@V?$function@$$A6AXAAVSprite@sf@@M@Z@std@@VTime@sf@@@2@@std@@@2@$0A@@std@@@std@@IAEPAU?$_Tree_node@U?$pair@$$CBV?$basic_string@DU?$char_traits@D@std@@V?$allocator@D@2@@std@@U?$pair@V?$function@$$A6AXAAVSprite@sf@@M@Z@std@@VTime@sf@@@2@@std@@PAX@1@AAU?$pair@$$CBV?$basic_string@DU?$char_traits@D@std@@V?$allocator@D@2@@std@@U?$pair@V?$function@$$A6AXAAVSprite@sf@@M@Z@std@@VTime@sf@@@2@@1@U_Copy_tag@01@U?$integral_constant@_N$0A@@1@@Z ; std::_Tree<std::_Tmap_traits<std::basic_string<char,std::char_traits<char>,std::allocator<char> >,std::pair<std::function<void __cdecl(sf::Sprite &,float)>,sf::Time>,std::less<std::basic_string<char,std::char_traits<char>,std::allocator<char> > >,std::allocator<std::pair<std::basic_string<char,std::char_traits<char>,std::allocator<char> > const ,std::pair<std::function<void __cdecl(sf::Sprite &,float)>,sf::Time> > >,0> >::_Copy_or_move<std::pair<std::basic_string<char,std::char_traits<char>,std::allocator<char> > const ,std::pair<std::function<void __cdecl(sf::Sprite &,float)>,sf::Time> >,std::integral_constant<bool,0> >
PUBLIC	??$_Erase_tree_and_orphan@V?$allocator@U?$_Tree_node@U?$pair@$$CBV?$basic_string@DU?$char_traits@D@std@@V?$allocator@D@2@@std@@U?$pair@V?$function@$$A6AXAAVSprite@sf@@M@Z@std@@VTime@sf@@@2@@std@@PAX@std@@@std@@@?$_Tree_val@U?$_Tree_simple_types@U?$pair@$$CBV?$basic_string@DU?$char_traits@D@std@@V?$allocator@D@2@@std@@U?$pair@V?$function@$$A6AXAAVSprite@sf@@M@Z@std@@VTime@sf@@@2@@std@@@std@@@std@@QAEXAAV?$allocator@U?$_Tree_node@U?$pair@$$CBV?$basic_string@DU?$char_traits@D@std@@V?$allocator@D@2@@std@@U?$pair@V?$function@$$A6AXAAVSprite@sf@@M@Z@std@@VTime@sf@@@2@@std@@PAX@std@@@1@PAU?$_Tree_node@U?$pair@$$CBV?$basic_string@DU?$char_traits@D@std@@V?$allocator@D@2@@std@@U?$pair@V?$function@$$A6AXAAVSprite@sf@@M@Z@std@@VTime@sf@@@2@@std@@PAX@1@@Z ; std::_Tree_val<std::_Tree_simple_types<std::pair<std::basic_string<char,std::char_traits<char>,std::allocator<char> > const ,std::pair<std::function<void __cdecl(sf::Sprite &,float)>,sf::Time> > > >::_Erase_tree_and_orphan<std::allocator<std::_Tree_node<std::pair<std::basic_string<char,std::char_traits<char>,std::allocator<char> > const ,std::pair<std::function<void __cdecl(sf::Sprite &,float)>,sf::Time> >,void *> > >
PUBLIC	??$exchange@PAU?$_Tree_node@U?$pair@$$CBV?$basic_string@DU?$char_traits@D@std@@V?$allocator@D@2@@std@@U?$pair@V?$function@$$A6AXAAVSprite@sf@@M@Z@std@@VTime@sf@@@2@@std@@PAX@std@@$$T@std@@YAPAU?$_Tree_node@U?$pair@$$CBV?$basic_string@DU?$char_traits@D@std@@V?$allocator@D@2@@std@@U?$pair@V?$function@$$A6AXAAVSprite@sf@@M@Z@std@@VTime@sf@@@2@@std@@PAX@0@AAPAU10@$$QA$$T@Z ; std::exchange<std::_Tree_node<std::pair<std::basic_string<char,std::char_traits<char>,std::allocator<char> > const ,std::pair<std::function<void __cdecl(sf::Sprite &,float)>,sf::Time> >,void *> *,std::nullptr_t>
PUBLIC	??$?__MDU?$char_traits@D@std@@V?$allocator@D@1@@std@@YA?AUstrong_ordering@0@ABV?$basic_string@DU?$char_traits@D@std@@V?$allocator@D@2@@0@0@Z ; std::operator<=><char,std::char_traits<char>,std::allocator<char> >
PUBLIC	??$construct@U?$pair@$$CBV?$basic_string@DU?$char_traits@D@std@@V?$allocator@D@2@@std@@U?$pair@V?$function@$$A6AXAAVSprite@sf@@M@Z@std@@VTime@sf@@@2@@std@@U?$pair@V?$basic_string@DU?$char_traits@D@std@@V?$allocator@D@2@@std@@U?$pair@V?$function@$$A6AXAAVSprite@sf@@M@Z@std@@VTime@sf@@@2@@2@@?$_Default_allocator_traits@V?$allocator@U?$_Tree_node@U?$pair@$$CBV?$basic_string@DU?$char_traits@D@std@@V?$allocator@D@2@@std@@U?$pair@V?$function@$$A6AXAAVSprite@sf@@M@Z@std@@VTime@sf@@@2@@std@@PAX@std@@@std@@@std@@SAXAAV?$allocator@U?$_Tree_node@U?$pair@$$CBV?$basic_string@DU?$char_traits@D@std@@V?$allocator@D@2@@std@@U?$pair@V?$function@$$A6AXAAVSprite@sf@@M@Z@std@@VTime@sf@@@2@@std@@PAX@std@@@1@QAU?$pair@$$CBV?$basic_string@DU?$char_traits@D@std@@V?$allocator@D@2@@std@@U?$pair@V?$function@$$A6AXAAVSprite@sf@@M@Z@std@@VTime@sf@@@2@@1@$$QAU?$pair@V?$basic_string@DU?$char_traits@D@std@@V?$allocator@D@2@@std@@U?$pair@V?$function@$$A6AXAAVSprite@sf@@M@Z@std@@VTime@sf@@@2@@1@@Z ; std::_Default_allocator_traits<std::allocator<std::_Tree_node<std::pair<std::basic_string<char,std::char_traits<char>,std::allocator<char> > const ,std::pair<std::function<void __cdecl(sf::Sprite &,float)>,sf::Time> >,void *> > >::construct<std::pair<std::basic_string<char,std::char_traits<char>,std::allocator<char> > const ,std::pair<std::function<void __cdecl(sf::Sprite &,float)>,sf::Time> >,std::pair<std::basic_string<char,std::char_traits<char>,std::allocator<char> >,std::pair<std::function<void __cdecl(sf::Sprite &,float)>,sf::Time> > >
PUBLIC	??$_Construct_in_place@PAU?$_Tree_node@U?$pair@$$CBV?$basic_string@DU?$char_traits@D@std@@V?$allocator@D@2@@std@@U?$pair@V?$function@$$A6AXAAVSprite@sf@@M@Z@std@@VTime@sf@@@2@@std@@PAX@std@@AAPAU12@@std@@YAXAAPAU?$_Tree_node@U?$pair@$$CBV?$basic_string@DU?$char_traits@D@std@@V?$allocator@D@2@@std@@U?$pair@V?$function@$$A6AXAAVSprite@sf@@M@Z@std@@VTime@sf@@@2@@std@@PAX@0@0@Z ; std::_Construct_in_place<std::_Tree_node<std::pair<std::basic_string<char,std::char_traits<char>,std::allocator<char> > const ,std::pair<std::function<void __cdecl(sf::Sprite &,float)>,sf::Time> >,void *> *,std::_Tree_node<std::pair<std::basic_string<char,std::char_traits<char>,std::allocator<char> > const ,std::pair<std::function<void __cdecl(sf::Sprite &,float)>,sf::Time> >,void *> * &>
PUBLIC	??$forward@AAPAU?$_Tree_node@U?$pair@$$CBV?$basic_string@DU?$char_traits@D@std@@V?$allocator@D@2@@std@@U?$pair@V?$function@$$A6AXAAVSprite@sf@@M@Z@std@@VTime@sf@@@2@@std@@PAX@std@@@std@@YAAAPAU?$_Tree_node@U?$pair@$$CBV?$basic_string@DU?$char_traits@D@std@@V?$allocator@D@2@@std@@U?$pair@V?$function@$$A6AXAAVSprite@sf@@M@Z@std@@VTime@sf@@@2@@std@@PAX@0@AAPAU10@@Z ; std::forward<std::_Tree_node<std::pair<std::basic_string<char,std::char_traits<char>,std::allocator<char> > const ,std::pair<std::function<void __cdecl(sf::Sprite &,float)>,sf::Time> >,void *> * &>
PUBLIC	??$forward@_N@std@@YA$$QA_NAA_N@Z		; std::forward<bool>
PUBLIC	??$forward@PAU?$_Tree_node@U?$pair@$$CBV?$basic_string@DU?$char_traits@D@std@@V?$allocator@D@2@@std@@U?$pair@V?$function@$$A6AXAAVSprite@sf@@M@Z@std@@VTime@sf@@@2@@std@@PAX@std@@@std@@YA$$QAPAU?$_Tree_node@U?$pair@$$CBV?$basic_string@DU?$char_traits@D@std@@V?$allocator@D@2@@std@@U?$pair@V?$function@$$A6AXAAVSprite@sf@@M@Z@std@@VTime@sf@@@2@@std@@PAX@0@AAPAU10@@Z ; std::forward<std::_Tree_node<std::pair<std::basic_string<char,std::char_traits<char>,std::allocator<char> > const ,std::pair<std::function<void __cdecl(sf::Sprite &,float)>,sf::Time> >,void *> *>
PUBLIC	??$destroy_at@U?$pair@$$CBV?$basic_string@DU?$char_traits@D@std@@V?$allocator@D@2@@std@@U?$pair@V?$function@$$A6AXAAVSprite@sf@@M@Z@std@@VTime@sf@@@2@@std@@@std@@YAXQAU?$pair@$$CBV?$basic_string@DU?$char_traits@D@std@@V?$allocator@D@2@@std@@U?$pair@V?$function@$$A6AXAAVSprite@sf@@M@Z@std@@VTime@sf@@@2@@0@@Z ; std::destroy_at<std::pair<std::basic_string<char,std::char_traits<char>,std::allocator<char> > const ,std::pair<std::function<void __cdecl(sf::Sprite &,float)>,sf::Time> > >
PUBLIC	??$_Buynode@AAU?$pair@$$CBV?$basic_string@DU?$char_traits@D@std@@V?$allocator@D@2@@std@@U?$pair@V?$function@$$A6AXAAVSprite@sf@@M@Z@std@@VTime@sf@@@2@@std@@@?$_Tree@V?$_Tmap_traits@V?$basic_string@DU?$char_traits@D@std@@V?$allocator@D@2@@std@@U?$pair@V?$function@$$A6AXAAVSprite@sf@@M@Z@std@@VTime@sf@@@2@U?$less@V?$basic_string@DU?$char_traits@D@std@@V?$allocator@D@2@@std@@@2@V?$allocator@U?$pair@$$CBV?$basic_string@DU?$char_traits@D@std@@V?$allocator@D@2@@std@@U?$pair@V?$function@$$A6AXAAVSprite@sf@@M@Z@std@@VTime@sf@@@2@@std@@@2@$0A@@std@@@std@@IAEPAU?$_Tree_node@U?$pair@$$CBV?$basic_string@DU?$char_traits@D@std@@V?$allocator@D@2@@std@@U?$pair@V?$function@$$A6AXAAVSprite@sf@@M@Z@std@@VTime@sf@@@2@@std@@PAX@1@AAU?$pair@$$CBV?$basic_string@DU?$char_traits@D@std@@V?$allocator@D@2@@std@@U?$pair@V?$function@$$A6AXAAVSprite@sf@@M@Z@std@@VTime@sf@@@2@@1@@Z ; std::_Tree<std::_Tmap_traits<std::basic_string<char,std::char_traits<char>,std::allocator<char> >,std::pair<std::function<void __cdecl(sf::Sprite &,float)>,sf::Time>,std::less<std::basic_string<char,std::char_traits<char>,std::allocator<char> > >,std::allocator<std::pair<std::basic_string<char,std::char_traits<char>,std::allocator<char> > const ,std::pair<std::function<void __cdecl(sf::Sprite &,float)>,sf::Time> > >,0> >::_Buynode<std::pair<std::basic_string<char,std::char_traits<char>,std::allocator<char> > const ,std::pair<std::function<void __cdecl(sf::Sprite &,float)>,sf::Time> > &>
PUBLIC	??$addressof@$$CBV?$_Vector_val@U?$_Simple_types@UFrame@detail@thor@@@std@@@std@@@std@@YAPBV?$_Vector_val@U?$_Simple_types@UFrame@detail@thor@@@std@@@0@ABV10@@Z ; std::addressof<std::_Vector_val<std::_Simple_types<thor::detail::Frame> > const >
PUBLIC	??$construct_at@U?$pair@$$CBV?$basic_string@DU?$char_traits@D@std@@V?$allocator@D@2@@std@@U?$pair@V?$function@$$A6AXAAVSprite@sf@@M@Z@std@@VTime@sf@@@2@@std@@U?$pair@V?$basic_string@DU?$char_traits@D@std@@V?$allocator@D@2@@std@@U?$pair@V?$function@$$A6AXAAVSprite@sf@@M@Z@std@@VTime@sf@@@2@@2@X@std@@YAPAU?$pair@$$CBV?$basic_string@DU?$char_traits@D@std@@V?$allocator@D@2@@std@@U?$pair@V?$function@$$A6AXAAVSprite@sf@@M@Z@std@@VTime@sf@@@2@@0@QAU10@$$QAU?$pair@V?$basic_string@DU?$char_traits@D@std@@V?$allocator@D@2@@std@@U?$pair@V?$function@$$A6AXAAVSprite@sf@@M@Z@std@@VTime@sf@@@2@@0@@Z ; std::construct_at<std::pair<std::basic_string<char,std::char_traits<char>,std::allocator<char> > const ,std::pair<std::function<void __cdecl(sf::Sprite &,float)>,sf::Time> >,std::pair<std::basic_string<char,std::char_traits<char>,std::allocator<char> >,std::pair<std::function<void __cdecl(sf::Sprite &,float)>,sf::Time> >,void>
PUBLIC	??$_Voidify_iter@PAU?$pair@$$CBV?$basic_string@DU?$char_traits@D@std@@V?$allocator@D@2@@std@@U?$pair@V?$function@$$A6AXAAVSprite@sf@@M@Z@std@@VTime@sf@@@2@@std@@@std@@YAPAXPAU?$pair@$$CBV?$basic_string@DU?$char_traits@D@std@@V?$allocator@D@2@@std@@U?$pair@V?$function@$$A6AXAAVSprite@sf@@M@Z@std@@VTime@sf@@@2@@0@@Z ; std::_Voidify_iter<std::pair<std::basic_string<char,std::char_traits<char>,std::allocator<char> > const ,std::pair<std::function<void __cdecl(sf::Sprite &,float)>,sf::Time> > *>
PUBLIC	??$construct_at@PAU?$_Tree_node@U?$pair@$$CBV?$basic_string@DU?$char_traits@D@std@@V?$allocator@D@2@@std@@U?$pair@V?$function@$$A6AXAAVSprite@sf@@M@Z@std@@VTime@sf@@@2@@std@@PAX@std@@AAPAU12@X@std@@YAPAPAU?$_Tree_node@U?$pair@$$CBV?$basic_string@DU?$char_traits@D@std@@V?$allocator@D@2@@std@@U?$pair@V?$function@$$A6AXAAVSprite@sf@@M@Z@std@@VTime@sf@@@2@@std@@PAX@0@QAPAU10@AAPAU10@@Z ; std::construct_at<std::_Tree_node<std::pair<std::basic_string<char,std::char_traits<char>,std::allocator<char> > const ,std::pair<std::function<void __cdecl(sf::Sprite &,float)>,sf::Time> >,void *> *,std::_Tree_node<std::pair<std::basic_string<char,std::char_traits<char>,std::allocator<char> > const ,std::pair<std::function<void __cdecl(sf::Sprite &,float)>,sf::Time> >,void *> * &,void>
PUBLIC	??$forward@AAU?$pair@$$CBV?$basic_string@DU?$char_traits@D@std@@V?$allocator@D@2@@std@@U?$pair@V?$function@$$A6AXAAVSprite@sf@@M@Z@std@@VTime@sf@@@2@@std@@@std@@YAAAU?$pair@$$CBV?$basic_string@DU?$char_traits@D@std@@V?$allocator@D@2@@std@@U?$pair@V?$function@$$A6AXAAVSprite@sf@@M@Z@std@@VTime@sf@@@2@@0@AAU10@@Z ; std::forward<std::pair<std::basic_string<char,std::char_traits<char>,std::allocator<char> > const ,std::pair<std::function<void __cdecl(sf::Sprite &,float)>,sf::Time> > &>
PUBLIC	??$_Buynode@V?$allocator@U?$_Tree_node@U?$pair@$$CBV?$basic_string@DU?$char_traits@D@std@@V?$allocator@D@2@@std@@U?$pair@V?$function@$$A6AXAAVSprite@sf@@M@Z@std@@VTime@sf@@@2@@std@@PAX@std@@@std@@AAU?$pair@$$CBV?$basic_string@DU?$char_traits@D@std@@V?$allocator@D@2@@std@@U?$pair@V?$function@$$A6AXAAVSprite@sf@@M@Z@std@@VTime@sf@@@2@@2@@?$_Tree_node@U?$pair@$$CBV?$basic_string@DU?$char_traits@D@std@@V?$allocator@D@2@@std@@U?$pair@V?$function@$$A6AXAAVSprite@sf@@M@Z@std@@VTime@sf@@@2@@std@@PAX@std@@SAPAU01@AAV?$allocator@U?$_Tree_node@U?$pair@$$CBV?$basic_string@DU?$char_traits@D@std@@V?$allocator@D@2@@std@@U?$pair@V?$function@$$A6AXAAVSprite@sf@@M@Z@std@@VTime@sf@@@2@@std@@PAX@std@@@1@PAU01@AAU?$pair@$$CBV?$basic_string@DU?$char_traits@D@std@@V?$allocator@D@2@@std@@U?$pair@V?$function@$$A6AXAAVSprite@sf@@M@Z@std@@VTime@sf@@@2@@1@@Z ; std::_Tree_node<std::pair<std::basic_string<char,std::char_traits<char>,std::allocator<char> > const ,std::pair<std::function<void __cdecl(sf::Sprite &,float)>,sf::Time> >,void *>::_Buynode<std::allocator<std::_Tree_node<std::pair<std::basic_string<char,std::char_traits<char>,std::allocator<char> > const ,std::pair<std::function<void __cdecl(sf::Sprite &,float)>,sf::Time> >,void *> >,std::pair<std::basic_string<char,std::char_traits<char>,std::allocator<char> > const ,std::pair<std::function<void __cdecl(sf::Sprite &,float)>,sf::Time> > &>
PUBLIC	??$forward@V?$basic_string@DU?$char_traits@D@std@@V?$allocator@D@2@@std@@@std@@YA$$QAV?$basic_string@DU?$char_traits@D@std@@V?$allocator@D@2@@0@AAV10@@Z ; std::forward<std::basic_string<char,std::char_traits<char>,std::allocator<char> > >
PUBLIC	??$construct@U?$pair@$$CBV?$basic_string@DU?$char_traits@D@std@@V?$allocator@D@2@@std@@U?$pair@V?$function@$$A6AXAAVSprite@sf@@M@Z@std@@VTime@sf@@@2@@std@@AAU12@@?$_Default_allocator_traits@V?$allocator@U?$_Tree_node@U?$pair@$$CBV?$basic_string@DU?$char_traits@D@std@@V?$allocator@D@2@@std@@U?$pair@V?$function@$$A6AXAAVSprite@sf@@M@Z@std@@VTime@sf@@@2@@std@@PAX@std@@@std@@@std@@SAXAAV?$allocator@U?$_Tree_node@U?$pair@$$CBV?$basic_string@DU?$char_traits@D@std@@V?$allocator@D@2@@std@@U?$pair@V?$function@$$A6AXAAVSprite@sf@@M@Z@std@@VTime@sf@@@2@@std@@PAX@std@@@1@QAU?$pair@$$CBV?$basic_string@DU?$char_traits@D@std@@V?$allocator@D@2@@std@@U?$pair@V?$function@$$A6AXAAVSprite@sf@@M@Z@std@@VTime@sf@@@2@@1@AAU31@@Z ; std::_Default_allocator_traits<std::allocator<std::_Tree_node<std::pair<std::basic_string<char,std::char_traits<char>,std::allocator<char> > const ,std::pair<std::function<void __cdecl(sf::Sprite &,float)>,sf::Time> >,void *> > >::construct<std::pair<std::basic_string<char,std::char_traits<char>,std::allocator<char> > const ,std::pair<std::function<void __cdecl(sf::Sprite &,float)>,sf::Time> >,std::pair<std::basic_string<char,std::char_traits<char>,std::allocator<char> > const ,std::pair<std::function<void __cdecl(sf::Sprite &,float)>,sf::Time> > &>
PUBLIC	??$construct_at@U?$pair@$$CBV?$basic_string@DU?$char_traits@D@std@@V?$allocator@D@2@@std@@U?$pair@V?$function@$$A6AXAAVSprite@sf@@M@Z@std@@VTime@sf@@@2@@std@@AAU12@X@std@@YAPAU?$pair@$$CBV?$basic_string@DU?$char_traits@D@std@@V?$allocator@D@2@@std@@U?$pair@V?$function@$$A6AXAAVSprite@sf@@M@Z@std@@VTime@sf@@@2@@0@QAU10@AAU10@@Z ; std::construct_at<std::pair<std::basic_string<char,std::char_traits<char>,std::allocator<char> > const ,std::pair<std::function<void __cdecl(sf::Sprite &,float)>,sf::Time> >,std::pair<std::basic_string<char,std::char_traits<char>,std::allocator<char> > const ,std::pair<std::function<void __cdecl(sf::Sprite &,float)>,sf::Time> > &,void>
PUBLIC	__JustMyCode_Default
PUBLIC	?less@strong_ordering@std@@2U12@B		; std::strong_ordering::less
PUBLIC	?equal@strong_ordering@std@@2U12@B		; std::strong_ordering::equal
PUBLIC	?greater@strong_ordering@std@@2U12@B		; std::strong_ordering::greater
PUBLIC	??_7exception@std@@6B@				; std::exception::`vftable'
PUBLIC	??_C@_0BC@EOODALEL@Unknown?5exception@		; `string'
PUBLIC	??_7bad_alloc@std@@6B@				; std::bad_alloc::`vftable'
PUBLIC	??_7bad_array_new_length@std@@6B@		; std::bad_array_new_length::`vftable'
PUBLIC	??_C@_0BF@KINCDENJ@bad?5array?5new?5length@	; `string'
PUBLIC	__TI3?AVbad_array_new_length@std@@
PUBLIC	__CTA3?AVbad_array_new_length@std@@
PUBLIC	??_R0?AVbad_array_new_length@std@@@8		; std::bad_array_new_length `RTTI Type Descriptor'
PUBLIC	__CT??_R0?AVbad_array_new_length@std@@@8??0bad_array_new_length@std@@QAE@ABV01@@Z12
PUBLIC	??_R0?AVbad_alloc@std@@@8			; std::bad_alloc `RTTI Type Descriptor'
PUBLIC	__CT??_R0?AVbad_alloc@std@@@8??0bad_alloc@std@@QAE@ABV01@@Z12
PUBLIC	??_R0?AVexception@std@@@8			; std::exception `RTTI Type Descriptor'
PUBLIC	__CT??_R0?AVexception@std@@@8??0exception@std@@QAE@ABV01@@Z12
PUBLIC	??_C@_0BB@FCMFBGOM@invalid?5argument@		; `string'
PUBLIC	??_C@_02DKCKIIND@?$CFs@				; `string'
PUBLIC	??_C@_0GI@MNEMJBML@C?3?2Program?5Files?5?$CIx86?$CJ?2Microsof@ ; `string'
PUBLIC	??_C@_1NA@MJBOBEJL@?$AAC?$AA?3?$AA?2?$AAP?$AAr?$AAo?$AAg?$AAr?$AAa?$AAm?$AA?5?$AAF?$AAi?$AAl?$AAe@ ; `string'
PUBLIC	??_C@_1EK@NIFDJFDG@?$AAs?$AAt?$AAd?$AA?3?$AA?3?$AA_?$AAA?$AAd?$AAj?$AAu?$AAs?$AAt?$AA_?$AAm?$AAa@ ; `string'
PUBLIC	??_C@_1CG@JNLFBNGN@?$AA?$CC?$AAi?$AAn?$AAv?$AAa?$AAl?$AAi?$AAd?$AA?5?$AAa?$AAr?$AAg?$AAu?$AAm?$AAe@ ; `string'
PUBLIC	??_C@_0BJ@LFDBABJJ@ITERATOR?5LIST?5CORRUPTED?$CB@ ; `string'
PUBLIC	??_C@_1FM@FOFDAEGI@?$AAs?$AAt?$AAd?$AA?3?$AA?3?$AA_?$AAI?$AAt?$AAe?$AAr?$AAa?$AAt?$AAo?$AAr?$AA_@ ; `string'
PUBLIC	??_C@_1DG@PLBPCAEM@?$AA?$CC?$AAI?$AAT?$AAE?$AAR?$AAA?$AAT?$AAO?$AAR?$AA?5?$AAL?$AAI?$AAS?$AAT?$AA?5@ ; `string'
PUBLIC	??_C@_0BB@GCADKGJO@map?1set?5too?5long@		; `string'
PUBLIC	??_C@_0BA@JFNIOLAK@string?5too?5long@		; `string'
PUBLIC	??_C@_0GI@GFIAKDGM@C?3?2Program?5Files?5?$CIx86?$CJ?2Microsof@ ; `string'
PUBLIC	??_C@_0GI@OGMNKBMN@C?3?2Program?5Files?5?$CIx86?$CJ?2Microsof@ ; `string'
PUBLIC	??_C@_0N@LPFKKEBD@?3AM?3am?3PM?3pm@		; `string'
PUBLIC	??_C@_1BK@MHIKGOKE@?$AA?3?$AAA?$AAM?$AA?3?$AAa?$AAm?$AA?3?$AAP?$AAM?$AA?3?$AAp?$AAm@ ; `string'
PUBLIC	??_C@_0BP@OLDKBHLM@map?1set?5iterators?5incompatible@ ; `string'
PUBLIC	??_C@_0GG@BJFDHGEO@C?3?2Program?5Files?5?$CIx86?$CJ?2Microsof@ ; `string'
PUBLIC	??_C@_1MM@JHPNFGGF@?$AAC?$AA?3?$AA?2?$AAP?$AAr?$AAo?$AAg?$AAr?$AAa?$AAm?$AA?5?$AAF?$AAi?$AAl?$AAe@ ; `string'
PUBLIC	??_C@_1CGA@LHBKKDGC@?$AAs?$AAt?$AAd?$AA?3?$AA?3?$AA_?$AAT?$AAr?$AAe?$AAe?$AA_?$AAc?$AAo?$AAn?$AAs@ ; `string'
PUBLIC	??_C@_1EC@JLIDLCDH@?$AA?$CC?$AAm?$AAa?$AAp?$AA?1?$AAs?$AAe?$AAt?$AA?5?$AAi?$AAt?$AAe?$AAr?$AAa?$AAt@ ; `string'
PUBLIC	??_C@_0GJ@MPIAFDPJ@C?3?2Program?5Files?5?$CIx86?$CJ?2Microsof@ ; `string'
PUBLIC	??_C@_1NC@IFKPGDLA@?$AAC?$AA?3?$AA?2?$AAP?$AAr?$AAo?$AAg?$AAr?$AAa?$AAm?$AA?5?$AAF?$AAi?$AAl?$AAe@ ; `string'
PUBLIC	??_7?$_Func_impl_no_alloc@VFrameAnimation@thor@@XAAVSprite@sf@@M@std@@6B@ ; std::_Func_impl_no_alloc<thor::FrameAnimation,void,sf::Sprite &,float>::`vftable'
PUBLIC	??_R0?AVFrameAnimation@thor@@@8			; thor::FrameAnimation `RTTI Type Descriptor'
PUBLIC	??_C@_0DG@LCFNIIPB@cannot?5dereference?5value?9initia@ ; `string'
PUBLIC	??_C@_1CFO@DPFJDIHM@?$AAs?$AAt?$AAd?$AA?3?$AA?3?$AA_?$AAT?$AAr?$AAe?$AAe?$AA_?$AAc?$AAo?$AAn?$AAs@ ; `string'
PUBLIC	??_C@_1HA@ILGCNILF@?$AA?$CC?$AAc?$AAa?$AAn?$AAn?$AAo?$AAt?$AA?5?$AAd?$AAe?$AAr?$AAe?$AAf?$AAe?$AAr@ ; `string'
PUBLIC	??_C@_0CI@OKFEHCEB@cannot?5dereference?5end?5map?1set?5@ ; `string'
PUBLIC	??_C@_1FE@NKHAAGMB@?$AA?$CC?$AAc?$AAa?$AAn?$AAn?$AAo?$AAt?$AA?5?$AAd?$AAe?$AAr?$AAe?$AAf?$AAe?$AAr@ ; `string'
PUBLIC	??_C@_0BD@FEEMDEPI@invalid?5comparator@		; `string'
PUBLIC	??_C@_1CI@JONCLBEJ@?$AAs?$AAt?$AAd?$AA?3?$AA?3?$AA_?$AAD?$AAe?$AAb?$AAu?$AAg?$AA_?$AAl?$AAt?$AA_@ ; `string'
PUBLIC	??_C@_1CK@NDNHPKPI@?$AA?$CC?$AAi?$AAn?$AAv?$AAa?$AAl?$AAi?$AAd?$AA?5?$AAc?$AAo?$AAm?$AAp?$AAa?$AAr@ ; `string'
PUBLIC	??_C@_0DC@KEKNBAEB@can?8t?5increment?5value?9initializ@ ; `string'
PUBLIC	??_C@_0GH@KMHDIFOI@C?3?2Program?5Files?5?$CIx86?$CJ?2Microsof@ ; `string'
PUBLIC	??_C@_1MO@NOHEJINP@?$AAC?$AA?3?$AA?2?$AAP?$AAr?$AAo?$AAg?$AAr?$AAa?$AAm?$AA?5?$AAF?$AAi?$AAl?$AAe@ ; `string'
PUBLIC	??_C@_1PE@OKLODLBI@?$AAs?$AAt?$AAd?$AA?3?$AA?3?$AA_?$AAV?$AAe?$AAc?$AAt?$AAo?$AAr?$AA_?$AAc?$AAo@ ; `string'
PUBLIC	??_C@_1GI@EDCILPL@?$AA?$CC?$AAc?$AAa?$AAn?$AA?8?$AAt?$AA?5?$AAi?$AAn?$AAc?$AAr?$AAe?$AAm?$AAe?$AAn@ ; `string'
PUBLIC	??_C@_0CJ@OAAAAGPM@can?8t?5increment?5vector?5iterator@ ; `string'
PUBLIC	??_C@_1FG@LDPPKMGP@?$AA?$CC?$AAc?$AAa?$AAn?$AA?8?$AAt?$AA?5?$AAi?$AAn?$AAc?$AAr?$AAe?$AAm?$AAe?$AAn@ ; `string'
PUBLIC	??_C@_0DE@CHADHGFF@can?8t?5dereference?5value?9initial@ ; `string'
PUBLIC	??_C@_1PC@NJLMOKFM@?$AAs?$AAt?$AAd?$AA?3?$AA?3?$AA_?$AAV?$AAe?$AAc?$AAt?$AAo?$AAr?$AA_?$AAc?$AAo@ ; `string'
PUBLIC	??_C@_1GM@FNBFNBEL@?$AA?$CC?$AAc?$AAa?$AAn?$AA?8?$AAt?$AA?5?$AAd?$AAe?$AAr?$AAe?$AAf?$AAe?$AAr?$AAe@ ; `string'
PUBLIC	??_C@_0CP@MDHADBHN@can?8t?5dereference?5out?5of?5range?5@ ; `string'
PUBLIC	??_C@_1GC@JDCKOLAC@?$AA?$CC?$AAc?$AAa?$AAn?$AA?8?$AAt?$AA?5?$AAd?$AAe?$AAr?$AAe?$AAf?$AAe?$AAr?$AAe@ ; `string'
PUBLIC	??_C@_0BO@CAOBBIOC@vector?5iterators?5incompatible@ ; `string'
PUBLIC	??_C@_1OM@HCLAOKIM@?$AAs?$AAt?$AAd?$AA?3?$AA?3?$AA_?$AAV?$AAe?$AAc?$AAt?$AAo?$AAr?$AA_?$AAc?$AAo@ ; `string'
PUBLIC	??_C@_1EA@DJDGNIII@?$AA?$CC?$AAv?$AAe?$AAc?$AAt?$AAo?$AAr?$AA?5?$AAi?$AAt?$AAe?$AAr?$AAa?$AAt?$AAo@ ; `string'
PUBLIC	??_R4exception@std@@6B@				; std::exception::`RTTI Complete Object Locator'
PUBLIC	??_R3exception@std@@8				; std::exception::`RTTI Class Hierarchy Descriptor'
PUBLIC	??_R2exception@std@@8				; std::exception::`RTTI Base Class Array'
PUBLIC	??_R1A@?0A@EA@exception@std@@8			; std::exception::`RTTI Base Class Descriptor at (0,-1,0,64)'
PUBLIC	??_R4bad_alloc@std@@6B@				; std::bad_alloc::`RTTI Complete Object Locator'
PUBLIC	??_R3bad_alloc@std@@8				; std::bad_alloc::`RTTI Class Hierarchy Descriptor'
PUBLIC	??_R2bad_alloc@std@@8				; std::bad_alloc::`RTTI Base Class Array'
PUBLIC	??_R1A@?0A@EA@bad_alloc@std@@8			; std::bad_alloc::`RTTI Base Class Descriptor at (0,-1,0,64)'
PUBLIC	??_R4bad_array_new_length@std@@6B@		; std::bad_array_new_length::`RTTI Complete Object Locator'
PUBLIC	??_R3bad_array_new_length@std@@8		; std::bad_array_new_length::`RTTI Class Hierarchy Descriptor'
PUBLIC	??_R2bad_array_new_length@std@@8		; std::bad_array_new_length::`RTTI Base Class Array'
PUBLIC	??_R1A@?0A@EA@bad_array_new_length@std@@8	; std::bad_array_new_length::`RTTI Base Class Descriptor at (0,-1,0,64)'
PUBLIC	??_R0?AV?$_Func_base@XAAVSprite@sf@@M@std@@@8	; std::_Func_base<void,sf::Sprite &,float> `RTTI Type Descriptor'
PUBLIC	??_R3?$_Func_base@XAAVSprite@sf@@M@std@@8	; std::_Func_base<void,sf::Sprite &,float>::`RTTI Class Hierarchy Descriptor'
PUBLIC	??_R2?$_Func_base@XAAVSprite@sf@@M@std@@8	; std::_Func_base<void,sf::Sprite &,float>::`RTTI Base Class Array'
PUBLIC	??_R1A@?0A@EA@?$_Func_base@XAAVSprite@sf@@M@std@@8 ; std::_Func_base<void,sf::Sprite &,float>::`RTTI Base Class Descriptor at (0,-1,0,64)'
PUBLIC	??_R4?$_Func_impl_no_alloc@VFrameAnimation@thor@@XAAVSprite@sf@@M@std@@6B@ ; std::_Func_impl_no_alloc<thor::FrameAnimation,void,sf::Sprite &,float>::`RTTI Complete Object Locator'
PUBLIC	??_R0?AV?$_Func_impl_no_alloc@VFrameAnimation@thor@@XAAVSprite@sf@@M@std@@@8 ; std::_Func_impl_no_alloc<thor::FrameAnimation,void,sf::Sprite &,float> `RTTI Type Descriptor'
PUBLIC	??_R3?$_Func_impl_no_alloc@VFrameAnimation@thor@@XAAVSprite@sf@@M@std@@8 ; std::_Func_impl_no_alloc<thor::FrameAnimation,void,sf::Sprite &,float>::`RTTI Class Hierarchy Descriptor'
PUBLIC	??_R2?$_Func_impl_no_alloc@VFrameAnimation@thor@@XAAVSprite@sf@@M@std@@8 ; std::_Func_impl_no_alloc<thor::FrameAnimation,void,sf::Sprite &,float>::`RTTI Base Class Array'
PUBLIC	??_R1A@?0A@EA@?$_Func_impl_no_alloc@VFrameAnimation@thor@@XAAVSprite@sf@@M@std@@8 ; std::_Func_impl_no_alloc<thor::FrameAnimation,void,sf::Sprite &,float>::`RTTI Base Class Descriptor at (0,-1,0,64)'
PUBLIC	__real@00000000
PUBLIC	__real@3f800000
EXTRN	??2@YAPAXI@Z:PROC				; operator new
EXTRN	??3@YAXPAX@Z:PROC				; operator delete
EXTRN	??3@YAXPAXI@Z:PROC				; operator delete
EXTRN	__imp_?seconds@sf@@YA?AVTime@1@M@Z:PROC
EXTRN	__imp___invalid_parameter:PROC
EXTRN	_memcpy:PROC
EXTRN	_memmove:PROC
EXTRN	_memset:PROC
EXTRN	__imp__wcslen:PROC
EXTRN	__imp___calloc_dbg:PROC
EXTRN	__imp___CrtDbgReport:PROC
EXTRN	__imp_??0_Lockit@std@@QAE@H@Z:PROC
EXTRN	__imp_??1_Lockit@std@@QAE@XZ:PROC
EXTRN	_strlen:PROC
EXTRN	?_Xbad_alloc@std@@YAXXZ:PROC			; std::_Xbad_alloc
EXTRN	?_Xlength_error@std@@YAXPBD@Z:PROC		; std::_Xlength_error
EXTRN	___std_exception_copy:PROC
EXTRN	___std_exception_destroy:PROC
EXTRN	??_Eexception@std@@UAEPAXI@Z:PROC		; std::exception::`vector deleting destructor'
EXTRN	??_Ebad_alloc@std@@UAEPAXI@Z:PROC		; std::bad_alloc::`vector deleting destructor'
EXTRN	??_Ebad_array_new_length@std@@UAEPAXI@Z:PROC	; std::bad_array_new_length::`vector deleting destructor'
EXTRN	__imp___wassert:PROC
EXTRN	__imp_??0FrameAnimation@thor@@QAE@XZ:PROC
EXTRN	__imp_?addFrame@FrameAnimation@thor@@QAEXMABV?$Rect@H@sf@@@Z:PROC
EXTRN	__imp_?ensureNormalized@FrameAnimation@thor@@ABEXXZ:PROC
EXTRN	__imp_??1FrameAnimation@thor@@QAE@XZ:PROC
EXTRN	__imp_??0FrameAnimation@thor@@QAE@ABV01@@Z:PROC
EXTRN	__imp_??0FrameAnimation@thor@@QAE@$$QAV01@@Z:PROC
EXTRN	__Mbrtowc:PROC
EXTRN	__imp_?_Getcvt@_Locinfo@std@@QBE?AU_Cvtvec@@XZ:PROC
EXTRN	__imp_?_Getdays@_Locinfo@std@@QBEPBDXZ:PROC
EXTRN	__imp_?_Getmonths@_Locinfo@std@@QBEPBDXZ:PROC
EXTRN	__imp_?_W_Getdays@_Locinfo@std@@QBEPBGXZ:PROC
EXTRN	__imp_?_W_Getmonths@_Locinfo@std@@QBEPBGXZ:PROC
EXTRN	__imp_?setOrigin@Transformable@sf@@QAEXABV?$Vector2@M@2@@Z:PROC
EXTRN	__imp_?setTextureRect@Sprite@sf@@QAEXABV?$Rect@H@2@@Z:PROC
EXTRN	@_RTC_CheckStackVars@8:PROC
EXTRN	@__CheckForDebuggerJustMyCode@4:PROC
EXTRN	@__security_check_cookie@4:PROC
EXTRN	__CxxThrowException@8:PROC
EXTRN	__RTC_CheckEsp:PROC
EXTRN	__RTC_InitBase:PROC
EXTRN	__RTC_Shutdown:PROC
EXTRN	___CxxFrameHandler3:PROC
EXTRN	_memcmp:PROC
EXTRN	_memset:PROC
EXTRN	??_7type_info@@6B@:QWORD			; type_info::`vftable'
EXTRN	___security_cookie:DWORD
EXTRN	__fltused:DWORD
;	COMDAT __real@3f800000
CONST	SEGMENT
__real@3f800000 DD 03f800000r			; 1
CONST	ENDS
;	COMDAT __real@00000000
CONST	SEGMENT
__real@00000000 DD 000000000r			; 0
CONST	ENDS
;	COMDAT rtc$TMZ
rtc$TMZ	SEGMENT
__RTC_Shutdown.rtc$TMZ DD FLAT:__RTC_Shutdown
rtc$TMZ	ENDS
;	COMDAT rtc$IMZ
rtc$IMZ	SEGMENT
__RTC_InitBase.rtc$IMZ DD FLAT:__RTC_InitBase
rtc$IMZ	ENDS
;	COMDAT ??_R1A@?0A@EA@?$_Func_impl_no_alloc@VFrameAnimation@thor@@XAAVSprite@sf@@M@std@@8
rdata$r	SEGMENT
??_R1A@?0A@EA@?$_Func_impl_no_alloc@VFrameAnimation@thor@@XAAVSprite@sf@@M@std@@8 DD FLAT:??_R0?AV?$_Func_impl_no_alloc@VFrameAnimation@thor@@XAAVSprite@sf@@M@std@@@8 ; std::_Func_impl_no_alloc<thor::FrameAnimation,void,sf::Sprite &,float>::`RTTI Base Class Descriptor at (0,-1,0,64)'
	DD	01H
	DD	00H
	DD	0ffffffffH
	DD	00H
	DD	040H
	DD	FLAT:??_R3?$_Func_impl_no_alloc@VFrameAnimation@thor@@XAAVSprite@sf@@M@std@@8
rdata$r	ENDS
;	COMDAT ??_R2?$_Func_impl_no_alloc@VFrameAnimation@thor@@XAAVSprite@sf@@M@std@@8
rdata$r	SEGMENT
??_R2?$_Func_impl_no_alloc@VFrameAnimation@thor@@XAAVSprite@sf@@M@std@@8 DD FLAT:??_R1A@?0A@EA@?$_Func_impl_no_alloc@VFrameAnimation@thor@@XAAVSprite@sf@@M@std@@8 ; std::_Func_impl_no_alloc<thor::FrameAnimation,void,sf::Sprite &,float>::`RTTI Base Class Array'
	DD	FLAT:??_R1A@?0A@EA@?$_Func_base@XAAVSprite@sf@@M@std@@8
rdata$r	ENDS
;	COMDAT ??_R3?$_Func_impl_no_alloc@VFrameAnimation@thor@@XAAVSprite@sf@@M@std@@8
rdata$r	SEGMENT
??_R3?$_Func_impl_no_alloc@VFrameAnimation@thor@@XAAVSprite@sf@@M@std@@8 DD 00H ; std::_Func_impl_no_alloc<thor::FrameAnimation,void,sf::Sprite &,float>::`RTTI Class Hierarchy Descriptor'
	DD	00H
	DD	02H
	DD	FLAT:??_R2?$_Func_impl_no_alloc@VFrameAnimation@thor@@XAAVSprite@sf@@M@std@@8
rdata$r	ENDS
;	COMDAT ??_R0?AV?$_Func_impl_no_alloc@VFrameAnimation@thor@@XAAVSprite@sf@@M@std@@@8
data$rs	SEGMENT
??_R0?AV?$_Func_impl_no_alloc@VFrameAnimation@thor@@XAAVSprite@sf@@M@std@@@8 DD FLAT:??_7type_info@@6B@ ; std::_Func_impl_no_alloc<thor::FrameAnimation,void,sf::Sprite &,float> `RTTI Type Descriptor'
	DD	00H
	DB	'.?AV?$_Func_impl_no_alloc@VFrameAnimation@thor@@XAAVSpri'
	DB	'te@sf@@M@std@@', 00H
data$rs	ENDS
;	COMDAT ??_R4?$_Func_impl_no_alloc@VFrameAnimation@thor@@XAAVSprite@sf@@M@std@@6B@
rdata$r	SEGMENT
??_R4?$_Func_impl_no_alloc@VFrameAnimation@thor@@XAAVSprite@sf@@M@std@@6B@ DD 00H ; std::_Func_impl_no_alloc<thor::FrameAnimation,void,sf::Sprite &,float>::`RTTI Complete Object Locator'
	DD	00H
	DD	00H
	DD	FLAT:??_R0?AV?$_Func_impl_no_alloc@VFrameAnimation@thor@@XAAVSprite@sf@@M@std@@@8
	DD	FLAT:??_R3?$_Func_impl_no_alloc@VFrameAnimation@thor@@XAAVSprite@sf@@M@std@@8
rdata$r	ENDS
;	COMDAT ??_R1A@?0A@EA@?$_Func_base@XAAVSprite@sf@@M@std@@8
rdata$r	SEGMENT
??_R1A@?0A@EA@?$_Func_base@XAAVSprite@sf@@M@std@@8 DD FLAT:??_R0?AV?$_Func_base@XAAVSprite@sf@@M@std@@@8 ; std::_Func_base<void,sf::Sprite &,float>::`RTTI Base Class Descriptor at (0,-1,0,64)'
	DD	00H
	DD	00H
	DD	0ffffffffH
	DD	00H
	DD	040H
	DD	FLAT:??_R3?$_Func_base@XAAVSprite@sf@@M@std@@8
rdata$r	ENDS
;	COMDAT ??_R2?$_Func_base@XAAVSprite@sf@@M@std@@8
rdata$r	SEGMENT
??_R2?$_Func_base@XAAVSprite@sf@@M@std@@8 DD FLAT:??_R1A@?0A@EA@?$_Func_base@XAAVSprite@sf@@M@std@@8 ; std::_Func_base<void,sf::Sprite &,float>::`RTTI Base Class Array'
rdata$r	ENDS
;	COMDAT ??_R3?$_Func_base@XAAVSprite@sf@@M@std@@8
rdata$r	SEGMENT
??_R3?$_Func_base@XAAVSprite@sf@@M@std@@8 DD 00H	; std::_Func_base<void,sf::Sprite &,float>::`RTTI Class Hierarchy Descriptor'
	DD	00H
	DD	01H
	DD	FLAT:??_R2?$_Func_base@XAAVSprite@sf@@M@std@@8
rdata$r	ENDS
;	COMDAT ??_R0?AV?$_Func_base@XAAVSprite@sf@@M@std@@@8
data$rs	SEGMENT
??_R0?AV?$_Func_base@XAAVSprite@sf@@M@std@@@8 DD FLAT:??_7type_info@@6B@ ; std::_Func_base<void,sf::Sprite &,float> `RTTI Type Descriptor'
	DD	00H
	DB	'.?AV?$_Func_base@XAAVSprite@sf@@M@std@@', 00H
data$rs	ENDS
;	COMDAT ??_R1A@?0A@EA@bad_array_new_length@std@@8
rdata$r	SEGMENT
??_R1A@?0A@EA@bad_array_new_length@std@@8 DD FLAT:??_R0?AVbad_array_new_length@std@@@8 ; std::bad_array_new_length::`RTTI Base Class Descriptor at (0,-1,0,64)'
	DD	02H
	DD	00H
	DD	0ffffffffH
	DD	00H
	DD	040H
	DD	FLAT:??_R3bad_array_new_length@std@@8
rdata$r	ENDS
;	COMDAT ??_R2bad_array_new_length@std@@8
rdata$r	SEGMENT
??_R2bad_array_new_length@std@@8 DD FLAT:??_R1A@?0A@EA@bad_array_new_length@std@@8 ; std::bad_array_new_length::`RTTI Base Class Array'
	DD	FLAT:??_R1A@?0A@EA@bad_alloc@std@@8
	DD	FLAT:??_R1A@?0A@EA@exception@std@@8
rdata$r	ENDS
;	COMDAT ??_R3bad_array_new_length@std@@8
rdata$r	SEGMENT
??_R3bad_array_new_length@std@@8 DD 00H			; std::bad_array_new_length::`RTTI Class Hierarchy Descriptor'
	DD	00H
	DD	03H
	DD	FLAT:??_R2bad_array_new_length@std@@8
rdata$r	ENDS
;	COMDAT ??_R4bad_array_new_length@std@@6B@
rdata$r	SEGMENT
??_R4bad_array_new_length@std@@6B@ DD 00H		; std::bad_array_new_length::`RTTI Complete Object Locator'
	DD	00H
	DD	00H
	DD	FLAT:??_R0?AVbad_array_new_length@std@@@8
	DD	FLAT:??_R3bad_array_new_length@std@@8
rdata$r	ENDS
;	COMDAT ??_R1A@?0A@EA@bad_alloc@std@@8
rdata$r	SEGMENT
??_R1A@?0A@EA@bad_alloc@std@@8 DD FLAT:??_R0?AVbad_alloc@std@@@8 ; std::bad_alloc::`RTTI Base Class Descriptor at (0,-1,0,64)'
	DD	01H
	DD	00H
	DD	0ffffffffH
	DD	00H
	DD	040H
	DD	FLAT:??_R3bad_alloc@std@@8
rdata$r	ENDS
;	COMDAT ??_R2bad_alloc@std@@8
rdata$r	SEGMENT
??_R2bad_alloc@std@@8 DD FLAT:??_R1A@?0A@EA@bad_alloc@std@@8 ; std::bad_alloc::`RTTI Base Class Array'
	DD	FLAT:??_R1A@?0A@EA@exception@std@@8
rdata$r	ENDS
;	COMDAT ??_R3bad_alloc@std@@8
rdata$r	SEGMENT
??_R3bad_alloc@std@@8 DD 00H				; std::bad_alloc::`RTTI Class Hierarchy Descriptor'
	DD	00H
	DD	02H
	DD	FLAT:??_R2bad_alloc@std@@8
rdata$r	ENDS
;	COMDAT ??_R4bad_alloc@std@@6B@
rdata$r	SEGMENT
??_R4bad_alloc@std@@6B@ DD 00H				; std::bad_alloc::`RTTI Complete Object Locator'
	DD	00H
	DD	00H
	DD	FLAT:??_R0?AVbad_alloc@std@@@8
	DD	FLAT:??_R3bad_alloc@std@@8
rdata$r	ENDS
;	COMDAT ??_R1A@?0A@EA@exception@std@@8
rdata$r	SEGMENT
??_R1A@?0A@EA@exception@std@@8 DD FLAT:??_R0?AVexception@std@@@8 ; std::exception::`RTTI Base Class Descriptor at (0,-1,0,64)'
	DD	00H
	DD	00H
	DD	0ffffffffH
	DD	00H
	DD	040H
	DD	FLAT:??_R3exception@std@@8
rdata$r	ENDS
;	COMDAT ??_R2exception@std@@8
rdata$r	SEGMENT
??_R2exception@std@@8 DD FLAT:??_R1A@?0A@EA@exception@std@@8 ; std::exception::`RTTI Base Class Array'
rdata$r	ENDS
;	COMDAT ??_R3exception@std@@8
rdata$r	SEGMENT
??_R3exception@std@@8 DD 00H				; std::exception::`RTTI Class Hierarchy Descriptor'
	DD	00H
	DD	01H
	DD	FLAT:??_R2exception@std@@8
rdata$r	ENDS
;	COMDAT ??_R4exception@std@@6B@
rdata$r	SEGMENT
??_R4exception@std@@6B@ DD 00H				; std::exception::`RTTI Complete Object Locator'
	DD	00H
	DD	00H
	DD	FLAT:??_R0?AVexception@std@@@8
	DD	FLAT:??_R3exception@std@@8
rdata$r	ENDS
;	COMDAT ??_C@_1EA@DJDGNIII@?$AA?$CC?$AAv?$AAe?$AAc?$AAt?$AAo?$AAr?$AA?5?$AAi?$AAt?$AAe?$AAr?$AAa?$AAt?$AAo@
CONST	SEGMENT
??_C@_1EA@DJDGNIII@?$AA?$CC?$AAv?$AAe?$AAc?$AAt?$AAo?$AAr?$AA?5?$AAi?$AAt?$AAe?$AAr?$AAa?$AAt?$AAo@ DB '"'
	DB	00H, 'v', 00H, 'e', 00H, 'c', 00H, 't', 00H, 'o', 00H, 'r', 00H
	DB	' ', 00H, 'i', 00H, 't', 00H, 'e', 00H, 'r', 00H, 'a', 00H, 't'
	DB	00H, 'o', 00H, 'r', 00H, 's', 00H, ' ', 00H, 'i', 00H, 'n', 00H
	DB	'c', 00H, 'o', 00H, 'm', 00H, 'p', 00H, 'a', 00H, 't', 00H, 'i'
	DB	00H, 'b', 00H, 'l', 00H, 'e', 00H, '"', 00H, 00H, 00H ; `string'
CONST	ENDS
;	COMDAT ??_C@_1OM@HCLAOKIM@?$AAs?$AAt?$AAd?$AA?3?$AA?3?$AA_?$AAV?$AAe?$AAc?$AAt?$AAo?$AAr?$AA_?$AAc?$AAo@
CONST	SEGMENT
??_C@_1OM@HCLAOKIM@?$AAs?$AAt?$AAd?$AA?3?$AA?3?$AA_?$AAV?$AAe?$AAc?$AAt?$AAo?$AAr?$AA_?$AAc?$AAo@ DB 's'
	DB	00H, 't', 00H, 'd', 00H, ':', 00H, ':', 00H, '_', 00H, 'V', 00H
	DB	'e', 00H, 'c', 00H, 't', 00H, 'o', 00H, 'r', 00H, '_', 00H, 'c'
	DB	00H, 'o', 00H, 'n', 00H, 's', 00H, 't', 00H, '_', 00H, 'i', 00H
	DB	't', 00H, 'e', 00H, 'r', 00H, 'a', 00H, 't', 00H, 'o', 00H, 'r'
	DB	00H, '<', 00H, 'c', 00H, 'l', 00H, 'a', 00H, 's', 00H, 's', 00H
	DB	' ', 00H, 's', 00H, 't', 00H, 'd', 00H, ':', 00H, ':', 00H, '_'
	DB	00H, 'V', 00H, 'e', 00H, 'c', 00H, 't', 00H, 'o', 00H, 'r', 00H
	DB	'_', 00H, 'v', 00H, 'a', 00H, 'l', 00H, '<', 00H, 's', 00H, 't'
	DB	00H, 'r', 00H, 'u', 00H, 'c', 00H, 't', 00H, ' ', 00H, 's', 00H
	DB	't', 00H, 'd', 00H, ':', 00H, ':', 00H, '_', 00H, 'S', 00H, 'i'
	DB	00H, 'm', 00H, 'p', 00H, 'l', 00H, 'e', 00H, '_', 00H, 't', 00H
	DB	'y', 00H, 'p', 00H, 'e', 00H, 's', 00H, '<', 00H, 's', 00H, 't'
	DB	00H, 'r', 00H, 'u', 00H, 'c', 00H, 't', 00H, ' ', 00H, 't', 00H
	DB	'h', 00H, 'o', 00H, 'r', 00H, ':', 00H, ':', 00H, 'd', 00H, 'e'
	DB	00H, 't', 00H, 'a', 00H, 'i', 00H, 'l', 00H, ':', 00H, ':', 00H
	DB	'F', 00H, 'r', 00H, 'a', 00H, 'm', 00H, 'e', 00H, '>', 00H, ' '
	DB	00H, '>', 00H, ' ', 00H, '>', 00H, ':', 00H, ':', 00H, '_', 00H
	DB	'C', 00H, 'o', 00H, 'm', 00H, 'p', 00H, 'a', 00H, 't', 00H, 00H
	DB	00H						; `string'
CONST	ENDS
;	COMDAT ??_C@_0BO@CAOBBIOC@vector?5iterators?5incompatible@
CONST	SEGMENT
??_C@_0BO@CAOBBIOC@vector?5iterators?5incompatible@ DB 'vector iterators '
	DB	'incompatible', 00H				; `string'
CONST	ENDS
;	COMDAT ??_C@_1GC@JDCKOLAC@?$AA?$CC?$AAc?$AAa?$AAn?$AA?8?$AAt?$AA?5?$AAd?$AAe?$AAr?$AAe?$AAf?$AAe?$AAr?$AAe@
CONST	SEGMENT
??_C@_1GC@JDCKOLAC@?$AA?$CC?$AAc?$AAa?$AAn?$AA?8?$AAt?$AA?5?$AAd?$AAe?$AAr?$AAe?$AAf?$AAe?$AAr?$AAe@ DB '"'
	DB	00H, 'c', 00H, 'a', 00H, 'n', 00H, '''', 00H, 't', 00H, ' ', 00H
	DB	'd', 00H, 'e', 00H, 'r', 00H, 'e', 00H, 'f', 00H, 'e', 00H, 'r'
	DB	00H, 'e', 00H, 'n', 00H, 'c', 00H, 'e', 00H, ' ', 00H, 'o', 00H
	DB	'u', 00H, 't', 00H, ' ', 00H, 'o', 00H, 'f', 00H, ' ', 00H, 'r'
	DB	00H, 'a', 00H, 'n', 00H, 'g', 00H, 'e', 00H, ' ', 00H, 'v', 00H
	DB	'e', 00H, 'c', 00H, 't', 00H, 'o', 00H, 'r', 00H, ' ', 00H, 'i'
	DB	00H, 't', 00H, 'e', 00H, 'r', 00H, 'a', 00H, 't', 00H, 'o', 00H
	DB	'r', 00H, '"', 00H, 00H, 00H			; `string'
CONST	ENDS
;	COMDAT ??_C@_0CP@MDHADBHN@can?8t?5dereference?5out?5of?5range?5@
CONST	SEGMENT
??_C@_0CP@MDHADBHN@can?8t?5dereference?5out?5of?5range?5@ DB 'can''t dere'
	DB	'ference out of range vector iterator', 00H	; `string'
CONST	ENDS
;	COMDAT ??_C@_1GM@FNBFNBEL@?$AA?$CC?$AAc?$AAa?$AAn?$AA?8?$AAt?$AA?5?$AAd?$AAe?$AAr?$AAe?$AAf?$AAe?$AAr?$AAe@
CONST	SEGMENT
??_C@_1GM@FNBFNBEL@?$AA?$CC?$AAc?$AAa?$AAn?$AA?8?$AAt?$AA?5?$AAd?$AAe?$AAr?$AAe?$AAf?$AAe?$AAr?$AAe@ DB '"'
	DB	00H, 'c', 00H, 'a', 00H, 'n', 00H, '''', 00H, 't', 00H, ' ', 00H
	DB	'd', 00H, 'e', 00H, 'r', 00H, 'e', 00H, 'f', 00H, 'e', 00H, 'r'
	DB	00H, 'e', 00H, 'n', 00H, 'c', 00H, 'e', 00H, ' ', 00H, 'v', 00H
	DB	'a', 00H, 'l', 00H, 'u', 00H, 'e', 00H, '-', 00H, 'i', 00H, 'n'
	DB	00H, 'i', 00H, 't', 00H, 'i', 00H, 'a', 00H, 'l', 00H, 'i', 00H
	DB	'z', 00H, 'e', 00H, 'd', 00H, ' ', 00H, 'v', 00H, 'e', 00H, 'c'
	DB	00H, 't', 00H, 'o', 00H, 'r', 00H, ' ', 00H, 'i', 00H, 't', 00H
	DB	'e', 00H, 'r', 00H, 'a', 00H, 't', 00H, 'o', 00H, 'r', 00H, '"'
	DB	00H, 00H, 00H				; `string'
CONST	ENDS
;	COMDAT ??_C@_1PC@NJLMOKFM@?$AAs?$AAt?$AAd?$AA?3?$AA?3?$AA_?$AAV?$AAe?$AAc?$AAt?$AAo?$AAr?$AA_?$AAc?$AAo@
CONST	SEGMENT
??_C@_1PC@NJLMOKFM@?$AAs?$AAt?$AAd?$AA?3?$AA?3?$AA_?$AAV?$AAe?$AAc?$AAt?$AAo?$AAr?$AA_?$AAc?$AAo@ DB 's'
	DB	00H, 't', 00H, 'd', 00H, ':', 00H, ':', 00H, '_', 00H, 'V', 00H
	DB	'e', 00H, 'c', 00H, 't', 00H, 'o', 00H, 'r', 00H, '_', 00H, 'c'
	DB	00H, 'o', 00H, 'n', 00H, 's', 00H, 't', 00H, '_', 00H, 'i', 00H
	DB	't', 00H, 'e', 00H, 'r', 00H, 'a', 00H, 't', 00H, 'o', 00H, 'r'
	DB	00H, '<', 00H, 'c', 00H, 'l', 00H, 'a', 00H, 's', 00H, 's', 00H
	DB	' ', 00H, 's', 00H, 't', 00H, 'd', 00H, ':', 00H, ':', 00H, '_'
	DB	00H, 'V', 00H, 'e', 00H, 'c', 00H, 't', 00H, 'o', 00H, 'r', 00H
	DB	'_', 00H, 'v', 00H, 'a', 00H, 'l', 00H, '<', 00H, 's', 00H, 't'
	DB	00H, 'r', 00H, 'u', 00H, 'c', 00H, 't', 00H, ' ', 00H, 's', 00H
	DB	't', 00H, 'd', 00H, ':', 00H, ':', 00H, '_', 00H, 'S', 00H, 'i'
	DB	00H, 'm', 00H, 'p', 00H, 'l', 00H, 'e', 00H, '_', 00H, 't', 00H
	DB	'y', 00H, 'p', 00H, 'e', 00H, 's', 00H, '<', 00H, 's', 00H, 't'
	DB	00H, 'r', 00H, 'u', 00H, 'c', 00H, 't', 00H, ' ', 00H, 't', 00H
	DB	'h', 00H, 'o', 00H, 'r', 00H, ':', 00H, ':', 00H, 'd', 00H, 'e'
	DB	00H, 't', 00H, 'a', 00H, 'i', 00H, 'l', 00H, ':', 00H, ':', 00H
	DB	'F', 00H, 'r', 00H, 'a', 00H, 'm', 00H, 'e', 00H, '>', 00H, ' '
	DB	00H, '>', 00H, ' ', 00H, '>', 00H, ':', 00H, ':', 00H, 'o', 00H
	DB	'p', 00H, 'e', 00H, 'r', 00H, 'a', 00H, 't', 00H, 'o', 00H, 'r'
	DB	00H, ' ', 00H, '*', 00H, 00H, 00H		; `string'
CONST	ENDS
;	COMDAT ??_C@_0DE@CHADHGFF@can?8t?5dereference?5value?9initial@
CONST	SEGMENT
??_C@_0DE@CHADHGFF@can?8t?5dereference?5value?9initial@ DB 'can''t derefe'
	DB	'rence value-initialized vector iterator', 00H ; `string'
CONST	ENDS
;	COMDAT ??_C@_1FG@LDPPKMGP@?$AA?$CC?$AAc?$AAa?$AAn?$AA?8?$AAt?$AA?5?$AAi?$AAn?$AAc?$AAr?$AAe?$AAm?$AAe?$AAn@
CONST	SEGMENT
??_C@_1FG@LDPPKMGP@?$AA?$CC?$AAc?$AAa?$AAn?$AA?8?$AAt?$AA?5?$AAi?$AAn?$AAc?$AAr?$AAe?$AAm?$AAe?$AAn@ DB '"'
	DB	00H, 'c', 00H, 'a', 00H, 'n', 00H, '''', 00H, 't', 00H, ' ', 00H
	DB	'i', 00H, 'n', 00H, 'c', 00H, 'r', 00H, 'e', 00H, 'm', 00H, 'e'
	DB	00H, 'n', 00H, 't', 00H, ' ', 00H, 'v', 00H, 'e', 00H, 'c', 00H
	DB	't', 00H, 'o', 00H, 'r', 00H, ' ', 00H, 'i', 00H, 't', 00H, 'e'
	DB	00H, 'r', 00H, 'a', 00H, 't', 00H, 'o', 00H, 'r', 00H, ' ', 00H
	DB	'p', 00H, 'a', 00H, 's', 00H, 't', 00H, ' ', 00H, 'e', 00H, 'n'
	DB	00H, 'd', 00H, '"', 00H, 00H, 00H		; `string'
CONST	ENDS
;	COMDAT ??_C@_0CJ@OAAAAGPM@can?8t?5increment?5vector?5iterator@
CONST	SEGMENT
??_C@_0CJ@OAAAAGPM@can?8t?5increment?5vector?5iterator@ DB 'can''t increm'
	DB	'ent vector iterator past end', 00H		; `string'
CONST	ENDS
;	COMDAT ??_C@_1GI@EDCILPL@?$AA?$CC?$AAc?$AAa?$AAn?$AA?8?$AAt?$AA?5?$AAi?$AAn?$AAc?$AAr?$AAe?$AAm?$AAe?$AAn@
CONST	SEGMENT
??_C@_1GI@EDCILPL@?$AA?$CC?$AAc?$AAa?$AAn?$AA?8?$AAt?$AA?5?$AAi?$AAn?$AAc?$AAr?$AAe?$AAm?$AAe?$AAn@ DB '"'
	DB	00H, 'c', 00H, 'a', 00H, 'n', 00H, '''', 00H, 't', 00H, ' ', 00H
	DB	'i', 00H, 'n', 00H, 'c', 00H, 'r', 00H, 'e', 00H, 'm', 00H, 'e'
	DB	00H, 'n', 00H, 't', 00H, ' ', 00H, 'v', 00H, 'a', 00H, 'l', 00H
	DB	'u', 00H, 'e', 00H, '-', 00H, 'i', 00H, 'n', 00H, 'i', 00H, 't'
	DB	00H, 'i', 00H, 'a', 00H, 'l', 00H, 'i', 00H, 'z', 00H, 'e', 00H
	DB	'd', 00H, ' ', 00H, 'v', 00H, 'e', 00H, 'c', 00H, 't', 00H, 'o'
	DB	00H, 'r', 00H, ' ', 00H, 'i', 00H, 't', 00H, 'e', 00H, 'r', 00H
	DB	'a', 00H, 't', 00H, 'o', 00H, 'r', 00H, '"', 00H, 00H, 00H ; `string'
CONST	ENDS
;	COMDAT ??_C@_1PE@OKLODLBI@?$AAs?$AAt?$AAd?$AA?3?$AA?3?$AA_?$AAV?$AAe?$AAc?$AAt?$AAo?$AAr?$AA_?$AAc?$AAo@
CONST	SEGMENT
??_C@_1PE@OKLODLBI@?$AAs?$AAt?$AAd?$AA?3?$AA?3?$AA_?$AAV?$AAe?$AAc?$AAt?$AAo?$AAr?$AA_?$AAc?$AAo@ DB 's'
	DB	00H, 't', 00H, 'd', 00H, ':', 00H, ':', 00H, '_', 00H, 'V', 00H
	DB	'e', 00H, 'c', 00H, 't', 00H, 'o', 00H, 'r', 00H, '_', 00H, 'c'
	DB	00H, 'o', 00H, 'n', 00H, 's', 00H, 't', 00H, '_', 00H, 'i', 00H
	DB	't', 00H, 'e', 00H, 'r', 00H, 'a', 00H, 't', 00H, 'o', 00H, 'r'
	DB	00H, '<', 00H, 'c', 00H, 'l', 00H, 'a', 00H, 's', 00H, 's', 00H
	DB	' ', 00H, 's', 00H, 't', 00H, 'd', 00H, ':', 00H, ':', 00H, '_'
	DB	00H, 'V', 00H, 'e', 00H, 'c', 00H, 't', 00H, 'o', 00H, 'r', 00H
	DB	'_', 00H, 'v', 00H, 'a', 00H, 'l', 00H, '<', 00H, 's', 00H, 't'
	DB	00H, 'r', 00H, 'u', 00H, 'c', 00H, 't', 00H, ' ', 00H, 's', 00H
	DB	't', 00H, 'd', 00H, ':', 00H, ':', 00H, '_', 00H, 'S', 00H, 'i'
	DB	00H, 'm', 00H, 'p', 00H, 'l', 00H, 'e', 00H, '_', 00H, 't', 00H
	DB	'y', 00H, 'p', 00H, 'e', 00H, 's', 00H, '<', 00H, 's', 00H, 't'
	DB	00H, 'r', 00H, 'u', 00H, 'c', 00H, 't', 00H, ' ', 00H, 't', 00H
	DB	'h', 00H, 'o', 00H, 'r', 00H, ':', 00H, ':', 00H, 'd', 00H, 'e'
	DB	00H, 't', 00H, 'a', 00H, 'i', 00H, 'l', 00H, ':', 00H, ':', 00H
	DB	'F', 00H, 'r', 00H, 'a', 00H, 'm', 00H, 'e', 00H, '>', 00H, ' '
	DB	00H, '>', 00H, ' ', 00H, '>', 00H, ':', 00H, ':', 00H, 'o', 00H
	DB	'p', 00H, 'e', 00H, 'r', 00H, 'a', 00H, 't', 00H, 'o', 00H, 'r'
	DB	00H, ' ', 00H, '+', 00H, '+', 00H, 00H, 00H	; `string'
CONST	ENDS
;	COMDAT ??_C@_1MO@NOHEJINP@?$AAC?$AA?3?$AA?2?$AAP?$AAr?$AAo?$AAg?$AAr?$AAa?$AAm?$AA?5?$AAF?$AAi?$AAl?$AAe@
CONST	SEGMENT
??_C@_1MO@NOHEJINP@?$AAC?$AA?3?$AA?2?$AAP?$AAr?$AAo?$AAg?$AAr?$AAa?$AAm?$AA?5?$AAF?$AAi?$AAl?$AAe@ DB 'C'
	DB	00H, ':', 00H, '\', 00H, 'P', 00H, 'r', 00H, 'o', 00H, 'g', 00H
	DB	'r', 00H, 'a', 00H, 'm', 00H, ' ', 00H, 'F', 00H, 'i', 00H, 'l'
	DB	00H, 'e', 00H, 's', 00H, ' ', 00H, '(', 00H, 'x', 00H, '8', 00H
	DB	'6', 00H, ')', 00H, '\', 00H, 'M', 00H, 'i', 00H, 'c', 00H, 'r'
	DB	00H, 'o', 00H, 's', 00H, 'o', 00H, 'f', 00H, 't', 00H, ' ', 00H
	DB	'V', 00H, 'i', 00H, 's', 00H, 'u', 00H, 'a', 00H, 'l', 00H, ' '
	DB	00H, 'S', 00H, 't', 00H, 'u', 00H, 'd', 00H, 'i', 00H, 'o', 00H
	DB	'\', 00H, '2', 00H, '0', 00H, '1', 00H, '9', 00H, '\', 00H, 'C'
	DB	00H, 'o', 00H, 'm', 00H, 'm', 00H, 'u', 00H, 'n', 00H, 'i', 00H
	DB	't', 00H, 'y', 00H, '\', 00H, 'V', 00H, 'C', 00H, '\', 00H, 'T'
	DB	00H, 'o', 00H, 'o', 00H, 'l', 00H, 's', 00H, '\', 00H, 'M', 00H
	DB	'S', 00H, 'V', 00H, 'C', 00H, '\', 00H, '1', 00H, '4', 00H, '.'
	DB	00H, '2', 00H, '9', 00H, '.', 00H, '3', 00H, '0', 00H, '1', 00H
	DB	'3', 00H, '3', 00H, '\', 00H, 'i', 00H, 'n', 00H, 'c', 00H, 'l'
	DB	00H, 'u', 00H, 'd', 00H, 'e', 00H, '\', 00H, 'v', 00H, 'e', 00H
	DB	'c', 00H, 't', 00H, 'o', 00H, 'r', 00H, 00H, 00H ; `string'
CONST	ENDS
;	COMDAT ??_C@_0GH@KMHDIFOI@C?3?2Program?5Files?5?$CIx86?$CJ?2Microsof@
CONST	SEGMENT
??_C@_0GH@KMHDIFOI@C?3?2Program?5Files?5?$CIx86?$CJ?2Microsof@ DB 'C:\Pro'
	DB	'gram Files (x86)\Microsoft Visual Studio\2019\Community\VC\To'
	DB	'ols\MSVC\14.29.30133\include\vector', 00H	; `string'
CONST	ENDS
;	COMDAT ??_C@_0DC@KEKNBAEB@can?8t?5increment?5value?9initializ@
CONST	SEGMENT
??_C@_0DC@KEKNBAEB@can?8t?5increment?5value?9initializ@ DB 'can''t increm'
	DB	'ent value-initialized vector iterator', 00H	; `string'
CONST	ENDS
;	COMDAT ??_C@_1CK@NDNHPKPI@?$AA?$CC?$AAi?$AAn?$AAv?$AAa?$AAl?$AAi?$AAd?$AA?5?$AAc?$AAo?$AAm?$AAp?$AAa?$AAr@
CONST	SEGMENT
??_C@_1CK@NDNHPKPI@?$AA?$CC?$AAi?$AAn?$AAv?$AAa?$AAl?$AAi?$AAd?$AA?5?$AAc?$AAo?$AAm?$AAp?$AAa?$AAr@ DB '"'
	DB	00H, 'i', 00H, 'n', 00H, 'v', 00H, 'a', 00H, 'l', 00H, 'i', 00H
	DB	'd', 00H, ' ', 00H, 'c', 00H, 'o', 00H, 'm', 00H, 'p', 00H, 'a'
	DB	00H, 'r', 00H, 'a', 00H, 't', 00H, 'o', 00H, 'r', 00H, '"', 00H
	DB	00H, 00H					; `string'
CONST	ENDS
;	COMDAT ??_C@_1CI@JONCLBEJ@?$AAs?$AAt?$AAd?$AA?3?$AA?3?$AA_?$AAD?$AAe?$AAb?$AAu?$AAg?$AA_?$AAl?$AAt?$AA_@
CONST	SEGMENT
??_C@_1CI@JONCLBEJ@?$AAs?$AAt?$AAd?$AA?3?$AA?3?$AA_?$AAD?$AAe?$AAb?$AAu?$AAg?$AA_?$AAl?$AAt?$AA_@ DB 's'
	DB	00H, 't', 00H, 'd', 00H, ':', 00H, ':', 00H, '_', 00H, 'D', 00H
	DB	'e', 00H, 'b', 00H, 'u', 00H, 'g', 00H, '_', 00H, 'l', 00H, 't'
	DB	00H, '_', 00H, 'p', 00H, 'r', 00H, 'e', 00H, 'd', 00H, 00H, 00H ; `string'
CONST	ENDS
;	COMDAT ??_C@_0BD@FEEMDEPI@invalid?5comparator@
CONST	SEGMENT
??_C@_0BD@FEEMDEPI@invalid?5comparator@ DB 'invalid comparator', 00H ; `string'
CONST	ENDS
;	COMDAT ??_C@_1FE@NKHAAGMB@?$AA?$CC?$AAc?$AAa?$AAn?$AAn?$AAo?$AAt?$AA?5?$AAd?$AAe?$AAr?$AAe?$AAf?$AAe?$AAr@
CONST	SEGMENT
??_C@_1FE@NKHAAGMB@?$AA?$CC?$AAc?$AAa?$AAn?$AAn?$AAo?$AAt?$AA?5?$AAd?$AAe?$AAr?$AAe?$AAf?$AAe?$AAr@ DB '"'
	DB	00H, 'c', 00H, 'a', 00H, 'n', 00H, 'n', 00H, 'o', 00H, 't', 00H
	DB	' ', 00H, 'd', 00H, 'e', 00H, 'r', 00H, 'e', 00H, 'f', 00H, 'e'
	DB	00H, 'r', 00H, 'e', 00H, 'n', 00H, 'c', 00H, 'e', 00H, ' ', 00H
	DB	'e', 00H, 'n', 00H, 'd', 00H, ' ', 00H, 'm', 00H, 'a', 00H, 'p'
	DB	00H, '/', 00H, 's', 00H, 'e', 00H, 't', 00H, ' ', 00H, 'i', 00H
	DB	't', 00H, 'e', 00H, 'r', 00H, 'a', 00H, 't', 00H, 'o', 00H, 'r'
	DB	00H, '"', 00H, 00H, 00H			; `string'
CONST	ENDS
;	COMDAT ??_C@_0CI@OKFEHCEB@cannot?5dereference?5end?5map?1set?5@
CONST	SEGMENT
??_C@_0CI@OKFEHCEB@cannot?5dereference?5end?5map?1set?5@ DB 'cannot deref'
	DB	'erence end map/set iterator', 00H		; `string'
CONST	ENDS
;	COMDAT ??_C@_1HA@ILGCNILF@?$AA?$CC?$AAc?$AAa?$AAn?$AAn?$AAo?$AAt?$AA?5?$AAd?$AAe?$AAr?$AAe?$AAf?$AAe?$AAr@
CONST	SEGMENT
??_C@_1HA@ILGCNILF@?$AA?$CC?$AAc?$AAa?$AAn?$AAn?$AAo?$AAt?$AA?5?$AAd?$AAe?$AAr?$AAe?$AAf?$AAe?$AAr@ DB '"'
	DB	00H, 'c', 00H, 'a', 00H, 'n', 00H, 'n', 00H, 'o', 00H, 't', 00H
	DB	' ', 00H, 'd', 00H, 'e', 00H, 'r', 00H, 'e', 00H, 'f', 00H, 'e'
	DB	00H, 'r', 00H, 'e', 00H, 'n', 00H, 'c', 00H, 'e', 00H, ' ', 00H
	DB	'v', 00H, 'a', 00H, 'l', 00H, 'u', 00H, 'e', 00H, '-', 00H, 'i'
	DB	00H, 'n', 00H, 'i', 00H, 't', 00H, 'i', 00H, 'a', 00H, 'l', 00H
	DB	'i', 00H, 'z', 00H, 'e', 00H, 'd', 00H, ' ', 00H, 'm', 00H, 'a'
	DB	00H, 'p', 00H, '/', 00H, 's', 00H, 'e', 00H, 't', 00H, ' ', 00H
	DB	'i', 00H, 't', 00H, 'e', 00H, 'r', 00H, 'a', 00H, 't', 00H, 'o'
	DB	00H, 'r', 00H, '"', 00H, 00H, 00H		; `string'
CONST	ENDS
;	COMDAT ??_C@_1CFO@DPFJDIHM@?$AAs?$AAt?$AAd?$AA?3?$AA?3?$AA_?$AAT?$AAr?$AAe?$AAe?$AA_?$AAc?$AAo?$AAn?$AAs@
CONST	SEGMENT
??_C@_1CFO@DPFJDIHM@?$AAs?$AAt?$AAd?$AA?3?$AA?3?$AA_?$AAT?$AAr?$AAe?$AAe?$AA_?$AAc?$AAo?$AAn?$AAs@ DB 's'
	DB	00H, 't', 00H, 'd', 00H, ':', 00H, ':', 00H, '_', 00H, 'T', 00H
	DB	'r', 00H, 'e', 00H, 'e', 00H, '_', 00H, 'c', 00H, 'o', 00H, 'n'
	DB	00H, 's', 00H, 't', 00H, '_', 00H, 'i', 00H, 't', 00H, 'e', 00H
	DB	'r', 00H, 'a', 00H, 't', 00H, 'o', 00H, 'r', 00H, '<', 00H, 'c'
	DB	00H, 'l', 00H, 'a', 00H, 's', 00H, 's', 00H, ' ', 00H, 's', 00H
	DB	't', 00H, 'd', 00H, ':', 00H, ':', 00H, '_', 00H, 'T', 00H, 'r'
	DB	00H, 'e', 00H, 'e', 00H, '_', 00H, 'v', 00H, 'a', 00H, 'l', 00H
	DB	'<', 00H, 's', 00H, 't', 00H, 'r', 00H, 'u', 00H, 'c', 00H, 't'
	DB	00H, ' ', 00H, 's', 00H, 't', 00H, 'd', 00H, ':', 00H, ':', 00H
	DB	'_', 00H, 'T', 00H, 'r', 00H, 'e', 00H, 'e', 00H, '_', 00H, 's'
	DB	00H, 'i', 00H, 'm', 00H, 'p', 00H, 'l', 00H, 'e', 00H, '_', 00H
	DB	't', 00H, 'y', 00H, 'p', 00H, 'e', 00H, 's', 00H, '<', 00H, 's'
	DB	00H, 't', 00H, 'r', 00H, 'u', 00H, 'c', 00H, 't', 00H, ' ', 00H
	DB	's', 00H, 't', 00H, 'd', 00H, ':', 00H, ':', 00H, 'p', 00H, 'a'
	DB	00H, 'i', 00H, 'r', 00H, '<', 00H, 'c', 00H, 'l', 00H, 'a', 00H
	DB	's', 00H, 's', 00H, ' ', 00H, 's', 00H, 't', 00H, 'd', 00H, ':'
	DB	00H, ':', 00H, 'b', 00H, 'a', 00H, 's', 00H, 'i', 00H, 'c', 00H
	DB	'_', 00H, 's', 00H, 't', 00H, 'r', 00H, 'i', 00H, 'n', 00H, 'g'
	DB	00H, '<', 00H, 'c', 00H, 'h', 00H, 'a', 00H, 'r', 00H, ',', 00H
	DB	's', 00H, 't', 00H, 'r', 00H, 'u', 00H, 'c', 00H, 't', 00H, ' '
	DB	00H, 's', 00H, 't', 00H, 'd', 00H, ':', 00H, ':', 00H, 'c', 00H
	DB	'h', 00H, 'a', 00H, 'r', 00H, '_', 00H, 't', 00H, 'r', 00H, 'a'
	DB	00H, 'i', 00H, 't', 00H, 's', 00H, '<', 00H, 'c', 00H, 'h', 00H
	DB	'a', 00H, 'r', 00H, '>', 00H, ',', 00H, 'c', 00H, 'l', 00H, 'a'
	DB	00H, 's', 00H, 's', 00H, ' ', 00H, 's', 00H, 't', 00H, 'd', 00H
	DB	':', 00H, ':', 00H, 'a', 00H, 'l', 00H, 'l', 00H, 'o', 00H, 'c'
	DB	00H, 'a', 00H, 't', 00H, 'o', 00H, 'r', 00H, '<', 00H, 'c', 00H
	DB	'h', 00H, 'a', 00H, 'r', 00H, '>', 00H, ' ', 00H, '>', 00H, ' '
	DB	00H, 'c', 00H, 'o', 00H, 'n', 00H, 's', 00H, 't', 00H, ' ', 00H
	DB	',', 00H, 's', 00H, 't', 00H, 'r', 00H, 'u', 00H, 'c', 00H, 't'
	DB	00H, ' ', 00H, 's', 00H, 't', 00H, 'd', 00H, ':', 00H, ':', 00H
	DB	'p', 00H, 'a', 00H, 'i', 00H, 'r', 00H, '<', 00H, 'c', 00H, 'l'
	DB	00H, 'a', 00H, 's', 00H, 's', 00H, ' ', 00H, 's', 00H, 't', 00H
	DB	'd', 00H, ':', 00H, ':', 00H, 'f', 00H, 'u', 00H, 'n', 00H, 'c'
	DB	00H, 't', 00H, 'i', 00H, 'o', 00H, 'n', 00H, '<', 00H, 'v', 00H
	DB	'o', 00H, 'i', 00H, 'd', 00H, ' ', 00H, '_', 00H, '_', 00H, 'c'
	DB	00H, 'd', 00H, 'e', 00H, 'c', 00H, 'l', 00H, '(', 00H, 'c', 00H
	DB	'l', 00H, 'a', 00H, 's', 00H, 's', 00H, ' ', 00H, 's', 00H, 'f'
	DB	00H, ':', 00H, ':', 00H, 'S', 00H, 'p', 00H, 'r', 00H, 'i', 00H
	DB	't', 00H, 'e', 00H, ' ', 00H, '&', 00H, ',', 00H, 'f', 00H, 'l'
	DB	00H, 'o', 00H, 'a', 00H, 't', 00H, ')', 00H, '>', 00H, ',', 00H
	DB	'c', 00H, 'l', 00H, 'a', 00H, 's', 00H, 's', 00H, ' ', 00H, 's'
	DB	00H, 'f', 00H, ':', 00H, ':', 00H, 'T', 00H, 'i', 00H, 'm', 00H
	DB	'e', 00H, '>', 00H, ' ', 00H, '>', 00H, ' ', 00H, '>', 00H, ' '
	DB	00H, '>', 00H, ' ', 00H, '>', 00H, ':', 00H, ':', 00H, 'o', 00H
	DB	'p', 00H, 'e', 00H, 'r', 00H, 'a', 00H, 't', 00H, 'o', 00H, 'r'
	DB	00H, ' ', 00H, '*', 00H, 00H, 00H		; `string'
CONST	ENDS
;	COMDAT ??_C@_0DG@LCFNIIPB@cannot?5dereference?5value?9initia@
CONST	SEGMENT
??_C@_0DG@LCFNIIPB@cannot?5dereference?5value?9initia@ DB 'cannot derefer'
	DB	'ence value-initialized map/set iterator', 00H ; `string'
CONST	ENDS
;	COMDAT ??_R0?AVFrameAnimation@thor@@@8
data$r	SEGMENT
??_R0?AVFrameAnimation@thor@@@8 DD FLAT:??_7type_info@@6B@ ; thor::FrameAnimation `RTTI Type Descriptor'
	DD	00H
	DB	'.?AVFrameAnimation@thor@@', 00H
data$r	ENDS
;	COMDAT ??_7?$_Func_impl_no_alloc@VFrameAnimation@thor@@XAAVSprite@sf@@M@std@@6B@
CONST	SEGMENT
??_7?$_Func_impl_no_alloc@VFrameAnimation@thor@@XAAVSprite@sf@@M@std@@6B@ DD FLAT:??_R4?$_Func_impl_no_alloc@VFrameAnimation@thor@@XAAVSprite@sf@@M@std@@6B@ ; std::_Func_impl_no_alloc<thor::FrameAnimation,void,sf::Sprite &,float>::`vftable'
	DD	FLAT:?_Copy@?$_Func_impl_no_alloc@VFrameAnimation@thor@@XAAVSprite@sf@@M@std@@EBEPAV?$_Func_base@XAAVSprite@sf@@M@2@PAX@Z
	DD	FLAT:?_Move@?$_Func_impl_no_alloc@VFrameAnimation@thor@@XAAVSprite@sf@@M@std@@EAEPAV?$_Func_base@XAAVSprite@sf@@M@2@PAX@Z
	DD	FLAT:?_Do_call@?$_Func_impl_no_alloc@VFrameAnimation@thor@@XAAVSprite@sf@@M@std@@EAEXAAVSprite@sf@@$$QAM@Z
	DD	FLAT:?_Target_type@?$_Func_impl_no_alloc@VFrameAnimation@thor@@XAAVSprite@sf@@M@std@@EBEABVtype_info@@XZ
	DD	FLAT:?_Delete_this@?$_Func_impl_no_alloc@VFrameAnimation@thor@@XAAVSprite@sf@@M@std@@EAEX_N@Z
	DD	FLAT:?_Get@?$_Func_impl_no_alloc@VFrameAnimation@thor@@XAAVSprite@sf@@M@std@@EBEPBXXZ
CONST	ENDS
;	COMDAT ??_C@_1NC@IFKPGDLA@?$AAC?$AA?3?$AA?2?$AAP?$AAr?$AAo?$AAg?$AAr?$AAa?$AAm?$AA?5?$AAF?$AAi?$AAl?$AAe@
CONST	SEGMENT
??_C@_1NC@IFKPGDLA@?$AAC?$AA?3?$AA?2?$AAP?$AAr?$AAo?$AAg?$AAr?$AAa?$AAm?$AA?5?$AAF?$AAi?$AAl?$AAe@ DB 'C'
	DB	00H, ':', 00H, '\', 00H, 'P', 00H, 'r', 00H, 'o', 00H, 'g', 00H
	DB	'r', 00H, 'a', 00H, 'm', 00H, ' ', 00H, 'F', 00H, 'i', 00H, 'l'
	DB	00H, 'e', 00H, 's', 00H, ' ', 00H, '(', 00H, 'x', 00H, '8', 00H
	DB	'6', 00H, ')', 00H, '\', 00H, 'M', 00H, 'i', 00H, 'c', 00H, 'r'
	DB	00H, 'o', 00H, 's', 00H, 'o', 00H, 'f', 00H, 't', 00H, ' ', 00H
	DB	'V', 00H, 'i', 00H, 's', 00H, 'u', 00H, 'a', 00H, 'l', 00H, ' '
	DB	00H, 'S', 00H, 't', 00H, 'u', 00H, 'd', 00H, 'i', 00H, 'o', 00H
	DB	'\', 00H, '2', 00H, '0', 00H, '1', 00H, '9', 00H, '\', 00H, 'C'
	DB	00H, 'o', 00H, 'm', 00H, 'm', 00H, 'u', 00H, 'n', 00H, 'i', 00H
	DB	't', 00H, 'y', 00H, '\', 00H, 'V', 00H, 'C', 00H, '\', 00H, 'T'
	DB	00H, 'o', 00H, 'o', 00H, 'l', 00H, 's', 00H, '\', 00H, 'M', 00H
	DB	'S', 00H, 'V', 00H, 'C', 00H, '\', 00H, '1', 00H, '4', 00H, '.'
	DB	00H, '2', 00H, '9', 00H, '.', 00H, '3', 00H, '0', 00H, '1', 00H
	DB	'3', 00H, '3', 00H, '\', 00H, 'i', 00H, 'n', 00H, 'c', 00H, 'l'
	DB	00H, 'u', 00H, 'd', 00H, 'e', 00H, '\', 00H, 'x', 00H, 'u', 00H
	DB	't', 00H, 'i', 00H, 'l', 00H, 'i', 00H, 't', 00H, 'y', 00H, 00H
	DB	00H						; `string'
CONST	ENDS
;	COMDAT ??_C@_0GJ@MPIAFDPJ@C?3?2Program?5Files?5?$CIx86?$CJ?2Microsof@
CONST	SEGMENT
??_C@_0GJ@MPIAFDPJ@C?3?2Program?5Files?5?$CIx86?$CJ?2Microsof@ DB 'C:\Pro'
	DB	'gram Files (x86)\Microsoft Visual Studio\2019\Community\VC\To'
	DB	'ols\MSVC\14.29.30133\include\xutility', 00H	; `string'
CONST	ENDS
;	COMDAT ??_C@_1EC@JLIDLCDH@?$AA?$CC?$AAm?$AAa?$AAp?$AA?1?$AAs?$AAe?$AAt?$AA?5?$AAi?$AAt?$AAe?$AAr?$AAa?$AAt@
CONST	SEGMENT
??_C@_1EC@JLIDLCDH@?$AA?$CC?$AAm?$AAa?$AAp?$AA?1?$AAs?$AAe?$AAt?$AA?5?$AAi?$AAt?$AAe?$AAr?$AAa?$AAt@ DB '"'
	DB	00H, 'm', 00H, 'a', 00H, 'p', 00H, '/', 00H, 's', 00H, 'e', 00H
	DB	't', 00H, ' ', 00H, 'i', 00H, 't', 00H, 'e', 00H, 'r', 00H, 'a'
	DB	00H, 't', 00H, 'o', 00H, 'r', 00H, 's', 00H, ' ', 00H, 'i', 00H
	DB	'n', 00H, 'c', 00H, 'o', 00H, 'm', 00H, 'p', 00H, 'a', 00H, 't'
	DB	00H, 'i', 00H, 'b', 00H, 'l', 00H, 'e', 00H, '"', 00H, 00H, 00H ; `string'
CONST	ENDS
;	COMDAT ??_C@_1CGA@LHBKKDGC@?$AAs?$AAt?$AAd?$AA?3?$AA?3?$AA_?$AAT?$AAr?$AAe?$AAe?$AA_?$AAc?$AAo?$AAn?$AAs@
CONST	SEGMENT
??_C@_1CGA@LHBKKDGC@?$AAs?$AAt?$AAd?$AA?3?$AA?3?$AA_?$AAT?$AAr?$AAe?$AAe?$AA_?$AAc?$AAo?$AAn?$AAs@ DB 's'
	DB	00H, 't', 00H, 'd', 00H, ':', 00H, ':', 00H, '_', 00H, 'T', 00H
	DB	'r', 00H, 'e', 00H, 'e', 00H, '_', 00H, 'c', 00H, 'o', 00H, 'n'
	DB	00H, 's', 00H, 't', 00H, '_', 00H, 'i', 00H, 't', 00H, 'e', 00H
	DB	'r', 00H, 'a', 00H, 't', 00H, 'o', 00H, 'r', 00H, '<', 00H, 'c'
	DB	00H, 'l', 00H, 'a', 00H, 's', 00H, 's', 00H, ' ', 00H, 's', 00H
	DB	't', 00H, 'd', 00H, ':', 00H, ':', 00H, '_', 00H, 'T', 00H, 'r'
	DB	00H, 'e', 00H, 'e', 00H, '_', 00H, 'v', 00H, 'a', 00H, 'l', 00H
	DB	'<', 00H, 's', 00H, 't', 00H, 'r', 00H, 'u', 00H, 'c', 00H, 't'
	DB	00H, ' ', 00H, 's', 00H, 't', 00H, 'd', 00H, ':', 00H, ':', 00H
	DB	'_', 00H, 'T', 00H, 'r', 00H, 'e', 00H, 'e', 00H, '_', 00H, 's'
	DB	00H, 'i', 00H, 'm', 00H, 'p', 00H, 'l', 00H, 'e', 00H, '_', 00H
	DB	't', 00H, 'y', 00H, 'p', 00H, 'e', 00H, 's', 00H, '<', 00H, 's'
	DB	00H, 't', 00H, 'r', 00H, 'u', 00H, 'c', 00H, 't', 00H, ' ', 00H
	DB	's', 00H, 't', 00H, 'd', 00H, ':', 00H, ':', 00H, 'p', 00H, 'a'
	DB	00H, 'i', 00H, 'r', 00H, '<', 00H, 'c', 00H, 'l', 00H, 'a', 00H
	DB	's', 00H, 's', 00H, ' ', 00H, 's', 00H, 't', 00H, 'd', 00H, ':'
	DB	00H, ':', 00H, 'b', 00H, 'a', 00H, 's', 00H, 'i', 00H, 'c', 00H
	DB	'_', 00H, 's', 00H, 't', 00H, 'r', 00H, 'i', 00H, 'n', 00H, 'g'
	DB	00H, '<', 00H, 'c', 00H, 'h', 00H, 'a', 00H, 'r', 00H, ',', 00H
	DB	's', 00H, 't', 00H, 'r', 00H, 'u', 00H, 'c', 00H, 't', 00H, ' '
	DB	00H, 's', 00H, 't', 00H, 'd', 00H, ':', 00H, ':', 00H, 'c', 00H
	DB	'h', 00H, 'a', 00H, 'r', 00H, '_', 00H, 't', 00H, 'r', 00H, 'a'
	DB	00H, 'i', 00H, 't', 00H, 's', 00H, '<', 00H, 'c', 00H, 'h', 00H
	DB	'a', 00H, 'r', 00H, '>', 00H, ',', 00H, 'c', 00H, 'l', 00H, 'a'
	DB	00H, 's', 00H, 's', 00H, ' ', 00H, 's', 00H, 't', 00H, 'd', 00H
	DB	':', 00H, ':', 00H, 'a', 00H, 'l', 00H, 'l', 00H, 'o', 00H, 'c'
	DB	00H, 'a', 00H, 't', 00H, 'o', 00H, 'r', 00H, '<', 00H, 'c', 00H
	DB	'h', 00H, 'a', 00H, 'r', 00H, '>', 00H, ' ', 00H, '>', 00H, ' '
	DB	00H, 'c', 00H, 'o', 00H, 'n', 00H, 's', 00H, 't', 00H, ' ', 00H
	DB	',', 00H, 's', 00H, 't', 00H, 'r', 00H, 'u', 00H, 'c', 00H, 't'
	DB	00H, ' ', 00H, 's', 00H, 't', 00H, 'd', 00H, ':', 00H, ':', 00H
	DB	'p', 00H, 'a', 00H, 'i', 00H, 'r', 00H, '<', 00H, 'c', 00H, 'l'
	DB	00H, 'a', 00H, 's', 00H, 's', 00H, ' ', 00H, 's', 00H, 't', 00H
	DB	'd', 00H, ':', 00H, ':', 00H, 'f', 00H, 'u', 00H, 'n', 00H, 'c'
	DB	00H, 't', 00H, 'i', 00H, 'o', 00H, 'n', 00H, '<', 00H, 'v', 00H
	DB	'o', 00H, 'i', 00H, 'd', 00H, ' ', 00H, '_', 00H, '_', 00H, 'c'
	DB	00H, 'd', 00H, 'e', 00H, 'c', 00H, 'l', 00H, '(', 00H, 'c', 00H
	DB	'l', 00H, 'a', 00H, 's', 00H, 's', 00H, ' ', 00H, 's', 00H, 'f'
	DB	00H, ':', 00H, ':', 00H, 'S', 00H, 'p', 00H, 'r', 00H, 'i', 00H
	DB	't', 00H, 'e', 00H, ' ', 00H, '&', 00H, ',', 00H, 'f', 00H, 'l'
	DB	00H, 'o', 00H, 'a', 00H, 't', 00H, ')', 00H, '>', 00H, ',', 00H
	DB	'c', 00H, 'l', 00H, 'a', 00H, 's', 00H, 's', 00H, ' ', 00H, 's'
	DB	00H, 'f', 00H, ':', 00H, ':', 00H, 'T', 00H, 'i', 00H, 'm', 00H
	DB	'e', 00H, '>', 00H, ' ', 00H, '>', 00H, ' ', 00H, '>', 00H, ' '
	DB	00H, '>', 00H, ' ', 00H, '>', 00H, ':', 00H, ':', 00H, 'o', 00H
	DB	'p', 00H, 'e', 00H, 'r', 00H, 'a', 00H, 't', 00H, 'o', 00H, 'r'
	DB	00H, ' ', 00H, '=', 00H, '=', 00H, 00H, 00H	; `string'
CONST	ENDS
;	COMDAT ??_C@_1MM@JHPNFGGF@?$AAC?$AA?3?$AA?2?$AAP?$AAr?$AAo?$AAg?$AAr?$AAa?$AAm?$AA?5?$AAF?$AAi?$AAl?$AAe@
CONST	SEGMENT
??_C@_1MM@JHPNFGGF@?$AAC?$AA?3?$AA?2?$AAP?$AAr?$AAo?$AAg?$AAr?$AAa?$AAm?$AA?5?$AAF?$AAi?$AAl?$AAe@ DB 'C'
	DB	00H, ':', 00H, '\', 00H, 'P', 00H, 'r', 00H, 'o', 00H, 'g', 00H
	DB	'r', 00H, 'a', 00H, 'm', 00H, ' ', 00H, 'F', 00H, 'i', 00H, 'l'
	DB	00H, 'e', 00H, 's', 00H, ' ', 00H, '(', 00H, 'x', 00H, '8', 00H
	DB	'6', 00H, ')', 00H, '\', 00H, 'M', 00H, 'i', 00H, 'c', 00H, 'r'
	DB	00H, 'o', 00H, 's', 00H, 'o', 00H, 'f', 00H, 't', 00H, ' ', 00H
	DB	'V', 00H, 'i', 00H, 's', 00H, 'u', 00H, 'a', 00H, 'l', 00H, ' '
	DB	00H, 'S', 00H, 't', 00H, 'u', 00H, 'd', 00H, 'i', 00H, 'o', 00H
	DB	'\', 00H, '2', 00H, '0', 00H, '1', 00H, '9', 00H, '\', 00H, 'C'
	DB	00H, 'o', 00H, 'm', 00H, 'm', 00H, 'u', 00H, 'n', 00H, 'i', 00H
	DB	't', 00H, 'y', 00H, '\', 00H, 'V', 00H, 'C', 00H, '\', 00H, 'T'
	DB	00H, 'o', 00H, 'o', 00H, 'l', 00H, 's', 00H, '\', 00H, 'M', 00H
	DB	'S', 00H, 'V', 00H, 'C', 00H, '\', 00H, '1', 00H, '4', 00H, '.'
	DB	00H, '2', 00H, '9', 00H, '.', 00H, '3', 00H, '0', 00H, '1', 00H
	DB	'3', 00H, '3', 00H, '\', 00H, 'i', 00H, 'n', 00H, 'c', 00H, 'l'
	DB	00H, 'u', 00H, 'd', 00H, 'e', 00H, '\', 00H, 'x', 00H, 't', 00H
	DB	'r', 00H, 'e', 00H, 'e', 00H, 00H, 00H	; `string'
CONST	ENDS
;	COMDAT ??_C@_0GG@BJFDHGEO@C?3?2Program?5Files?5?$CIx86?$CJ?2Microsof@
CONST	SEGMENT
??_C@_0GG@BJFDHGEO@C?3?2Program?5Files?5?$CIx86?$CJ?2Microsof@ DB 'C:\Pro'
	DB	'gram Files (x86)\Microsoft Visual Studio\2019\Community\VC\To'
	DB	'ols\MSVC\14.29.30133\include\xtree', 00H	; `string'
CONST	ENDS
;	COMDAT ??_C@_0BP@OLDKBHLM@map?1set?5iterators?5incompatible@
CONST	SEGMENT
??_C@_0BP@OLDKBHLM@map?1set?5iterators?5incompatible@ DB 'map/set iterato'
	DB	'rs incompatible', 00H			; `string'
CONST	ENDS
;	COMDAT ??_C@_1BK@MHIKGOKE@?$AA?3?$AAA?$AAM?$AA?3?$AAa?$AAm?$AA?3?$AAP?$AAM?$AA?3?$AAp?$AAm@
CONST	SEGMENT
??_C@_1BK@MHIKGOKE@?$AA?3?$AAA?$AAM?$AA?3?$AAa?$AAm?$AA?3?$AAP?$AAM?$AA?3?$AAp?$AAm@ DB ':'
	DB	00H, 'A', 00H, 'M', 00H, ':', 00H, 'a', 00H, 'm', 00H, ':', 00H
	DB	'P', 00H, 'M', 00H, ':', 00H, 'p', 00H, 'm', 00H, 00H, 00H ; `string'
CONST	ENDS
;	COMDAT ??_C@_0N@LPFKKEBD@?3AM?3am?3PM?3pm@
CONST	SEGMENT
??_C@_0N@LPFKKEBD@?3AM?3am?3PM?3pm@ DB ':AM:am:PM:pm', 00H ; `string'
CONST	ENDS
;	COMDAT ??_C@_0GI@OGMNKBMN@C?3?2Program?5Files?5?$CIx86?$CJ?2Microsof@
CONST	SEGMENT
??_C@_0GI@OGMNKBMN@C?3?2Program?5Files?5?$CIx86?$CJ?2Microsof@ DB 'C:\Pro'
	DB	'gram Files (x86)\Microsoft Visual Studio\2019\Community\VC\To'
	DB	'ols\MSVC\14.29.30133\include\xlocnum', 00H	; `string'
CONST	ENDS
;	COMDAT ??_C@_0GI@GFIAKDGM@C?3?2Program?5Files?5?$CIx86?$CJ?2Microsof@
CONST	SEGMENT
??_C@_0GI@GFIAKDGM@C?3?2Program?5Files?5?$CIx86?$CJ?2Microsof@ DB 'C:\Pro'
	DB	'gram Files (x86)\Microsoft Visual Studio\2019\Community\VC\To'
	DB	'ols\MSVC\14.29.30133\include\xlocale', 00H	; `string'
CONST	ENDS
;	COMDAT ??_C@_0BA@JFNIOLAK@string?5too?5long@
CONST	SEGMENT
??_C@_0BA@JFNIOLAK@string?5too?5long@ DB 'string too long', 00H ; `string'
CONST	ENDS
;	COMDAT ??_C@_0BB@GCADKGJO@map?1set?5too?5long@
CONST	SEGMENT
??_C@_0BB@GCADKGJO@map?1set?5too?5long@ DB 'map/set too long', 00H ; `string'
CONST	ENDS
;	COMDAT ??_C@_1DG@PLBPCAEM@?$AA?$CC?$AAI?$AAT?$AAE?$AAR?$AAA?$AAT?$AAO?$AAR?$AA?5?$AAL?$AAI?$AAS?$AAT?$AA?5@
CONST	SEGMENT
??_C@_1DG@PLBPCAEM@?$AA?$CC?$AAI?$AAT?$AAE?$AAR?$AAA?$AAT?$AAO?$AAR?$AA?5?$AAL?$AAI?$AAS?$AAT?$AA?5@ DB '"'
	DB	00H, 'I', 00H, 'T', 00H, 'E', 00H, 'R', 00H, 'A', 00H, 'T', 00H
	DB	'O', 00H, 'R', 00H, ' ', 00H, 'L', 00H, 'I', 00H, 'S', 00H, 'T'
	DB	00H, ' ', 00H, 'C', 00H, 'O', 00H, 'R', 00H, 'R', 00H, 'U', 00H
	DB	'P', 00H, 'T', 00H, 'E', 00H, 'D', 00H, '!', 00H, '"', 00H, 00H
	DB	00H						; `string'
CONST	ENDS
;	COMDAT ??_C@_1FM@FOFDAEGI@?$AAs?$AAt?$AAd?$AA?3?$AA?3?$AA_?$AAI?$AAt?$AAe?$AAr?$AAa?$AAt?$AAo?$AAr?$AA_@
CONST	SEGMENT
??_C@_1FM@FOFDAEGI@?$AAs?$AAt?$AAd?$AA?3?$AA?3?$AA_?$AAI?$AAt?$AAe?$AAr?$AAa?$AAt?$AAo?$AAr?$AA_@ DB 's'
	DB	00H, 't', 00H, 'd', 00H, ':', 00H, ':', 00H, '_', 00H, 'I', 00H
	DB	't', 00H, 'e', 00H, 'r', 00H, 'a', 00H, 't', 00H, 'o', 00H, 'r'
	DB	00H, '_', 00H, 'b', 00H, 'a', 00H, 's', 00H, 'e', 00H, '1', 00H
	DB	'2', 00H, ':', 00H, ':', 00H, '_', 00H, 'O', 00H, 'r', 00H, 'p'
	DB	00H, 'h', 00H, 'a', 00H, 'n', 00H, '_', 00H, 'm', 00H, 'e', 00H
	DB	'_', 00H, 'u', 00H, 'n', 00H, 'l', 00H, 'o', 00H, 'c', 00H, 'k'
	DB	00H, 'e', 00H, 'd', 00H, '_', 00H, 'v', 00H, '3', 00H, 00H, 00H ; `string'
CONST	ENDS
;	COMDAT ??_C@_0BJ@LFDBABJJ@ITERATOR?5LIST?5CORRUPTED?$CB@
CONST	SEGMENT
??_C@_0BJ@LFDBABJJ@ITERATOR?5LIST?5CORRUPTED?$CB@ DB 'ITERATOR LIST CORRU'
	DB	'PTED!', 00H					; `string'
CONST	ENDS
;	COMDAT ??_C@_1CG@JNLFBNGN@?$AA?$CC?$AAi?$AAn?$AAv?$AAa?$AAl?$AAi?$AAd?$AA?5?$AAa?$AAr?$AAg?$AAu?$AAm?$AAe@
CONST	SEGMENT
??_C@_1CG@JNLFBNGN@?$AA?$CC?$AAi?$AAn?$AAv?$AAa?$AAl?$AAi?$AAd?$AA?5?$AAa?$AAr?$AAg?$AAu?$AAm?$AAe@ DB '"'
	DB	00H, 'i', 00H, 'n', 00H, 'v', 00H, 'a', 00H, 'l', 00H, 'i', 00H
	DB	'd', 00H, ' ', 00H, 'a', 00H, 'r', 00H, 'g', 00H, 'u', 00H, 'm'
	DB	00H, 'e', 00H, 'n', 00H, 't', 00H, '"', 00H, 00H, 00H ; `string'
CONST	ENDS
;	COMDAT ??_C@_1EK@NIFDJFDG@?$AAs?$AAt?$AAd?$AA?3?$AA?3?$AA_?$AAA?$AAd?$AAj?$AAu?$AAs?$AAt?$AA_?$AAm?$AAa@
CONST	SEGMENT
??_C@_1EK@NIFDJFDG@?$AAs?$AAt?$AAd?$AA?3?$AA?3?$AA_?$AAA?$AAd?$AAj?$AAu?$AAs?$AAt?$AA_?$AAm?$AAa@ DB 's'
	DB	00H, 't', 00H, 'd', 00H, ':', 00H, ':', 00H, '_', 00H, 'A', 00H
	DB	'd', 00H, 'j', 00H, 'u', 00H, 's', 00H, 't', 00H, '_', 00H, 'm'
	DB	00H, 'a', 00H, 'n', 00H, 'u', 00H, 'a', 00H, 'l', 00H, 'l', 00H
	DB	'y', 00H, '_', 00H, 'v', 00H, 'e', 00H, 'c', 00H, 't', 00H, 'o'
	DB	00H, 'r', 00H, '_', 00H, 'a', 00H, 'l', 00H, 'i', 00H, 'g', 00H
	DB	'n', 00H, 'e', 00H, 'd', 00H, 00H, 00H	; `string'
CONST	ENDS
;	COMDAT ??_C@_1NA@MJBOBEJL@?$AAC?$AA?3?$AA?2?$AAP?$AAr?$AAo?$AAg?$AAr?$AAa?$AAm?$AA?5?$AAF?$AAi?$AAl?$AAe@
CONST	SEGMENT
??_C@_1NA@MJBOBEJL@?$AAC?$AA?3?$AA?2?$AAP?$AAr?$AAo?$AAg?$AAr?$AAa?$AAm?$AA?5?$AAF?$AAi?$AAl?$AAe@ DB 'C'
	DB	00H, ':', 00H, '\', 00H, 'P', 00H, 'r', 00H, 'o', 00H, 'g', 00H
	DB	'r', 00H, 'a', 00H, 'm', 00H, ' ', 00H, 'F', 00H, 'i', 00H, 'l'
	DB	00H, 'e', 00H, 's', 00H, ' ', 00H, '(', 00H, 'x', 00H, '8', 00H
	DB	'6', 00H, ')', 00H, '\', 00H, 'M', 00H, 'i', 00H, 'c', 00H, 'r'
	DB	00H, 'o', 00H, 's', 00H, 'o', 00H, 'f', 00H, 't', 00H, ' ', 00H
	DB	'V', 00H, 'i', 00H, 's', 00H, 'u', 00H, 'a', 00H, 'l', 00H, ' '
	DB	00H, 'S', 00H, 't', 00H, 'u', 00H, 'd', 00H, 'i', 00H, 'o', 00H
	DB	'\', 00H, '2', 00H, '0', 00H, '1', 00H, '9', 00H, '\', 00H, 'C'
	DB	00H, 'o', 00H, 'm', 00H, 'm', 00H, 'u', 00H, 'n', 00H, 'i', 00H
	DB	't', 00H, 'y', 00H, '\', 00H, 'V', 00H, 'C', 00H, '\', 00H, 'T'
	DB	00H, 'o', 00H, 'o', 00H, 'l', 00H, 's', 00H, '\', 00H, 'M', 00H
	DB	'S', 00H, 'V', 00H, 'C', 00H, '\', 00H, '1', 00H, '4', 00H, '.'
	DB	00H, '2', 00H, '9', 00H, '.', 00H, '3', 00H, '0', 00H, '1', 00H
	DB	'3', 00H, '3', 00H, '\', 00H, 'i', 00H, 'n', 00H, 'c', 00H, 'l'
	DB	00H, 'u', 00H, 'd', 00H, 'e', 00H, '\', 00H, 'x', 00H, 'm', 00H
	DB	'e', 00H, 'm', 00H, 'o', 00H, 'r', 00H, 'y', 00H, 00H, 00H ; `string'
CONST	ENDS
;	COMDAT ??_C@_0GI@MNEMJBML@C?3?2Program?5Files?5?$CIx86?$CJ?2Microsof@
CONST	SEGMENT
??_C@_0GI@MNEMJBML@C?3?2Program?5Files?5?$CIx86?$CJ?2Microsof@ DB 'C:\Pro'
	DB	'gram Files (x86)\Microsoft Visual Studio\2019\Community\VC\To'
	DB	'ols\MSVC\14.29.30133\include\xmemory', 00H	; `string'
CONST	ENDS
;	COMDAT ??_C@_02DKCKIIND@?$CFs@
CONST	SEGMENT
??_C@_02DKCKIIND@?$CFs@ DB '%s', 00H			; `string'
CONST	ENDS
;	COMDAT ??_C@_0BB@FCMFBGOM@invalid?5argument@
CONST	SEGMENT
??_C@_0BB@FCMFBGOM@invalid?5argument@ DB 'invalid argument', 00H ; `string'
CONST	ENDS
;	COMDAT __CT??_R0?AVexception@std@@@8??0exception@std@@QAE@ABV01@@Z12
xdata$x	SEGMENT
__CT??_R0?AVexception@std@@@8??0exception@std@@QAE@ABV01@@Z12 DD 00H
	DD	FLAT:??_R0?AVexception@std@@@8
	DD	00H
	DD	0ffffffffH
	ORG $+4
	DD	0cH
	DD	FLAT:??0exception@std@@QAE@ABV01@@Z
xdata$x	ENDS
;	COMDAT ??_R0?AVexception@std@@@8
data$r	SEGMENT
??_R0?AVexception@std@@@8 DD FLAT:??_7type_info@@6B@	; std::exception `RTTI Type Descriptor'
	DD	00H
	DB	'.?AVexception@std@@', 00H
data$r	ENDS
;	COMDAT __CT??_R0?AVbad_alloc@std@@@8??0bad_alloc@std@@QAE@ABV01@@Z12
xdata$x	SEGMENT
__CT??_R0?AVbad_alloc@std@@@8??0bad_alloc@std@@QAE@ABV01@@Z12 DD 010H
	DD	FLAT:??_R0?AVbad_alloc@std@@@8
	DD	00H
	DD	0ffffffffH
	ORG $+4
	DD	0cH
	DD	FLAT:??0bad_alloc@std@@QAE@ABV01@@Z
xdata$x	ENDS
;	COMDAT ??_R0?AVbad_alloc@std@@@8
data$r	SEGMENT
??_R0?AVbad_alloc@std@@@8 DD FLAT:??_7type_info@@6B@	; std::bad_alloc `RTTI Type Descriptor'
	DD	00H
	DB	'.?AVbad_alloc@std@@', 00H
data$r	ENDS
;	COMDAT __CT??_R0?AVbad_array_new_length@std@@@8??0bad_array_new_length@std@@QAE@ABV01@@Z12
xdata$x	SEGMENT
__CT??_R0?AVbad_array_new_length@std@@@8??0bad_array_new_length@std@@QAE@ABV01@@Z12 DD 00H
	DD	FLAT:??_R0?AVbad_array_new_length@std@@@8
	DD	00H
	DD	0ffffffffH
	ORG $+4
	DD	0cH
	DD	FLAT:??0bad_array_new_length@std@@QAE@ABV01@@Z
xdata$x	ENDS
;	COMDAT ??_R0?AVbad_array_new_length@std@@@8
data$r	SEGMENT
??_R0?AVbad_array_new_length@std@@@8 DD FLAT:??_7type_info@@6B@ ; std::bad_array_new_length `RTTI Type Descriptor'
	DD	00H
	DB	'.?AVbad_array_new_length@std@@', 00H
data$r	ENDS
;	COMDAT __CTA3?AVbad_array_new_length@std@@
xdata$x	SEGMENT
__CTA3?AVbad_array_new_length@std@@ DD 03H
	DD	FLAT:__CT??_R0?AVbad_array_new_length@std@@@8??0bad_array_new_length@std@@QAE@ABV01@@Z12
	DD	FLAT:__CT??_R0?AVbad_alloc@std@@@8??0bad_alloc@std@@QAE@ABV01@@Z12
	DD	FLAT:__CT??_R0?AVexception@std@@@8??0exception@std@@QAE@ABV01@@Z12
xdata$x	ENDS
;	COMDAT __TI3?AVbad_array_new_length@std@@
xdata$x	SEGMENT
__TI3?AVbad_array_new_length@std@@ DD 00H
	DD	FLAT:??1bad_array_new_length@std@@UAE@XZ
	DD	00H
	DD	FLAT:__CTA3?AVbad_array_new_length@std@@
xdata$x	ENDS
;	COMDAT ??_C@_0BF@KINCDENJ@bad?5array?5new?5length@
CONST	SEGMENT
??_C@_0BF@KINCDENJ@bad?5array?5new?5length@ DB 'bad array new length', 00H ; `string'
CONST	ENDS
;	COMDAT ??_7bad_array_new_length@std@@6B@
CONST	SEGMENT
??_7bad_array_new_length@std@@6B@ DD FLAT:??_R4bad_array_new_length@std@@6B@ ; std::bad_array_new_length::`vftable'
	DD	FLAT:??_Ebad_array_new_length@std@@UAEPAXI@Z
	DD	FLAT:?what@exception@std@@UBEPBDXZ
CONST	ENDS
;	COMDAT ??_7bad_alloc@std@@6B@
CONST	SEGMENT
??_7bad_alloc@std@@6B@ DD FLAT:??_R4bad_alloc@std@@6B@	; std::bad_alloc::`vftable'
	DD	FLAT:??_Ebad_alloc@std@@UAEPAXI@Z
	DD	FLAT:?what@exception@std@@UBEPBDXZ
CONST	ENDS
;	COMDAT ??_C@_0BC@EOODALEL@Unknown?5exception@
CONST	SEGMENT
??_C@_0BC@EOODALEL@Unknown?5exception@ DB 'Unknown exception', 00H ; `string'
CONST	ENDS
;	COMDAT ??_7exception@std@@6B@
CONST	SEGMENT
??_7exception@std@@6B@ DD FLAT:??_R4exception@std@@6B@	; std::exception::`vftable'
	DD	FLAT:??_Eexception@std@@UAEPAXI@Z
	DD	FLAT:?what@exception@std@@UBEPBDXZ
CONST	ENDS
;	COMDAT ?greater@strong_ordering@std@@2U12@B
CONST	SEGMENT
?greater@strong_ordering@std@@2U12@B DB 01H		; std::strong_ordering::greater
CONST	ENDS
;	COMDAT ?equal@strong_ordering@std@@2U12@B
CONST	SEGMENT
?equal@strong_ordering@std@@2U12@B DB 00H		; std::strong_ordering::equal
CONST	ENDS
;	COMDAT ?less@strong_ordering@std@@2U12@B
CONST	SEGMENT
?less@strong_ordering@std@@2U12@B DB 0ffH		; std::strong_ordering::less
CONST	ENDS
;	COMDAT voltbl
voltbl	SEGMENT
_volmd	DB	016H
	DB	020H
voltbl	ENDS
;	COMDAT voltbl
voltbl	SEGMENT
_volmd	DW	038H
	DW	011cH
voltbl	ENDS
;	COMDAT xdata$x
xdata$x	SEGMENT
__unwindtable$??$_Buynode@V?$allocator@U?$_Tree_node@U?$pair@$$CBV?$basic_string@DU?$char_traits@D@std@@V?$allocator@D@2@@std@@U?$pair@V?$function@$$A6AXAAVSprite@sf@@M@Z@std@@VTime@sf@@@2@@std@@PAX@std@@@std@@AAU?$pair@$$CBV?$basic_string@DU?$char_traits@D@std@@V?$allocator@D@2@@std@@U?$pair@V?$function@$$A6AXAAVSprite@sf@@M@Z@std@@VTime@sf@@@2@@2@@?$_Tree_node@U?$pair@$$CBV?$basic_string@DU?$char_traits@D@std@@V?$allocator@D@2@@std@@U?$pair@V?$function@$$A6AXAAVSprite@sf@@M@Z@std@@VTime@sf@@@2@@std@@PAX@std@@SAPAU01@AAV?$allocator@U?$_Tree_node@U?$pair@$$CBV?$basic_string@DU?$char_traits@D@std@@V?$allocator@D@2@@std@@U?$pair@V?$function@$$A6AXAAVSprite@sf@@M@Z@std@@VTime@sf@@@2@@std@@PAX@std@@@1@PAU01@AAU?$pair@$$CBV?$basic_string@DU?$char_traits@D@std@@V?$allocator@D@2@@std@@U?$pair@V?$function@$$A6AXAAVSprite@sf@@M@Z@std@@VTime@sf@@@2@@1@@Z DD 0ffffffffH
	DD	FLAT:__unwindfunclet$??$_Buynode@V?$allocator@U?$_Tree_node@U?$pair@$$CBV?$basic_string@DU?$char_traits@D@std@@V?$allocator@D@2@@std@@U?$pair@V?$function@$$A6AXAAVSprite@sf@@M@Z@std@@VTime@sf@@@2@@std@@PAX@std@@@std@@AAU?$pair@$$CBV?$basic_string@DU?$char_traits@D@std@@V?$allocator@D@2@@std@@U?$pair@V?$function@$$A6AXAAVSprite@sf@@M@Z@std@@VTime@sf@@@2@@2@@?$_Tree_node@U?$pair@$$CBV?$basic_string@DU?$char_traits@D@std@@V?$allocator@D@2@@std@@U?$pair@V?$function@$$A6AXAAVSprite@sf@@M@Z@std@@VTime@sf@@@2@@std@@PAX@std@@SAPAU01@AAV?$allocator@U?$_Tree_node@U?$pair@$$CBV?$basic_string@DU?$char_traits@D@std@@V?$allocator@D@2@@std@@U?$pair@V?$function@$$A6AXAAVSprite@sf@@M@Z@std@@VTime@sf@@@2@@std@@PAX@std@@@1@PAU01@AAU?$pair@$$CBV?$basic_string@DU?$char_traits@D@std@@V?$allocator@D@2@@std@@U?$pair@V?$function@$$A6AXAAVSprite@sf@@M@Z@std@@VTime@sf@@@2@@1@@Z$0
__ehfuncinfo$??$_Buynode@V?$allocator@U?$_Tree_node@U?$pair@$$CBV?$basic_string@DU?$char_traits@D@std@@V?$allocator@D@2@@std@@U?$pair@V?$function@$$A6AXAAVSprite@sf@@M@Z@std@@VTime@sf@@@2@@std@@PAX@std@@@std@@AAU?$pair@$$CBV?$basic_string@DU?$char_traits@D@std@@V?$allocator@D@2@@std@@U?$pair@V?$function@$$A6AXAAVSprite@sf@@M@Z@std@@VTime@sf@@@2@@2@@?$_Tree_node@U?$pair@$$CBV?$basic_string@DU?$char_traits@D@std@@V?$allocator@D@2@@std@@U?$pair@V?$function@$$A6AXAAVSprite@sf@@M@Z@std@@VTime@sf@@@2@@std@@PAX@std@@SAPAU01@AAV?$allocator@U?$_Tree_node@U?$pair@$$CBV?$basic_string@DU?$char_traits@D@std@@V?$allocator@D@2@@std@@U?$pair@V?$function@$$A6AXAAVSprite@sf@@M@Z@std@@VTime@sf@@@2@@std@@PAX@std@@@1@PAU01@AAU?$pair@$$CBV?$basic_string@DU?$char_traits@D@std@@V?$allocator@D@2@@std@@U?$pair@V?$function@$$A6AXAAVSprite@sf@@M@Z@std@@VTime@sf@@@2@@1@@Z DD 019930522H
	DD	01H
	DD	FLAT:__unwindtable$??$_Buynode@V?$allocator@U?$_Tree_node@U?$pair@$$CBV?$basic_string@DU?$char_traits@D@std@@V?$allocator@D@2@@std@@U?$pair@V?$function@$$A6AXAAVSprite@sf@@M@Z@std@@VTime@sf@@@2@@std@@PAX@std@@@std@@AAU?$pair@$$CBV?$basic_string@DU?$char_traits@D@std@@V?$allocator@D@2@@std@@U?$pair@V?$function@$$A6AXAAVSprite@sf@@M@Z@std@@VTime@sf@@@2@@2@@?$_Tree_node@U?$pair@$$CBV?$basic_string@DU?$char_traits@D@std@@V?$allocator@D@2@@std@@U?$pair@V?$function@$$A6AXAAVSprite@sf@@M@Z@std@@VTime@sf@@@2@@std@@PAX@std@@SAPAU01@AAV?$allocator@U?$_Tree_node@U?$pair@$$CBV?$basic_string@DU?$char_traits@D@std@@V?$allocator@D@2@@std@@U?$pair@V?$function@$$A6AXAAVSprite@sf@@M@Z@std@@VTime@sf@@@2@@std@@PAX@std@@@1@PAU01@AAU?$pair@$$CBV?$basic_string@DU?$char_traits@D@std@@V?$allocator@D@2@@std@@U?$pair@V?$function@$$A6AXAAVSprite@sf@@M@Z@std@@VTime@sf@@@2@@1@@Z
	DD	2 DUP(00H)
	DD	2 DUP(00H)
	DD	00H
	DD	01H
xdata$x	ENDS
;	COMDAT voltbl
voltbl	SEGMENT
_volmd	DB	016H
voltbl	ENDS
;	COMDAT xdata$x
xdata$x	SEGMENT
__unwindtable$??$?0U?$pair@V?$basic_string@DU?$char_traits@D@std@@V?$allocator@D@2@@std@@U?$pair@V?$function@$$A6AXAAVSprite@sf@@M@Z@std@@VTime@sf@@@2@@std@@@?$_Tree_temp_node@V?$allocator@U?$_Tree_node@U?$pair@$$CBV?$basic_string@DU?$char_traits@D@std@@V?$allocator@D@2@@std@@U?$pair@V?$function@$$A6AXAAVSprite@sf@@M@Z@std@@VTime@sf@@@2@@std@@PAX@std@@@std@@@std@@QAE@AAV?$allocator@U?$_Tree_node@U?$pair@$$CBV?$basic_string@DU?$char_traits@D@std@@V?$allocator@D@2@@std@@U?$pair@V?$function@$$A6AXAAVSprite@sf@@M@Z@std@@VTime@sf@@@2@@std@@PAX@std@@@1@PAU?$_Tree_node@U?$pair@$$CBV?$basic_string@DU?$char_traits@D@std@@V?$allocator@D@2@@std@@U?$pair@V?$function@$$A6AXAAVSprite@sf@@M@Z@std@@VTime@sf@@@2@@std@@PAX@1@$$QAU?$pair@V?$basic_string@DU?$char_traits@D@std@@V?$allocator@D@2@@std@@U?$pair@V?$function@$$A6AXAAVSprite@sf@@M@Z@std@@VTime@sf@@@2@@1@@Z DD 0ffffffffH
	DD	FLAT:__unwindfunclet$??$?0U?$pair@V?$basic_string@DU?$char_traits@D@std@@V?$allocator@D@2@@std@@U?$pair@V?$function@$$A6AXAAVSprite@sf@@M@Z@std@@VTime@sf@@@2@@std@@@?$_Tree_temp_node@V?$allocator@U?$_Tree_node@U?$pair@$$CBV?$basic_string@DU?$char_traits@D@std@@V?$allocator@D@2@@std@@U?$pair@V?$function@$$A6AXAAVSprite@sf@@M@Z@std@@VTime@sf@@@2@@std@@PAX@std@@@std@@@std@@QAE@AAV?$allocator@U?$_Tree_node@U?$pair@$$CBV?$basic_string@DU?$char_traits@D@std@@V?$allocator@D@2@@std@@U?$pair@V?$function@$$A6AXAAVSprite@sf@@M@Z@std@@VTime@sf@@@2@@std@@PAX@std@@@1@PAU?$_Tree_node@U?$pair@$$CBV?$basic_string@DU?$char_traits@D@std@@V?$allocator@D@2@@std@@U?$pair@V?$function@$$A6AXAAVSprite@sf@@M@Z@std@@VTime@sf@@@2@@std@@PAX@1@$$QAU?$pair@V?$basic_string@DU?$char_traits@D@std@@V?$allocator@D@2@@std@@U?$pair@V?$function@$$A6AXAAVSprite@sf@@M@Z@std@@VTime@sf@@@2@@1@@Z$0
__ehfuncinfo$??$?0U?$pair@V?$basic_string@DU?$char_traits@D@std@@V?$allocator@D@2@@std@@U?$pair@V?$function@$$A6AXAAVSprite@sf@@M@Z@std@@VTime@sf@@@2@@std@@@?$_Tree_temp_node@V?$allocator@U?$_Tree_node@U?$pair@$$CBV?$basic_string@DU?$char_traits@D@std@@V?$allocator@D@2@@std@@U?$pair@V?$function@$$A6AXAAVSprite@sf@@M@Z@std@@VTime@sf@@@2@@std@@PAX@std@@@std@@@std@@QAE@AAV?$allocator@U?$_Tree_node@U?$pair@$$CBV?$basic_string@DU?$char_traits@D@std@@V?$allocator@D@2@@std@@U?$pair@V?$function@$$A6AXAAVSprite@sf@@M@Z@std@@VTime@sf@@@2@@std@@PAX@std@@@1@PAU?$_Tree_node@U?$pair@$$CBV?$basic_string@DU?$char_traits@D@std@@V?$allocator@D@2@@std@@U?$pair@V?$function@$$A6AXAAVSprite@sf@@M@Z@std@@VTime@sf@@@2@@std@@PAX@1@$$QAU?$pair@V?$basic_string@DU?$char_traits@D@std@@V?$allocator@D@2@@std@@U?$pair@V?$function@$$A6AXAAVSprite@sf@@M@Z@std@@VTime@sf@@@2@@1@@Z DD 019930522H
	DD	01H
	DD	FLAT:__unwindtable$??$?0U?$pair@V?$basic_string@DU?$char_traits@D@std@@V?$allocator@D@2@@std@@U?$pair@V?$function@$$A6AXAAVSprite@sf@@M@Z@std@@VTime@sf@@@2@@std@@@?$_Tree_temp_node@V?$allocator@U?$_Tree_node@U?$pair@$$CBV?$basic_string@DU?$char_traits@D@std@@V?$allocator@D@2@@std@@U?$pair@V?$function@$$A6AXAAVSprite@sf@@M@Z@std@@VTime@sf@@@2@@std@@PAX@std@@@std@@@std@@QAE@AAV?$allocator@U?$_Tree_node@U?$pair@$$CBV?$basic_string@DU?$char_traits@D@std@@V?$allocator@D@2@@std@@U?$pair@V?$function@$$A6AXAAVSprite@sf@@M@Z@std@@VTime@sf@@@2@@std@@PAX@std@@@1@PAU?$_Tree_node@U?$pair@$$CBV?$basic_string@DU?$char_traits@D@std@@V?$allocator@D@2@@std@@U?$pair@V?$function@$$A6AXAAVSprite@sf@@M@Z@std@@VTime@sf@@@2@@std@@PAX@1@$$QAU?$pair@V?$basic_string@DU?$char_traits@D@std@@V?$allocator@D@2@@std@@U?$pair@V?$function@$$A6AXAAVSprite@sf@@M@Z@std@@VTime@sf@@@2@@1@@Z
	DD	2 DUP(00H)
	DD	2 DUP(00H)
	DD	00H
	DD	01H
xdata$x	ENDS
;	COMDAT voltbl
voltbl	SEGMENT
_volmd	DB	09H
voltbl	ENDS
;	COMDAT xdata$x
xdata$x	SEGMENT
__ehfuncinfo$??1?$_Tree_temp_node@V?$allocator@U?$_Tree_node@U?$pair@$$CBV?$basic_string@DU?$char_traits@D@std@@V?$allocator@D@2@@std@@U?$pair@V?$function@$$A6AXAAVSprite@sf@@M@Z@std@@VTime@sf@@@2@@std@@PAX@std@@@std@@@std@@QAE@XZ DD 019930522H
	DD	00H
	DD	00H
	DD	2 DUP(00H)
	DD	2 DUP(00H)
	DD	00H
	DD	05H
xdata$x	ENDS
;	COMDAT voltbl
voltbl	SEGMENT
_volmd	DB	016H
voltbl	ENDS
;	COMDAT xdata$x
xdata$x	SEGMENT
__unwindtable$??0?$_Tree_temp_node_alloc@V?$allocator@U?$_Tree_node@U?$pair@$$CBV?$basic_string@DU?$char_traits@D@std@@V?$allocator@D@2@@std@@U?$pair@V?$function@$$A6AXAAVSprite@sf@@M@Z@std@@VTime@sf@@@2@@std@@PAX@std@@@std@@@std@@QAE@AAV?$allocator@U?$_Tree_node@U?$pair@$$CBV?$basic_string@DU?$char_traits@D@std@@V?$allocator@D@2@@std@@U?$pair@V?$function@$$A6AXAAVSprite@sf@@M@Z@std@@VTime@sf@@@2@@std@@PAX@std@@@1@@Z DD 0ffffffffH
	DD	FLAT:__unwindfunclet$??0?$_Tree_temp_node_alloc@V?$allocator@U?$_Tree_node@U?$pair@$$CBV?$basic_string@DU?$char_traits@D@std@@V?$allocator@D@2@@std@@U?$pair@V?$function@$$A6AXAAVSprite@sf@@M@Z@std@@VTime@sf@@@2@@std@@PAX@std@@@std@@@std@@QAE@AAV?$allocator@U?$_Tree_node@U?$pair@$$CBV?$basic_string@DU?$char_traits@D@std@@V?$allocator@D@2@@std@@U?$pair@V?$function@$$A6AXAAVSprite@sf@@M@Z@std@@VTime@sf@@@2@@std@@PAX@std@@@1@@Z$0
__ehfuncinfo$??0?$_Tree_temp_node_alloc@V?$allocator@U?$_Tree_node@U?$pair@$$CBV?$basic_string@DU?$char_traits@D@std@@V?$allocator@D@2@@std@@U?$pair@V?$function@$$A6AXAAVSprite@sf@@M@Z@std@@VTime@sf@@@2@@std@@PAX@std@@@std@@@std@@QAE@AAV?$allocator@U?$_Tree_node@U?$pair@$$CBV?$basic_string@DU?$char_traits@D@std@@V?$allocator@D@2@@std@@U?$pair@V?$function@$$A6AXAAVSprite@sf@@M@Z@std@@VTime@sf@@@2@@std@@PAX@std@@@1@@Z DD 019930522H
	DD	01H
	DD	FLAT:__unwindtable$??0?$_Tree_temp_node_alloc@V?$allocator@U?$_Tree_node@U?$pair@$$CBV?$basic_string@DU?$char_traits@D@std@@V?$allocator@D@2@@std@@U?$pair@V?$function@$$A6AXAAVSprite@sf@@M@Z@std@@VTime@sf@@@2@@std@@PAX@std@@@std@@@std@@QAE@AAV?$allocator@U?$_Tree_node@U?$pair@$$CBV?$basic_string@DU?$char_traits@D@std@@V?$allocator@D@2@@std@@U?$pair@V?$function@$$A6AXAAVSprite@sf@@M@Z@std@@VTime@sf@@@2@@std@@PAX@std@@@1@@Z
	DD	2 DUP(00H)
	DD	2 DUP(00H)
	DD	00H
	DD	01H
xdata$x	ENDS
;	COMDAT voltbl
voltbl	SEGMENT
_volmd	DB	09H
voltbl	ENDS
;	COMDAT xdata$x
xdata$x	SEGMENT
__ehfuncinfo$??1?$_Alloc_construct_ptr@V?$allocator@U?$_Tree_node@U?$pair@$$CBV?$basic_string@DU?$char_traits@D@std@@V?$allocator@D@2@@std@@U?$pair@V?$function@$$A6AXAAVSprite@sf@@M@Z@std@@VTime@sf@@@2@@std@@PAX@std@@@std@@@std@@QAE@XZ DD 019930522H
	DD	00H
	DD	00H
	DD	2 DUP(00H)
	DD	2 DUP(00H)
	DD	00H
	DD	05H
xdata$x	ENDS
;	COMDAT voltbl
voltbl	SEGMENT
_volmd	DB	09H
voltbl	ENDS
;	COMDAT xdata$x
xdata$x	SEGMENT
__catchsym$??$_Copy_nodes@U_Copy_tag@?$_Tree@V?$_Tmap_traits@V?$basic_string@DU?$char_traits@D@std@@V?$allocator@D@2@@std@@U?$pair@V?$function@$$A6AXAAVSprite@sf@@M@Z@std@@VTime@sf@@@2@U?$less@V?$basic_string@DU?$char_traits@D@std@@V?$allocator@D@2@@std@@@2@V?$allocator@U?$pair@$$CBV?$basic_string@DU?$char_traits@D@std@@V?$allocator@D@2@@std@@U?$pair@V?$function@$$A6AXAAVSprite@sf@@M@Z@std@@VTime@sf@@@2@@std@@@2@$0A@@std@@@std@@@?$_Tree@V?$_Tmap_traits@V?$basic_string@DU?$char_traits@D@std@@V?$allocator@D@2@@std@@U?$pair@V?$function@$$A6AXAAVSprite@sf@@M@Z@std@@VTime@sf@@@2@U?$less@V?$basic_string@DU?$char_traits@D@std@@V?$allocator@D@2@@std@@@2@V?$allocator@U?$pair@$$CBV?$basic_string@DU?$char_traits@D@std@@V?$allocator@D@2@@std@@U?$pair@V?$function@$$A6AXAAVSprite@sf@@M@Z@std@@VTime@sf@@@2@@std@@@2@$0A@@std@@@std@@IAEPAU?$_Tree_node@U?$pair@$$CBV?$basic_string@DU?$char_traits@D@std@@V?$allocator@D@2@@std@@U?$pair@V?$function@$$A6AXAAVSprite@sf@@M@Z@std@@VTime@sf@@@2@@std@@PAX@1@PAU21@0U_Copy_tag@01@@Z$2 DD 040H
	DD	00H
	DD	00H
	DD	FLAT:__catch$??$_Copy_nodes@U_Copy_tag@?$_Tree@V?$_Tmap_traits@V?$basic_string@DU?$char_traits@D@std@@V?$allocator@D@2@@std@@U?$pair@V?$function@$$A6AXAAVSprite@sf@@M@Z@std@@VTime@sf@@@2@U?$less@V?$basic_string@DU?$char_traits@D@std@@V?$allocator@D@2@@std@@@2@V?$allocator@U?$pair@$$CBV?$basic_string@DU?$char_traits@D@std@@V?$allocator@D@2@@std@@U?$pair@V?$function@$$A6AXAAVSprite@sf@@M@Z@std@@VTime@sf@@@2@@std@@@2@$0A@@std@@@std@@@?$_Tree@V?$_Tmap_traits@V?$basic_string@DU?$char_traits@D@std@@V?$allocator@D@2@@std@@U?$pair@V?$function@$$A6AXAAVSprite@sf@@M@Z@std@@VTime@sf@@@2@U?$less@V?$basic_string@DU?$char_traits@D@std@@V?$allocator@D@2@@std@@@2@V?$allocator@U?$pair@$$CBV?$basic_string@DU?$char_traits@D@std@@V?$allocator@D@2@@std@@U?$pair@V?$function@$$A6AXAAVSprite@sf@@M@Z@std@@VTime@sf@@@2@@std@@@2@$0A@@std@@@std@@IAEPAU?$_Tree_node@U?$pair@$$CBV?$basic_string@DU?$char_traits@D@std@@V?$allocator@D@2@@std@@U?$pair@V?$function@$$A6AXAAVSprite@sf@@M@Z@std@@VTime@sf@@@2@@std@@PAX@1@PAU21@0U_Copy_tag@01@@Z$0
__unwindtable$??$_Copy_nodes@U_Copy_tag@?$_Tree@V?$_Tmap_traits@V?$basic_string@DU?$char_traits@D@std@@V?$allocator@D@2@@std@@U?$pair@V?$function@$$A6AXAAVSprite@sf@@M@Z@std@@VTime@sf@@@2@U?$less@V?$basic_string@DU?$char_traits@D@std@@V?$allocator@D@2@@std@@@2@V?$allocator@U?$pair@$$CBV?$basic_string@DU?$char_traits@D@std@@V?$allocator@D@2@@std@@U?$pair@V?$function@$$A6AXAAVSprite@sf@@M@Z@std@@VTime@sf@@@2@@std@@@2@$0A@@std@@@std@@@?$_Tree@V?$_Tmap_traits@V?$basic_string@DU?$char_traits@D@std@@V?$allocator@D@2@@std@@U?$pair@V?$function@$$A6AXAAVSprite@sf@@M@Z@std@@VTime@sf@@@2@U?$less@V?$basic_string@DU?$char_traits@D@std@@V?$allocator@D@2@@std@@@2@V?$allocator@U?$pair@$$CBV?$basic_string@DU?$char_traits@D@std@@V?$allocator@D@2@@std@@U?$pair@V?$function@$$A6AXAAVSprite@sf@@M@Z@std@@VTime@sf@@@2@@std@@@2@$0A@@std@@@std@@IAEPAU?$_Tree_node@U?$pair@$$CBV?$basic_string@DU?$char_traits@D@std@@V?$allocator@D@2@@std@@U?$pair@V?$function@$$A6AXAAVSprite@sf@@M@Z@std@@VTime@sf@@@2@@std@@PAX@1@PAU21@0U_Copy_tag@01@@Z DD 0ffffffffH
	DD	00H
	DD	0ffffffffH
	DD	00H
__tryblocktable$??$_Copy_nodes@U_Copy_tag@?$_Tree@V?$_Tmap_traits@V?$basic_string@DU?$char_traits@D@std@@V?$allocator@D@2@@std@@U?$pair@V?$function@$$A6AXAAVSprite@sf@@M@Z@std@@VTime@sf@@@2@U?$less@V?$basic_string@DU?$char_traits@D@std@@V?$allocator@D@2@@std@@@2@V?$allocator@U?$pair@$$CBV?$basic_string@DU?$char_traits@D@std@@V?$allocator@D@2@@std@@U?$pair@V?$function@$$A6AXAAVSprite@sf@@M@Z@std@@VTime@sf@@@2@@std@@@2@$0A@@std@@@std@@@?$_Tree@V?$_Tmap_traits@V?$basic_string@DU?$char_traits@D@std@@V?$allocator@D@2@@std@@U?$pair@V?$function@$$A6AXAAVSprite@sf@@M@Z@std@@VTime@sf@@@2@U?$less@V?$basic_string@DU?$char_traits@D@std@@V?$allocator@D@2@@std@@@2@V?$allocator@U?$pair@$$CBV?$basic_string@DU?$char_traits@D@std@@V?$allocator@D@2@@std@@U?$pair@V?$function@$$A6AXAAVSprite@sf@@M@Z@std@@VTime@sf@@@2@@std@@@2@$0A@@std@@@std@@IAEPAU?$_Tree_node@U?$pair@$$CBV?$basic_string@DU?$char_traits@D@std@@V?$allocator@D@2@@std@@U?$pair@V?$function@$$A6AXAAVSprite@sf@@M@Z@std@@VTime@sf@@@2@@std@@PAX@1@PAU21@0U_Copy_tag@01@@Z DD 00H
	DD	00H
	DD	01H
	DD	01H
	DD	FLAT:__catchsym$??$_Copy_nodes@U_Copy_tag@?$_Tree@V?$_Tmap_traits@V?$basic_string@DU?$char_traits@D@std@@V?$allocator@D@2@@std@@U?$pair@V?$function@$$A6AXAAVSprite@sf@@M@Z@std@@VTime@sf@@@2@U?$less@V?$basic_string@DU?$char_traits@D@std@@V?$allocator@D@2@@std@@@2@V?$allocator@U?$pair@$$CBV?$basic_string@DU?$char_traits@D@std@@V?$allocator@D@2@@std@@U?$pair@V?$function@$$A6AXAAVSprite@sf@@M@Z@std@@VTime@sf@@@2@@std@@@2@$0A@@std@@@std@@@?$_Tree@V?$_Tmap_traits@V?$basic_string@DU?$char_traits@D@std@@V?$allocator@D@2@@std@@U?$pair@V?$function@$$A6AXAAVSprite@sf@@M@Z@std@@VTime@sf@@@2@U?$less@V?$basic_string@DU?$char_traits@D@std@@V?$allocator@D@2@@std@@@2@V?$allocator@U?$pair@$$CBV?$basic_string@DU?$char_traits@D@std@@V?$allocator@D@2@@std@@U?$pair@V?$function@$$A6AXAAVSprite@sf@@M@Z@std@@VTime@sf@@@2@@std@@@2@$0A@@std@@@std@@IAEPAU?$_Tree_node@U?$pair@$$CBV?$basic_string@DU?$char_traits@D@std@@V?$allocator@D@2@@std@@U?$pair@V?$function@$$A6AXAAVSprite@sf@@M@Z@std@@VTime@sf@@@2@@std@@PAX@1@PAU21@0U_Copy_tag@01@@Z$2
__ehfuncinfo$??$_Copy_nodes@U_Copy_tag@?$_Tree@V?$_Tmap_traits@V?$basic_string@DU?$char_traits@D@std@@V?$allocator@D@2@@std@@U?$pair@V?$function@$$A6AXAAVSprite@sf@@M@Z@std@@VTime@sf@@@2@U?$less@V?$basic_string@DU?$char_traits@D@std@@V?$allocator@D@2@@std@@@2@V?$allocator@U?$pair@$$CBV?$basic_string@DU?$char_traits@D@std@@V?$allocator@D@2@@std@@U?$pair@V?$function@$$A6AXAAVSprite@sf@@M@Z@std@@VTime@sf@@@2@@std@@@2@$0A@@std@@@std@@@?$_Tree@V?$_Tmap_traits@V?$basic_string@DU?$char_traits@D@std@@V?$allocator@D@2@@std@@U?$pair@V?$function@$$A6AXAAVSprite@sf@@M@Z@std@@VTime@sf@@@2@U?$less@V?$basic_string@DU?$char_traits@D@std@@V?$allocator@D@2@@std@@@2@V?$allocator@U?$pair@$$CBV?$basic_string@DU?$char_traits@D@std@@V?$allocator@D@2@@std@@U?$pair@V?$function@$$A6AXAAVSprite@sf@@M@Z@std@@VTime@sf@@@2@@std@@@2@$0A@@std@@@std@@IAEPAU?$_Tree_node@U?$pair@$$CBV?$basic_string@DU?$char_traits@D@std@@V?$allocator@D@2@@std@@U?$pair@V?$function@$$A6AXAAVSprite@sf@@M@Z@std@@VTime@sf@@@2@@std@@PAX@1@PAU21@0U_Copy_tag@01@@Z DD 019930522H
	DD	02H
	DD	FLAT:__unwindtable$??$_Copy_nodes@U_Copy_tag@?$_Tree@V?$_Tmap_traits@V?$basic_string@DU?$char_traits@D@std@@V?$allocator@D@2@@std@@U?$pair@V?$function@$$A6AXAAVSprite@sf@@M@Z@std@@VTime@sf@@@2@U?$less@V?$basic_string@DU?$char_traits@D@std@@V?$allocator@D@2@@std@@@2@V?$allocator@U?$pair@$$CBV?$basic_string@DU?$char_traits@D@std@@V?$allocator@D@2@@std@@U?$pair@V?$function@$$A6AXAAVSprite@sf@@M@Z@std@@VTime@sf@@@2@@std@@@2@$0A@@std@@@std@@@?$_Tree@V?$_Tmap_traits@V?$basic_string@DU?$char_traits@D@std@@V?$allocator@D@2@@std@@U?$pair@V?$function@$$A6AXAAVSprite@sf@@M@Z@std@@VTime@sf@@@2@U?$less@V?$basic_string@DU?$char_traits@D@std@@V?$allocator@D@2@@std@@@2@V?$allocator@U?$pair@$$CBV?$basic_string@DU?$char_traits@D@std@@V?$allocator@D@2@@std@@U?$pair@V?$function@$$A6AXAAVSprite@sf@@M@Z@std@@VTime@sf@@@2@@std@@@2@$0A@@std@@@std@@IAEPAU?$_Tree_node@U?$pair@$$CBV?$basic_string@DU?$char_traits@D@std@@V?$allocator@D@2@@std@@U?$pair@V?$function@$$A6AXAAVSprite@sf@@M@Z@std@@VTime@sf@@@2@@std@@PAX@1@PAU21@0U_Copy_tag@01@@Z
	DD	01H
	DD	FLAT:__tryblocktable$??$_Copy_nodes@U_Copy_tag@?$_Tree@V?$_Tmap_traits@V?$basic_string@DU?$char_traits@D@std@@V?$allocator@D@2@@std@@U?$pair@V?$function@$$A6AXAAVSprite@sf@@M@Z@std@@VTime@sf@@@2@U?$less@V?$basic_string@DU?$char_traits@D@std@@V?$allocator@D@2@@std@@@2@V?$allocator@U?$pair@$$CBV?$basic_string@DU?$char_traits@D@std@@V?$allocator@D@2@@std@@U?$pair@V?$function@$$A6AXAAVSprite@sf@@M@Z@std@@VTime@sf@@@2@@std@@@2@$0A@@std@@@std@@@?$_Tree@V?$_Tmap_traits@V?$basic_string@DU?$char_traits@D@std@@V?$allocator@D@2@@std@@U?$pair@V?$function@$$A6AXAAVSprite@sf@@M@Z@std@@VTime@sf@@@2@U?$less@V?$basic_string@DU?$char_traits@D@std@@V?$allocator@D@2@@std@@@2@V?$allocator@U?$pair@$$CBV?$basic_string@DU?$char_traits@D@std@@V?$allocator@D@2@@std@@U?$pair@V?$function@$$A6AXAAVSprite@sf@@M@Z@std@@VTime@sf@@@2@@std@@@2@$0A@@std@@@std@@IAEPAU?$_Tree_node@U?$pair@$$CBV?$basic_string@DU?$char_traits@D@std@@V?$allocator@D@2@@std@@U?$pair@V?$function@$$A6AXAAVSprite@sf@@M@Z@std@@VTime@sf@@@2@@std@@PAX@1@PAU21@0U_Copy_tag@01@@Z
	DD	2 DUP(00H)
	DD	00H
	DD	01H
xdata$x	ENDS
;	COMDAT voltbl
voltbl	SEGMENT
_volmd	DB	09H
voltbl	ENDS
;	COMDAT xdata$x
xdata$x	SEGMENT
__ehfuncinfo$??$_Freenode@V?$allocator@U?$_Tree_node@U?$pair@$$CBV?$basic_string@DU?$char_traits@D@std@@V?$allocator@D@2@@std@@U?$pair@V?$function@$$A6AXAAVSprite@sf@@M@Z@std@@VTime@sf@@@2@@std@@PAX@std@@@std@@@?$_Tree_node@U?$pair@$$CBV?$basic_string@DU?$char_traits@D@std@@V?$allocator@D@2@@std@@U?$pair@V?$function@$$A6AXAAVSprite@sf@@M@Z@std@@VTime@sf@@@2@@std@@PAX@std@@SAXAAV?$allocator@U?$_Tree_node@U?$pair@$$CBV?$basic_string@DU?$char_traits@D@std@@V?$allocator@D@2@@std@@U?$pair@V?$function@$$A6AXAAVSprite@sf@@M@Z@std@@VTime@sf@@@2@@std@@PAX@std@@@1@PAU01@@Z DD 019930522H
	DD	00H
	DD	00H
	DD	2 DUP(00H)
	DD	2 DUP(00H)
	DD	00H
	DD	05H
xdata$x	ENDS
;	COMDAT voltbl
voltbl	SEGMENT
_volmd	DW	01fH
	DW	0132H
voltbl	ENDS
;	COMDAT voltbl
voltbl	SEGMENT
_volmd	DB	09H
voltbl	ENDS
;	COMDAT xdata$x
xdata$x	SEGMENT
__ehfuncinfo$??$_Deallocate@$03$0A@@std@@YAXPAXI@Z DD 019930522H
	DD	00H
	DD	00H
	DD	2 DUP(00H)
	DD	2 DUP(00H)
	DD	00H
	DD	05H
xdata$x	ENDS
;	COMDAT voltbl
voltbl	SEGMENT
_volmd	DB	09H
voltbl	ENDS
;	COMDAT xdata$x
xdata$x	SEGMENT
__ehfuncinfo$??$_Freenode0@V?$allocator@U?$_Tree_node@U?$pair@$$CBV?$basic_string@DU?$char_traits@D@std@@V?$allocator@D@2@@std@@U?$pair@V?$function@$$A6AXAAVSprite@sf@@M@Z@std@@VTime@sf@@@2@@std@@PAX@std@@@std@@@?$_Tree_node@U?$pair@$$CBV?$basic_string@DU?$char_traits@D@std@@V?$allocator@D@2@@std@@U?$pair@V?$function@$$A6AXAAVSprite@sf@@M@Z@std@@VTime@sf@@@2@@std@@PAX@std@@SAXAAV?$allocator@U?$_Tree_node@U?$pair@$$CBV?$basic_string@DU?$char_traits@D@std@@V?$allocator@D@2@@std@@U?$pair@V?$function@$$A6AXAAVSprite@sf@@M@Z@std@@VTime@sf@@@2@@std@@PAX@std@@@1@PAU01@@Z DD 019930522H
	DD	00H
	DD	00H
	DD	2 DUP(00H)
	DD	2 DUP(00H)
	DD	00H
	DD	05H
xdata$x	ENDS
;	COMDAT voltbl
voltbl	SEGMENT
_volmd	DB	01fH
	DB	0f7H
voltbl	ENDS
;	COMDAT voltbl
voltbl	SEGMENT
_volmd	DB	09H
voltbl	ENDS
;	COMDAT xdata$x
xdata$x	SEGMENT
__ehfuncinfo$?_Move@?$_Func_impl_no_alloc@VFrameAnimation@thor@@XAAVSprite@sf@@M@std@@EAEPAV?$_Func_base@XAAVSprite@sf@@M@2@PAX@Z DD 019930522H
	DD	00H
	DD	00H
	DD	2 DUP(00H)
	DD	2 DUP(00H)
	DD	00H
	DD	05H
xdata$x	ENDS
;	COMDAT voltbl
voltbl	SEGMENT
_volmd	DB	01fH
	DB	09dH
voltbl	ENDS
;	COMDAT voltbl
voltbl	SEGMENT
_volmd	DB	01eH
	DB	090H
voltbl	ENDS
;	COMDAT voltbl
voltbl	SEGMENT
_volmd	DB	027H
	DB	07fH
voltbl	ENDS
;	COMDAT voltbl
voltbl	SEGMENT
_volmd	DB	09H
voltbl	ENDS
;	COMDAT xdata$x
xdata$x	SEGMENT
__ehfuncinfo$??$_Deallocate_plain@V?$allocator@U_Container_proxy@std@@@std@@@std@@YAXAAV?$allocator@U_Container_proxy@std@@@0@QAU_Container_proxy@0@@Z DD 019930522H
	DD	00H
	DD	00H
	DD	2 DUP(00H)
	DD	2 DUP(00H)
	DD	00H
	DD	05H
xdata$x	ENDS
;	COMDAT voltbl
voltbl	SEGMENT
_volmd	DB	016H
voltbl	ENDS
;	COMDAT xdata$x
xdata$x	SEGMENT
__unwindtable$??0?$pair@$$CBV?$basic_string@DU?$char_traits@D@std@@V?$allocator@D@2@@std@@U?$pair@V?$function@$$A6AXAAVSprite@sf@@M@Z@std@@VTime@sf@@@2@@std@@QAE@ABU01@@Z DD 0ffffffffH
	DD	FLAT:__unwindfunclet$??0?$pair@$$CBV?$basic_string@DU?$char_traits@D@std@@V?$allocator@D@2@@std@@U?$pair@V?$function@$$A6AXAAVSprite@sf@@M@Z@std@@VTime@sf@@@2@@std@@QAE@ABU01@@Z$0
__ehfuncinfo$??0?$pair@$$CBV?$basic_string@DU?$char_traits@D@std@@V?$allocator@D@2@@std@@U?$pair@V?$function@$$A6AXAAVSprite@sf@@M@Z@std@@VTime@sf@@@2@@std@@QAE@ABU01@@Z DD 019930522H
	DD	01H
	DD	FLAT:__unwindtable$??0?$pair@$$CBV?$basic_string@DU?$char_traits@D@std@@V?$allocator@D@2@@std@@U?$pair@V?$function@$$A6AXAAVSprite@sf@@M@Z@std@@VTime@sf@@@2@@std@@QAE@ABU01@@Z
	DD	2 DUP(00H)
	DD	2 DUP(00H)
	DD	00H
	DD	01H
xdata$x	ENDS
;	COMDAT voltbl
voltbl	SEGMENT
_volmd	DB	016H
	DB	023H
voltbl	ENDS
;	COMDAT voltbl
voltbl	SEGMENT
_volmd	DW	033H
	DW	01f5H
voltbl	ENDS
;	COMDAT xdata$x
xdata$x	SEGMENT
__unwindtable$??$adopt@$$CBV?$Animator@VSprite@sf@@V?$basic_string@DU?$char_traits@D@std@@V?$allocator@D@2@@std@@@thor@@@?$Animator@VSprite@sf@@V?$basic_string@DU?$char_traits@D@std@@V?$allocator@D@2@@std@@@thor@@AAEXABV01@@Z DD 0ffffffffH
	DD	FLAT:__unwindfunclet$??$adopt@$$CBV?$Animator@VSprite@sf@@V?$basic_string@DU?$char_traits@D@std@@V?$allocator@D@2@@std@@@thor@@@?$Animator@VSprite@sf@@V?$basic_string@DU?$char_traits@D@std@@V?$allocator@D@2@@std@@@thor@@AAEXABV01@@Z$2
__ehfuncinfo$??$adopt@$$CBV?$Animator@VSprite@sf@@V?$basic_string@DU?$char_traits@D@std@@V?$allocator@D@2@@std@@@thor@@@?$Animator@VSprite@sf@@V?$basic_string@DU?$char_traits@D@std@@V?$allocator@D@2@@std@@@thor@@AAEXABV01@@Z DD 019930522H
	DD	01H
	DD	FLAT:__unwindtable$??$adopt@$$CBV?$Animator@VSprite@sf@@V?$basic_string@DU?$char_traits@D@std@@V?$allocator@D@2@@std@@@thor@@@?$Animator@VSprite@sf@@V?$basic_string@DU?$char_traits@D@std@@V?$allocator@D@2@@std@@@thor@@AAEXABV01@@Z
	DD	2 DUP(00H)
	DD	2 DUP(00H)
	DD	00H
	DD	01H
xdata$x	ENDS
;	COMDAT voltbl
voltbl	SEGMENT
_volmd	DB	09H
voltbl	ENDS
;	COMDAT xdata$x
xdata$x	SEGMENT
__ehfuncinfo$??$_Deallocate@$07$0A@@std@@YAXPAXI@Z DD 019930522H
	DD	00H
	DD	00H
	DD	2 DUP(00H)
	DD	2 DUP(00H)
	DD	00H
	DD	05H
xdata$x	ENDS
;	COMDAT voltbl
voltbl	SEGMENT
_volmd	DW	02aH
	DW	0139H
voltbl	ENDS
;	COMDAT voltbl
voltbl	SEGMENT
_volmd	DB	028H
voltbl	ENDS
;	COMDAT xdata$x
xdata$x	SEGMENT
__unwindtable$??$?0VFrameAnimation@thor@@$0A@@?$function@$$A6AXAAVSprite@sf@@M@Z@std@@QAE@VFrameAnimation@thor@@@Z DD 0ffffffffH
	DD	FLAT:__unwindfunclet$??$?0VFrameAnimation@thor@@$0A@@?$function@$$A6AXAAVSprite@sf@@M@Z@std@@QAE@VFrameAnimation@thor@@@Z$0
	DD	00H
	DD	FLAT:__unwindfunclet$??$?0VFrameAnimation@thor@@$0A@@?$function@$$A6AXAAVSprite@sf@@M@Z@std@@QAE@VFrameAnimation@thor@@@Z$1
__ehfuncinfo$??$?0VFrameAnimation@thor@@$0A@@?$function@$$A6AXAAVSprite@sf@@M@Z@std@@QAE@VFrameAnimation@thor@@@Z DD 019930522H
	DD	02H
	DD	FLAT:__unwindtable$??$?0VFrameAnimation@thor@@$0A@@?$function@$$A6AXAAVSprite@sf@@M@Z@std@@QAE@VFrameAnimation@thor@@@Z
	DD	2 DUP(00H)
	DD	2 DUP(00H)
	DD	00H
	DD	01H
xdata$x	ENDS
;	COMDAT voltbl
voltbl	SEGMENT
_volmd	DB	016H
	DB	020H
voltbl	ENDS
;	COMDAT voltbl
voltbl	SEGMENT
_volmd	DW	02eH
	DW	024cH
voltbl	ENDS
;	COMDAT xdata$x
xdata$x	SEGMENT
__unwindtable$??$?RVSprite@sf@@@FrameAnimation@thor@@QBEXAAVSprite@sf@@M@Z DD 0ffffffffH
	DD	FLAT:__unwindfunclet$??$?RVSprite@sf@@@FrameAnimation@thor@@QBEXAAVSprite@sf@@M@Z$0
__ehfuncinfo$??$?RVSprite@sf@@@FrameAnimation@thor@@QBEXAAVSprite@sf@@M@Z DD 019930522H
	DD	01H
	DD	FLAT:__unwindtable$??$?RVSprite@sf@@@FrameAnimation@thor@@QBEXAAVSprite@sf@@M@Z
	DD	2 DUP(00H)
	DD	2 DUP(00H)
	DD	00H
	DD	01H
xdata$x	ENDS
;	COMDAT voltbl
voltbl	SEGMENT
_volmd	DB	016H
voltbl	ENDS
;	COMDAT xdata$x
xdata$x	SEGMENT
__unwindtable$??0?$function@$$A6AXAAVSprite@sf@@M@Z@std@@QAE@ABV01@@Z DD 0ffffffffH
	DD	FLAT:__unwindfunclet$??0?$function@$$A6AXAAVSprite@sf@@M@Z@std@@QAE@ABV01@@Z$0
__ehfuncinfo$??0?$function@$$A6AXAAVSprite@sf@@M@Z@std@@QAE@ABV01@@Z DD 019930522H
	DD	01H
	DD	FLAT:__unwindtable$??0?$function@$$A6AXAAVSprite@sf@@M@Z@std@@QAE@ABV01@@Z
	DD	2 DUP(00H)
	DD	2 DUP(00H)
	DD	00H
	DD	01H
xdata$x	ENDS
;	COMDAT voltbl
voltbl	SEGMENT
_volmd	DB	028H
	DB	0ceH
voltbl	ENDS
;	COMDAT voltbl
voltbl	SEGMENT
_volmd	DB	016H
	DB	020H
voltbl	ENDS
;	COMDAT voltbl
voltbl	SEGMENT
_volmd	DB	02dH
	DB	0cbH
voltbl	ENDS
;	COMDAT xdata$x
xdata$x	SEGMENT
__unwindtable$?_Alloc_sentinel_and_proxy@?$_Tree@V?$_Tmap_traits@V?$basic_string@DU?$char_traits@D@std@@V?$allocator@D@2@@std@@U?$pair@V?$function@$$A6AXAAVSprite@sf@@M@Z@std@@VTime@sf@@@2@U?$less@V?$basic_string@DU?$char_traits@D@std@@V?$allocator@D@2@@std@@@2@V?$allocator@U?$pair@$$CBV?$basic_string@DU?$char_traits@D@std@@V?$allocator@D@2@@std@@U?$pair@V?$function@$$A6AXAAVSprite@sf@@M@Z@std@@VTime@sf@@@2@@std@@@2@$0A@@std@@@std@@IAEXXZ DD 0ffffffffH
	DD	FLAT:__unwindfunclet$?_Alloc_sentinel_and_proxy@?$_Tree@V?$_Tmap_traits@V?$basic_string@DU?$char_traits@D@std@@V?$allocator@D@2@@std@@U?$pair@V?$function@$$A6AXAAVSprite@sf@@M@Z@std@@VTime@sf@@@2@U?$less@V?$basic_string@DU?$char_traits@D@std@@V?$allocator@D@2@@std@@@2@V?$allocator@U?$pair@$$CBV?$basic_string@DU?$char_traits@D@std@@V?$allocator@D@2@@std@@U?$pair@V?$function@$$A6AXAAVSprite@sf@@M@Z@std@@VTime@sf@@@2@@std@@@2@$0A@@std@@@std@@IAEXXZ$0
__ehfuncinfo$?_Alloc_sentinel_and_proxy@?$_Tree@V?$_Tmap_traits@V?$basic_string@DU?$char_traits@D@std@@V?$allocator@D@2@@std@@U?$pair@V?$function@$$A6AXAAVSprite@sf@@M@Z@std@@VTime@sf@@@2@U?$less@V?$basic_string@DU?$char_traits@D@std@@V?$allocator@D@2@@std@@@2@V?$allocator@U?$pair@$$CBV?$basic_string@DU?$char_traits@D@std@@V?$allocator@D@2@@std@@U?$pair@V?$function@$$A6AXAAVSprite@sf@@M@Z@std@@VTime@sf@@@2@@std@@@2@$0A@@std@@@std@@IAEXXZ DD 019930522H
	DD	01H
	DD	FLAT:__unwindtable$?_Alloc_sentinel_and_proxy@?$_Tree@V?$_Tmap_traits@V?$basic_string@DU?$char_traits@D@std@@V?$allocator@D@2@@std@@U?$pair@V?$function@$$A6AXAAVSprite@sf@@M@Z@std@@VTime@sf@@@2@U?$less@V?$basic_string@DU?$char_traits@D@std@@V?$allocator@D@2@@std@@@2@V?$allocator@U?$pair@$$CBV?$basic_string@DU?$char_traits@D@std@@V?$allocator@D@2@@std@@U?$pair@V?$function@$$A6AXAAVSprite@sf@@M@Z@std@@VTime@sf@@@2@@std@@@2@$0A@@std@@@std@@IAEXXZ
	DD	2 DUP(00H)
	DD	2 DUP(00H)
	DD	00H
	DD	01H
xdata$x	ENDS
;	COMDAT voltbl
voltbl	SEGMENT
_volmd	DB	027H
	DB	08dH
voltbl	ENDS
;	COMDAT voltbl
voltbl	SEGMENT
_volmd	DB	016H
	DB	020H
voltbl	ENDS
;	COMDAT voltbl
voltbl	SEGMENT
_volmd	DW	02eH
	DW	0124H
voltbl	ENDS
;	COMDAT xdata$x
xdata$x	SEGMENT
__unwindtable$?playAnimation@?$Animator@VSprite@sf@@V?$basic_string@DU?$char_traits@D@std@@V?$allocator@D@2@@std@@@thor@@QAEXABV?$basic_string@DU?$char_traits@D@std@@V?$allocator@D@2@@std@@_N@Z DD 0ffffffffH
	DD	FLAT:__unwindfunclet$?playAnimation@?$Animator@VSprite@sf@@V?$basic_string@DU?$char_traits@D@std@@V?$allocator@D@2@@std@@@thor@@QAEXABV?$basic_string@DU?$char_traits@D@std@@V?$allocator@D@2@@std@@_N@Z$0
__ehfuncinfo$?playAnimation@?$Animator@VSprite@sf@@V?$basic_string@DU?$char_traits@D@std@@V?$allocator@D@2@@std@@@thor@@QAEXABV?$basic_string@DU?$char_traits@D@std@@V?$allocator@D@2@@std@@_N@Z DD 019930522H
	DD	01H
	DD	FLAT:__unwindtable$?playAnimation@?$Animator@VSprite@sf@@V?$basic_string@DU?$char_traits@D@std@@V?$allocator@D@2@@std@@@thor@@QAEXABV?$basic_string@DU?$char_traits@D@std@@V?$allocator@D@2@@std@@_N@Z
	DD	2 DUP(00H)
	DD	2 DUP(00H)
	DD	00H
	DD	01H
xdata$x	ENDS
;	COMDAT voltbl
voltbl	SEGMENT
_volmd	DB	021H
voltbl	ENDS
;	COMDAT xdata$x
xdata$x	SEGMENT
__unwindtable$?addAnimation@?$Animator@VSprite@sf@@V?$basic_string@DU?$char_traits@D@std@@V?$allocator@D@2@@std@@@thor@@QAEXABV?$basic_string@DU?$char_traits@D@std@@V?$allocator@D@2@@std@@ABV?$function@$$A6AXAAVSprite@sf@@M@Z@4@VTime@sf@@@Z DD 0ffffffffH
	DD	FLAT:__unwindfunclet$?addAnimation@?$Animator@VSprite@sf@@V?$basic_string@DU?$char_traits@D@std@@V?$allocator@D@2@@std@@@thor@@QAEXABV?$basic_string@DU?$char_traits@D@std@@V?$allocator@D@2@@std@@ABV?$function@$$A6AXAAVSprite@sf@@M@Z@4@VTime@sf@@@Z$2
	DD	00H
	DD	FLAT:__unwindfunclet$?addAnimation@?$Animator@VSprite@sf@@V?$basic_string@DU?$char_traits@D@std@@V?$allocator@D@2@@std@@@thor@@QAEXABV?$basic_string@DU?$char_traits@D@std@@V?$allocator@D@2@@std@@ABV?$function@$$A6AXAAVSprite@sf@@M@Z@4@VTime@sf@@@Z$3
__ehfuncinfo$?addAnimation@?$Animator@VSprite@sf@@V?$basic_string@DU?$char_traits@D@std@@V?$allocator@D@2@@std@@@thor@@QAEXABV?$basic_string@DU?$char_traits@D@std@@V?$allocator@D@2@@std@@ABV?$function@$$A6AXAAVSprite@sf@@M@Z@4@VTime@sf@@@Z DD 019930522H
	DD	02H
	DD	FLAT:__unwindtable$?addAnimation@?$Animator@VSprite@sf@@V?$basic_string@DU?$char_traits@D@std@@V?$allocator@D@2@@std@@@thor@@QAEXABV?$basic_string@DU?$char_traits@D@std@@V?$allocator@D@2@@std@@ABV?$function@$$A6AXAAVSprite@sf@@M@Z@4@VTime@sf@@@Z
	DD	2 DUP(00H)
	DD	2 DUP(00H)
	DD	00H
	DD	01H
xdata$x	ENDS
;	COMDAT voltbl
voltbl	SEGMENT
_volmd	DB	021H
voltbl	ENDS
;	COMDAT xdata$x
xdata$x	SEGMENT
__unwindtable$??0?$Animator@VSprite@sf@@V?$basic_string@DU?$char_traits@D@std@@V?$allocator@D@2@@std@@@thor@@QAE@ABV01@@Z DD 0ffffffffH
	DD	FLAT:__unwindfunclet$??0?$Animator@VSprite@sf@@V?$basic_string@DU?$char_traits@D@std@@V?$allocator@D@2@@std@@@thor@@QAE@ABV01@@Z$0
	DD	00H
	DD	FLAT:__unwindfunclet$??0?$Animator@VSprite@sf@@V?$basic_string@DU?$char_traits@D@std@@V?$allocator@D@2@@std@@@thor@@QAE@ABV01@@Z$1
__ehfuncinfo$??0?$Animator@VSprite@sf@@V?$basic_string@DU?$char_traits@D@std@@V?$allocator@D@2@@std@@@thor@@QAE@ABV01@@Z DD 019930522H
	DD	02H
	DD	FLAT:__unwindtable$??0?$Animator@VSprite@sf@@V?$basic_string@DU?$char_traits@D@std@@V?$allocator@D@2@@std@@@thor@@QAE@ABV01@@Z
	DD	2 DUP(00H)
	DD	2 DUP(00H)
	DD	00H
	DD	01H
xdata$x	ENDS
voltbl	SEGMENT
_volmd	DD	0ffffffffH
	DDSymXIndex: 	FLAT:__unwindfunclet$?generatePlayerAnimation@Animator@@QAEXXZ$0
	DD	010bH
	DD	0118H
_volmd	DD	0ffffffffH
	DDSymXIndex: 	FLAT:?generatePlayerAnimation@Animator@@QAEXXZ
	DD	048H
	DD	07adH
voltbl	ENDS
xdata$x	SEGMENT
__ehfuncinfo$?generatePlayerAnimation@Animator@@QAEXXZ DD 019930522H
	DD	012H
	DD	FLAT:__unwindtable$?generatePlayerAnimation@Animator@@QAEXXZ
	DD	2 DUP(00H)
	DD	2 DUP(00H)
	DD	00H
	DD	01H
__unwindtable$?generatePlayerAnimation@Animator@@QAEXXZ DD 0ffffffffH
	DD	FLAT:__unwindfunclet$?generatePlayerAnimation@Animator@@QAEXXZ$0
	DD	0ffffffffH
	DD	FLAT:__unwindfunclet$?generatePlayerAnimation@Animator@@QAEXXZ$1
	DD	01H
	DD	FLAT:__unwindfunclet$?generatePlayerAnimation@Animator@@QAEXXZ$2
	DD	02H
	DD	FLAT:__unwindfunclet$?generatePlayerAnimation@Animator@@QAEXXZ$3
	DD	03H
	DD	FLAT:__unwindfunclet$?generatePlayerAnimation@Animator@@QAEXXZ$4
	DD	04H
	DD	FLAT:__unwindfunclet$?generatePlayerAnimation@Animator@@QAEXXZ$5
	DD	05H
	DD	FLAT:__unwindfunclet$?generatePlayerAnimation@Animator@@QAEXXZ$7
	DD	06H
	DD	FLAT:__unwindfunclet$?generatePlayerAnimation@Animator@@QAEXXZ$8
	DD	05H
	DD	FLAT:__unwindfunclet$?generatePlayerAnimation@Animator@@QAEXXZ$10
	DD	08H
	DD	FLAT:__unwindfunclet$?generatePlayerAnimation@Animator@@QAEXXZ$11
	DD	05H
	DD	FLAT:__unwindfunclet$?generatePlayerAnimation@Animator@@QAEXXZ$13
	DD	0aH
	DD	FLAT:__unwindfunclet$?generatePlayerAnimation@Animator@@QAEXXZ$14
	DD	05H
	DD	FLAT:__unwindfunclet$?generatePlayerAnimation@Animator@@QAEXXZ$16
	DD	0cH
	DD	FLAT:__unwindfunclet$?generatePlayerAnimation@Animator@@QAEXXZ$17
	DD	05H
	DD	FLAT:__unwindfunclet$?generatePlayerAnimation@Animator@@QAEXXZ$19
	DD	0eH
	DD	FLAT:__unwindfunclet$?generatePlayerAnimation@Animator@@QAEXXZ$20
	DD	05H
	DD	FLAT:__unwindfunclet$?generatePlayerAnimation@Animator@@QAEXXZ$21
	DD	05H
	DD	FLAT:__unwindfunclet$?generatePlayerAnimation@Animator@@QAEXXZ$22
xdata$x	ENDS
;	COMDAT voltbl
voltbl	SEGMENT
_volmd	DW	01eH
	DW	0160H
voltbl	ENDS
;	COMDAT voltbl
voltbl	SEGMENT
_volmd	DB	09H
voltbl	ENDS
;	COMDAT xdata$x
xdata$x	SEGMENT
__ehfuncinfo$?_Tidy_deallocate@?$basic_string@DU?$char_traits@D@std@@V?$allocator@D@2@@std@@AAEXXZ DD 019930522H
	DD	00H
	DD	00H
	DD	2 DUP(00H)
	DD	2 DUP(00H)
	DD	00H
	DD	05H
xdata$x	ENDS
;	COMDAT voltbl
voltbl	SEGMENT
_volmd	DB	09H
voltbl	ENDS
;	COMDAT xdata$x
xdata$x	SEGMENT
__ehfuncinfo$?_Tidy_init@?$basic_string@DU?$char_traits@D@std@@V?$allocator@D@2@@std@@AAEXXZ DD 019930522H
	DD	00H
	DD	00H
	DD	2 DUP(00H)
	DD	2 DUP(00H)
	DD	00H
	DD	05H
xdata$x	ENDS
;	COMDAT voltbl
voltbl	SEGMENT
_volmd	DB	021H
	DB	086H
voltbl	ENDS
;	COMDAT voltbl
voltbl	SEGMENT
_volmd	DB	02dH
	DB	0a1H
voltbl	ENDS
;	COMDAT voltbl
voltbl	SEGMENT
_volmd	DB	027H
	DB	090H
voltbl	ENDS
;	COMDAT voltbl
voltbl	SEGMENT
_volmd	DW	01fH
	DW	016dH
voltbl	ENDS
;	COMDAT voltbl
voltbl	SEGMENT
_volmd	DB	09H
voltbl	ENDS
;	COMDAT xdata$x
xdata$x	SEGMENT
__ehfuncinfo$?_Take_contents@?$basic_string@DU?$char_traits@D@std@@V?$allocator@D@2@@std@@AAEXAAV12@@Z DD 019930522H
	DD	00H
	DD	00H
	DD	2 DUP(00H)
	DD	2 DUP(00H)
	DD	00H
	DD	05H
xdata$x	ENDS
;	COMDAT voltbl
voltbl	SEGMENT
_volmd	DB	09H
voltbl	ENDS
;	COMDAT xdata$x
xdata$x	SEGMENT
__ehfuncinfo$??0?$basic_string@DU?$char_traits@D@std@@V?$allocator@D@2@@std@@QAE@$$QAV01@@Z DD 019930522H
	DD	00H
	DD	00H
	DD	2 DUP(00H)
	DD	2 DUP(00H)
