; Listing generated by Microsoft (R) Optimizing Compiler Version 19.29.30137.0 

	TITLE	C:\Users\theob\Documents\GitHub\as-pts1\rendu2\Debug\Block.obj
	.686P
	.XMM
	include listing.inc
	.model	flat

INCLUDELIB MSVCRTD
INCLUDELIB OLDNAMES

CONST	SEGMENT
$SG86273 DB	'C:\Program Files (x86)\Microsoft Visual Studio\2019\Comm'
	DB	'unity\VC\Tools\MSVC\14.29.30133\include\xlocale', 00H
___asan_rrz_$SG86273 DD 0f9H
	ORG $+52
$SG88947 DB	'invalid argument', 00H
___asan_rrz_$SG88947 DD 0f9H
	ORG $+43
$SG88948 DB	'%s', 00H
___asan_rrz_$SG88948 DD 0f9H
	ORG $+57
$SG88949 DB	'C:\Program Files (x86)\Microsoft Visual Studio\2019\Comm'
	DB	'unity\VC\Tools\MSVC\14.29.30133\include\xmemory', 00H
___asan_rrz_$SG88949 DD 0f9H
	ORG $+52
$SG88950 DB	'C', 00H, ':', 00H, '\', 00H, 'P', 00H, 'r', 00H, 'o', 00H
	DB	'g', 00H, 'r', 00H, 'a', 00H, 'm', 00H, ' ', 00H, 'F', 00H, 'i'
	DB	00H, 'l', 00H, 'e', 00H, 's', 00H, ' ', 00H, '(', 00H, 'x', 00H
	DB	'8', 00H, '6', 00H, ')', 00H, '\', 00H, 'M', 00H, 'i', 00H, 'c'
	DB	00H, 'r', 00H, 'o', 00H, 's', 00H, 'o', 00H, 'f', 00H, 't', 00H
	DB	' ', 00H, 'V', 00H, 'i', 00H, 's', 00H, 'u', 00H, 'a', 00H, 'l'
	DB	00H, ' ', 00H, 'S', 00H, 't', 00H, 'u', 00H, 'd', 00H, 'i', 00H
	DB	'o', 00H, '\', 00H, '2', 00H, '0', 00H, '1', 00H, '9', 00H, '\'
	DB	00H, 'C', 00H, 'o', 00H, 'm', 00H, 'm', 00H, 'u', 00H, 'n', 00H
	DB	'i', 00H, 't', 00H, 'y', 00H, '\', 00H, 'V', 00H, 'C', 00H, '\'
	DB	00H, 'T', 00H, 'o', 00H, 'o', 00H, 'l', 00H, 's', 00H, '\', 00H
	DB	'M', 00H, 'S', 00H, 'V', 00H, 'C', 00H, '\', 00H, '1', 00H, '4'
	DB	00H, '.', 00H, '2', 00H, '9', 00H, '.', 00H, '3', 00H, '0', 00H
	DB	'1', 00H, '3', 00H, '3', 00H, '\', 00H, 'i', 00H, 'n', 00H, 'c'
	DB	00H, 'l', 00H, 'u', 00H, 'd', 00H, 'e', 00H, '\', 00H, 'x', 00H
	DB	'm', 00H, 'e', 00H, 'm', 00H, 'o', 00H, 'r', 00H, 'y', 00H, 00H
	DB	00H
___asan_rrz_$SG88950 DD 0f9H
	ORG $+44
$SG88951 DB	's', 00H, 't', 00H, 'd', 00H, ':', 00H, ':', 00H, '_', 00H
	DB	'A', 00H, 'l', 00H, 'l', 00H, 'o', 00H, 'c', 00H, 'a', 00H, 't'
	DB	00H, 'e', 00H, '_', 00H, 'm', 00H, 'a', 00H, 'n', 00H, 'u', 00H
	DB	'a', 00H, 'l', 00H, 'l', 00H, 'y', 00H, '_', 00H, 'v', 00H, 'e'
	DB	00H, 'c', 00H, 't', 00H, 'o', 00H, 'r', 00H, '_', 00H, 'a', 00H
	DB	'l', 00H, 'i', 00H, 'g', 00H, 'n', 00H, 'e', 00H, 'd', 00H, 00H
	DB	00H
___asan_rrz_$SG88951 DD 0f9H
	ORG $+46
$SG88952 DB	'"', 00H, 'i', 00H, 'n', 00H, 'v', 00H, 'a', 00H, 'l', 00H
	DB	'i', 00H, 'd', 00H, ' ', 00H, 'a', 00H, 'r', 00H, 'g', 00H, 'u'
	DB	00H, 'm', 00H, 'e', 00H, 'n', 00H, 't', 00H, '"', 00H, 00H, 00H
___asan_rrz_$SG88952 DD 0f9H
CONST	ENDS
ASAN$GL	SEGMENT
_L___asan_global_$SG88952 DD FLAT:$SG88952
	DD	026H
	DD	060H
	DD	FLAT:_L___asan_gen_.14
	DD	FLAT:_L___asan_gen_.3
	DD	00H
	DD	FLAT:_L___asan_gen_.15
	DD	00H
_L___asan_global_$SG88951 DD FLAT:$SG88951
	DD	04eH
	DD	080H
	DD	FLAT:_L___asan_gen_.12
	DD	FLAT:_L___asan_gen_.3
	DD	00H
	DD	FLAT:_L___asan_gen_.13
	DD	00H
_L___asan_global_$SG88950 DD FLAT:$SG88950
	DD	0d0H
	DD	0100H
	DD	FLAT:_L___asan_gen_.10
	DD	FLAT:_L___asan_gen_.3
	DD	00H
	DD	FLAT:_L___asan_gen_.11
	DD	00H
_L___asan_global_$SG88949 DD FLAT:$SG88949
	DD	068H
	DD	0a0H
	DD	FLAT:_L___asan_gen_.8
	DD	FLAT:_L___asan_gen_.3
	DD	00H
	DD	FLAT:_L___asan_gen_.9
	DD	00H
_L___asan_global_$SG88948 DD FLAT:$SG88948
	DD	03H
	DD	040H
	DD	FLAT:_L___asan_gen_.6
	DD	FLAT:_L___asan_gen_.3
	DD	00H
	DD	FLAT:_L___asan_gen_.7
	DD	00H
_L___asan_global_$SG88947 DD FLAT:$SG88947
	DD	011H
	DD	040H
	DD	FLAT:_L___asan_gen_.4
	DD	FLAT:_L___asan_gen_.3
	DD	00H
	DD	FLAT:_L___asan_gen_.5
	DD	00H
_L___asan_global_$SG86273 DD FLAT:$SG86273
	DD	068H
	DD	0a0H
	DD	FLAT:_L___asan_gen_.1
	DD	FLAT:_L___asan_gen_.0
	DD	00H
	DD	FLAT:_L___asan_gen_.2
	DD	00H
ASAN$GL	ENDS
CONST	SEGMENT
	ORG $+54
_L___asan_gen_.0 DB 'xlocale', 00H
_L___asan_gen_.1 DB '<C++ string literal>', 00H
	ORG $+3
_L___asan_gen_.2 DD FLAT:_L___asan_gen_.0
	DD	020eH
	DD	059H
_L___asan_gen_.3 DB 'xmemory', 00H
_L___asan_gen_.4 DB '<C++ string literal>', 00H
	ORG $+3
_L___asan_gen_.5 DD FLAT:_L___asan_gen_.3
	DD	08eH
	DD	04H
_L___asan_gen_.6 DB '<C++ string literal>', 00H
	ORG $+3
_L___asan_gen_.7 DD FLAT:_L___asan_gen_.3
	DD	08eH
	DD	04H
_L___asan_gen_.8 DB '<C++ string literal>', 00H
	ORG $+3
_L___asan_gen_.9 DD FLAT:_L___asan_gen_.3
	DD	08eH
	DD	04H
_L___asan_gen_.10 DB '<C++ string literal>', 00H
	ORG $+3
_L___asan_gen_.11 DD FLAT:_L___asan_gen_.3
	DD	08eH
	DD	04H
_L___asan_gen_.12 DB '<C++ string literal>', 00H
	ORG $+3
_L___asan_gen_.13 DD FLAT:_L___asan_gen_.3
	DD	08eH
	DD	04H
_L___asan_gen_.14 DB '<C++ string literal>', 00H
	ORG $+3
_L___asan_gen_.15 DD FLAT:_L___asan_gen_.3
	DD	08eH
	DD	04H
CONST	ENDS
msvcjmc	SEGMENT
__533735DC_Texture@hpp DB 01H
__B3577796_RenderStates@hpp DB 01H
__97D3638F_vcruntime_new@h DB 01H
__741AE07E_corecrt_math@h DB 01H
__B49664B7_stdlib@h DB 01H
__244AF085_cstdlib DB 01H
__47F37C5A_xtr1common DB 01H
__1FEB9909_corecrt_memcpy_s@h DB 01H
__A751F051_corecrt_memory@h DB 01H
__9200769A_corecrt_wstring@h DB 01H
__32E5F013_string@h DB 01H
__81812A28_cstddef DB 01H
__589FA321_type_traits DB 01H
__A2143F22_corecrt_stdio_config@h DB 01H
__829E1958_corecrt_wstdio@h DB 01H
__6DFAE8B8_stdio@h DB 01H
__C6E16F6F_corecrt_wconio@h DB 01H
__6D390390_corecrt_wio@h DB 01H
__1157D6BA_corecrt_wtime@h DB 01H
__1DC1E279_stat@h DB 01H
__93DC0B45_wchar@h DB 01H
__7FE5F402_limits DB 01H
__DD5FCA34_compare DB 01H
__12269DE6_xutility DB 01H
__60BC708E_cmath DB 01H
__20BB4341_malloc@h DB 01H
__B0A13A33_vcruntime_exception@h DB 01H
__FF458F76_exception DB 01H
__C69F69CF_tuple DB 01H
__79D216CD_xmemory DB 01H
__374A57BA_xpolymorphic_allocator@h DB 01H
__0D019051_xstring DB 01H
__760BB52B_stdexcept DB 01H
__A4685E82_xcall_once@h DB 01H
__A0B61CF9_time@h DB 01H
__DDB379A0_xthreads@h DB 01H
__14D0A8C0_atomic DB 01H
__1B354CA2_system_error DB 01H
__65ADBEC9_vcruntime_typeinfo@h DB 01H
__62F96EFF_typeinfo DB 01H
__C34BF88C_memory DB 01H
__EF0EAF83_xfacet DB 01H
__B2D2BA86_ctype@h DB 01H
__7D708D37_xlocinfo DB 01H
__D23FE460_xlocale DB 01H
__4495FA24_xiosbase DB 01H
__4CB88277_xlocnum DB 01H
__845859A3_ios DB 01H
__B2A9EE53_InputStream@hpp DB 01H
__62DD75E3_NonCopyable@hpp DB 01H
__B7987E10_string DB 01H
__1589CDA2_algorithm DB 01H
__FE33131C_xlocmes DB 01H
__67DA974F_xlocmon DB 01H
__D96D2425_xloctime DB 01H
__FC4CDF9C_Thread@inl DB 01H
__3C1C7D88_ContextSettings@hpp DB 01H
__8D991C03_Drawable@hpp DB 01H
__896EE8A8_Glyph@hpp DB 01H
__69958C8C_xtree DB 01H
__E3A1A8C3_Font@hpp DB 01H
__0D6BD463_Character@h DB 01H
__9344C8DF_Block@h DB 01H
__B4613F23_Sprite@hpp DB 01H
__E070E73D_Block@cpp DB 01H
__324884E2_vector DB 01H
__68A60A21_locale DB 01H
__C12F3EA4_ostream DB 01H
__74AB0D97_streambuf DB 01H
__038A2AA6_iterator DB 01H
__B30C2184_iosfwd DB 01H
__1347750E_utility DB 01H
__E458E21C_xstddef DB 01H
__C23CD225_Rect@inl DB 01H
__03BEDB82_Rect@hpp DB 01H
__F54903A0_xatomic@h DB 01H
msvcjmc	ENDS
PUBLIC	?__empty_global_delete@@YAXPAX@Z		; __empty_global_delete
PUBLIC	?__empty_global_delete@@YAXPAXI@Z		; __empty_global_delete
PUBLIC	?__empty_global_delete@@YAXPAXW4align_val_t@std@@@Z ; __empty_global_delete
PUBLIC	?__empty_global_delete@@YAXPAXIW4align_val_t@std@@@Z ; __empty_global_delete
PUBLIC	_wmemcpy
PUBLIC	??$_Maklocstr@_W@std@@YAPA_WPBDPA_WABU_Cvtvec@@@Z ; std::_Maklocstr<wchar_t>
PUBLIC	??$min@H@std@@YAABHABH0@Z			; std::min<int>
PUBLIC	?_Maklocwcs@std@@YAPA_WPB_W@Z			; std::_Maklocwcs
PUBLIC	??$_Maklocstr@D@std@@YAPADPBDPADABU_Cvtvec@@@Z	; std::_Maklocstr<char>
PUBLIC	??$_Getvals@_W@?$time_get@DV?$istreambuf_iterator@DU?$char_traits@D@std@@@std@@@std@@IAEX_WABV_Locinfo@1@@Z ; std::time_get<char,std::istreambuf_iterator<char,std::char_traits<char> > >::_Getvals<wchar_t>
PUBLIC	??$_Getvals@_W@?$time_get@_WV?$istreambuf_iterator@_WU?$char_traits@_W@std@@@std@@@std@@IAEX_WABV_Locinfo@1@@Z ; std::time_get<wchar_t,std::istreambuf_iterator<wchar_t,std::char_traits<wchar_t> > >::_Getvals<wchar_t>
PUBLIC	??0?$Rect@H@sf@@QAE@XZ				; sf::Rect<int>::Rect<int>
PUBLIC	??0?$Rect@H@sf@@QAE@HHHH@Z			; sf::Rect<int>::Rect<int>
PUBLIC	?intersects@?$Rect@H@sf@@QBE_NABV12@@Z		; sf::Rect<int>::intersects
PUBLIC	?intersects@?$Rect@H@sf@@QBE_NABV12@AAV12@@Z	; sf::Rect<int>::intersects
PUBLIC	??_GTexture@sf@@QAEPAXI@Z			; sf::Texture::`scalar deleting destructor'
PUBLIC	??_GSprite@sf@@UAEPAXI@Z			; sf::Sprite::`scalar deleting destructor'
PUBLIC	??0Block@@QAE@MMPAVImage@sf@@@Z			; Block::Block
PUBLIC	??0Block@@QAE@PAV0@@Z				; Block::Block
PUBLIC	??1Block@@QAE@XZ				; Block::~Block
PUBLIC	?show@Block@@QAEXPAVRenderWindow@sf@@@Z		; Block::show
PUBLIC	?collide@Block@@QAE_NV?$Rect@H@sf@@@Z		; Block::collide
PUBLIC	??8@YA_NABVBlock@@0@Z				; operator==
PUBLIC	?effectPlayer@Block@@UAE_NPAVPlayer@@@Z		; Block::effectPlayer
PUBLIC	??$max@H@std@@YAABHABH0@Z			; std::max<int>
PUBLIC	??_ESprite@sf@@W3AEPAXI@Z			; [thunk]:sf::Sprite::`vector deleting destructor'
PUBLIC	__JustMyCode_Default
PUBLIC	??_C@_0GI@GFIAKDGM@C?3?2Program?5Files?5?$CIx86?$CJ?2Microsof@ ; `string'
PUBLIC	??_C@_0GI@OGMNKBMN@C?3?2Program?5Files?5?$CIx86?$CJ?2Microsof@ ; `string'
PUBLIC	??_SSprite@sf@@6BDrawable@1@@			; sf::Sprite::`local vftable'
PUBLIC	??_SSprite@sf@@6BTransformable@1@@		; sf::Sprite::`local vftable'
PUBLIC	??_7Block@@6B@					; Block::`vftable'
PUBLIC	??_C@_0N@LPFKKEBD@?3AM?3am?3PM?3pm@		; `string'
PUBLIC	??_C@_1BK@MHIKGOKE@?$AA?3?$AAA?$AAM?$AA?3?$AAa?$AAm?$AA?3?$AAP?$AAM?$AA?3?$AAp?$AAm@ ; `string'
PUBLIC	??_R4Sprite@sf@@6BDrawable@1@@			; sf::Sprite::`RTTI Complete Object Locator'
PUBLIC	??_R0?AVSprite@sf@@@8				; sf::Sprite `RTTI Type Descriptor'
PUBLIC	??_R3Sprite@sf@@8				; sf::Sprite::`RTTI Class Hierarchy Descriptor'
PUBLIC	??_R2Sprite@sf@@8				; sf::Sprite::`RTTI Base Class Array'
PUBLIC	??_R1A@?0A@EA@Sprite@sf@@8			; sf::Sprite::`RTTI Base Class Descriptor at (0,-1,0,64)'
PUBLIC	??_R1A@?0A@EA@Drawable@sf@@8			; sf::Drawable::`RTTI Base Class Descriptor at (0,-1,0,64)'
PUBLIC	??_R0?AVDrawable@sf@@@8				; sf::Drawable `RTTI Type Descriptor'
PUBLIC	??_R3Drawable@sf@@8				; sf::Drawable::`RTTI Class Hierarchy Descriptor'
PUBLIC	??_R2Drawable@sf@@8				; sf::Drawable::`RTTI Base Class Array'
PUBLIC	??_R13?0A@EA@Transformable@sf@@8		; sf::Transformable::`RTTI Base Class Descriptor at (4,-1,0,64)'
PUBLIC	??_R0?AVTransformable@sf@@@8			; sf::Transformable `RTTI Type Descriptor'
PUBLIC	??_R3Transformable@sf@@8			; sf::Transformable::`RTTI Class Hierarchy Descriptor'
PUBLIC	??_R2Transformable@sf@@8			; sf::Transformable::`RTTI Base Class Array'
PUBLIC	??_R1A@?0A@EA@Transformable@sf@@8		; sf::Transformable::`RTTI Base Class Descriptor at (0,-1,0,64)'
PUBLIC	??_R4Sprite@sf@@6BTransformable@1@@		; sf::Sprite::`RTTI Complete Object Locator'
PUBLIC	??_R4Block@@6B@					; Block::`RTTI Complete Object Locator'
PUBLIC	??_R0?AVBlock@@@8				; Block `RTTI Type Descriptor'
PUBLIC	??_R3Block@@8					; Block::`RTTI Class Hierarchy Descriptor'
PUBLIC	??_R2Block@@8					; Block::`RTTI Base Class Array'
PUBLIC	??_R1A@?0A@EA@Block@@8				; Block::`RTTI Base Class Descriptor at (0,-1,0,64)'
EXTRN	??2@YAPAXI@Z:PROC				; operator new
EXTRN	??3@YAXPAXI@Z:PROC				; operator delete
EXTRN	__imp___calloc_dbg:PROC
EXTRN	_memcpy:PROC
EXTRN	__imp__wcslen:PROC
EXTRN	_strlen:PROC
EXTRN	?_Xbad_alloc@std@@YAXXZ:PROC			; std::_Xbad_alloc
EXTRN	__Mbrtowc:PROC
EXTRN	__imp_?_Getcvt@_Locinfo@std@@QBE?AU_Cvtvec@@XZ:PROC
EXTRN	__imp_?_Getdays@_Locinfo@std@@QBEPBDXZ:PROC
EXTRN	__imp_?_Getmonths@_Locinfo@std@@QBEPBDXZ:PROC
EXTRN	__imp_?_W_Getdays@_Locinfo@std@@QBEPBGXZ:PROC
EXTRN	__imp_?_W_Getmonths@_Locinfo@std@@QBEPBGXZ:PROC
EXTRN	__imp_?setPosition@Transformable@sf@@QAEXMM@Z:PROC
EXTRN	__imp_??0Texture@sf@@QAE@XZ:PROC
EXTRN	__imp_??1Texture@sf@@QAE@XZ:PROC
EXTRN	__imp_?loadFromImage@Texture@sf@@QAE_NABVImage@2@ABV?$Rect@H@2@@Z:PROC
EXTRN	__imp_?setSmooth@Texture@sf@@QAEX_N@Z:PROC
EXTRN	__imp_?draw@RenderTarget@sf@@QAEXABVDrawable@2@ABVRenderStates@2@@Z:PROC
EXTRN	__imp_??0Sprite@sf@@QAE@ABVTexture@1@ABV?$Rect@H@1@@Z:PROC
EXTRN	__imp_??1Sprite@sf@@UAE@XZ:PROC
EXTRN	??_ESprite@sf@@UAEPAXI@Z:PROC			; sf::Sprite::`vector deleting destructor'
EXTRN	?draw@Sprite@sf@@EBEXAAVRenderTarget@2@VRenderStates@2@@Z:PROC ; sf::Sprite::draw
EXTRN	@__CheckForDebuggerJustMyCode@4:PROC
EXTRN	@__security_check_cookie@4:PROC
EXTRN	__RTC_InitBase:PROC
EXTRN	__RTC_Shutdown:PROC
EXTRN	___CxxFrameHandler3:PROC
EXTRN	___asan_load16:PROC
EXTRN	___asan_load4:PROC
EXTRN	___asan_loadN:PROC
EXTRN	___asan_memset:PROC
EXTRN	___asan_report_load1:PROC
EXTRN	___asan_report_load4:PROC
EXTRN	___asan_report_store1:PROC
EXTRN	___asan_report_store2:PROC
EXTRN	___asan_report_store4:PROC
EXTRN	___asan_set_shadow_00:PROC
EXTRN	___asan_set_shadow_f8:PROC
EXTRN	___asan_store16:PROC
EXTRN	___asan_store4:PROC
EXTRN	___asan_storeN:PROC
EXTRN	??_7type_info@@6B@:QWORD			; type_info::`vftable'
EXTRN	__imp_?Default@RenderStates@sf@@2V12@B:BYTE
EXTRN	___security_cookie:DWORD
EXTRN	__fltused:DWORD
;	COMDAT ??_C@_0GI@GFIAKDGM@C?3?2Program?5Files?5?$CIx86?$CJ?2Microsof@
CONST	SEGMENT
??_C@_0GI@GFIAKDGM@C?3?2Program?5Files?5?$CIx86?$CJ?2Microsof@ DB 'C:\Pro'
	DB	'gram Files (x86)\Microsoft Visual Studio\2019\Community\VC\To'
	DB	'ols\MSVC\14.29.30133\include\xlocale', 00H	; `string'
___asan_rrz_??_C@_0GI@GFIAKDGM@C?3?2Program?5Files?5?$CIx86?$CJ?2Microsof@ DD 0f9H
CONST	ENDS
;	COMDAT ??_C@_0GI@OGMNKBMN@C?3?2Program?5Files?5?$CIx86?$CJ?2Microsof@
CONST	SEGMENT
??_C@_0GI@OGMNKBMN@C?3?2Program?5Files?5?$CIx86?$CJ?2Microsof@ DB 'C:\Pro'
	DB	'gram Files (x86)\Microsoft Visual Studio\2019\Community\VC\To'
	DB	'ols\MSVC\14.29.30133\include\xlocnum', 00H	; `string'
___asan_rrz_??_C@_0GI@OGMNKBMN@C?3?2Program?5Files?5?$CIx86?$CJ?2Microsof@ DD 0f9H
CONST	ENDS
;	COMDAT ??_C@_0N@LPFKKEBD@?3AM?3am?3PM?3pm@
CONST	SEGMENT
??_C@_0N@LPFKKEBD@?3AM?3am?3PM?3pm@ DB ':AM:am:PM:pm', 00H ; `string'
___asan_rrz_??_C@_0N@LPFKKEBD@?3AM?3am?3PM?3pm@ DD 0f9H
CONST	ENDS
;	COMDAT ??_C@_1BK@MHIKGOKE@?$AA?3?$AAA?$AAM?$AA?3?$AAa?$AAm?$AA?3?$AAP?$AAM?$AA?3?$AAp?$AAm@
CONST	SEGMENT
??_C@_1BK@MHIKGOKE@?$AA?3?$AAA?$AAM?$AA?3?$AAa?$AAm?$AA?3?$AAP?$AAM?$AA?3?$AAp?$AAm@ DB ':'
	DB	00H, 'A', 00H, 'M', 00H, ':', 00H, 'a', 00H, 'm', 00H, ':', 00H
	DB	'P', 00H, 'M', 00H, ':', 00H, 'p', 00H, 'm', 00H, 00H, 00H ; `string'
___asan_rrz_??_C@_1BK@MHIKGOKE@?$AA?3?$AAA?$AAM?$AA?3?$AAa?$AAm?$AA?3?$AAP?$AAM?$AA?3?$AAp?$AAm@ DD 0f9H
CONST	ENDS
;	COMDAT ASAN$GL
ASAN$GL	SEGMENT
_L___asan_global_??_C@_1BK@MHIKGOKE@?$AA?3?$AAA?$AAM?$AA?3?$AAa?$AAm?$AA?3?$AAP?$AAM?$AA?3?$AAp?$AAm@ DD FLAT:??_C@_1BK@MHIKGOKE@?$AA?3?$AAA?$AAM?$AA?3?$AAa?$AAm?$AA?3?$AAP?$AAM?$AA?3?$AAp?$AAm@
	DD	01aH
	DD	040H
	DD	FLAT:_L___asan_gen_.9
	DD	FLAT:_L___asan_gen_.6
	DD	00H
	DD	FLAT:_L___asan_gen_.10
	DD	00H
ASAN$GL	ENDS
;	COMDAT CONST
CONST	SEGMENT
_L___asan_gen_.10 DD FLAT:_L___asan_gen_.6
	DD	0b4H
	DD	03eH
CONST	ENDS
;	COMDAT CONST
CONST	SEGMENT
_L___asan_gen_.9 DB '<C++ string literal>', 00H
CONST	ENDS
;	COMDAT ASAN$GL
ASAN$GL	SEGMENT
_L___asan_global_??_C@_0N@LPFKKEBD@?3AM?3am?3PM?3pm@ DD FLAT:??_C@_0N@LPFKKEBD@?3AM?3am?3PM?3pm@
	DD	0dH
	DD	040H
	DD	FLAT:_L___asan_gen_.7
	DD	FLAT:_L___asan_gen_.6
	DD	00H
	DD	FLAT:_L___asan_gen_.8
	DD	00H
ASAN$GL	ENDS
;	COMDAT CONST
CONST	SEGMENT
_L___asan_gen_.8 DD FLAT:_L___asan_gen_.6
	DD	01b7H
	DD	030H
CONST	ENDS
;	COMDAT CONST
CONST	SEGMENT
_L___asan_gen_.7 DB '<C++ string literal>', 00H
CONST	ENDS
;	COMDAT CONST
CONST	SEGMENT
_L___asan_gen_.6 DB 'xloctime', 00H
CONST	ENDS
;	COMDAT ASAN$GL
ASAN$GL	SEGMENT
_L___asan_global_??_C@_0GI@OGMNKBMN@C?3?2Program?5Files?5?$CIx86?$CJ?2Microsof@ DD FLAT:??_C@_0GI@OGMNKBMN@C?3?2Program?5Files?5?$CIx86?$CJ?2Microsof@
	DD	068H
	DD	0a0H
	DD	FLAT:_L___asan_gen_.4
	DD	FLAT:_L___asan_gen_.3
	DD	00H
	DD	FLAT:_L___asan_gen_.5
	DD	00H
ASAN$GL	ENDS
;	COMDAT CONST
CONST	SEGMENT
_L___asan_gen_.5 DD FLAT:_L___asan_gen_.3
	DD	05dH
	DD	05fH
CONST	ENDS
;	COMDAT CONST
CONST	SEGMENT
_L___asan_gen_.4 DB '<C++ string literal>', 00H
CONST	ENDS
;	COMDAT CONST
CONST	SEGMENT
_L___asan_gen_.3 DB 'xlocnum', 00H
CONST	ENDS
;	COMDAT ASAN$GL
ASAN$GL	SEGMENT
_L___asan_global_??_C@_0GI@GFIAKDGM@C?3?2Program?5Files?5?$CIx86?$CJ?2Microsof@ DD FLAT:??_C@_0GI@GFIAKDGM@C?3?2Program?5Files?5?$CIx86?$CJ?2Microsof@
	DD	068H
	DD	0a0H
	DD	FLAT:_L___asan_gen_.1
	DD	FLAT:_L___asan_gen_.0
	DD	00H
	DD	FLAT:_L___asan_gen_.2
	DD	00H
ASAN$GL	ENDS
;	COMDAT CONST
CONST	SEGMENT
_L___asan_gen_.2 DD FLAT:_L___asan_gen_.0
	DD	049H
	DD	03eH
CONST	ENDS
;	COMDAT CONST
CONST	SEGMENT
_L___asan_gen_.1 DB '<C++ string literal>', 00H
CONST	ENDS
;	COMDAT CONST
CONST	SEGMENT
_L___asan_gen_.0 DB 'xlocale', 00H
CONST	ENDS
;	COMDAT rtc$TMZ
rtc$TMZ	SEGMENT
__RTC_Shutdown.rtc$TMZ DD FLAT:__RTC_Shutdown
rtc$TMZ	ENDS
;	COMDAT rtc$IMZ
rtc$IMZ	SEGMENT
__RTC_InitBase.rtc$IMZ DD FLAT:__RTC_InitBase
rtc$IMZ	ENDS
;	COMDAT ??_R1A@?0A@EA@Block@@8
rdata$r	SEGMENT
??_R1A@?0A@EA@Block@@8 DD FLAT:??_R0?AVBlock@@@8	; Block::`RTTI Base Class Descriptor at (0,-1,0,64)'
	DD	00H
	DD	00H
	DD	0ffffffffH
	DD	00H
	DD	040H
	DD	FLAT:??_R3Block@@8
rdata$r	ENDS
;	COMDAT ??_R2Block@@8
rdata$r	SEGMENT
??_R2Block@@8 DD FLAT:??_R1A@?0A@EA@Block@@8		; Block::`RTTI Base Class Array'
rdata$r	ENDS
;	COMDAT ??_R3Block@@8
rdata$r	SEGMENT
??_R3Block@@8 DD 00H					; Block::`RTTI Class Hierarchy Descriptor'
	DD	00H
	DD	01H
	DD	FLAT:??_R2Block@@8
rdata$r	ENDS
;	COMDAT ??_R0?AVBlock@@@8
data$rs	SEGMENT
??_R0?AVBlock@@@8 DD FLAT:??_7type_info@@6B@		; Block `RTTI Type Descriptor'
	DD	00H
	DB	'.?AVBlock@@', 00H
data$rs	ENDS
;	COMDAT ??_R4Block@@6B@
rdata$r	SEGMENT
??_R4Block@@6B@ DD 00H					; Block::`RTTI Complete Object Locator'
	DD	00H
	DD	00H
	DD	FLAT:??_R0?AVBlock@@@8
	DD	FLAT:??_R3Block@@8
rdata$r	ENDS
;	COMDAT ??_R4Sprite@sf@@6BTransformable@1@@
rdata$r	SEGMENT
??_R4Sprite@sf@@6BTransformable@1@@ DD 00H		; sf::Sprite::`RTTI Complete Object Locator'
	DD	04H
	DD	00H
	DD	FLAT:??_R0?AVSprite@sf@@@8
	DD	FLAT:??_R3Sprite@sf@@8
rdata$r	ENDS
;	COMDAT ??_R1A@?0A@EA@Transformable@sf@@8
rdata$r	SEGMENT
??_R1A@?0A@EA@Transformable@sf@@8 DD FLAT:??_R0?AVTransformable@sf@@@8 ; sf::Transformable::`RTTI Base Class Descriptor at (0,-1,0,64)'
	DD	00H
	DD	00H
	DD	0ffffffffH
	DD	00H
	DD	040H
	DD	FLAT:??_R3Transformable@sf@@8
rdata$r	ENDS
;	COMDAT ??_R2Transformable@sf@@8
rdata$r	SEGMENT
??_R2Transformable@sf@@8 DD FLAT:??_R1A@?0A@EA@Transformable@sf@@8 ; sf::Transformable::`RTTI Base Class Array'
rdata$r	ENDS
;	COMDAT ??_R3Transformable@sf@@8
rdata$r	SEGMENT
??_R3Transformable@sf@@8 DD 00H				; sf::Transformable::`RTTI Class Hierarchy Descriptor'
	DD	00H
	DD	01H
	DD	FLAT:??_R2Transformable@sf@@8
rdata$r	ENDS
;	COMDAT ??_R0?AVTransformable@sf@@@8
data$rs	SEGMENT
??_R0?AVTransformable@sf@@@8 DD FLAT:??_7type_info@@6B@	; sf::Transformable `RTTI Type Descriptor'
	DD	00H
	DB	'.?AVTransformable@sf@@', 00H
data$rs	ENDS
;	COMDAT ??_R13?0A@EA@Transformable@sf@@8
rdata$r	SEGMENT
??_R13?0A@EA@Transformable@sf@@8 DD FLAT:??_R0?AVTransformable@sf@@@8 ; sf::Transformable::`RTTI Base Class Descriptor at (4,-1,0,64)'
	DD	00H
	DD	04H
	DD	0ffffffffH
	DD	00H
	DD	040H
	DD	FLAT:??_R3Transformable@sf@@8
rdata$r	ENDS
;	COMDAT ??_R2Drawable@sf@@8
rdata$r	SEGMENT
??_R2Drawable@sf@@8 DD FLAT:??_R1A@?0A@EA@Drawable@sf@@8 ; sf::Drawable::`RTTI Base Class Array'
rdata$r	ENDS
;	COMDAT ??_R3Drawable@sf@@8
rdata$r	SEGMENT
??_R3Drawable@sf@@8 DD 00H				; sf::Drawable::`RTTI Class Hierarchy Descriptor'
	DD	00H
	DD	01H
	DD	FLAT:??_R2Drawable@sf@@8
rdata$r	ENDS
;	COMDAT ??_R0?AVDrawable@sf@@@8
data$rs	SEGMENT
??_R0?AVDrawable@sf@@@8 DD FLAT:??_7type_info@@6B@	; sf::Drawable `RTTI Type Descriptor'
	DD	00H
	DB	'.?AVDrawable@sf@@', 00H
data$rs	ENDS
;	COMDAT ??_R1A@?0A@EA@Drawable@sf@@8
rdata$r	SEGMENT
??_R1A@?0A@EA@Drawable@sf@@8 DD FLAT:??_R0?AVDrawable@sf@@@8 ; sf::Drawable::`RTTI Base Class Descriptor at (0,-1,0,64)'
	DD	00H
	DD	00H
	DD	0ffffffffH
	DD	00H
	DD	040H
	DD	FLAT:??_R3Drawable@sf@@8
rdata$r	ENDS
;	COMDAT ??_R1A@?0A@EA@Sprite@sf@@8
rdata$r	SEGMENT
??_R1A@?0A@EA@Sprite@sf@@8 DD FLAT:??_R0?AVSprite@sf@@@8 ; sf::Sprite::`RTTI Base Class Descriptor at (0,-1,0,64)'
	DD	02H
	DD	00H
	DD	0ffffffffH
	DD	00H
	DD	040H
	DD	FLAT:??_R3Sprite@sf@@8
rdata$r	ENDS
;	COMDAT ??_R2Sprite@sf@@8
rdata$r	SEGMENT
??_R2Sprite@sf@@8 DD FLAT:??_R1A@?0A@EA@Sprite@sf@@8	; sf::Sprite::`RTTI Base Class Array'
	DD	FLAT:??_R1A@?0A@EA@Drawable@sf@@8
	DD	FLAT:??_R13?0A@EA@Transformable@sf@@8
rdata$r	ENDS
;	COMDAT ??_R3Sprite@sf@@8
rdata$r	SEGMENT
??_R3Sprite@sf@@8 DD 00H				; sf::Sprite::`RTTI Class Hierarchy Descriptor'
	DD	01H
	DD	03H
	DD	FLAT:??_R2Sprite@sf@@8
rdata$r	ENDS
;	COMDAT ??_R0?AVSprite@sf@@@8
data$rs	SEGMENT
??_R0?AVSprite@sf@@@8 DD FLAT:??_7type_info@@6B@	; sf::Sprite `RTTI Type Descriptor'
	DD	00H
	DB	'.?AVSprite@sf@@', 00H
data$rs	ENDS
;	COMDAT ??_R4Sprite@sf@@6BDrawable@1@@
rdata$r	SEGMENT
??_R4Sprite@sf@@6BDrawable@1@@ DD 00H			; sf::Sprite::`RTTI Complete Object Locator'
	DD	00H
	DD	00H
	DD	FLAT:??_R0?AVSprite@sf@@@8
	DD	FLAT:??_R3Sprite@sf@@8
rdata$r	ENDS
;	COMDAT ??_7Block@@6B@
CONST	SEGMENT
??_7Block@@6B@ DD FLAT:??_R4Block@@6B@			; Block::`vftable'
	DD	FLAT:?effectPlayer@Block@@UAE_NPAVPlayer@@@Z
CONST	ENDS
;	COMDAT ??_SSprite@sf@@6BTransformable@1@@
CONST	SEGMENT
??_SSprite@sf@@6BTransformable@1@@ DD FLAT:??_R4Sprite@sf@@6BTransformable@1@@ ; sf::Sprite::`local vftable'
	DD	FLAT:??_ESprite@sf@@W3AEPAXI@Z
CONST	ENDS
;	COMDAT ??_SSprite@sf@@6BDrawable@1@@
CONST	SEGMENT
??_SSprite@sf@@6BDrawable@1@@ DD FLAT:??_R4Sprite@sf@@6BDrawable@1@@ ; sf::Sprite::`local vftable'
	DD	FLAT:??_ESprite@sf@@UAEPAXI@Z
	DD	FLAT:?draw@Sprite@sf@@EBEXAAVRenderTarget@2@VRenderStates@2@@Z
CONST	ENDS
voltbl	SEGMENT
_volmd	DD	0ffffffffH
	DDSymXIndex: 	FLAT:__unwindfunclet$??0Block@@QAE@PAV0@@Z$0
	DD	02fH
_volmd	DD	0ffffffffH
	DDSymXIndex: 	FLAT:__unwindfunclet$??0Block@@QAE@MMPAVImage@sf@@@Z$0
	DD	056H
voltbl	ENDS
xdata$x	SEGMENT
__unwindtable$??0Block@@QAE@PAV0@@Z DD 0ffffffffH
	DD	FLAT:__unwindfunclet$??0Block@@QAE@PAV0@@Z$0
	DD	0ffffffffH
	DD	FLAT:__unwindfunclet$??0Block@@QAE@PAV0@@Z$1
__unwindtable$??0Block@@QAE@MMPAVImage@sf@@@Z DD 0ffffffffH
	DD	FLAT:__unwindfunclet$??0Block@@QAE@MMPAVImage@sf@@@Z$0
	DD	0ffffffffH
	DD	FLAT:__unwindfunclet$??0Block@@QAE@MMPAVImage@sf@@@Z$1
	DD	0ffffffffH
	DD	FLAT:__unwindfunclet$??0Block@@QAE@MMPAVImage@sf@@@Z$2
	DD	0ffffffffH
	DD	FLAT:__unwindfunclet$??0Block@@QAE@MMPAVImage@sf@@@Z$3
__ehfuncinfo$??0Block@@QAE@PAV0@@Z DD 019930522H
	DD	02H
	DD	FLAT:__unwindtable$??0Block@@QAE@PAV0@@Z
	DD	2 DUP(00H)
	DD	2 DUP(00H)
	DD	00H
	DD	01H
__ehfuncinfo$??0Block@@QAE@MMPAVImage@sf@@@Z DD 019930522H
	DD	04H
	DD	FLAT:__unwindtable$??0Block@@QAE@MMPAVImage@sf@@@Z
	DD	2 DUP(00H)
	DD	2 DUP(00H)
	DD	00H
	DD	01H
xdata$x	ENDS
CONST	SEGMENT
	ORG $+4
__L__asan_gen_.??0Block@@QAE@MMPAVImage@sf@@@Z DB '1 16 16 18 compiler te'
	DB	'mporary'
CONST	ENDS
;	COMDAT voltbl
voltbl	SEGMENT
_volmd	DW	023H
	DW	0aceH
voltbl	ENDS
;	COMDAT CONST
CONST	SEGMENT
__L__asan_gen_.?intersects@?$Rect@H@sf@@QBE_NABV12@AAV12@@Z DB '18 16 4 6'
	DB	' r1MinX 32 4 18 compiler temporary 48 4 6 r1MaxX 64 4 18 comp'
	DB	'iler temporary 80 4 6 r1MinY 96 4 18 compiler temporary 112 4'
	DB	' 6 r1MaxY 128 4 18 compiler temporary 144 4 6 r2MinX 160 4 18'
	DB	' compiler temporary 176 4 6 r2MaxX 192 4 18 compiler temporar'
	DB	'y 208 4 6 r2MinY 224 4 18 compiler temporary 240 4 6 r2MaxY 2'
	DB	'56 4 18 compiler temporary 272 16 18 compiler temporary 288 1'
	DB	'6 18 compiler temporary'
CONST	ENDS
;	COMDAT voltbl
voltbl	SEGMENT
_volmd	DB	020H
	DB	0b1H
voltbl	ENDS
;	COMDAT CONST
CONST	SEGMENT
__L__asan_gen_.?intersects@?$Rect@H@sf@@QBE_NABV12@@Z DB '1 16 16 12 inte'
	DB	'rsection'
CONST	ENDS
;	COMDAT CONST
CONST	SEGMENT
__L__asan_gen_.??$_Getvals@_W@?$time_get@_WV?$istreambuf_iterator@_WU?$char_traits@_W@std@@@std@@@std@@IAEX_WABV_Locinfo@1@@Z DB '1'
	DB	' 16 44 18 compiler temporary'
CONST	ENDS
;	COMDAT CONST
CONST	SEGMENT
__L__asan_gen_.??$_Getvals@_W@?$time_get@DV?$istreambuf_iterator@DU?$char_traits@D@std@@@std@@@std@@IAEX_WABV_Locinfo@1@@Z DB '1'
	DB	' 16 44 18 compiler temporary'
CONST	ENDS
;	COMDAT voltbl
voltbl	SEGMENT
_volmd	DW	023H
	DW	022dH
voltbl	ENDS
;	COMDAT CONST
CONST	SEGMENT
__L__asan_gen_.??$_Maklocstr@_W@std@@YAPA_WPBDPA_WABU_Cvtvec@@@Z DB '3 16'
	DB	' 8 6 _Mbst1 32 2 3 _Wc 48 8 6 _Mbst2'
CONST	ENDS
; Function compile flags: /Odt
;	COMDAT __JustMyCode_Default
_TEXT	SEGMENT
__JustMyCode_Default PROC				; COMDAT
  00000	55		 push	 ebp
  00001	8b ec		 mov	 ebp, esp
  00003	5d		 pop	 ebp
  00004	c3		 ret	 0
__JustMyCode_Default ENDP
_TEXT	ENDS
; Function compile flags: /Odsp /RTCu
;	COMDAT ??_ESprite@sf@@W3AEPAXI@Z
_TEXT	SEGMENT
??_ESprite@sf@@W3AEPAXI@Z PROC				; [thunk]:sf::Sprite::`vector deleting destructor', COMDAT
  00000	83 e9 04	 sub	 ecx, 4
  00003	e9 00 00 00 00	 jmp	 ??_ESprite@sf@@UAEPAXI@Z
??_ESprite@sf@@W3AEPAXI@Z ENDP				; [thunk]:sf::Sprite::`vector deleting destructor'
_TEXT	ENDS
; Function compile flags: /Odtp /RTCu
; File C:\Program Files (x86)\Microsoft Visual Studio\2019\Community\VC\Tools\MSVC\14.29.30133\include\utility
;	COMDAT ??$max@H@std@@YAABHABH0@Z
_TEXT	SEGMENT
$T1 = -28						; size = 4
tv70 = -24						; size = 4
tv67 = -20						; size = 4
tv65 = -16						; size = 4
tv73 = -12						; size = 4
tv83 = -8						; size = 4
tv76 = -2						; size = 1
tv86 = -1						; size = 1
__Left$ = 8						; size = 4
__Right$ = 12						; size = 4
??$max@H@std@@YAABHABH0@Z PROC				; std::max<int>, COMDAT

; 42   :     const _Ty& _Left, const _Ty& _Right) noexcept(noexcept(_Left < _Right)) /* strengthened */ {

  00000	55		 push	 ebp
  00001	8b ec		 mov	 ebp, esp
  00003	83 ec 1c	 sub	 esp, 28			; 0000001cH
  00006	b9 00 00 00 00	 mov	 ecx, OFFSET __1347750E_utility
  0000b	e8 00 00 00 00	 call	 @__CheckForDebuggerJustMyCode@4

; 43   :     // return larger of _Left and _Right
; 44   :     return _Left < _Right ? _Right : _Left;

  00010	8b 45 08	 mov	 eax, DWORD PTR __Left$[ebp]
  00013	89 45 ec	 mov	 DWORD PTR tv67[ebp], eax
  00016	8b 4d ec	 mov	 ecx, DWORD PTR tv67[ebp]
  00019	89 4d f8	 mov	 DWORD PTR tv83[ebp], ecx
  0001c	8b 55 f8	 mov	 edx, DWORD PTR tv83[ebp]
  0001f	c1 ea 03	 shr	 edx, 3
  00022	8a 82 00 00 00
	30		 mov	 al, BYTE PTR [edx+805306368]
  00028	88 45 ff	 mov	 BYTE PTR tv86[ebp], al
  0002b	80 7d ff 00	 cmp	 BYTE PTR tv86[ebp], 0
  0002f	74 1a		 je	 SHORT $LN6@max
  00031	8a 4d f8	 mov	 cl, BYTE PTR tv83[ebp]
  00034	80 e1 07	 and	 cl, 7
  00037	80 c1 03	 add	 cl, 3
  0003a	3a 4d ff	 cmp	 cl, BYTE PTR tv86[ebp]
  0003d	7c 0c		 jl	 SHORT $LN6@max
  0003f	8b 55 f8	 mov	 edx, DWORD PTR tv83[ebp]
  00042	52		 push	 edx
  00043	e8 00 00 00 00	 call	 ___asan_report_load4
  00048	83 c4 04	 add	 esp, 4
$LN6@max:
  0004b	8b 45 0c	 mov	 eax, DWORD PTR __Right$[ebp]
  0004e	89 45 e8	 mov	 DWORD PTR tv70[ebp], eax
  00051	8b 4d e8	 mov	 ecx, DWORD PTR tv70[ebp]
  00054	89 4d f4	 mov	 DWORD PTR tv73[ebp], ecx
  00057	8b 55 f4	 mov	 edx, DWORD PTR tv73[ebp]
  0005a	c1 ea 03	 shr	 edx, 3
  0005d	8a 82 00 00 00
	30		 mov	 al, BYTE PTR [edx+805306368]
  00063	88 45 fe	 mov	 BYTE PTR tv76[ebp], al
  00066	80 7d fe 00	 cmp	 BYTE PTR tv76[ebp], 0
  0006a	74 1a		 je	 SHORT $LN5@max
  0006c	8a 4d f4	 mov	 cl, BYTE PTR tv73[ebp]
  0006f	80 e1 07	 and	 cl, 7
  00072	80 c1 03	 add	 cl, 3
  00075	3a 4d fe	 cmp	 cl, BYTE PTR tv76[ebp]
  00078	7c 0c		 jl	 SHORT $LN5@max
  0007a	8b 55 f4	 mov	 edx, DWORD PTR tv73[ebp]
  0007d	52		 push	 edx
  0007e	e8 00 00 00 00	 call	 ___asan_report_load4
  00083	83 c4 04	 add	 esp, 4
$LN5@max:
  00086	8b 45 08	 mov	 eax, DWORD PTR __Left$[ebp]
  00089	8b 4d 0c	 mov	 ecx, DWORD PTR __Right$[ebp]
  0008c	8b 10		 mov	 edx, DWORD PTR [eax]
  0008e	3b 11		 cmp	 edx, DWORD PTR [ecx]
  00090	7d 08		 jge	 SHORT $LN3@max
  00092	8b 45 0c	 mov	 eax, DWORD PTR __Right$[ebp]
  00095	89 45 f0	 mov	 DWORD PTR tv65[ebp], eax
  00098	eb 06		 jmp	 SHORT $LN4@max
$LN3@max:
  0009a	8b 4d 08	 mov	 ecx, DWORD PTR __Left$[ebp]
  0009d	89 4d f0	 mov	 DWORD PTR tv65[ebp], ecx
$LN4@max:
  000a0	8b 55 f0	 mov	 edx, DWORD PTR tv65[ebp]
  000a3	89 55 e4	 mov	 DWORD PTR $T1[ebp], edx
  000a6	8b 45 e4	 mov	 eax, DWORD PTR $T1[ebp]

; 45   : }

  000a9	8b e5		 mov	 esp, ebp
  000ab	5d		 pop	 ebp
  000ac	c3		 ret	 0
??$max@H@std@@YAABHABH0@Z ENDP				; std::max<int>
_TEXT	ENDS
; Function compile flags: /Odtp /RTCu
; File C:\Users\theob\Documents\GitHub\as-pts1\rendu2\Block.cpp
_TEXT	SEGMENT
_this$ = -4						; size = 4
_p$ = 8							; size = 4
?effectPlayer@Block@@UAE_NPAVPlayer@@@Z PROC		; Block::effectPlayer
; _this$ = ecx

; 52   : {

  00000	55		 push	 ebp
  00001	8b ec		 mov	 ebp, esp
  00003	51		 push	 ecx
  00004	89 4d fc	 mov	 DWORD PTR _this$[ebp], ecx
  00007	b9 00 00 00 00	 mov	 ecx, OFFSET __E070E73D_Block@cpp
  0000c	e8 00 00 00 00	 call	 @__CheckForDebuggerJustMyCode@4

; 53   : 	return false;

  00011	32 c0		 xor	 al, al

; 54   : }

  00013	8b e5		 mov	 esp, ebp
  00015	5d		 pop	 ebp
  00016	c2 04 00	 ret	 4
?effectPlayer@Block@@UAE_NPAVPlayer@@@Z ENDP		; Block::effectPlayer
_TEXT	ENDS
; Function compile flags: /Odtp /RTCu
; File C:\Users\theob\Documents\GitHub\as-pts1\rendu2\Block.cpp
_TEXT	SEGMENT
tv70 = -40						; size = 4
tv68 = -36						; size = 4
tv67 = -32						; size = 4
tv65 = -28						; size = 4
tv64 = -24						; size = 4
tv81 = -20						; size = 4
tv91 = -16						; size = 4
tv133 = -12						; size = 4
tv143 = -8						; size = 4
tv84 = -4						; size = 1
tv94 = -3						; size = 1
tv136 = -2						; size = 1
tv146 = -1						; size = 1
_b1$ = 8						; size = 4
_b2$ = 12						; size = 4
??8@YA_NABVBlock@@0@Z PROC				; operator==

; 65   : {

  00000	55		 push	 ebp
  00001	8b ec		 mov	 ebp, esp
  00003	83 ec 28	 sub	 esp, 40			; 00000028H
  00006	b9 00 00 00 00	 mov	 ecx, OFFSET __E070E73D_Block@cpp
  0000b	e8 00 00 00 00	 call	 @__CheckForDebuggerJustMyCode@4

; 66   : 	return b1._x == b2._x && b1._y == b2._y;

  00010	8b 45 08	 mov	 eax, DWORD PTR _b1$[ebp]
  00013	83 c0 04	 add	 eax, 4
  00016	89 45 e8	 mov	 DWORD PTR tv64[ebp], eax
  00019	8b 4d 0c	 mov	 ecx, DWORD PTR _b2$[ebp]
  0001c	83 c1 04	 add	 ecx, 4
  0001f	89 4d e4	 mov	 DWORD PTR tv65[ebp], ecx
  00022	8b 55 e8	 mov	 edx, DWORD PTR tv64[ebp]
  00025	89 55 f8	 mov	 DWORD PTR tv143[ebp], edx
  00028	8b 45 f8	 mov	 eax, DWORD PTR tv143[ebp]
  0002b	c1 e8 03	 shr	 eax, 3
  0002e	8a 88 00 00 00
	30		 mov	 cl, BYTE PTR [eax+805306368]
  00034	88 4d ff	 mov	 BYTE PTR tv146[ebp], cl
  00037	80 7d ff 00	 cmp	 BYTE PTR tv146[ebp], 0
  0003b	74 1a		 je	 SHORT $LN8@operator
  0003d	8a 55 f8	 mov	 dl, BYTE PTR tv143[ebp]
  00040	80 e2 07	 and	 dl, 7
  00043	80 c2 03	 add	 dl, 3
  00046	3a 55 ff	 cmp	 dl, BYTE PTR tv146[ebp]
  00049	7c 0c		 jl	 SHORT $LN8@operator
  0004b	8b 45 f8	 mov	 eax, DWORD PTR tv143[ebp]
  0004e	50		 push	 eax
  0004f	e8 00 00 00 00	 call	 ___asan_report_load4
  00054	83 c4 04	 add	 esp, 4
$LN8@operator:
  00057	8b 4d e4	 mov	 ecx, DWORD PTR tv65[ebp]
  0005a	89 4d f4	 mov	 DWORD PTR tv133[ebp], ecx
  0005d	8b 55 f4	 mov	 edx, DWORD PTR tv133[ebp]
  00060	c1 ea 03	 shr	 edx, 3
  00063	8a 82 00 00 00
	30		 mov	 al, BYTE PTR [edx+805306368]
  00069	88 45 fe	 mov	 BYTE PTR tv136[ebp], al
  0006c	80 7d fe 00	 cmp	 BYTE PTR tv136[ebp], 0
  00070	74 1a		 je	 SHORT $LN7@operator
  00072	8a 4d f4	 mov	 cl, BYTE PTR tv133[ebp]
  00075	80 e1 07	 and	 cl, 7
  00078	80 c1 03	 add	 cl, 3
  0007b	3a 4d fe	 cmp	 cl, BYTE PTR tv136[ebp]
  0007e	7c 0c		 jl	 SHORT $LN7@operator
  00080	8b 55 f4	 mov	 edx, DWORD PTR tv133[ebp]
  00083	52		 push	 edx
  00084	e8 00 00 00 00	 call	 ___asan_report_load4
  00089	83 c4 04	 add	 esp, 4
$LN7@operator:
  0008c	8b 45 e8	 mov	 eax, DWORD PTR tv64[ebp]
  0008f	8b 4d e4	 mov	 ecx, DWORD PTR tv65[ebp]
  00092	f3 0f 10 00	 movss	 xmm0, DWORD PTR [eax]
  00096	0f 2e 01	 ucomiss xmm0, DWORD PTR [ecx]
  00099	9f		 lahf
  0009a	f6 c4 44	 test	 ah, 68			; 00000044H
  0009d	0f 8a 96 00 00
	00		 jp	 $LN3@operator
  000a3	8b 55 08	 mov	 edx, DWORD PTR _b1$[ebp]
  000a6	83 c2 08	 add	 edx, 8
  000a9	89 55 e0	 mov	 DWORD PTR tv67[ebp], edx
  000ac	8b 45 0c	 mov	 eax, DWORD PTR _b2$[ebp]
  000af	83 c0 08	 add	 eax, 8
  000b2	89 45 dc	 mov	 DWORD PTR tv68[ebp], eax
  000b5	8b 4d e0	 mov	 ecx, DWORD PTR tv67[ebp]
  000b8	89 4d f0	 mov	 DWORD PTR tv91[ebp], ecx
  000bb	8b 55 f0	 mov	 edx, DWORD PTR tv91[ebp]
  000be	c1 ea 03	 shr	 edx, 3
  000c1	8a 82 00 00 00
	30		 mov	 al, BYTE PTR [edx+805306368]
  000c7	88 45 fd	 mov	 BYTE PTR tv94[ebp], al
  000ca	80 7d fd 00	 cmp	 BYTE PTR tv94[ebp], 0
  000ce	74 1a		 je	 SHORT $LN6@operator
  000d0	8a 4d f0	 mov	 cl, BYTE PTR tv91[ebp]
  000d3	80 e1 07	 and	 cl, 7
  000d6	80 c1 03	 add	 cl, 3
  000d9	3a 4d fd	 cmp	 cl, BYTE PTR tv94[ebp]
  000dc	7c 0c		 jl	 SHORT $LN6@operator
  000de	8b 55 f0	 mov	 edx, DWORD PTR tv91[ebp]
  000e1	52		 push	 edx
  000e2	e8 00 00 00 00	 call	 ___asan_report_load4
  000e7	83 c4 04	 add	 esp, 4
$LN6@operator:
  000ea	8b 45 dc	 mov	 eax, DWORD PTR tv68[ebp]
  000ed	89 45 ec	 mov	 DWORD PTR tv81[ebp], eax
  000f0	8b 4d ec	 mov	 ecx, DWORD PTR tv81[ebp]
  000f3	c1 e9 03	 shr	 ecx, 3
  000f6	8a 91 00 00 00
	30		 mov	 dl, BYTE PTR [ecx+805306368]
  000fc	88 55 fc	 mov	 BYTE PTR tv84[ebp], dl
  000ff	80 7d fc 00	 cmp	 BYTE PTR tv84[ebp], 0
  00103	74 18		 je	 SHORT $LN5@operator
  00105	8a 45 ec	 mov	 al, BYTE PTR tv81[ebp]
  00108	24 07		 and	 al, 7
  0010a	04 03		 add	 al, 3
  0010c	3a 45 fc	 cmp	 al, BYTE PTR tv84[ebp]
  0010f	7c 0c		 jl	 SHORT $LN5@operator
  00111	8b 4d ec	 mov	 ecx, DWORD PTR tv81[ebp]
  00114	51		 push	 ecx
  00115	e8 00 00 00 00	 call	 ___asan_report_load4
  0011a	83 c4 04	 add	 esp, 4
$LN5@operator:
  0011d	8b 55 e0	 mov	 edx, DWORD PTR tv67[ebp]
  00120	8b 45 dc	 mov	 eax, DWORD PTR tv68[ebp]
  00123	f3 0f 10 02	 movss	 xmm0, DWORD PTR [edx]
  00127	0f 2e 00	 ucomiss xmm0, DWORD PTR [eax]
  0012a	9f		 lahf
  0012b	f6 c4 44	 test	 ah, 68			; 00000044H
  0012e	7a 09		 jp	 SHORT $LN3@operator
  00130	c7 45 d8 01 00
	00 00		 mov	 DWORD PTR tv70[ebp], 1
  00137	eb 07		 jmp	 SHORT $LN4@operator
$LN3@operator:
  00139	c7 45 d8 00 00
	00 00		 mov	 DWORD PTR tv70[ebp], 0
$LN4@operator:
  00140	8a 45 d8	 mov	 al, BYTE PTR tv70[ebp]

; 67   : }

  00143	8b e5		 mov	 esp, ebp
  00145	5d		 pop	 ebp
  00146	c3		 ret	 0
??8@YA_NABVBlock@@0@Z ENDP				; operator==
_TEXT	ENDS
; Function compile flags: /Odtp /RTCu
; File C:\Users\theob\Documents\GitHub\as-pts1\rendu2\Block.cpp
_TEXT	SEGMENT
tv69 = -20						; size = 4
_this$ = -16						; size = 4
tv64 = -12						; size = 4
tv73 = -8						; size = 4
tv76 = -1						; size = 1
_rect$ = 8						; size = 16
?collide@Block@@QAE_NV?$Rect@H@sf@@@Z PROC		; Block::collide
; _this$ = ecx

; 47   : {

  00000	55		 push	 ebp
  00001	8b ec		 mov	 ebp, esp
  00003	83 ec 14	 sub	 esp, 20			; 00000014H
  00006	89 4d f0	 mov	 DWORD PTR _this$[ebp], ecx
  00009	b9 00 00 00 00	 mov	 ecx, OFFSET __E070E73D_Block@cpp
  0000e	e8 00 00 00 00	 call	 @__CheckForDebuggerJustMyCode@4

; 48   : 	return _rect->intersects(rect);

  00013	8b 45 f0	 mov	 eax, DWORD PTR _this$[ebp]
  00016	83 c0 0c	 add	 eax, 12			; 0000000cH
  00019	89 45 f4	 mov	 DWORD PTR tv64[ebp], eax
  0001c	8b 4d f4	 mov	 ecx, DWORD PTR tv64[ebp]
  0001f	89 4d f8	 mov	 DWORD PTR tv73[ebp], ecx
  00022	8b 55 f8	 mov	 edx, DWORD PTR tv73[ebp]
  00025	c1 ea 03	 shr	 edx, 3
  00028	8a 82 00 00 00
	30		 mov	 al, BYTE PTR [edx+805306368]
  0002e	88 45 ff	 mov	 BYTE PTR tv76[ebp], al
  00031	80 7d ff 00	 cmp	 BYTE PTR tv76[ebp], 0
  00035	74 1a		 je	 SHORT $LN3@collide
  00037	8a 4d f8	 mov	 cl, BYTE PTR tv73[ebp]
  0003a	80 e1 07	 and	 cl, 7
  0003d	80 c1 03	 add	 cl, 3
  00040	3a 4d ff	 cmp	 cl, BYTE PTR tv76[ebp]
  00043	7c 0c		 jl	 SHORT $LN3@collide
  00045	8b 55 f8	 mov	 edx, DWORD PTR tv73[ebp]
  00048	52		 push	 edx
  00049	e8 00 00 00 00	 call	 ___asan_report_load4
  0004e	83 c4 04	 add	 esp, 4
$LN3@collide:
  00051	8b 45 f4	 mov	 eax, DWORD PTR tv64[ebp]
  00054	8b 08		 mov	 ecx, DWORD PTR [eax]
  00056	89 4d ec	 mov	 DWORD PTR tv69[ebp], ecx
  00059	8d 55 08	 lea	 edx, DWORD PTR _rect$[ebp]
  0005c	52		 push	 edx
  0005d	8b 4d ec	 mov	 ecx, DWORD PTR tv69[ebp]
  00060	e8 00 00 00 00	 call	 ?intersects@?$Rect@H@sf@@QBE_NABV12@@Z ; sf::Rect<int>::intersects

; 49   : }

  00065	8b e5		 mov	 esp, ebp
  00067	5d		 pop	 ebp
  00068	c2 10 00	 ret	 16			; 00000010H
?collide@Block@@QAE_NV?$Rect@H@sf@@@Z ENDP		; Block::collide
_TEXT	ENDS
; Function compile flags: /Odtp /RTCu
; File C:\Users\theob\Documents\GitHub\as-pts1\rendu2\Block.cpp
_TEXT	SEGMENT
tv77 = -8						; size = 4
_this$ = -4						; size = 4
_rw$ = 8						; size = 4
?show@Block@@QAEXPAVRenderWindow@sf@@@Z PROC		; Block::show
; _this$ = ecx

; 29   : void Block::show(sf::RenderWindow* rw) {

  00000	55		 push	 ebp
  00001	8b ec		 mov	 ebp, esp
  00003	83 ec 08	 sub	 esp, 8
  00006	89 4d fc	 mov	 DWORD PTR _this$[ebp], ecx
  00009	b9 00 00 00 00	 mov	 ecx, OFFSET __E070E73D_Block@cpp
  0000e	e8 00 00 00 00	 call	 @__CheckForDebuggerJustMyCode@4

; 30   : 	// définit un rectangle de 120x50
; 31   : 	/*
; 32   : 
; 33   : 	*/
; 34   : 	#ifdef DEBUG
; 35   : 	if (colliding) {
; 36   : 		sf::RectangleShape rectangle(sf::Vector2f(BLOCKWIDTH, BLOCKHEIGHT));
; 37   : 		rectangle.setPosition(sf::Vector2f(_x, _y));
; 38   : 		rw->draw(rectangle);
; 39   : 		colliding = false;
; 40   : 		return;
; 41   : 	}
; 42   : 	#endif // DEBUG
; 43   : 	rw->draw(*_sprite);

  00013	8b 45 08	 mov	 eax, DWORD PTR _rw$[ebp]
  00016	83 c0 30	 add	 eax, 48			; 00000030H
  00019	89 45 f8	 mov	 DWORD PTR tv77[ebp], eax
  0001c	8b 0d 00 00 00
	00		 mov	 ecx, DWORD PTR __imp_?Default@RenderStates@sf@@2V12@B
  00022	51		 push	 ecx
  00023	8b 55 fc	 mov	 edx, DWORD PTR _this$[ebp]
  00026	8b 42 10	 mov	 eax, DWORD PTR [edx+16]
  00029	50		 push	 eax
  0002a	8b 4d f8	 mov	 ecx, DWORD PTR tv77[ebp]
  0002d	ff 15 00 00 00
	00		 call	 DWORD PTR __imp_?draw@RenderTarget@sf@@QAEXABVDrawable@2@ABVRenderStates@2@@Z

; 44   : }

  00033	8b e5		 mov	 esp, ebp
  00035	5d		 pop	 ebp
  00036	c2 04 00	 ret	 4
?show@Block@@QAEXPAVRenderWindow@sf@@@Z ENDP		; Block::show
_TEXT	ENDS
; Function compile flags: /Odtp /RTCu
; File C:\Users\theob\Documents\GitHub\as-pts1\rendu2\Block.cpp
_TEXT	SEGMENT
$T1 = -84						; size = 4
tv84 = -80						; size = 4
tv78 = -76						; size = 4
tv77 = -72						; size = 4
tv93 = -68						; size = 4
tv85 = -64						; size = 4
$T2 = -60						; size = 4
tv79 = -56						; size = 4
tv72 = -52						; size = 4
tv65 = -48						; size = 4
tv64 = -44						; size = 4
tv134 = -40						; size = 4
tv144 = -36						; size = 4
tv154 = -32						; size = 4
tv164 = -28						; size = 4
tv174 = -24						; size = 4
tv184 = -20						; size = 4
_this$ = -16						; size = 4
$T3 = -12						; size = 4
tv137 = -6						; size = 1
tv147 = -5						; size = 1
tv157 = -4						; size = 1
tv167 = -3						; size = 1
tv177 = -2						; size = 1
tv187 = -1						; size = 1
??1Block@@QAE@XZ PROC					; Block::~Block
; _this$ = ecx

; 58   : {

  00000	55		 push	 ebp
  00001	8b ec		 mov	 ebp, esp
  00003	83 ec 54	 sub	 esp, 84			; 00000054H
  00006	89 4d f0	 mov	 DWORD PTR _this$[ebp], ecx
  00009	b9 00 00 00 00	 mov	 ecx, OFFSET __E070E73D_Block@cpp
  0000e	e8 00 00 00 00	 call	 @__CheckForDebuggerJustMyCode@4
  00013	8b 45 f0	 mov	 eax, DWORD PTR _this$[ebp]
  00016	89 45 d4	 mov	 DWORD PTR tv64[ebp], eax
  00019	8b 4d d4	 mov	 ecx, DWORD PTR tv64[ebp]
  0001c	89 4d ec	 mov	 DWORD PTR tv184[ebp], ecx
  0001f	8b 55 ec	 mov	 edx, DWORD PTR tv184[ebp]
  00022	c1 ea 03	 shr	 edx, 3
  00025	8a 82 00 00 00
	30		 mov	 al, BYTE PTR [edx+805306368]
  0002b	88 45 ff	 mov	 BYTE PTR tv187[ebp], al
  0002e	80 7d ff 00	 cmp	 BYTE PTR tv187[ebp], 0
  00032	74 1a		 je	 SHORT $LN12@Block
  00034	8a 4d ec	 mov	 cl, BYTE PTR tv184[ebp]
  00037	80 e1 07	 and	 cl, 7
  0003a	80 c1 03	 add	 cl, 3
  0003d	3a 4d ff	 cmp	 cl, BYTE PTR tv187[ebp]
  00040	7c 0c		 jl	 SHORT $LN12@Block
  00042	8b 55 ec	 mov	 edx, DWORD PTR tv184[ebp]
  00045	52		 push	 edx
  00046	e8 00 00 00 00	 call	 ___asan_report_store4
  0004b	83 c4 04	 add	 esp, 4
$LN12@Block:
  0004e	8b 45 d4	 mov	 eax, DWORD PTR tv64[ebp]
  00051	c7 00 00 00 00
	00		 mov	 DWORD PTR [eax], OFFSET ??_7Block@@6B@

; 59   : 	delete(_sprite);

  00057	8b 4d f0	 mov	 ecx, DWORD PTR _this$[ebp]
  0005a	83 c1 10	 add	 ecx, 16			; 00000010H
  0005d	89 4d d0	 mov	 DWORD PTR tv65[ebp], ecx
  00060	8b 55 d0	 mov	 edx, DWORD PTR tv65[ebp]
  00063	89 55 e8	 mov	 DWORD PTR tv174[ebp], edx
  00066	8b 45 e8	 mov	 eax, DWORD PTR tv174[ebp]
  00069	c1 e8 03	 shr	 eax, 3
  0006c	8a 88 00 00 00
	30		 mov	 cl, BYTE PTR [eax+805306368]
  00072	88 4d fe	 mov	 BYTE PTR tv177[ebp], cl
  00075	80 7d fe 00	 cmp	 BYTE PTR tv177[ebp], 0
  00079	74 1a		 je	 SHORT $LN11@Block
  0007b	8a 55 e8	 mov	 dl, BYTE PTR tv174[ebp]
  0007e	80 e2 07	 and	 dl, 7
  00081	80 c2 03	 add	 dl, 3
  00084	3a 55 fe	 cmp	 dl, BYTE PTR tv177[ebp]
  00087	7c 0c		 jl	 SHORT $LN11@Block
  00089	8b 45 e8	 mov	 eax, DWORD PTR tv174[ebp]
  0008c	50		 push	 eax
  0008d	e8 00 00 00 00	 call	 ___asan_report_load4
  00092	83 c4 04	 add	 esp, 4
$LN11@Block:
  00095	8b 4d d0	 mov	 ecx, DWORD PTR tv65[ebp]
  00098	8b 11		 mov	 edx, DWORD PTR [ecx]
  0009a	89 55 f4	 mov	 DWORD PTR $T3[ebp], edx
  0009d	83 7d f4 00	 cmp	 DWORD PTR $T3[ebp], 0
  000a1	0f 84 8d 00 00
	00		 je	 $LN3@Block
  000a7	8b 45 f4	 mov	 eax, DWORD PTR $T3[ebp]
  000aa	89 45 bc	 mov	 DWORD PTR tv93[ebp], eax
  000ad	8b 4d bc	 mov	 ecx, DWORD PTR tv93[ebp]
  000b0	89 4d e4	 mov	 DWORD PTR tv164[ebp], ecx
  000b3	8b 55 e4	 mov	 edx, DWORD PTR tv164[ebp]
  000b6	c1 ea 03	 shr	 edx, 3
  000b9	8a 82 00 00 00
	30		 mov	 al, BYTE PTR [edx+805306368]
  000bf	88 45 fd	 mov	 BYTE PTR tv167[ebp], al
  000c2	80 7d fd 00	 cmp	 BYTE PTR tv167[ebp], 0
  000c6	74 1a		 je	 SHORT $LN10@Block
  000c8	8a 4d e4	 mov	 cl, BYTE PTR tv164[ebp]
  000cb	80 e1 07	 and	 cl, 7
  000ce	80 c1 03	 add	 cl, 3
  000d1	3a 4d fd	 cmp	 cl, BYTE PTR tv167[ebp]
  000d4	7c 0c		 jl	 SHORT $LN10@Block
  000d6	8b 55 e4	 mov	 edx, DWORD PTR tv164[ebp]
  000d9	52		 push	 edx
  000da	e8 00 00 00 00	 call	 ___asan_report_load4
  000df	83 c4 04	 add	 esp, 4
$LN10@Block:
  000e2	8b 45 f4	 mov	 eax, DWORD PTR $T3[ebp]
  000e5	8b 08		 mov	 ecx, DWORD PTR [eax]
  000e7	89 4d cc	 mov	 DWORD PTR tv72[ebp], ecx
  000ea	8b 55 cc	 mov	 edx, DWORD PTR tv72[ebp]
  000ed	89 55 e0	 mov	 DWORD PTR tv154[ebp], edx
  000f0	8b 45 e0	 mov	 eax, DWORD PTR tv154[ebp]
  000f3	c1 e8 03	 shr	 eax, 3
  000f6	8a 88 00 00 00
	30		 mov	 cl, BYTE PTR [eax+805306368]
  000fc	88 4d fc	 mov	 BYTE PTR tv157[ebp], cl
  000ff	80 7d fc 00	 cmp	 BYTE PTR tv157[ebp], 0
  00103	74 1a		 je	 SHORT $LN9@Block
  00105	8a 55 e0	 mov	 dl, BYTE PTR tv154[ebp]
  00108	80 e2 07	 and	 dl, 7
  0010b	80 c2 03	 add	 dl, 3
  0010e	3a 55 fc	 cmp	 dl, BYTE PTR tv157[ebp]
  00111	7c 0c		 jl	 SHORT $LN9@Block
  00113	8b 45 e0	 mov	 eax, DWORD PTR tv154[ebp]
  00116	50		 push	 eax
  00117	e8 00 00 00 00	 call	 ___asan_report_load4
  0011c	83 c4 04	 add	 esp, 4
$LN9@Block:
  0011f	8b 4d cc	 mov	 ecx, DWORD PTR tv72[ebp]
  00122	8b 11		 mov	 edx, DWORD PTR [ecx]
  00124	89 55 b8	 mov	 DWORD PTR tv77[ebp], edx
  00127	6a 01		 push	 1
  00129	8b 4d f4	 mov	 ecx, DWORD PTR $T3[ebp]
  0012c	ff 55 b8	 call	 DWORD PTR tv77[ebp]
  0012f	89 45 b4	 mov	 DWORD PTR tv78[ebp], eax
  00132	eb 07		 jmp	 SHORT $LN4@Block
$LN3@Block:
  00134	c7 45 b4 00 00
	00 00		 mov	 DWORD PTR tv78[ebp], 0
$LN4@Block:

; 60   : 	delete(_tex);

  0013b	8b 45 f0	 mov	 eax, DWORD PTR _this$[ebp]
  0013e	83 c0 14	 add	 eax, 20			; 00000014H
  00141	89 45 c8	 mov	 DWORD PTR tv79[ebp], eax
  00144	8b 4d c8	 mov	 ecx, DWORD PTR tv79[ebp]
  00147	89 4d dc	 mov	 DWORD PTR tv144[ebp], ecx
  0014a	8b 55 dc	 mov	 edx, DWORD PTR tv144[ebp]
  0014d	c1 ea 03	 shr	 edx, 3
  00150	8a 82 00 00 00
	30		 mov	 al, BYTE PTR [edx+805306368]
  00156	88 45 fb	 mov	 BYTE PTR tv147[ebp], al
  00159	80 7d fb 00	 cmp	 BYTE PTR tv147[ebp], 0
  0015d	74 1a		 je	 SHORT $LN8@Block
  0015f	8a 4d dc	 mov	 cl, BYTE PTR tv144[ebp]
  00162	80 e1 07	 and	 cl, 7
  00165	80 c1 03	 add	 cl, 3
  00168	3a 4d fb	 cmp	 cl, BYTE PTR tv147[ebp]
  0016b	7c 0c		 jl	 SHORT $LN8@Block
  0016d	8b 55 dc	 mov	 edx, DWORD PTR tv144[ebp]
  00170	52		 push	 edx
  00171	e8 00 00 00 00	 call	 ___asan_report_load4
  00176	83 c4 04	 add	 esp, 4
$LN8@Block:
  00179	8b 45 c8	 mov	 eax, DWORD PTR tv79[ebp]
  0017c	8b 08		 mov	 ecx, DWORD PTR [eax]
  0017e	89 4d c4	 mov	 DWORD PTR $T2[ebp], ecx
  00181	83 7d c4 00	 cmp	 DWORD PTR $T2[ebp], 0
  00185	74 0f		 je	 SHORT $LN5@Block
  00187	6a 01		 push	 1
  00189	8b 4d c4	 mov	 ecx, DWORD PTR $T2[ebp]
  0018c	e8 00 00 00 00	 call	 ??_GTexture@sf@@QAEPAXI@Z
  00191	89 45 b0	 mov	 DWORD PTR tv84[ebp], eax
  00194	eb 07		 jmp	 SHORT $LN6@Block
$LN5@Block:
  00196	c7 45 b0 00 00
	00 00		 mov	 DWORD PTR tv84[ebp], 0
$LN6@Block:

; 61   : 	delete(_rect);	

  0019d	8b 55 f0	 mov	 edx, DWORD PTR _this$[ebp]
  001a0	83 c2 0c	 add	 edx, 12			; 0000000cH
  001a3	89 55 c0	 mov	 DWORD PTR tv85[ebp], edx
  001a6	8b 45 c0	 mov	 eax, DWORD PTR tv85[ebp]
  001a9	89 45 d8	 mov	 DWORD PTR tv134[ebp], eax
  001ac	8b 4d d8	 mov	 ecx, DWORD PTR tv134[ebp]
  001af	c1 e9 03	 shr	 ecx, 3
  001b2	8a 91 00 00 00
	30		 mov	 dl, BYTE PTR [ecx+805306368]
  001b8	88 55 fa	 mov	 BYTE PTR tv137[ebp], dl
  001bb	80 7d fa 00	 cmp	 BYTE PTR tv137[ebp], 0
  001bf	74 18		 je	 SHORT $LN7@Block
  001c1	8a 45 d8	 mov	 al, BYTE PTR tv134[ebp]
  001c4	24 07		 and	 al, 7
  001c6	04 03		 add	 al, 3
  001c8	3a 45 fa	 cmp	 al, BYTE PTR tv137[ebp]
  001cb	7c 0c		 jl	 SHORT $LN7@Block
  001cd	8b 4d d8	 mov	 ecx, DWORD PTR tv134[ebp]
  001d0	51		 push	 ecx
  001d1	e8 00 00 00 00	 call	 ___asan_report_load4
  001d6	83 c4 04	 add	 esp, 4
$LN7@Block:
  001d9	8b 55 c0	 mov	 edx, DWORD PTR tv85[ebp]
  001dc	8b 02		 mov	 eax, DWORD PTR [edx]
  001de	89 45 ac	 mov	 DWORD PTR $T1[ebp], eax
  001e1	6a 10		 push	 16			; 00000010H
  001e3	8b 4d ac	 mov	 ecx, DWORD PTR $T1[ebp]
  001e6	51		 push	 ecx
  001e7	e8 00 00 00 00	 call	 ??3@YAXPAXI@Z		; operator delete
  001ec	83 c4 08	 add	 esp, 8

; 62   : }

  001ef	8b e5		 mov	 esp, ebp
  001f1	5d		 pop	 ebp
  001f2	c3		 ret	 0
??1Block@@QAE@XZ ENDP					; Block::~Block
_TEXT	ENDS
; Function compile flags: /Odtp /RTCu
; File C:\Users\theob\Documents\GitHub\as-pts1\rendu2\Block.cpp
; File C:\Users\theob\Documents\GitHub\as-pts1\rendu2\Block.h
; File C:\Users\theob\Documents\GitHub\as-pts1\rendu2\Block.cpp
_TEXT	SEGMENT
_texrect$ = -184					; size = 4
tv154 = -180						; size = 4
$T2 = -176						; size = 4
$T3 = -172						; size = 4
tv149 = -168						; size = 4
tv146 = -164						; size = 4
tv142 = -160						; size = 4
tv141 = -156						; size = 4
tv140 = -152						; size = 4
tv131 = -148						; size = 4
tv139 = -144						; size = 4
$T4 = -140						; size = 4
tv72 = -136						; size = 4
tv92 = -132						; size = 4
$T5 = -128						; size = 4
tv71 = -124						; size = 4
tv70 = -120						; size = 4
tv69 = -116						; size = 4
tv68 = -112						; size = 4
tv67 = -108						; size = 4
tv66 = -104						; size = 4
tv65 = -100						; size = 4
tv64 = -96						; size = 4
tv190 = -92						; size = 4
tv200 = -88						; size = 4
tv210 = -84						; size = 4
tv220 = -80						; size = 4
tv230 = -76						; size = 4
tv240 = -72						; size = 4
tv250 = -68						; size = 4
tv260 = -64						; size = 4
tv270 = -60						; size = 4
tv280 = -56						; size = 4
tv290 = -52						; size = 4
tv300 = -48						; size = 4
tv310 = -44						; size = 4
tv320 = -40						; size = 4
tv330 = -36						; size = 4
_this$ = -32						; size = 4
tv193 = -27						; size = 1
tv203 = -26						; size = 1
tv213 = -25						; size = 1
tv223 = -24						; size = 1
tv233 = -23						; size = 1
tv243 = -22						; size = 1
tv253 = -21						; size = 1
tv263 = -20						; size = 1
tv273 = -19						; size = 1
tv283 = -18						; size = 1
tv293 = -17						; size = 1
tv303 = -16						; size = 1
tv313 = -15						; size = 1
tv323 = -14						; size = 1
tv333 = -13						; size = 1
__$EHRec$ = -12						; size = 12
_b$ = 8							; size = 4
??0Block@@QAE@PAV0@@Z PROC				; Block::Block
; _this$ = ecx

; 18   : {

  00000	55		 push	 ebp
  00001	8b ec		 mov	 ebp, esp
  00003	6a ff		 push	 -1
  00005	68 00 00 00 00	 push	 __ehhandler$??0Block@@QAE@PAV0@@Z
  0000a	64 a1 00 00 00
	00		 mov	 eax, DWORD PTR fs:0
  00010	50		 push	 eax
  00011	81 ec ac 00 00
	00		 sub	 esp, 172		; 000000acH
  00017	a1 00 00 00 00	 mov	 eax, DWORD PTR ___security_cookie
  0001c	33 c5		 xor	 eax, ebp
  0001e	50		 push	 eax
  0001f	8d 45 f4	 lea	 eax, DWORD PTR __$EHRec$[ebp]
  00022	64 a3 00 00 00
	00		 mov	 DWORD PTR fs:0, eax
  00028	89 4d e0	 mov	 DWORD PTR _this$[ebp], ecx
  0002b	b9 00 00 00 00	 mov	 ecx, OFFSET __E070E73D_Block@cpp
  00030	e8 00 00 00 00	 call	 @__CheckForDebuggerJustMyCode@4
  00035	8b 45 e0	 mov	 eax, DWORD PTR _this$[ebp]
  00038	89 45 a0	 mov	 DWORD PTR tv64[ebp], eax
  0003b	8b 4d a0	 mov	 ecx, DWORD PTR tv64[ebp]
  0003e	89 4d dc	 mov	 DWORD PTR tv330[ebp], ecx
  00041	8b 55 dc	 mov	 edx, DWORD PTR tv330[ebp]
  00044	c1 ea 03	 shr	 edx, 3
  00047	8a 82 00 00 00
	30		 mov	 al, BYTE PTR [edx+805306368]
  0004d	88 45 f3	 mov	 BYTE PTR tv333[ebp], al
  00050	80 7d f3 00	 cmp	 BYTE PTR tv333[ebp], 0
  00054	74 1a		 je	 SHORT $LN23@Block
  00056	8a 4d dc	 mov	 cl, BYTE PTR tv330[ebp]
  00059	80 e1 07	 and	 cl, 7
  0005c	80 c1 03	 add	 cl, 3
  0005f	3a 4d f3	 cmp	 cl, BYTE PTR tv333[ebp]
  00062	7c 0c		 jl	 SHORT $LN23@Block
  00064	8b 55 dc	 mov	 edx, DWORD PTR tv330[ebp]
  00067	52		 push	 edx
  00068	e8 00 00 00 00	 call	 ___asan_report_store4
  0006d	83 c4 04	 add	 esp, 4
$LN23@Block:
  00070	8b 45 a0	 mov	 eax, DWORD PTR tv64[ebp]
  00073	c7 00 00 00 00
	00		 mov	 DWORD PTR [eax], OFFSET ??_7Block@@6B@
; File C:\Users\theob\Documents\GitHub\as-pts1\rendu2\Block.h

; 7    : 	float _x = 0;

  00079	8b 4d e0	 mov	 ecx, DWORD PTR _this$[ebp]
  0007c	83 c1 04	 add	 ecx, 4
  0007f	89 4d 9c	 mov	 DWORD PTR tv65[ebp], ecx
  00082	8b 55 9c	 mov	 edx, DWORD PTR tv65[ebp]
  00085	89 55 d8	 mov	 DWORD PTR tv320[ebp], edx
  00088	8b 45 d8	 mov	 eax, DWORD PTR tv320[ebp]
  0008b	c1 e8 03	 shr	 eax, 3
  0008e	8a 88 00 00 00
	30		 mov	 cl, BYTE PTR [eax+805306368]
  00094	88 4d f2	 mov	 BYTE PTR tv323[ebp], cl
  00097	80 7d f2 00	 cmp	 BYTE PTR tv323[ebp], 0
  0009b	74 1a		 je	 SHORT $LN22@Block
  0009d	8a 55 d8	 mov	 dl, BYTE PTR tv320[ebp]
  000a0	80 e2 07	 and	 dl, 7
  000a3	80 c2 03	 add	 dl, 3
  000a6	3a 55 f2	 cmp	 dl, BYTE PTR tv323[ebp]
  000a9	7c 0c		 jl	 SHORT $LN22@Block
  000ab	8b 45 d8	 mov	 eax, DWORD PTR tv320[ebp]
  000ae	50		 push	 eax
  000af	e8 00 00 00 00	 call	 ___asan_report_store4
  000b4	83 c4 04	 add	 esp, 4
$LN22@Block:
  000b7	8b 4d 9c	 mov	 ecx, DWORD PTR tv65[ebp]
  000ba	0f 57 c0	 xorps	 xmm0, xmm0
  000bd	f3 0f 11 01	 movss	 DWORD PTR [ecx], xmm0

; 8    : 	float _y = 0;

  000c1	8b 55 e0	 mov	 edx, DWORD PTR _this$[ebp]
  000c4	83 c2 08	 add	 edx, 8
  000c7	89 55 98	 mov	 DWORD PTR tv66[ebp], edx
  000ca	8b 45 98	 mov	 eax, DWORD PTR tv66[ebp]
  000cd	89 45 d4	 mov	 DWORD PTR tv310[ebp], eax
  000d0	8b 4d d4	 mov	 ecx, DWORD PTR tv310[ebp]
  000d3	c1 e9 03	 shr	 ecx, 3
  000d6	8a 91 00 00 00
	30		 mov	 dl, BYTE PTR [ecx+805306368]
  000dc	88 55 f1	 mov	 BYTE PTR tv313[ebp], dl
  000df	80 7d f1 00	 cmp	 BYTE PTR tv313[ebp], 0
  000e3	74 18		 je	 SHORT $LN21@Block
  000e5	8a 45 d4	 mov	 al, BYTE PTR tv310[ebp]
  000e8	24 07		 and	 al, 7
  000ea	04 03		 add	 al, 3
  000ec	3a 45 f1	 cmp	 al, BYTE PTR tv313[ebp]
  000ef	7c 0c		 jl	 SHORT $LN21@Block
  000f1	8b 4d d4	 mov	 ecx, DWORD PTR tv310[ebp]
  000f4	51		 push	 ecx
  000f5	e8 00 00 00 00	 call	 ___asan_report_store4
  000fa	83 c4 04	 add	 esp, 4
$LN21@Block:
  000fd	8b 55 98	 mov	 edx, DWORD PTR tv66[ebp]
  00100	0f 57 c0	 xorps	 xmm0, xmm0
  00103	f3 0f 11 02	 movss	 DWORD PTR [edx], xmm0

; 9    : 	sf::IntRect *_rect;
; 10   : 	sf::Sprite *_sprite;
; 11   : 	sf::Texture* _tex;
; 12   : protected:
; 13   : 	Block();
; 14   : public :
; 15   : 	//NEVER USE FOR DEBUG ONLY
; 16   : 	bool colliding = false;

  00107	8b 45 e0	 mov	 eax, DWORD PTR _this$[ebp]
  0010a	83 c0 18	 add	 eax, 24			; 00000018H
  0010d	89 45 94	 mov	 DWORD PTR tv67[ebp], eax
  00110	8b 4d 94	 mov	 ecx, DWORD PTR tv67[ebp]
  00113	89 4d d0	 mov	 DWORD PTR tv300[ebp], ecx
  00116	8b 55 d0	 mov	 edx, DWORD PTR tv300[ebp]
  00119	c1 ea 03	 shr	 edx, 3
  0011c	8a 82 00 00 00
	30		 mov	 al, BYTE PTR [edx+805306368]
  00122	88 45 f0	 mov	 BYTE PTR tv303[ebp], al
  00125	80 7d f0 00	 cmp	 BYTE PTR tv303[ebp], 0
  00129	74 17		 je	 SHORT $LN20@Block
  0012b	8a 4d d0	 mov	 cl, BYTE PTR tv300[ebp]
  0012e	80 e1 07	 and	 cl, 7
  00131	3a 4d f0	 cmp	 cl, BYTE PTR tv303[ebp]
  00134	7c 0c		 jl	 SHORT $LN20@Block
  00136	8b 55 d0	 mov	 edx, DWORD PTR tv300[ebp]
  00139	52		 push	 edx
  0013a	e8 00 00 00 00	 call	 ___asan_report_store1
  0013f	83 c4 04	 add	 esp, 4
$LN20@Block:
  00142	8b 45 94	 mov	 eax, DWORD PTR tv67[ebp]
  00145	c6 00 00	 mov	 BYTE PTR [eax], 0
; File C:\Users\theob\Documents\GitHub\as-pts1\rendu2\Block.cpp

; 19   : 	_x = b->_x;

  00148	8b 4d 08	 mov	 ecx, DWORD PTR _b$[ebp]
  0014b	83 c1 04	 add	 ecx, 4
  0014e	89 4d 8c	 mov	 DWORD PTR tv69[ebp], ecx
  00151	8b 55 e0	 mov	 edx, DWORD PTR _this$[ebp]
  00154	83 c2 04	 add	 edx, 4
  00157	89 55 90	 mov	 DWORD PTR tv68[ebp], edx
  0015a	8b 45 8c	 mov	 eax, DWORD PTR tv69[ebp]
  0015d	89 45 cc	 mov	 DWORD PTR tv290[ebp], eax
  00160	8b 4d cc	 mov	 ecx, DWORD PTR tv290[ebp]
  00163	c1 e9 03	 shr	 ecx, 3
  00166	8a 91 00 00 00
	30		 mov	 dl, BYTE PTR [ecx+805306368]
  0016c	88 55 ef	 mov	 BYTE PTR tv293[ebp], dl
  0016f	80 7d ef 00	 cmp	 BYTE PTR tv293[ebp], 0
  00173	74 18		 je	 SHORT $LN19@Block
  00175	8a 45 cc	 mov	 al, BYTE PTR tv290[ebp]
  00178	24 07		 and	 al, 7
  0017a	04 03		 add	 al, 3
  0017c	3a 45 ef	 cmp	 al, BYTE PTR tv293[ebp]
  0017f	7c 0c		 jl	 SHORT $LN19@Block
  00181	8b 4d cc	 mov	 ecx, DWORD PTR tv290[ebp]
  00184	51		 push	 ecx
  00185	e8 00 00 00 00	 call	 ___asan_report_load4
  0018a	83 c4 04	 add	 esp, 4
$LN19@Block:
  0018d	8b 55 90	 mov	 edx, DWORD PTR tv68[ebp]
  00190	89 55 c8	 mov	 DWORD PTR tv280[ebp], edx
  00193	8b 45 c8	 mov	 eax, DWORD PTR tv280[ebp]
  00196	c1 e8 03	 shr	 eax, 3
  00199	8a 88 00 00 00
	30		 mov	 cl, BYTE PTR [eax+805306368]
  0019f	88 4d ee	 mov	 BYTE PTR tv283[ebp], cl
  001a2	80 7d ee 00	 cmp	 BYTE PTR tv283[ebp], 0
  001a6	74 1a		 je	 SHORT $LN18@Block
  001a8	8a 55 c8	 mov	 dl, BYTE PTR tv280[ebp]
  001ab	80 e2 07	 and	 dl, 7
  001ae	80 c2 03	 add	 dl, 3
  001b1	3a 55 ee	 cmp	 dl, BYTE PTR tv283[ebp]
  001b4	7c 0c		 jl	 SHORT $LN18@Block
  001b6	8b 45 c8	 mov	 eax, DWORD PTR tv280[ebp]
  001b9	50		 push	 eax
  001ba	e8 00 00 00 00	 call	 ___asan_report_store4
  001bf	83 c4 04	 add	 esp, 4
$LN18@Block:
  001c2	8b 4d 90	 mov	 ecx, DWORD PTR tv68[ebp]
  001c5	8b 55 8c	 mov	 edx, DWORD PTR tv69[ebp]
  001c8	8b 02		 mov	 eax, DWORD PTR [edx]
  001ca	89 01		 mov	 DWORD PTR [ecx], eax

; 20   : 	_y = b->_y;

  001cc	8b 4d 08	 mov	 ecx, DWORD PTR _b$[ebp]
  001cf	83 c1 08	 add	 ecx, 8
  001d2	89 4d 84	 mov	 DWORD PTR tv71[ebp], ecx
  001d5	8b 55 e0	 mov	 edx, DWORD PTR _this$[ebp]
  001d8	83 c2 08	 add	 edx, 8
  001db	89 55 88	 mov	 DWORD PTR tv70[ebp], edx
  001de	8b 45 84	 mov	 eax, DWORD PTR tv71[ebp]
  001e1	89 45 c4	 mov	 DWORD PTR tv270[ebp], eax
  001e4	8b 4d c4	 mov	 ecx, DWORD PTR tv270[ebp]
  001e7	c1 e9 03	 shr	 ecx, 3
  001ea	8a 91 00 00 00
	30		 mov	 dl, BYTE PTR [ecx+805306368]
  001f0	88 55 ed	 mov	 BYTE PTR tv273[ebp], dl
  001f3	80 7d ed 00	 cmp	 BYTE PTR tv273[ebp], 0
  001f7	74 18		 je	 SHORT $LN17@Block
  001f9	8a 45 c4	 mov	 al, BYTE PTR tv270[ebp]
  001fc	24 07		 and	 al, 7
  001fe	04 03		 add	 al, 3
  00200	3a 45 ed	 cmp	 al, BYTE PTR tv273[ebp]
  00203	7c 0c		 jl	 SHORT $LN17@Block
  00205	8b 4d c4	 mov	 ecx, DWORD PTR tv270[ebp]
  00208	51		 push	 ecx
  00209	e8 00 00 00 00	 call	 ___asan_report_load4
  0020e	83 c4 04	 add	 esp, 4
$LN17@Block:
  00211	8b 55 88	 mov	 edx, DWORD PTR tv70[ebp]
  00214	89 55 c0	 mov	 DWORD PTR tv260[ebp], edx
  00217	8b 45 c0	 mov	 eax, DWORD PTR tv260[ebp]
  0021a	c1 e8 03	 shr	 eax, 3
  0021d	8a 88 00 00 00
	30		 mov	 cl, BYTE PTR [eax+805306368]
  00223	88 4d ec	 mov	 BYTE PTR tv263[ebp], cl
  00226	80 7d ec 00	 cmp	 BYTE PTR tv263[ebp], 0
  0022a	74 1a		 je	 SHORT $LN16@Block
  0022c	8a 55 c0	 mov	 dl, BYTE PTR tv260[ebp]
  0022f	80 e2 07	 and	 dl, 7
  00232	80 c2 03	 add	 dl, 3
  00235	3a 55 ec	 cmp	 dl, BYTE PTR tv263[ebp]
  00238	7c 0c		 jl	 SHORT $LN16@Block
  0023a	8b 45 c0	 mov	 eax, DWORD PTR tv260[ebp]
  0023d	50		 push	 eax
  0023e	e8 00 00 00 00	 call	 ___asan_report_store4
  00243	83 c4 04	 add	 esp, 4
$LN16@Block:
  00246	8b 4d 88	 mov	 ecx, DWORD PTR tv70[ebp]
  00249	8b 55 84	 mov	 edx, DWORD PTR tv71[ebp]
  0024c	8b 02		 mov	 eax, DWORD PTR [edx]
  0024e	89 01		 mov	 DWORD PTR [ecx], eax

; 21   : 	_rect = new sf::IntRect(b->_x, b->_y, BLOCKWIDTH, BLOCKHEIGHT);

  00250	6a 10		 push	 16			; 00000010H
  00252	e8 00 00 00 00	 call	 ??2@YAPAXI@Z		; operator new
  00257	83 c4 04	 add	 esp, 4
  0025a	89 45 80	 mov	 DWORD PTR $T5[ebp], eax
  0025d	c7 45 fc 00 00
	00 00		 mov	 DWORD PTR __$EHRec$[ebp+8], 0
  00264	83 7d 80 00	 cmp	 DWORD PTR $T5[ebp], 0
  00268	74 26		 je	 SHORT $LN3@Block
  0026a	6a 28		 push	 40			; 00000028H
  0026c	6a 32		 push	 50			; 00000032H
  0026e	8b 4d 08	 mov	 ecx, DWORD PTR _b$[ebp]
  00271	f3 0f 2c 51 08	 cvttss2si edx, DWORD PTR [ecx+8]
  00276	52		 push	 edx
  00277	8b 45 08	 mov	 eax, DWORD PTR _b$[ebp]
  0027a	f3 0f 2c 48 04	 cvttss2si ecx, DWORD PTR [eax+4]
  0027f	51		 push	 ecx
  00280	8b 4d 80	 mov	 ecx, DWORD PTR $T5[ebp]
  00283	e8 00 00 00 00	 call	 ??0?$Rect@H@sf@@QAE@HHHH@Z ; sf::Rect<int>::Rect<int>
  00288	89 85 7c ff ff
	ff		 mov	 DWORD PTR tv92[ebp], eax
  0028e	eb 0a		 jmp	 SHORT $LN4@Block
$LN3@Block:
  00290	c7 85 7c ff ff
	ff 00 00 00 00	 mov	 DWORD PTR tv92[ebp], 0
$LN4@Block:
  0029a	8b 95 7c ff ff
	ff		 mov	 edx, DWORD PTR tv92[ebp]
  002a0	89 95 54 ff ff
	ff		 mov	 DWORD PTR $T3[ebp], edx
  002a6	c7 45 fc ff ff
	ff ff		 mov	 DWORD PTR __$EHRec$[ebp+8], -1
  002ad	8b 45 e0	 mov	 eax, DWORD PTR _this$[ebp]
  002b0	83 c0 0c	 add	 eax, 12			; 0000000cH
  002b3	89 85 78 ff ff
	ff		 mov	 DWORD PTR tv72[ebp], eax
  002b9	8b 8d 78 ff ff
	ff		 mov	 ecx, DWORD PTR tv72[ebp]
  002bf	89 4d bc	 mov	 DWORD PTR tv250[ebp], ecx
  002c2	8b 55 bc	 mov	 edx, DWORD PTR tv250[ebp]
  002c5	c1 ea 03	 shr	 edx, 3
  002c8	8a 82 00 00 00
	30		 mov	 al, BYTE PTR [edx+805306368]
  002ce	88 45 eb	 mov	 BYTE PTR tv253[ebp], al
  002d1	80 7d eb 00	 cmp	 BYTE PTR tv253[ebp], 0
  002d5	74 1a		 je	 SHORT $LN15@Block
  002d7	8a 4d bc	 mov	 cl, BYTE PTR tv250[ebp]
  002da	80 e1 07	 and	 cl, 7
  002dd	80 c1 03	 add	 cl, 3
  002e0	3a 4d eb	 cmp	 cl, BYTE PTR tv253[ebp]
  002e3	7c 0c		 jl	 SHORT $LN15@Block
  002e5	8b 55 bc	 mov	 edx, DWORD PTR tv250[ebp]
  002e8	52		 push	 edx
  002e9	e8 00 00 00 00	 call	 ___asan_report_store4
  002ee	83 c4 04	 add	 esp, 4
$LN15@Block:
  002f1	8b 85 78 ff ff
	ff		 mov	 eax, DWORD PTR tv72[ebp]
  002f7	8b 8d 54 ff ff
	ff		 mov	 ecx, DWORD PTR $T3[ebp]
  002fd	89 08		 mov	 DWORD PTR [eax], ecx

; 22   : 	sf::IntRect* texrect = new sf::IntRect(0, 0, BLOCKWIDTH, BLOCKHEIGHT);

  002ff	6a 10		 push	 16			; 00000010H
  00301	e8 00 00 00 00	 call	 ??2@YAPAXI@Z		; operator new
  00306	83 c4 04	 add	 esp, 4
  00309	89 85 74 ff ff
	ff		 mov	 DWORD PTR $T4[ebp], eax
  0030f	c7 45 fc 01 00
	00 00		 mov	 DWORD PTR __$EHRec$[ebp+8], 1
  00316	83 bd 74 ff ff
	ff 00		 cmp	 DWORD PTR $T4[ebp], 0
  0031d	74 1b		 je	 SHORT $LN5@Block
  0031f	6a 28		 push	 40			; 00000028H
  00321	6a 32		 push	 50			; 00000032H
  00323	6a 00		 push	 0
  00325	6a 00		 push	 0
  00327	8b 8d 74 ff ff
	ff		 mov	 ecx, DWORD PTR $T4[ebp]
  0032d	e8 00 00 00 00	 call	 ??0?$Rect@H@sf@@QAE@HHHH@Z ; sf::Rect<int>::Rect<int>
  00332	89 85 70 ff ff
	ff		 mov	 DWORD PTR tv139[ebp], eax
  00338	eb 0a		 jmp	 SHORT $LN6@Block
$LN5@Block:
  0033a	c7 85 70 ff ff
	ff 00 00 00 00	 mov	 DWORD PTR tv139[ebp], 0
$LN6@Block:
  00344	8b 95 70 ff ff
	ff		 mov	 edx, DWORD PTR tv139[ebp]
  0034a	89 95 50 ff ff
	ff		 mov	 DWORD PTR $T2[ebp], edx
  00350	c7 45 fc ff ff
	ff ff		 mov	 DWORD PTR __$EHRec$[ebp+8], -1
  00357	8b 85 50 ff ff
	ff		 mov	 eax, DWORD PTR $T2[ebp]
  0035d	89 85 48 ff ff
	ff		 mov	 DWORD PTR _texrect$[ebp], eax

; 23   : 	_tex = b->_tex;

  00363	8b 4d 08	 mov	 ecx, DWORD PTR _b$[ebp]
  00366	83 c1 14	 add	 ecx, 20			; 00000014H
  00369	89 8d 68 ff ff
	ff		 mov	 DWORD PTR tv140[ebp], ecx
  0036f	8b 55 e0	 mov	 edx, DWORD PTR _this$[ebp]
  00372	83 c2 14	 add	 edx, 20			; 00000014H
  00375	89 95 6c ff ff
	ff		 mov	 DWORD PTR tv131[ebp], edx
  0037b	8b 85 68 ff ff
	ff		 mov	 eax, DWORD PTR tv140[ebp]
  00381	89 45 b8	 mov	 DWORD PTR tv240[ebp], eax
  00384	8b 4d b8	 mov	 ecx, DWORD PTR tv240[ebp]
  00387	c1 e9 03	 shr	 ecx, 3
  0038a	8a 91 00 00 00
	30		 mov	 dl, BYTE PTR [ecx+805306368]
  00390	88 55 ea	 mov	 BYTE PTR tv243[ebp], dl
  00393	80 7d ea 00	 cmp	 BYTE PTR tv243[ebp], 0
  00397	74 18		 je	 SHORT $LN14@Block
  00399	8a 45 b8	 mov	 al, BYTE PTR tv240[ebp]
  0039c	24 07		 and	 al, 7
  0039e	04 03		 add	 al, 3
  003a0	3a 45 ea	 cmp	 al, BYTE PTR tv243[ebp]
  003a3	7c 0c		 jl	 SHORT $LN14@Block
  003a5	8b 4d b8	 mov	 ecx, DWORD PTR tv240[ebp]
  003a8	51		 push	 ecx
  003a9	e8 00 00 00 00	 call	 ___asan_report_load4
  003ae	83 c4 04	 add	 esp, 4
$LN14@Block:
  003b1	8b 95 6c ff ff
	ff		 mov	 edx, DWORD PTR tv131[ebp]
  003b7	89 55 b4	 mov	 DWORD PTR tv230[ebp], edx
  003ba	8b 45 b4	 mov	 eax, DWORD PTR tv230[ebp]
  003bd	c1 e8 03	 shr	 eax, 3
  003c0	8a 88 00 00 00
	30		 mov	 cl, BYTE PTR [eax+805306368]
  003c6	88 4d e9	 mov	 BYTE PTR tv233[ebp], cl
  003c9	80 7d e9 00	 cmp	 BYTE PTR tv233[ebp], 0
  003cd	74 1a		 je	 SHORT $LN13@Block
  003cf	8a 55 b4	 mov	 dl, BYTE PTR tv230[ebp]
  003d2	80 e2 07	 and	 dl, 7
  003d5	80 c2 03	 add	 dl, 3
  003d8	3a 55 e9	 cmp	 dl, BYTE PTR tv233[ebp]
  003db	7c 0c		 jl	 SHORT $LN13@Block
  003dd	8b 45 b4	 mov	 eax, DWORD PTR tv230[ebp]
  003e0	50		 push	 eax
  003e1	e8 00 00 00 00	 call	 ___asan_report_store4
  003e6	83 c4 04	 add	 esp, 4
$LN13@Block:
  003e9	8b 8d 6c ff ff
	ff		 mov	 ecx, DWORD PTR tv131[ebp]
  003ef	8b 95 68 ff ff
	ff		 mov	 edx, DWORD PTR tv140[ebp]
  003f5	8b 02		 mov	 eax, DWORD PTR [edx]
  003f7	89 01		 mov	 DWORD PTR [ecx], eax

; 24   : 	_sprite = b->_sprite;

  003f9	8b 4d 08	 mov	 ecx, DWORD PTR _b$[ebp]
  003fc	83 c1 10	 add	 ecx, 16			; 00000010H
  003ff	89 8d 60 ff ff
	ff		 mov	 DWORD PTR tv142[ebp], ecx
  00405	8b 55 e0	 mov	 edx, DWORD PTR _this$[ebp]
  00408	83 c2 10	 add	 edx, 16			; 00000010H
  0040b	89 95 64 ff ff
	ff		 mov	 DWORD PTR tv141[ebp], edx
  00411	8b 85 60 ff ff
	ff		 mov	 eax, DWORD PTR tv142[ebp]
  00417	89 45 b0	 mov	 DWORD PTR tv220[ebp], eax
  0041a	8b 4d b0	 mov	 ecx, DWORD PTR tv220[ebp]
  0041d	c1 e9 03	 shr	 ecx, 3
  00420	8a 91 00 00 00
	30		 mov	 dl, BYTE PTR [ecx+805306368]
  00426	88 55 e8	 mov	 BYTE PTR tv223[ebp], dl
  00429	80 7d e8 00	 cmp	 BYTE PTR tv223[ebp], 0
  0042d	74 18		 je	 SHORT $LN12@Block
  0042f	8a 45 b0	 mov	 al, BYTE PTR tv220[ebp]
  00432	24 07		 and	 al, 7
  00434	04 03		 add	 al, 3
  00436	3a 45 e8	 cmp	 al, BYTE PTR tv223[ebp]
  00439	7c 0c		 jl	 SHORT $LN12@Block
  0043b	8b 4d b0	 mov	 ecx, DWORD PTR tv220[ebp]
  0043e	51		 push	 ecx
  0043f	e8 00 00 00 00	 call	 ___asan_report_load4
  00444	83 c4 04	 add	 esp, 4
$LN12@Block:
  00447	8b 95 64 ff ff
	ff		 mov	 edx, DWORD PTR tv141[ebp]
  0044d	89 55 ac	 mov	 DWORD PTR tv210[ebp], edx
  00450	8b 45 ac	 mov	 eax, DWORD PTR tv210[ebp]
  00453	c1 e8 03	 shr	 eax, 3
  00456	8a 88 00 00 00
	30		 mov	 cl, BYTE PTR [eax+805306368]
  0045c	88 4d e7	 mov	 BYTE PTR tv213[ebp], cl
  0045f	80 7d e7 00	 cmp	 BYTE PTR tv213[ebp], 0
  00463	74 1a		 je	 SHORT $LN11@Block
  00465	8a 55 ac	 mov	 dl, BYTE PTR tv210[ebp]
  00468	80 e2 07	 and	 dl, 7
  0046b	80 c2 03	 add	 dl, 3
  0046e	3a 55 e7	 cmp	 dl, BYTE PTR tv213[ebp]
  00471	7c 0c		 jl	 SHORT $LN11@Block
  00473	8b 45 ac	 mov	 eax, DWORD PTR tv210[ebp]
  00476	50		 push	 eax
  00477	e8 00 00 00 00	 call	 ___asan_report_store4
  0047c	83 c4 04	 add	 esp, 4
$LN11@Block:
  0047f	8b 8d 64 ff ff
	ff		 mov	 ecx, DWORD PTR tv141[ebp]
  00485	8b 95 60 ff ff
	ff		 mov	 edx, DWORD PTR tv142[ebp]
  0048b	8b 02		 mov	 eax, DWORD PTR [edx]
  0048d	89 01		 mov	 DWORD PTR [ecx], eax

; 25   : 	//_sprite->setTexture(*_tex);
; 26   : 	_sprite->setPosition(b->_x, b->_y);

  0048f	8b 4d e0	 mov	 ecx, DWORD PTR _this$[ebp]
  00492	83 c1 10	 add	 ecx, 16			; 00000010H
  00495	89 8d 5c ff ff
	ff		 mov	 DWORD PTR tv146[ebp], ecx
  0049b	8b 95 5c ff ff
	ff		 mov	 edx, DWORD PTR tv146[ebp]
  004a1	89 55 a8	 mov	 DWORD PTR tv200[ebp], edx
  004a4	8b 45 a8	 mov	 eax, DWORD PTR tv200[ebp]
  004a7	c1 e8 03	 shr	 eax, 3
  004aa	8a 88 00 00 00
	30		 mov	 cl, BYTE PTR [eax+805306368]
  004b0	88 4d e6	 mov	 BYTE PTR tv203[ebp], cl
  004b3	80 7d e6 00	 cmp	 BYTE PTR tv203[ebp], 0
  004b7	74 1a		 je	 SHORT $LN10@Block
  004b9	8a 55 a8	 mov	 dl, BYTE PTR tv200[ebp]
  004bc	80 e2 07	 and	 dl, 7
  004bf	80 c2 03	 add	 dl, 3
  004c2	3a 55 e6	 cmp	 dl, BYTE PTR tv203[ebp]
  004c5	7c 0c		 jl	 SHORT $LN10@Block
  004c7	8b 45 a8	 mov	 eax, DWORD PTR tv200[ebp]
  004ca	50		 push	 eax
  004cb	e8 00 00 00 00	 call	 ___asan_report_load4
  004d0	83 c4 04	 add	 esp, 4
$LN10@Block:
  004d3	8b 8d 5c ff ff
	ff		 mov	 ecx, DWORD PTR tv146[ebp]
  004d9	8b 11		 mov	 edx, DWORD PTR [ecx]
  004db	83 c2 04	 add	 edx, 4
  004de	89 95 4c ff ff
	ff		 mov	 DWORD PTR tv154[ebp], edx
  004e4	8b 45 08	 mov	 eax, DWORD PTR _b$[ebp]
  004e7	83 c0 08	 add	 eax, 8
  004ea	89 85 58 ff ff
	ff		 mov	 DWORD PTR tv149[ebp], eax
  004f0	8b 8d 58 ff ff
	ff		 mov	 ecx, DWORD PTR tv149[ebp]
  004f6	89 4d a4	 mov	 DWORD PTR tv190[ebp], ecx
  004f9	8b 55 a4	 mov	 edx, DWORD PTR tv190[ebp]
  004fc	c1 ea 03	 shr	 edx, 3
  004ff	8a 82 00 00 00
	30		 mov	 al, BYTE PTR [edx+805306368]
  00505	88 45 e5	 mov	 BYTE PTR tv193[ebp], al
  00508	80 7d e5 00	 cmp	 BYTE PTR tv193[ebp], 0
  0050c	74 1a		 je	 SHORT $LN9@Block
  0050e	8a 4d a4	 mov	 cl, BYTE PTR tv190[ebp]
  00511	80 e1 07	 and	 cl, 7
  00514	80 c1 03	 add	 cl, 3
  00517	3a 4d e5	 cmp	 cl, BYTE PTR tv193[ebp]
  0051a	7c 0c		 jl	 SHORT $LN9@Block
  0051c	8b 55 a4	 mov	 edx, DWORD PTR tv190[ebp]
  0051f	52		 push	 edx
  00520	e8 00 00 00 00	 call	 ___asan_report_load4
  00525	83 c4 04	 add	 esp, 4
$LN9@Block:
  00528	8b 85 58 ff ff
	ff		 mov	 eax, DWORD PTR tv149[ebp]
  0052e	51		 push	 ecx
  0052f	f3 0f 10 00	 movss	 xmm0, DWORD PTR [eax]
  00533	f3 0f 11 04 24	 movss	 DWORD PTR [esp], xmm0
  00538	8b 4d 08	 mov	 ecx, DWORD PTR _b$[ebp]
  0053b	51		 push	 ecx
  0053c	f3 0f 10 41 04	 movss	 xmm0, DWORD PTR [ecx+4]
  00541	f3 0f 11 04 24	 movss	 DWORD PTR [esp], xmm0
  00546	8b 8d 4c ff ff
	ff		 mov	 ecx, DWORD PTR tv154[ebp]
  0054c	ff 15 00 00 00
	00		 call	 DWORD PTR __imp_?setPosition@Transformable@sf@@QAEXMM@Z

; 27   : }

  00552	8b 45 e0	 mov	 eax, DWORD PTR _this$[ebp]
  00555	8b 4d f4	 mov	 ecx, DWORD PTR __$EHRec$[ebp]
  00558	64 89 0d 00 00
	00 00		 mov	 DWORD PTR fs:0, ecx
  0055f	59		 pop	 ecx
  00560	8b e5		 mov	 esp, ebp
  00562	5d		 pop	 ebp
  00563	c2 04 00	 ret	 4
_TEXT	ENDS
text$x	SEGMENT
__unwindfunclet$??0Block@@QAE@PAV0@@Z$0:
  00000	6a 10		 push	 16			; 00000010H
  00002	8b 45 80	 mov	 eax, DWORD PTR $T5[ebp]
  00005	50		 push	 eax
  00006	e8 00 00 00 00	 call	 ??3@YAXPAXI@Z		; operator delete
  0000b	83 c4 08	 add	 esp, 8
  0000e	c3		 ret	 0
__unwindfunclet$??0Block@@QAE@PAV0@@Z$1:
  0000f	6a 10		 push	 16			; 00000010H
  00011	8b 85 74 ff ff
	ff		 mov	 eax, DWORD PTR $T4[ebp]
  00017	50		 push	 eax
  00018	e8 00 00 00 00	 call	 ??3@YAXPAXI@Z		; operator delete
  0001d	83 c4 08	 add	 esp, 8
  00020	c3		 ret	 0
  00021	cc		 int	 3
  00022	cc		 int	 3
  00023	cc		 int	 3
  00024	cc		 int	 3
  00025	cc		 int	 3
__ehhandler$??0Block@@QAE@PAV0@@Z:
  00026	90		 npad	 1
  00027	90		 npad	 1
  00028	8b 54 24 08	 mov	 edx, DWORD PTR [esp+8]
  0002c	8d 42 0c	 lea	 eax, DWORD PTR [edx+12]
  0002f	8b 8a 50 ff ff
	ff		 mov	 ecx, DWORD PTR [edx-176]
  00035	33 c8		 xor	 ecx, eax
  00037	e8 00 00 00 00	 call	 @__security_check_cookie@4
  0003c	b8 00 00 00 00	 mov	 eax, OFFSET __ehfuncinfo$??0Block@@QAE@PAV0@@Z
  00041	e9 00 00 00 00	 jmp	 ___CxxFrameHandler3
text$x	ENDS
??0Block@@QAE@PAV0@@Z ENDP				; Block::Block
; Function compile flags: /Odtp /RTCu
; File C:\Users\theob\Documents\GitHub\as-pts1\rendu2\Block.cpp
; File C:\Users\theob\Documents\GitHub\as-pts1\rendu2\Block.h
; File C:\Users\theob\Documents\GitHub\as-pts1\rendu2\Block.cpp
_TEXT	SEGMENT
__asan_gen_0$ = -320					; size = 4
__asan_gen_1$ = -316					; size = 4
__asan_gen_2$ = -312					; size = 4
$T3 = -304						; size = 16
tv380 = -254						; size = 1
tv370 = -253						; size = 1
tv360 = -252						; size = 1
tv350 = -251						; size = 1
tv340 = -250						; size = 1
tv330 = -249						; size = 1
tv320 = -248						; size = 1
tv310 = -247						; size = 1
tv300 = -246						; size = 1
tv290 = -245						; size = 1
tv280 = -244						; size = 1
tv270 = -243						; size = 1
tv260 = -242						; size = 1
tv250 = -241						; size = 1
_this$ = -240						; size = 4
$T4 = -236						; size = 4
tv228 = -232						; size = 4
tv377 = -228						; size = 4
tv367 = -224						; size = 4
tv357 = -220						; size = 4
tv347 = -216						; size = 4
tv337 = -212						; size = 4
tv327 = -208						; size = 4
tv317 = -204						; size = 4
tv307 = -200						; size = 4
tv297 = -196						; size = 4
tv287 = -192						; size = 4
tv277 = -188						; size = 4
tv267 = -184						; size = 4
tv257 = -180						; size = 4
tv247 = -176						; size = 4
tv64 = -172						; size = 4
tv65 = -168						; size = 4
tv66 = -164						; size = 4
tv67 = -160						; size = 4
tv68 = -156						; size = 4
tv69 = -152						; size = 4
$T5 = -148						; size = 4
tv88 = -144						; size = 4
tv70 = -140						; size = 4
$T6 = -136						; size = 4
tv135 = -132						; size = 4
$T7 = -128						; size = 4
tv147 = -124						; size = 4
tv95 = -120						; size = 4
tv143 = -116						; size = 4
tv149 = -112						; size = 4
tv177 = -108						; size = 4
tv178 = -104						; size = 4
tv173 = -100						; size = 4
tv162 = -96						; size = 4
tv181 = -92						; size = 4
tv226 = -88						; size = 4
$T8 = -84						; size = 4
$T9 = -80						; size = 4
tv231 = -76						; size = 4
$T10 = -72						; size = 4
tv155 = -68						; size = 4
tv157 = -64						; size = 4
tv237 = -60						; size = 4
tv161 = -56						; size = 4
_texrect$ = -52						; size = 4
$T11 = -48						; size = 4
tv187 = -44						; size = 4
tv243 = -40						; size = 4
tv197 = -36						; size = 4
__$EHRec$ = -12						; size = 12
_x$ = 8							; size = 4
_y$ = 12						; size = 4
_img$ = 16						; size = 4
??0Block@@QAE@MMPAVImage@sf@@@Z PROC			; Block::Block
; _this$ = ecx

; 4    : {

  00000	53		 push	 ebx
  00001	8b dc		 mov	 ebx, esp
  00003	83 ec 08	 sub	 esp, 8
  00006	83 e4 e0	 and	 esp, -32		; ffffffe0H
  00009	83 c4 04	 add	 esp, 4
  0000c	55		 push	 ebp
  0000d	8b 6b 04	 mov	 ebp, DWORD PTR [ebx+4]
  00010	89 6c 24 04	 mov	 DWORD PTR [esp+4], ebp
  00014	8b ec		 mov	 ebp, esp
  00016	6a ff		 push	 -1
  00018	68 00 00 00 00	 push	 __ehhandler$??0Block@@QAE@MMPAVImage@sf@@@Z
  0001d	64 a1 00 00 00
	00		 mov	 eax, DWORD PTR fs:0
  00023	50		 push	 eax
  00024	53		 push	 ebx
  00025	81 c4 d0 fe ff
	ff		 add	 esp, -304		; fffffed0H
  0002b	a1 00 00 00 00	 mov	 eax, DWORD PTR ___security_cookie
  00030	33 c5		 xor	 eax, ebp
  00032	50		 push	 eax
  00033	8d 45 f4	 lea	 eax, DWORD PTR __$EHRec$[ebp]
  00036	64 a3 00 00 00
	00		 mov	 DWORD PTR fs:0, eax
  0003c	89 8d 10 ff ff
	ff		 mov	 DWORD PTR _this$[ebp], ecx
  00042	c7 85 c0 fe ff
	ff b3 8a b5 41	 mov	 DWORD PTR __asan_gen_0$[ebp], 1102416563 ; 41b58ab3H
  0004c	c7 85 c4 fe ff
	ff 00 00 00 00	 mov	 DWORD PTR __asan_gen_1$[ebp], OFFSET __L__asan_gen_.??0Block@@QAE@MMPAVImage@sf@@@Z
  00056	c7 85 c8 fe ff
	ff 00 00 00 00	 mov	 DWORD PTR __asan_gen_2$[ebp], OFFSET ??0Block@@QAE@MMPAVImage@sf@@@Z ; Block::Block
  00060	8d 85 c0 fe ff
	ff		 lea	 eax, DWORD PTR __asan_gen_0$[ebp]
  00066	89 45 a8	 mov	 DWORD PTR tv226[ebp], eax
  00069	8b 4d a8	 mov	 ecx, DWORD PTR tv226[ebp]
  0006c	c1 e9 03	 shr	 ecx, 3
  0006f	81 c1 00 00 00
	30		 add	 ecx, 805306368		; 30000000H
  00075	89 8d 18 ff ff
	ff		 mov	 DWORD PTR tv228[ebp], ecx
  0007b	8b 95 18 ff ff
	ff		 mov	 edx, DWORD PTR tv228[ebp]
  00081	c7 02 f1 f1 f8
	f8		 mov	 DWORD PTR [edx], -117902863 ; f8f8f1f1H
  00087	83 85 18 ff ff
	ff 04		 add	 DWORD PTR tv228[ebp], 4
  0008e	8b 85 18 ff ff
	ff		 mov	 eax, DWORD PTR tv228[ebp]
  00094	c7 00 f3 f3 f3
	f3		 mov	 DWORD PTR [eax], -202116109 ; f3f3f3f3H
  0009a	b9 00 00 00 00	 mov	 ecx, OFFSET __E070E73D_Block@cpp
  0009f	e8 00 00 00 00	 call	 @__CheckForDebuggerJustMyCode@4
  000a4	8b 8d 10 ff ff
	ff		 mov	 ecx, DWORD PTR _this$[ebp]
  000aa	89 8d 54 ff ff
	ff		 mov	 DWORD PTR tv64[ebp], ecx
  000b0	8b 95 54 ff ff
	ff		 mov	 edx, DWORD PTR tv64[ebp]
  000b6	89 95 1c ff ff
	ff		 mov	 DWORD PTR tv377[ebp], edx
  000bc	8b 85 1c ff ff
	ff		 mov	 eax, DWORD PTR tv377[ebp]
  000c2	c1 e8 03	 shr	 eax, 3
  000c5	8a 88 00 00 00
	30		 mov	 cl, BYTE PTR [eax+805306368]
  000cb	88 8d 02 ff ff
	ff		 mov	 BYTE PTR tv380[ebp], cl
  000d1	80 bd 02 ff ff
	ff 00		 cmp	 BYTE PTR tv380[ebp], 0
  000d8	74 23		 je	 SHORT $LN28@Block
  000da	8a 95 1c ff ff
	ff		 mov	 dl, BYTE PTR tv377[ebp]
  000e0	80 e2 07	 and	 dl, 7
  000e3	80 c2 03	 add	 dl, 3
  000e6	3a 95 02 ff ff
	ff		 cmp	 dl, BYTE PTR tv380[ebp]
  000ec	7c 0f		 jl	 SHORT $LN28@Block
  000ee	8b 85 1c ff ff
	ff		 mov	 eax, DWORD PTR tv377[ebp]
  000f4	50		 push	 eax
  000f5	e8 00 00 00 00	 call	 ___asan_report_store4
  000fa	83 c4 04	 add	 esp, 4
$LN28@Block:
  000fd	8b 8d 54 ff ff
	ff		 mov	 ecx, DWORD PTR tv64[ebp]
  00103	c7 01 00 00 00
	00		 mov	 DWORD PTR [ecx], OFFSET ??_7Block@@6B@
; File C:\Users\theob\Documents\GitHub\as-pts1\rendu2\Block.h

; 7    : 	float _x = 0;

  00109	8b 95 10 ff ff
	ff		 mov	 edx, DWORD PTR _this$[ebp]
  0010f	83 c2 04	 add	 edx, 4
  00112	89 95 58 ff ff
	ff		 mov	 DWORD PTR tv65[ebp], edx
  00118	8b 85 58 ff ff
	ff		 mov	 eax, DWORD PTR tv65[ebp]
  0011e	89 85 20 ff ff
	ff		 mov	 DWORD PTR tv367[ebp], eax
  00124	8b 8d 20 ff ff
	ff		 mov	 ecx, DWORD PTR tv367[ebp]
  0012a	c1 e9 03	 shr	 ecx, 3
  0012d	8a 91 00 00 00
	30		 mov	 dl, BYTE PTR [ecx+805306368]
  00133	88 95 03 ff ff
	ff		 mov	 BYTE PTR tv370[ebp], dl
  00139	80 bd 03 ff ff
	ff 00		 cmp	 BYTE PTR tv370[ebp], 0
  00140	74 21		 je	 SHORT $LN27@Block
  00142	8a 85 20 ff ff
	ff		 mov	 al, BYTE PTR tv367[ebp]
  00148	24 07		 and	 al, 7
  0014a	04 03		 add	 al, 3
  0014c	3a 85 03 ff ff
	ff		 cmp	 al, BYTE PTR tv370[ebp]
  00152	7c 0f		 jl	 SHORT $LN27@Block
  00154	8b 8d 20 ff ff
	ff		 mov	 ecx, DWORD PTR tv367[ebp]
  0015a	51		 push	 ecx
  0015b	e8 00 00 00 00	 call	 ___asan_report_store4
  00160	83 c4 04	 add	 esp, 4
$LN27@Block:
  00163	8b 95 58 ff ff
	ff		 mov	 edx, DWORD PTR tv65[ebp]
  00169	0f 57 c0	 xorps	 xmm0, xmm0
  0016c	f3 0f 11 02	 movss	 DWORD PTR [edx], xmm0

; 8    : 	float _y = 0;

  00170	8b 85 10 ff ff
	ff		 mov	 eax, DWORD PTR _this$[ebp]
  00176	83 c0 08	 add	 eax, 8
  00179	89 85 5c ff ff
	ff		 mov	 DWORD PTR tv66[ebp], eax
  0017f	8b 8d 5c ff ff
	ff		 mov	 ecx, DWORD PTR tv66[ebp]
  00185	89 8d 24 ff ff
	ff		 mov	 DWORD PTR tv357[ebp], ecx
  0018b	8b 95 24 ff ff
	ff		 mov	 edx, DWORD PTR tv357[ebp]
  00191	c1 ea 03	 shr	 edx, 3
  00194	8a 82 00 00 00
	30		 mov	 al, BYTE PTR [edx+805306368]
  0019a	88 85 04 ff ff
	ff		 mov	 BYTE PTR tv360[ebp], al
  001a0	80 bd 04 ff ff
	ff 00		 cmp	 BYTE PTR tv360[ebp], 0
  001a7	74 23		 je	 SHORT $LN26@Block
  001a9	8a 8d 24 ff ff
	ff		 mov	 cl, BYTE PTR tv357[ebp]
  001af	80 e1 07	 and	 cl, 7
  001b2	80 c1 03	 add	 cl, 3
  001b5	3a 8d 04 ff ff
	ff		 cmp	 cl, BYTE PTR tv360[ebp]
  001bb	7c 0f		 jl	 SHORT $LN26@Block
  001bd	8b 95 24 ff ff
	ff		 mov	 edx, DWORD PTR tv357[ebp]
  001c3	52		 push	 edx
  001c4	e8 00 00 00 00	 call	 ___asan_report_store4
  001c9	83 c4 04	 add	 esp, 4
$LN26@Block:
  001cc	8b 85 5c ff ff
	ff		 mov	 eax, DWORD PTR tv66[ebp]
  001d2	0f 57 c0	 xorps	 xmm0, xmm0
  001d5	f3 0f 11 00	 movss	 DWORD PTR [eax], xmm0

; 9    : 	sf::IntRect *_rect;
; 10   : 	sf::Sprite *_sprite;
; 11   : 	sf::Texture* _tex;
; 12   : protected:
; 13   : 	Block();
; 14   : public :
; 15   : 	//NEVER USE FOR DEBUG ONLY
; 16   : 	bool colliding = false;

  001d9	8b 8d 10 ff ff
	ff		 mov	 ecx, DWORD PTR _this$[ebp]
  001df	83 c1 18	 add	 ecx, 24			; 00000018H
  001e2	89 8d 60 ff ff
	ff		 mov	 DWORD PTR tv67[ebp], ecx
  001e8	8b 95 60 ff ff
	ff		 mov	 edx, DWORD PTR tv67[ebp]
  001ee	89 95 28 ff ff
	ff		 mov	 DWORD PTR tv347[ebp], edx
  001f4	8b 85 28 ff ff
	ff		 mov	 eax, DWORD PTR tv347[ebp]
  001fa	c1 e8 03	 shr	 eax, 3
  001fd	8a 88 00 00 00
	30		 mov	 cl, BYTE PTR [eax+805306368]
  00203	88 8d 05 ff ff
	ff		 mov	 BYTE PTR tv350[ebp], cl
  00209	80 bd 05 ff ff
	ff 00		 cmp	 BYTE PTR tv350[ebp], 0
  00210	74 20		 je	 SHORT $LN25@Block
  00212	8a 95 28 ff ff
	ff		 mov	 dl, BYTE PTR tv347[ebp]
  00218	80 e2 07	 and	 dl, 7
  0021b	3a 95 05 ff ff
	ff		 cmp	 dl, BYTE PTR tv350[ebp]
  00221	7c 0f		 jl	 SHORT $LN25@Block
  00223	8b 85 28 ff ff
	ff		 mov	 eax, DWORD PTR tv347[ebp]
  00229	50		 push	 eax
  0022a	e8 00 00 00 00	 call	 ___asan_report_store1
  0022f	83 c4 04	 add	 esp, 4
$LN25@Block:
  00232	8b 8d 60 ff ff
	ff		 mov	 ecx, DWORD PTR tv67[ebp]
  00238	c6 01 00	 mov	 BYTE PTR [ecx], 0
; File C:\Users\theob\Documents\GitHub\as-pts1\rendu2\Block.cpp

; 5    : 	_x = x;

  0023b	8b 95 10 ff ff
	ff		 mov	 edx, DWORD PTR _this$[ebp]
  00241	83 c2 04	 add	 edx, 4
  00244	89 95 64 ff ff
	ff		 mov	 DWORD PTR tv68[ebp], edx
  0024a	8b 85 64 ff ff
	ff		 mov	 eax, DWORD PTR tv68[ebp]
  00250	89 85 2c ff ff
	ff		 mov	 DWORD PTR tv337[ebp], eax
  00256	8b 8d 2c ff ff
	ff		 mov	 ecx, DWORD PTR tv337[ebp]
  0025c	c1 e9 03	 shr	 ecx, 3
  0025f	8a 91 00 00 00
	30		 mov	 dl, BYTE PTR [ecx+805306368]
  00265	88 95 06 ff ff
	ff		 mov	 BYTE PTR tv340[ebp], dl
  0026b	80 bd 06 ff ff
	ff 00		 cmp	 BYTE PTR tv340[ebp], 0
  00272	74 21		 je	 SHORT $LN24@Block
  00274	8a 85 2c ff ff
	ff		 mov	 al, BYTE PTR tv337[ebp]
  0027a	24 07		 and	 al, 7
  0027c	04 03		 add	 al, 3
  0027e	3a 85 06 ff ff
	ff		 cmp	 al, BYTE PTR tv340[ebp]
  00284	7c 0f		 jl	 SHORT $LN24@Block
  00286	8b 8d 2c ff ff
	ff		 mov	 ecx, DWORD PTR tv337[ebp]
  0028c	51		 push	 ecx
  0028d	e8 00 00 00 00	 call	 ___asan_report_store4
  00292	83 c4 04	 add	 esp, 4
$LN24@Block:
  00295	8b 95 64 ff ff
	ff		 mov	 edx, DWORD PTR tv68[ebp]
  0029b	f3 0f 10 43 08	 movss	 xmm0, DWORD PTR _x$[ebx]
  002a0	f3 0f 11 02	 movss	 DWORD PTR [edx], xmm0

; 6    : 	_y = y;

  002a4	8b 85 10 ff ff
	ff		 mov	 eax, DWORD PTR _this$[ebp]
  002aa	83 c0 08	 add	 eax, 8
  002ad	89 85 68 ff ff
	ff		 mov	 DWORD PTR tv69[ebp], eax
  002b3	8b 8d 68 ff ff
	ff		 mov	 ecx, DWORD PTR tv69[ebp]
  002b9	89 8d 30 ff ff
	ff		 mov	 DWORD PTR tv327[ebp], ecx
  002bf	8b 95 30 ff ff
	ff		 mov	 edx, DWORD PTR tv327[ebp]
  002c5	c1 ea 03	 shr	 edx, 3
  002c8	8a 82 00 00 00
	30		 mov	 al, BYTE PTR [edx+805306368]
  002ce	88 85 07 ff ff
	ff		 mov	 BYTE PTR tv330[ebp], al
  002d4	80 bd 07 ff ff
	ff 00		 cmp	 BYTE PTR tv330[ebp], 0
  002db	74 23		 je	 SHORT $LN23@Block
  002dd	8a 8d 30 ff ff
	ff		 mov	 cl, BYTE PTR tv327[ebp]
  002e3	80 e1 07	 and	 cl, 7
  002e6	80 c1 03	 add	 cl, 3
  002e9	3a 8d 07 ff ff
	ff		 cmp	 cl, BYTE PTR tv330[ebp]
  002ef	7c 0f		 jl	 SHORT $LN23@Block
  002f1	8b 95 30 ff ff
	ff		 mov	 edx, DWORD PTR tv327[ebp]
  002f7	52		 push	 edx
  002f8	e8 00 00 00 00	 call	 ___asan_report_store4
  002fd	83 c4 04	 add	 esp, 4
$LN23@Block:
  00300	8b 85 68 ff ff
	ff		 mov	 eax, DWORD PTR tv69[ebp]
  00306	f3 0f 10 43 0c	 movss	 xmm0, DWORD PTR _y$[ebx]
  0030b	f3 0f 11 00	 movss	 DWORD PTR [eax], xmm0

; 7    : 	_rect = new sf::IntRect(x, y, BLOCKWIDTH, BLOCKHEIGHT);

  0030f	6a 10		 push	 16			; 00000010H
  00311	e8 00 00 00 00	 call	 ??2@YAPAXI@Z		; operator new
  00316	83 c4 04	 add	 esp, 4
  00319	89 85 6c ff ff
	ff		 mov	 DWORD PTR $T5[ebp], eax
  0031f	c7 45 fc 00 00
	00 00		 mov	 DWORD PTR __$EHRec$[ebp+8], 0
  00326	83 bd 6c ff ff
	ff 00		 cmp	 DWORD PTR $T5[ebp], 0
  0032d	74 23		 je	 SHORT $LN3@Block
  0032f	6a 28		 push	 40			; 00000028H
  00331	6a 32		 push	 50			; 00000032H
  00333	f3 0f 2c 4b 0c	 cvttss2si ecx, DWORD PTR _y$[ebx]
  00338	51		 push	 ecx
  00339	f3 0f 2c 53 08	 cvttss2si edx, DWORD PTR _x$[ebx]
  0033e	52		 push	 edx
  0033f	8b 8d 6c ff ff
	ff		 mov	 ecx, DWORD PTR $T5[ebp]
  00345	e8 00 00 00 00	 call	 ??0?$Rect@H@sf@@QAE@HHHH@Z ; sf::Rect<int>::Rect<int>
  0034a	89 85 70 ff ff
	ff		 mov	 DWORD PTR tv88[ebp], eax
  00350	eb 0a		 jmp	 SHORT $LN4@Block
$LN3@Block:
  00352	c7 85 70 ff ff
	ff 00 00 00 00	 mov	 DWORD PTR tv88[ebp], 0
$LN4@Block:
  0035c	8b 85 70 ff ff
	ff		 mov	 eax, DWORD PTR tv88[ebp]
  00362	89 45 ac	 mov	 DWORD PTR $T8[ebp], eax
  00365	c7 45 fc ff ff
	ff ff		 mov	 DWORD PTR __$EHRec$[ebp+8], -1
  0036c	8b 8d 10 ff ff
	ff		 mov	 ecx, DWORD PTR _this$[ebp]
  00372	83 c1 0c	 add	 ecx, 12			; 0000000cH
  00375	89 8d 74 ff ff
	ff		 mov	 DWORD PTR tv70[ebp], ecx
  0037b	8b 95 74 ff ff
	ff		 mov	 edx, DWORD PTR tv70[ebp]
  00381	89 95 34 ff ff
	ff		 mov	 DWORD PTR tv317[ebp], edx
  00387	8b 85 34 ff ff
	ff		 mov	 eax, DWORD PTR tv317[ebp]
  0038d	c1 e8 03	 shr	 eax, 3
  00390	8a 88 00 00 00
	30		 mov	 cl, BYTE PTR [eax+805306368]
  00396	88 8d 08 ff ff
	ff		 mov	 BYTE PTR tv320[ebp], cl
  0039c	80 bd 08 ff ff
	ff 00		 cmp	 BYTE PTR tv320[ebp], 0
  003a3	74 23		 je	 SHORT $LN22@Block
  003a5	8a 95 34 ff ff
	ff		 mov	 dl, BYTE PTR tv317[ebp]
  003ab	80 e2 07	 and	 dl, 7
  003ae	80 c2 03	 add	 dl, 3
  003b1	3a 95 08 ff ff
	ff		 cmp	 dl, BYTE PTR tv320[ebp]
  003b7	7c 0f		 jl	 SHORT $LN22@Block
  003b9	8b 85 34 ff ff
	ff		 mov	 eax, DWORD PTR tv317[ebp]
  003bf	50		 push	 eax
  003c0	e8 00 00 00 00	 call	 ___asan_report_store4
  003c5	83 c4 04	 add	 esp, 4
$LN22@Block:
  003c8	8b 8d 74 ff ff
	ff		 mov	 ecx, DWORD PTR tv70[ebp]
  003ce	8b 55 ac	 mov	 edx, DWORD PTR $T8[ebp]
  003d1	89 11		 mov	 DWORD PTR [ecx], edx

; 8    : 	sf::IntRect *texrect = new sf::IntRect(0, 0, BLOCKWIDTH, BLOCKHEIGHT);

  003d3	6a 10		 push	 16			; 00000010H
  003d5	e8 00 00 00 00	 call	 ??2@YAPAXI@Z		; operator new
  003da	83 c4 04	 add	 esp, 4
  003dd	89 85 78 ff ff
	ff		 mov	 DWORD PTR $T6[ebp], eax
  003e3	c7 45 fc 01 00
	00 00		 mov	 DWORD PTR __$EHRec$[ebp+8], 1
  003ea	83 bd 78 ff ff
	ff 00		 cmp	 DWORD PTR $T6[ebp], 0
  003f1	74 1b		 je	 SHORT $LN5@Block
  003f3	6a 28		 push	 40			; 00000028H
  003f5	6a 32		 push	 50			; 00000032H
  003f7	6a 00		 push	 0
  003f9	6a 00		 push	 0
  003fb	8b 8d 78 ff ff
	ff		 mov	 ecx, DWORD PTR $T6[ebp]
  00401	e8 00 00 00 00	 call	 ??0?$Rect@H@sf@@QAE@HHHH@Z ; sf::Rect<int>::Rect<int>
  00406	89 85 7c ff ff
	ff		 mov	 DWORD PTR tv135[ebp], eax
  0040c	eb 0a		 jmp	 SHORT $LN6@Block
$LN5@Block:
  0040e	c7 85 7c ff ff
	ff 00 00 00 00	 mov	 DWORD PTR tv135[ebp], 0
$LN6@Block:
  00418	8b 85 7c ff ff
	ff		 mov	 eax, DWORD PTR tv135[ebp]
  0041e	89 45 b0	 mov	 DWORD PTR $T9[ebp], eax
  00421	c7 45 fc ff ff
	ff ff		 mov	 DWORD PTR __$EHRec$[ebp+8], -1
  00428	8b 4d b0	 mov	 ecx, DWORD PTR $T9[ebp]
  0042b	89 4d cc	 mov	 DWORD PTR _texrect$[ebp], ecx

; 9    : 	_tex = new sf::Texture();

  0042e	6a 28		 push	 40			; 00000028H
  00430	e8 00 00 00 00	 call	 ??2@YAPAXI@Z		; operator new
  00435	83 c4 04	 add	 esp, 4
  00438	89 45 80	 mov	 DWORD PTR $T7[ebp], eax
  0043b	c7 45 fc 02 00
	00 00		 mov	 DWORD PTR __$EHRec$[ebp+8], 2
  00442	83 7d 80 00	 cmp	 DWORD PTR $T7[ebp], 0
  00446	74 0e		 je	 SHORT $LN7@Block
  00448	8b 4d 80	 mov	 ecx, DWORD PTR $T7[ebp]
  0044b	ff 15 00 00 00
	00		 call	 DWORD PTR __imp_??0Texture@sf@@QAE@XZ
  00451	89 45 84	 mov	 DWORD PTR tv147[ebp], eax
  00454	eb 07		 jmp	 SHORT $LN8@Block
$LN7@Block:
  00456	c7 45 84 00 00
	00 00		 mov	 DWORD PTR tv147[ebp], 0
$LN8@Block:
  0045d	8d 95 d0 fe ff
	ff		 lea	 edx, DWORD PTR $T3[ebp]
  00463	c1 ea 03	 shr	 edx, 3
  00466	81 c2 00 00 00
	30		 add	 edx, 805306368		; 30000000H
  0046c	89 55 b4	 mov	 DWORD PTR tv231[ebp], edx
  0046f	6a 02		 push	 2
  00471	8b 45 b4	 mov	 eax, DWORD PTR tv231[ebp]
  00474	50		 push	 eax
  00475	e8 00 00 00 00	 call	 ___asan_set_shadow_00
  0047a	83 c4 08	 add	 esp, 8
  0047d	8b 4d 84	 mov	 ecx, DWORD PTR tv147[ebp]
  00480	89 4d b8	 mov	 DWORD PTR $T10[ebp], ecx
  00483	c7 45 fc ff ff
	ff ff		 mov	 DWORD PTR __$EHRec$[ebp+8], -1
  0048a	8b 95 10 ff ff
	ff		 mov	 edx, DWORD PTR _this$[ebp]
  00490	83 c2 14	 add	 edx, 20			; 00000014H
  00493	89 55 88	 mov	 DWORD PTR tv95[ebp], edx
  00496	8b 45 88	 mov	 eax, DWORD PTR tv95[ebp]
  00499	89 85 38 ff ff
	ff		 mov	 DWORD PTR tv307[ebp], eax
  0049f	8b 8d 38 ff ff
	ff		 mov	 ecx, DWORD PTR tv307[ebp]
  004a5	c1 e9 03	 shr	 ecx, 3
  004a8	8a 91 00 00 00
	30		 mov	 dl, BYTE PTR [ecx+805306368]
  004ae	88 95 09 ff ff
	ff		 mov	 BYTE PTR tv310[ebp], dl
  004b4	80 bd 09 ff ff
	ff 00		 cmp	 BYTE PTR tv310[ebp], 0
  004bb	74 21		 je	 SHORT $LN21@Block
  004bd	8a 85 38 ff ff
	ff		 mov	 al, BYTE PTR tv307[ebp]
  004c3	24 07		 and	 al, 7
  004c5	04 03		 add	 al, 3
  004c7	3a 85 09 ff ff
	ff		 cmp	 al, BYTE PTR tv310[ebp]
  004cd	7c 0f		 jl	 SHORT $LN21@Block
  004cf	8b 8d 38 ff ff
	ff		 mov	 ecx, DWORD PTR tv307[ebp]
  004d5	51		 push	 ecx
  004d6	e8 00 00 00 00	 call	 ___asan_report_store4
  004db	83 c4 04	 add	 esp, 4
$LN21@Block:
  004de	8b 55 88	 mov	 edx, DWORD PTR tv95[ebp]
  004e1	8b 45 b8	 mov	 eax, DWORD PTR $T10[ebp]
  004e4	89 02		 mov	 DWORD PTR [edx], eax

; 10   : 	_tex->loadFromImage(*img);

  004e6	8b 8d 10 ff ff
	ff		 mov	 ecx, DWORD PTR _this$[ebp]
  004ec	83 c1 14	 add	 ecx, 20			; 00000014H
  004ef	89 4d 8c	 mov	 DWORD PTR tv143[ebp], ecx
  004f2	8b 55 8c	 mov	 edx, DWORD PTR tv143[ebp]
  004f5	89 95 3c ff ff
	ff		 mov	 DWORD PTR tv297[ebp], edx
  004fb	8b 85 3c ff ff
	ff		 mov	 eax, DWORD PTR tv297[ebp]
  00501	c1 e8 03	 shr	 eax, 3
  00504	8a 88 00 00 00
	30		 mov	 cl, BYTE PTR [eax+805306368]
  0050a	88 8d 0a ff ff
	ff		 mov	 BYTE PTR tv300[ebp], cl
  00510	80 bd 0a ff ff
	ff 00		 cmp	 BYTE PTR tv300[ebp], 0
  00517	74 23		 je	 SHORT $LN20@Block
  00519	8a 95 3c ff ff
	ff		 mov	 dl, BYTE PTR tv297[ebp]
  0051f	80 e2 07	 and	 dl, 7
  00522	80 c2 03	 add	 dl, 3
  00525	3a 95 0a ff ff
	ff		 cmp	 dl, BYTE PTR tv300[ebp]
  0052b	7c 0f		 jl	 SHORT $LN20@Block
  0052d	8b 85 3c ff ff
	ff		 mov	 eax, DWORD PTR tv297[ebp]
  00533	50		 push	 eax
  00534	e8 00 00 00 00	 call	 ___asan_report_load4
  00539	83 c4 04	 add	 esp, 4
$LN20@Block:
  0053c	8b 4d 8c	 mov	 ecx, DWORD PTR tv143[ebp]
  0053f	8b 11		 mov	 edx, DWORD PTR [ecx]
  00541	89 55 c0	 mov	 DWORD PTR tv157[ebp], edx
  00544	8d 8d d0 fe ff
	ff		 lea	 ecx, DWORD PTR $T3[ebp]
  0054a	e8 00 00 00 00	 call	 ??0?$Rect@H@sf@@QAE@XZ	; sf::Rect<int>::Rect<int>
  0054f	89 45 bc	 mov	 DWORD PTR tv155[ebp], eax
  00552	8b 45 bc	 mov	 eax, DWORD PTR tv155[ebp]
  00555	50		 push	 eax
  00556	8b 4b 10	 mov	 ecx, DWORD PTR _img$[ebx]
  00559	51		 push	 ecx
  0055a	8b 4d c0	 mov	 ecx, DWORD PTR tv157[ebp]
  0055d	ff 15 00 00 00
	00		 call	 DWORD PTR __imp_?loadFromImage@Texture@sf@@QAE_NABVImage@2@ABV?$Rect@H@2@@Z
  00563	8d 95 d0 fe ff
	ff		 lea	 edx, DWORD PTR $T3[ebp]
  00569	c1 ea 03	 shr	 edx, 3
  0056c	81 c2 00 00 00
	30		 add	 edx, 805306368		; 30000000H
  00572	89 55 c4	 mov	 DWORD PTR tv237[ebp], edx
  00575	6a 02		 push	 2
  00577	8b 45 c4	 mov	 eax, DWORD PTR tv237[ebp]
  0057a	50		 push	 eax
  0057b	e8 00 00 00 00	 call	 ___asan_set_shadow_f8
  00580	83 c4 08	 add	 esp, 8

; 11   : 	_tex->setSmooth(true);

  00583	8b 8d 10 ff ff
	ff		 mov	 ecx, DWORD PTR _this$[ebp]
  00589	83 c1 14	 add	 ecx, 20			; 00000014H
  0058c	89 4d 90	 mov	 DWORD PTR tv149[ebp], ecx
  0058f	8b 55 90	 mov	 edx, DWORD PTR tv149[ebp]
  00592	89 95 40 ff ff
	ff		 mov	 DWORD PTR tv287[ebp], edx
  00598	8b 85 40 ff ff
	ff		 mov	 eax, DWORD PTR tv287[ebp]
  0059e	c1 e8 03	 shr	 eax, 3
  005a1	8a 88 00 00 00
	30		 mov	 cl, BYTE PTR [eax+805306368]
  005a7	88 8d 0b ff ff
	ff		 mov	 BYTE PTR tv290[ebp], cl
  005ad	80 bd 0b ff ff
	ff 00		 cmp	 BYTE PTR tv290[ebp], 0
  005b4	74 23		 je	 SHORT $LN19@Block
  005b6	8a 95 40 ff ff
	ff		 mov	 dl, BYTE PTR tv287[ebp]
  005bc	80 e2 07	 and	 dl, 7
  005bf	80 c2 03	 add	 dl, 3
  005c2	3a 95 0b ff ff
	ff		 cmp	 dl, BYTE PTR tv290[ebp]
  005c8	7c 0f		 jl	 SHORT $LN19@Block
  005ca	8b 85 40 ff ff
	ff		 mov	 eax, DWORD PTR tv287[ebp]
  005d0	50		 push	 eax
  005d1	e8 00 00 00 00	 call	 ___asan_report_load4
  005d6	83 c4 04	 add	 esp, 4
$LN19@Block:
  005d9	8b 4d 90	 mov	 ecx, DWORD PTR tv149[ebp]
  005dc	8b 11		 mov	 edx, DWORD PTR [ecx]
  005de	89 55 c8	 mov	 DWORD PTR tv161[ebp], edx
  005e1	6a 01		 push	 1
  005e3	8b 4d c8	 mov	 ecx, DWORD PTR tv161[ebp]
  005e6	ff 15 00 00 00
	00		 call	 DWORD PTR __imp_?setSmooth@Texture@sf@@QAEX_N@Z

; 12   : 	_sprite = new sf::Sprite(*_tex, *texrect);

  005ec	68 10 01 00 00	 push	 272			; 00000110H
  005f1	e8 00 00 00 00	 call	 ??2@YAPAXI@Z		; operator new
  005f6	83 c4 04	 add	 esp, 4
  005f9	89 85 14 ff ff
	ff		 mov	 DWORD PTR $T4[ebp], eax
  005ff	c7 45 fc 03 00
	00 00		 mov	 DWORD PTR __$EHRec$[ebp+8], 3
  00606	83 bd 14 ff ff
	ff 00		 cmp	 DWORD PTR $T4[ebp], 0
  0060d	0f 84 e0 00 00
	00		 je	 $LN9@Block
  00613	8b 45 cc	 mov	 eax, DWORD PTR _texrect$[ebp]
  00616	50		 push	 eax
  00617	8b 8d 10 ff ff
	ff		 mov	 ecx, DWORD PTR _this$[ebp]
  0061d	8b 51 14	 mov	 edx, DWORD PTR [ecx+20]
  00620	52		 push	 edx
  00621	8b 8d 14 ff ff
	ff		 mov	 ecx, DWORD PTR $T4[ebp]
  00627	ff 15 00 00 00
	00		 call	 DWORD PTR __imp_??0Sprite@sf@@QAE@ABVTexture@1@ABV?$Rect@H@1@@Z
  0062d	8b 85 14 ff ff
	ff		 mov	 eax, DWORD PTR $T4[ebp]
  00633	89 45 94	 mov	 DWORD PTR tv177[ebp], eax
  00636	8b 4d 94	 mov	 ecx, DWORD PTR tv177[ebp]
  00639	89 8d 44 ff ff
	ff		 mov	 DWORD PTR tv277[ebp], ecx
  0063f	8b 95 44 ff ff
	ff		 mov	 edx, DWORD PTR tv277[ebp]
  00645	c1 ea 03	 shr	 edx, 3
  00648	8a 82 00 00 00
	30		 mov	 al, BYTE PTR [edx+805306368]
  0064e	88 85 0c ff ff
	ff		 mov	 BYTE PTR tv280[ebp], al
  00654	80 bd 0c ff ff
	ff 00		 cmp	 BYTE PTR tv280[ebp], 0
  0065b	74 23		 je	 SHORT $LN18@Block
  0065d	8a 8d 44 ff ff
	ff		 mov	 cl, BYTE PTR tv277[ebp]
  00663	80 e1 07	 and	 cl, 7
  00666	80 c1 03	 add	 cl, 3
  00669	3a 8d 0c ff ff
	ff		 cmp	 cl, BYTE PTR tv280[ebp]
  0066f	7c 0f		 jl	 SHORT $LN18@Block
  00671	8b 95 44 ff ff
	ff		 mov	 edx, DWORD PTR tv277[ebp]
  00677	52		 push	 edx
  00678	e8 00 00 00 00	 call	 ___asan_report_store4
  0067d	83 c4 04	 add	 esp, 4
$LN18@Block:
  00680	8b 45 94	 mov	 eax, DWORD PTR tv177[ebp]
  00683	c7 00 00 00 00
	00		 mov	 DWORD PTR [eax], OFFSET ??_SSprite@sf@@6BDrawable@1@@
  00689	8b 8d 14 ff ff
	ff		 mov	 ecx, DWORD PTR $T4[ebp]
  0068f	83 c1 04	 add	 ecx, 4
  00692	89 4d 98	 mov	 DWORD PTR tv178[ebp], ecx
  00695	8b 55 98	 mov	 edx, DWORD PTR tv178[ebp]
  00698	89 95 48 ff ff
	ff		 mov	 DWORD PTR tv267[ebp], edx
  0069e	8b 85 48 ff ff
	ff		 mov	 eax, DWORD PTR tv267[ebp]
  006a4	c1 e8 03	 shr	 eax, 3
  006a7	8a 88 00 00 00
	30		 mov	 cl, BYTE PTR [eax+805306368]
  006ad	88 8d 0d ff ff
	ff		 mov	 BYTE PTR tv270[ebp], cl
  006b3	80 bd 0d ff ff
	ff 00		 cmp	 BYTE PTR tv270[ebp], 0
  006ba	74 23		 je	 SHORT $LN17@Block
  006bc	8a 95 48 ff ff
	ff		 mov	 dl, BYTE PTR tv267[ebp]
  006c2	80 e2 07	 and	 dl, 7
  006c5	80 c2 03	 add	 dl, 3
  006c8	3a 95 0d ff ff
	ff		 cmp	 dl, BYTE PTR tv270[ebp]
  006ce	7c 0f		 jl	 SHORT $LN17@Block
  006d0	8b 85 48 ff ff
	ff		 mov	 eax, DWORD PTR tv267[ebp]
  006d6	50		 push	 eax
  006d7	e8 00 00 00 00	 call	 ___asan_report_store4
  006dc	83 c4 04	 add	 esp, 4
$LN17@Block:
  006df	8b 4d 98	 mov	 ecx, DWORD PTR tv178[ebp]
  006e2	c7 01 00 00 00
	00		 mov	 DWORD PTR [ecx], OFFSET ??_SSprite@sf@@6BTransformable@1@@
  006e8	8b 95 14 ff ff
	ff		 mov	 edx, DWORD PTR $T4[ebp]
  006ee	89 55 9c	 mov	 DWORD PTR tv173[ebp], edx
  006f1	eb 07		 jmp	 SHORT $LN10@Block
$LN9@Block:
  006f3	c7 45 9c 00 00
	00 00		 mov	 DWORD PTR tv173[ebp], 0
$LN10@Block:
  006fa	8b 45 9c	 mov	 eax, DWORD PTR tv173[ebp]
  006fd	89 45 d0	 mov	 DWORD PTR $T11[ebp], eax
  00700	c7 45 fc ff ff
	ff ff		 mov	 DWORD PTR __$EHRec$[ebp+8], -1
  00707	8b 8d 10 ff ff
	ff		 mov	 ecx, DWORD PTR _this$[ebp]
  0070d	83 c1 10	 add	 ecx, 16			; 00000010H
  00710	89 4d a0	 mov	 DWORD PTR tv162[ebp], ecx
  00713	8b 55 a0	 mov	 edx, DWORD PTR tv162[ebp]
  00716	89 95 4c ff ff
	ff		 mov	 DWORD PTR tv257[ebp], edx
  0071c	8b 85 4c ff ff
	ff		 mov	 eax, DWORD PTR tv257[ebp]
  00722	c1 e8 03	 shr	 eax, 3
  00725	8a 88 00 00 00
	30		 mov	 cl, BYTE PTR [eax+805306368]
  0072b	88 8d 0e ff ff
	ff		 mov	 BYTE PTR tv260[ebp], cl
  00731	80 bd 0e ff ff
	ff 00		 cmp	 BYTE PTR tv260[ebp], 0
  00738	74 23		 je	 SHORT $LN16@Block
  0073a	8a 95 4c ff ff
	ff		 mov	 dl, BYTE PTR tv257[ebp]
  00740	80 e2 07	 and	 dl, 7
  00743	80 c2 03	 add	 dl, 3
  00746	3a 95 0e ff ff
	ff		 cmp	 dl, BYTE PTR tv260[ebp]
  0074c	7c 0f		 jl	 SHORT $LN16@Block
  0074e	8b 85 4c ff ff
	ff		 mov	 eax, DWORD PTR tv257[ebp]
  00754	50		 push	 eax
  00755	e8 00 00 00 00	 call	 ___asan_report_store4
  0075a	83 c4 04	 add	 esp, 4
$LN16@Block:
  0075d	8b 4d a0	 mov	 ecx, DWORD PTR tv162[ebp]
  00760	8b 55 d0	 mov	 edx, DWORD PTR $T11[ebp]
  00763	89 11		 mov	 DWORD PTR [ecx], edx

; 13   : 	//_sprite->setTexture(*_tex);
; 14   : 	_sprite->setPosition(x, y);

  00765	8b 85 10 ff ff
	ff		 mov	 eax, DWORD PTR _this$[ebp]
  0076b	83 c0 10	 add	 eax, 16			; 00000010H
  0076e	89 45 a4	 mov	 DWORD PTR tv181[ebp], eax
  00771	8b 4d a4	 mov	 ecx, DWORD PTR tv181[ebp]
  00774	89 8d 50 ff ff
	ff		 mov	 DWORD PTR tv247[ebp], ecx
  0077a	8b 95 50 ff ff
	ff		 mov	 edx, DWORD PTR tv247[ebp]
  00780	c1 ea 03	 shr	 edx, 3
  00783	8a 82 00 00 00
	30		 mov	 al, BYTE PTR [edx+805306368]
  00789	88 85 0f ff ff
	ff		 mov	 BYTE PTR tv250[ebp], al
  0078f	80 bd 0f ff ff
	ff 00		 cmp	 BYTE PTR tv250[ebp], 0
  00796	74 23		 je	 SHORT $LN15@Block
  00798	8a 8d 50 ff ff
	ff		 mov	 cl, BYTE PTR tv247[ebp]
  0079e	80 e1 07	 and	 cl, 7
  007a1	80 c1 03	 add	 cl, 3
  007a4	3a 8d 0f ff ff
	ff		 cmp	 cl, BYTE PTR tv250[ebp]
  007aa	7c 0f		 jl	 SHORT $LN15@Block
  007ac	8b 95 50 ff ff
	ff		 mov	 edx, DWORD PTR tv247[ebp]
  007b2	52		 push	 edx
  007b3	e8 00 00 00 00	 call	 ___asan_report_load4
  007b8	83 c4 04	 add	 esp, 4
$LN15@Block:
  007bb	8b 45 a4	 mov	 eax, DWORD PTR tv181[ebp]
  007be	8b 08		 mov	 ecx, DWORD PTR [eax]
  007c0	83 c1 04	 add	 ecx, 4
  007c3	89 4d d4	 mov	 DWORD PTR tv187[ebp], ecx
  007c6	51		 push	 ecx
  007c7	f3 0f 10 43 0c	 movss	 xmm0, DWORD PTR _y$[ebx]
  007cc	f3 0f 11 04 24	 movss	 DWORD PTR [esp], xmm0
  007d1	51		 push	 ecx
  007d2	f3 0f 10 43 08	 movss	 xmm0, DWORD PTR _x$[ebx]
  007d7	f3 0f 11 04 24	 movss	 DWORD PTR [esp], xmm0
  007dc	8b 4d d4	 mov	 ecx, DWORD PTR tv187[ebp]
  007df	ff 15 00 00 00
	00		 call	 DWORD PTR __imp_?setPosition@Transformable@sf@@QAEXMM@Z

; 15   : }

  007e5	8b 95 10 ff ff
	ff		 mov	 edx, DWORD PTR _this$[ebp]
  007eb	89 55 dc	 mov	 DWORD PTR tv197[ebp], edx
  007ee	c7 85 c0 fe ff
	ff 0e 36 e0 45	 mov	 DWORD PTR __asan_gen_0$[ebp], 1172321806 ; 45e0360eH
  007f8	8d 85 c0 fe ff
	ff		 lea	 eax, DWORD PTR __asan_gen_0$[ebp]
  007fe	c1 e8 03	 shr	 eax, 3
  00801	05 00 00 00 30	 add	 eax, 805306368		; 30000000H
  00806	89 45 d8	 mov	 DWORD PTR tv243[ebp], eax
  00809	6a 08		 push	 8
  0080b	8b 4d d8	 mov	 ecx, DWORD PTR tv243[ebp]
  0080e	51		 push	 ecx
  0080f	e8 00 00 00 00	 call	 ___asan_set_shadow_00
  00814	83 c4 08	 add	 esp, 8
  00817	8b 45 dc	 mov	 eax, DWORD PTR tv197[ebp]
  0081a	8b 4d f4	 mov	 ecx, DWORD PTR __$EHRec$[ebp]
  0081d	64 89 0d 00 00
	00 00		 mov	 DWORD PTR fs:0, ecx
  00824	59		 pop	 ecx
  00825	8b e5		 mov	 esp, ebp
  00827	5d		 pop	 ebp
  00828	8b e3		 mov	 esp, ebx
  0082a	5b		 pop	 ebx
  0082b	c2 0c 00	 ret	 12			; 0000000cH
_TEXT	ENDS
text$x	SEGMENT
__unwindfunclet$??0Block@@QAE@MMPAVImage@sf@@@Z$0:
  00000	6a 10		 push	 16			; 00000010H
  00002	8b 85 6c ff ff
	ff		 mov	 eax, DWORD PTR $T5[ebp]
  00008	50		 push	 eax
  00009	e8 00 00 00 00	 call	 ??3@YAXPAXI@Z		; operator delete
  0000e	83 c4 08	 add	 esp, 8
  00011	c3		 ret	 0
__unwindfunclet$??0Block@@QAE@MMPAVImage@sf@@@Z$1:
  00012	6a 10		 push	 16			; 00000010H
  00014	8b 85 78 ff ff
	ff		 mov	 eax, DWORD PTR $T6[ebp]
  0001a	50		 push	 eax
  0001b	e8 00 00 00 00	 call	 ??3@YAXPAXI@Z		; operator delete
  00020	83 c4 08	 add	 esp, 8
  00023	c3		 ret	 0
__unwindfunclet$??0Block@@QAE@MMPAVImage@sf@@@Z$2:
  00024	6a 28		 push	 40			; 00000028H
  00026	8b 45 80	 mov	 eax, DWORD PTR $T7[ebp]
  00029	50		 push	 eax
  0002a	e8 00 00 00 00	 call	 ??3@YAXPAXI@Z		; operator delete
  0002f	83 c4 08	 add	 esp, 8
  00032	c3		 ret	 0
__unwindfunclet$??0Block@@QAE@MMPAVImage@sf@@@Z$3:
  00033	68 10 01 00 00	 push	 272			; 00000110H
  00038	8b 85 14 ff ff
	ff		 mov	 eax, DWORD PTR $T4[ebp]
  0003e	50		 push	 eax
  0003f	e8 00 00 00 00	 call	 ??3@YAXPAXI@Z		; operator delete
  00044	83 c4 08	 add	 esp, 8
  00047	c3		 ret	 0
  00048	cc		 int	 3
  00049	cc		 int	 3
  0004a	cc		 int	 3
  0004b	cc		 int	 3
  0004c	cc		 int	 3
__ehhandler$??0Block@@QAE@MMPAVImage@sf@@@Z:
  0004d	90		 npad	 1
  0004e	90		 npad	 1
  0004f	8b 54 24 08	 mov	 edx, DWORD PTR [esp+8]
  00053	8d 42 0c	 lea	 eax, DWORD PTR [edx+12]
  00056	8b 8a c8 fe ff
	ff		 mov	 ecx, DWORD PTR [edx-312]
  0005c	33 c8		 xor	 ecx, eax
  0005e	e8 00 00 00 00	 call	 @__security_check_cookie@4
  00063	b8 00 00 00 00	 mov	 eax, OFFSET __ehfuncinfo$??0Block@@QAE@MMPAVImage@sf@@@Z
  00068	e9 00 00 00 00	 jmp	 ___CxxFrameHandler3
text$x	ENDS
??0Block@@QAE@MMPAVImage@sf@@@Z ENDP			; Block::Block
; Function compile flags: /Odtp /RTCu
;	COMDAT ??_GSprite@sf@@UAEPAXI@Z
_TEXT	SEGMENT
_this$ = -4						; size = 4
___flags$ = 8						; size = 4
??_GSprite@sf@@UAEPAXI@Z PROC				; sf::Sprite::`scalar deleting destructor', COMDAT
; _this$ = ecx
  00000	55		 push	 ebp
  00001	8b ec		 mov	 ebp, esp
  00003	51		 push	 ecx
  00004	89 4d fc	 mov	 DWORD PTR _this$[ebp], ecx
  00007	8b 4d fc	 mov	 ecx, DWORD PTR _this$[ebp]
  0000a	ff 15 00 00 00
	00		 call	 DWORD PTR __imp_??1Sprite@sf@@UAE@XZ
  00010	8b 45 08	 mov	 eax, DWORD PTR ___flags$[ebp]
  00013	83 e0 01	 and	 eax, 1
  00016	74 11		 je	 SHORT $LN2@scalar
  00018	68 10 01 00 00	 push	 272			; 00000110H
  0001d	8b 4d fc	 mov	 ecx, DWORD PTR _this$[ebp]
  00020	51		 push	 ecx
  00021	e8 00 00 00 00	 call	 ??3@YAXPAXI@Z		; operator delete
  00026	83 c4 08	 add	 esp, 8
$LN2@scalar:
  00029	8b 45 fc	 mov	 eax, DWORD PTR _this$[ebp]
  0002c	8b e5		 mov	 esp, ebp
  0002e	5d		 pop	 ebp
  0002f	c2 04 00	 ret	 4
??_GSprite@sf@@UAEPAXI@Z ENDP				; sf::Sprite::`scalar deleting destructor'
_TEXT	ENDS
; Function compile flags: /Odtp /RTCu
;	COMDAT ??_GTexture@sf@@QAEPAXI@Z
_TEXT	SEGMENT
_this$ = -4						; size = 4
___flags$ = 8						; size = 4
??_GTexture@sf@@QAEPAXI@Z PROC				; sf::Texture::`scalar deleting destructor', COMDAT
; _this$ = ecx
  00000	55		 push	 ebp
  00001	8b ec		 mov	 ebp, esp
  00003	51		 push	 ecx
  00004	89 4d fc	 mov	 DWORD PTR _this$[ebp], ecx
  00007	8b 4d fc	 mov	 ecx, DWORD PTR _this$[ebp]
  0000a	ff 15 00 00 00
	00		 call	 DWORD PTR __imp_??1Texture@sf@@QAE@XZ
  00010	8b 45 08	 mov	 eax, DWORD PTR ___flags$[ebp]
  00013	83 e0 01	 and	 eax, 1
  00016	74 0e		 je	 SHORT $LN2@scalar
  00018	6a 28		 push	 40			; 00000028H
  0001a	8b 4d fc	 mov	 ecx, DWORD PTR _this$[ebp]
  0001d	51		 push	 ecx
  0001e	e8 00 00 00 00	 call	 ??3@YAXPAXI@Z		; operator delete
  00023	83 c4 08	 add	 esp, 8
$LN2@scalar:
  00026	8b 45 fc	 mov	 eax, DWORD PTR _this$[ebp]
  00029	8b e5		 mov	 esp, ebp
  0002b	5d		 pop	 ebp
  0002c	c2 04 00	 ret	 4
??_GTexture@sf@@QAEPAXI@Z ENDP				; sf::Texture::`scalar deleting destructor'
_TEXT	ENDS
; Function compile flags: /Odtp /RTCu
; File C:\Users\theob\Documents\GitHub\as-pts1\rendu2\vcpkg_installed\x86-windows\x86-windows\include\SFML\Graphics\Rect.inl
;	COMDAT ?intersects@?$Rect@H@sf@@QBE_NABV12@AAV12@@Z
_TEXT	SEGMENT
__asan_gen_0$ = -624					; size = 4
__asan_gen_1$ = -620					; size = 4
__asan_gen_2$ = -616					; size = 4
_r1MinX$ = -608						; size = 4
$T2 = -592						; size = 4
_r1MaxX$ = -576						; size = 4
$T3 = -560						; size = 4
_r1MinY$ = -544						; size = 4
$T4 = -528						; size = 4
_r1MaxY$ = -512						; size = 4
$T5 = -496						; size = 4
_r2MinX$ = -480						; size = 4
$T6 = -464						; size = 4
_r2MaxX$ = -448						; size = 4
$T7 = -432						; size = 4
_r2MinY$ = -416						; size = 4
$T8 = -400						; size = 4
_r2MaxY$ = -384						; size = 4
$T9 = -368						; size = 4
$T10 = -352						; size = 16
$T11 = -304						; size = 16
tv283 = -252						; size = 4
_this$ = -248						; size = 4
_interTop$ = -244					; size = 4
_interLeft$ = -240					; size = 4
tv65 = -236						; size = 4
tv66 = -232						; size = 4
tv64 = -228						; size = 4
tv72 = -224						; size = 4
tv73 = -220						; size = 4
tv71 = -216						; size = 4
tv79 = -212						; size = 4
tv80 = -208						; size = 4
tv78 = -204						; size = 4
tv86 = -200						; size = 4
tv87 = -196						; size = 4
tv85 = -192						; size = 4
tv93 = -188						; size = 4
tv94 = -184						; size = 4
tv92 = -180						; size = 4
tv132 = -176						; size = 4
tv133 = -172						; size = 4
tv131 = -168						; size = 4
tv139 = -164						; size = 4
tv140 = -160						; size = 4
tv138 = -156						; size = 4
tv146 = -152						; size = 4
tv147 = -148						; size = 4
tv145 = -144						; size = 4
tv152 = -140						; size = 4
tv155 = -136						; size = 4
tv158 = -132						; size = 4
tv161 = -128						; size = 4
_interBottom$ = -124					; size = 4
_interRight$ = -120					; size = 4
tv167 = -116						; size = 4
tv176 = -112						; size = 4
tv281 = -108						; size = 4
tv67 = -104						; size = 4
tv74 = -100						; size = 4
tv81 = -96						; size = 4
tv88 = -92						; size = 4
tv95 = -88						; size = 4
tv134 = -84						; size = 4
tv141 = -80						; size = 4
tv148 = -76						; size = 4
tv355 = -72						; size = 4
tv273 = -68						; size = 4
tv361 = -64						; size = 4
tv379 = -60						; size = 4
tv367 = -56						; size = 4
tv278 = -52						; size = 4
tv373 = -48						; size = 4
tv385 = -44						; size = 4
$T12 = -40						; size = 16
$T13 = -24						; size = 16
__$ArrayPad$ = -4					; size = 4
_rectangle$ = 8						; size = 4
_intersection$ = 12					; size = 4
?intersects@?$Rect@H@sf@@QBE_NABV12@AAV12@@Z PROC	; sf::Rect<int>::intersects, COMDAT
; _this$ = ecx

; 110  : {

  00000	53		 push	 ebx
  00001	8b dc		 mov	 ebx, esp
  00003	83 ec 08	 sub	 esp, 8
  00006	83 e4 e0	 and	 esp, -32		; ffffffe0H
  00009	83 c4 04	 add	 esp, 4
  0000c	55		 push	 ebp
  0000d	8b 6b 04	 mov	 ebp, DWORD PTR [ebx+4]
  00010	89 6c 24 04	 mov	 DWORD PTR [esp+4], ebp
  00014	8b ec		 mov	 ebp, esp
  00016	81 ec 80 02 00
	00		 sub	 esp, 640		; 00000280H
  0001c	a1 00 00 00 00	 mov	 eax, DWORD PTR ___security_cookie
  00021	33 c5		 xor	 eax, ebp
  00023	89 45 fc	 mov	 DWORD PTR __$ArrayPad$[ebp], eax
  00026	89 8d 08 ff ff
	ff		 mov	 DWORD PTR _this$[ebp], ecx
  0002c	c7 85 90 fd ff
	ff b3 8a b5 41	 mov	 DWORD PTR __asan_gen_0$[ebp], 1102416563 ; 41b58ab3H
  00036	c7 85 94 fd ff
	ff 00 00 00 00	 mov	 DWORD PTR __asan_gen_1$[ebp], OFFSET __L__asan_gen_.?intersects@?$Rect@H@sf@@QBE_NABV12@AAV12@@Z
  00040	c7 85 98 fd ff
	ff 00 00 00 00	 mov	 DWORD PTR __asan_gen_2$[ebp], OFFSET ?intersects@?$Rect@H@sf@@QBE_NABV12@AAV12@@Z ; sf::Rect<int>::intersects
  0004a	8d 85 90 fd ff
	ff		 lea	 eax, DWORD PTR __asan_gen_0$[ebp]
  00050	89 45 94	 mov	 DWORD PTR tv281[ebp], eax
  00053	8b 4d 94	 mov	 ecx, DWORD PTR tv281[ebp]
  00056	c1 e9 03	 shr	 ecx, 3
  00059	81 c1 00 00 00
	30		 add	 ecx, 805306368		; 30000000H
  0005f	89 8d 04 ff ff
	ff		 mov	 DWORD PTR tv283[ebp], ecx
  00065	8b 95 04 ff ff
	ff		 mov	 edx, DWORD PTR tv283[ebp]
  0006b	c7 02 f1 f1 f8
	f2		 mov	 DWORD PTR [edx], -218566159 ; f2f8f1f1H
  00071	83 85 04 ff ff
	ff 04		 add	 DWORD PTR tv283[ebp], 4
  00078	8b 85 04 ff ff
	ff		 mov	 eax, DWORD PTR tv283[ebp]
  0007e	c7 00 04 f2 f8
	f2		 mov	 DWORD PTR [eax], -218566140 ; f2f8f204H
  00084	83 85 04 ff ff
	ff 04		 add	 DWORD PTR tv283[ebp], 4
  0008b	8b 8d 04 ff ff
	ff		 mov	 ecx, DWORD PTR tv283[ebp]
  00091	c7 01 f8 f2 f8
	f2		 mov	 DWORD PTR [ecx], -218565896 ; f2f8f2f8H
  00097	83 85 04 ff ff
	ff 04		 add	 DWORD PTR tv283[ebp], 4
  0009e	8b 95 04 ff ff
	ff		 mov	 edx, DWORD PTR tv283[ebp]
  000a4	c7 02 f8 f2 f8
	f2		 mov	 DWORD PTR [edx], -218565896 ; f2f8f2f8H
  000aa	83 85 04 ff ff
	ff 04		 add	 DWORD PTR tv283[ebp], 4
  000b1	8b 85 04 ff ff
	ff		 mov	 eax, DWORD PTR tv283[ebp]
  000b7	c7 00 f8 f2 f8
	f2		 mov	 DWORD PTR [eax], -218565896 ; f2f8f2f8H
  000bd	83 85 04 ff ff
	ff 04		 add	 DWORD PTR tv283[ebp], 4
  000c4	8b 8d 04 ff ff
	ff		 mov	 ecx, DWORD PTR tv283[ebp]
  000ca	c7 01 f8 f2 f8
	f2		 mov	 DWORD PTR [ecx], -218565896 ; f2f8f2f8H
  000d0	83 85 04 ff ff
	ff 04		 add	 DWORD PTR tv283[ebp], 4
  000d7	8b 95 04 ff ff
	ff		 mov	 edx, DWORD PTR tv283[ebp]
  000dd	c7 02 f8 f2 f8
	f2		 mov	 DWORD PTR [edx], -218565896 ; f2f8f2f8H
  000e3	83 85 04 ff ff
	ff 04		 add	 DWORD PTR tv283[ebp], 4
  000ea	8b 85 04 ff ff
	ff		 mov	 eax, DWORD PTR tv283[ebp]
  000f0	c7 00 f8 f2 f8
	f2		 mov	 DWORD PTR [eax], -218565896 ; f2f8f2f8H
  000f6	83 85 04 ff ff
	ff 04		 add	 DWORD PTR tv283[ebp], 4
  000fd	8b 8d 04 ff ff
	ff		 mov	 ecx, DWORD PTR tv283[ebp]
  00103	c7 01 f8 f2 f8
	f8		 mov	 DWORD PTR [ecx], -117902600 ; f8f8f2f8H
  00109	83 85 04 ff ff
	ff 04		 add	 DWORD PTR tv283[ebp], 4
  00110	8b 95 04 ff ff
	ff		 mov	 edx, DWORD PTR tv283[ebp]
  00116	c7 02 f2 f2 f2
	f2		 mov	 DWORD PTR [edx], -218959118 ; f2f2f2f2H
  0011c	83 85 04 ff ff
	ff 04		 add	 DWORD PTR tv283[ebp], 4
  00123	8b 85 04 ff ff
	ff		 mov	 eax, DWORD PTR tv283[ebp]
  00129	c7 00 f8 f8 f3
	f3		 mov	 DWORD PTR [eax], -202114824 ; f3f3f8f8H
  0012f	83 85 04 ff ff
	ff 04		 add	 DWORD PTR tv283[ebp], 4
  00136	b9 f3 f3 00 00	 mov	 ecx, 62451		; 0000f3f3H
  0013b	8b 95 04 ff ff
	ff		 mov	 edx, DWORD PTR tv283[ebp]
  00141	66 89 0a	 mov	 WORD PTR [edx], cx
  00144	8d 85 d0 fd ff
	ff		 lea	 eax, DWORD PTR $T3[ebp]
  0014a	c1 e8 03	 shr	 eax, 3
  0014d	c6 80 00 00 00
	30 04		 mov	 BYTE PTR [eax+805306368], 4
  00154	8d 8d f0 fd ff
	ff		 lea	 ecx, DWORD PTR $T4[ebp]
  0015a	c1 e9 03	 shr	 ecx, 3
  0015d	c6 81 00 00 00
	30 04		 mov	 BYTE PTR [ecx+805306368], 4
  00164	8d 95 10 fe ff
	ff		 lea	 edx, DWORD PTR $T5[ebp]
  0016a	c1 ea 03	 shr	 edx, 3
  0016d	c6 82 00 00 00
	30 04		 mov	 BYTE PTR [edx+805306368], 4
  00174	8d 85 30 fe ff
	ff		 lea	 eax, DWORD PTR $T6[ebp]
  0017a	c1 e8 03	 shr	 eax, 3
  0017d	c6 80 00 00 00
	30 04		 mov	 BYTE PTR [eax+805306368], 4
  00184	8d 8d 50 fe ff
	ff		 lea	 ecx, DWORD PTR $T7[ebp]
  0018a	c1 e9 03	 shr	 ecx, 3
  0018d	c6 81 00 00 00
	30 04		 mov	 BYTE PTR [ecx+805306368], 4
  00194	8d 95 70 fe ff
	ff		 lea	 edx, DWORD PTR $T8[ebp]
  0019a	c1 ea 03	 shr	 edx, 3
  0019d	c6 82 00 00 00
	30 04		 mov	 BYTE PTR [edx+805306368], 4
  001a4	8d 85 80 fe ff
	ff		 lea	 eax, DWORD PTR _r2MaxY$[ebp]
  001aa	c1 e8 03	 shr	 eax, 3
  001ad	c6 80 00 00 00
	30 04		 mov	 BYTE PTR [eax+805306368], 4
  001b4	8d 8d 60 fe ff
	ff		 lea	 ecx, DWORD PTR _r2MinY$[ebp]
  001ba	c1 e9 03	 shr	 ecx, 3
  001bd	c6 81 00 00 00
	30 04		 mov	 BYTE PTR [ecx+805306368], 4
  001c4	8d 95 20 fe ff
	ff		 lea	 edx, DWORD PTR _r2MinX$[ebp]
  001ca	c1 ea 03	 shr	 edx, 3
  001cd	c6 82 00 00 00
	30 04		 mov	 BYTE PTR [edx+805306368], 4
  001d4	8d 85 e0 fd ff
	ff		 lea	 eax, DWORD PTR _r1MinY$[ebp]
  001da	c1 e8 03	 shr	 eax, 3
  001dd	c6 80 00 00 00
	30 04		 mov	 BYTE PTR [eax+805306368], 4
  001e4	8d 8d 40 fe ff
	ff		 lea	 ecx, DWORD PTR _r2MaxX$[ebp]
  001ea	c1 e9 03	 shr	 ecx, 3
  001ed	c6 81 00 00 00
	30 04		 mov	 BYTE PTR [ecx+805306368], 4
  001f4	8d 95 c0 fd ff
	ff		 lea	 edx, DWORD PTR _r1MaxX$[ebp]
  001fa	c1 ea 03	 shr	 edx, 3
  001fd	c6 82 00 00 00
	30 04		 mov	 BYTE PTR [edx+805306368], 4
  00204	8d 85 a0 fd ff
	ff		 lea	 eax, DWORD PTR _r1MinX$[ebp]
  0020a	c1 e8 03	 shr	 eax, 3
  0020d	c6 80 00 00 00
	30 04		 mov	 BYTE PTR [eax+805306368], 4
  00214	8d 8d 00 fe ff
	ff		 lea	 ecx, DWORD PTR _r1MaxY$[ebp]
  0021a	c1 e9 03	 shr	 ecx, 3
  0021d	c6 81 00 00 00
	30 04		 mov	 BYTE PTR [ecx+805306368], 4
  00224	8d 95 90 fe ff
	ff		 lea	 edx, DWORD PTR $T9[ebp]
  0022a	c1 ea 03	 shr	 edx, 3
  0022d	c6 82 00 00 00
	30 04		 mov	 BYTE PTR [edx+805306368], 4
  00234	b9 00 00 00 00	 mov	 ecx, OFFSET __C23CD225_Rect@inl
  00239	e8 00 00 00 00	 call	 @__CheckForDebuggerJustMyCode@4

; 111  :     // Rectangles with negative dimensions are allowed, so we must handle them correctly
; 112  : 
; 113  :     // Compute the min and max of the first rectangle on both axes
; 114  :     T r1MinX = std::min(left, static_cast<T>(left + width));

  0023e	8b 85 08 ff ff
	ff		 mov	 eax, DWORD PTR _this$[ebp]
  00244	89 85 14 ff ff
	ff		 mov	 DWORD PTR tv65[ebp], eax
  0024a	8b 8d 08 ff ff
	ff		 mov	 ecx, DWORD PTR _this$[ebp]
  00250	83 c1 08	 add	 ecx, 8
  00253	89 8d 18 ff ff
	ff		 mov	 DWORD PTR tv66[ebp], ecx
  00259	8b 95 14 ff ff
	ff		 mov	 edx, DWORD PTR tv65[ebp]
  0025f	52		 push	 edx
  00260	e8 00 00 00 00	 call	 ___asan_load4
  00265	83 c4 04	 add	 esp, 4
  00268	8b 85 18 ff ff
	ff		 mov	 eax, DWORD PTR tv66[ebp]
  0026e	50		 push	 eax
  0026f	e8 00 00 00 00	 call	 ___asan_load4
  00274	83 c4 04	 add	 esp, 4
  00277	8b 8d 14 ff ff
	ff		 mov	 ecx, DWORD PTR tv65[ebp]
  0027d	8b 95 18 ff ff
	ff		 mov	 edx, DWORD PTR tv66[ebp]
  00283	8b 01		 mov	 eax, DWORD PTR [ecx]
  00285	03 02		 add	 eax, DWORD PTR [edx]
  00287	89 45 98	 mov	 DWORD PTR tv67[ebp], eax
  0028a	8d 8d b0 fd ff
	ff		 lea	 ecx, DWORD PTR $T2[ebp]
  00290	51		 push	 ecx
  00291	e8 00 00 00 00	 call	 ___asan_store4
  00296	83 c4 04	 add	 esp, 4
  00299	8b 55 98	 mov	 edx, DWORD PTR tv67[ebp]
  0029c	89 95 b0 fd ff
	ff		 mov	 DWORD PTR $T2[ebp], edx
  002a2	8d 85 b0 fd ff
	ff		 lea	 eax, DWORD PTR $T2[ebp]
  002a8	50		 push	 eax
  002a9	8b 8d 08 ff ff
	ff		 mov	 ecx, DWORD PTR _this$[ebp]
  002af	51		 push	 ecx
  002b0	e8 00 00 00 00	 call	 ??$min@H@std@@YAABHABH0@Z ; std::min<int>
  002b5	83 c4 08	 add	 esp, 8
  002b8	89 85 1c ff ff
	ff		 mov	 DWORD PTR tv64[ebp], eax
  002be	8b 95 1c ff ff
	ff		 mov	 edx, DWORD PTR tv64[ebp]
  002c4	52		 push	 edx
  002c5	e8 00 00 00 00	 call	 ___asan_load4
  002ca	83 c4 04	 add	 esp, 4
  002cd	8d 85 a0 fd ff
	ff		 lea	 eax, DWORD PTR _r1MinX$[ebp]
  002d3	50		 push	 eax
  002d4	e8 00 00 00 00	 call	 ___asan_store4
  002d9	83 c4 04	 add	 esp, 4
  002dc	8b 8d 1c ff ff
	ff		 mov	 ecx, DWORD PTR tv64[ebp]
  002e2	8b 11		 mov	 edx, DWORD PTR [ecx]
  002e4	89 95 a0 fd ff
	ff		 mov	 DWORD PTR _r1MinX$[ebp], edx
  002ea	8d 85 b0 fd ff
	ff		 lea	 eax, DWORD PTR $T2[ebp]
  002f0	c1 e8 03	 shr	 eax, 3
  002f3	c6 80 00 00 00
	30 f8		 mov	 BYTE PTR [eax+805306368], 248 ; 000000f8H

; 115  :     T r1MaxX = std::max(left, static_cast<T>(left + width));

  002fa	8b 8d 08 ff ff
	ff		 mov	 ecx, DWORD PTR _this$[ebp]
  00300	89 8d 20 ff ff
	ff		 mov	 DWORD PTR tv72[ebp], ecx
  00306	8b 95 08 ff ff
	ff		 mov	 edx, DWORD PTR _this$[ebp]
  0030c	83 c2 08	 add	 edx, 8
  0030f	89 95 24 ff ff
	ff		 mov	 DWORD PTR tv73[ebp], edx
  00315	8b 85 20 ff ff
	ff		 mov	 eax, DWORD PTR tv72[ebp]
  0031b	50		 push	 eax
  0031c	e8 00 00 00 00	 call	 ___asan_load4
  00321	83 c4 04	 add	 esp, 4
  00324	8b 8d 24 ff ff
	ff		 mov	 ecx, DWORD PTR tv73[ebp]
  0032a	51		 push	 ecx
  0032b	e8 00 00 00 00	 call	 ___asan_load4
  00330	83 c4 04	 add	 esp, 4
  00333	8b 95 20 ff ff
	ff		 mov	 edx, DWORD PTR tv72[ebp]
  00339	8b 85 24 ff ff
	ff		 mov	 eax, DWORD PTR tv73[ebp]
  0033f	8b 0a		 mov	 ecx, DWORD PTR [edx]
  00341	03 08		 add	 ecx, DWORD PTR [eax]
  00343	89 4d 9c	 mov	 DWORD PTR tv74[ebp], ecx
  00346	8d 95 d0 fd ff
	ff		 lea	 edx, DWORD PTR $T3[ebp]
  0034c	52		 push	 edx
  0034d	e8 00 00 00 00	 call	 ___asan_store4
  00352	83 c4 04	 add	 esp, 4
  00355	8b 45 9c	 mov	 eax, DWORD PTR tv74[ebp]
  00358	89 85 d0 fd ff
	ff		 mov	 DWORD PTR $T3[ebp], eax
  0035e	8d 8d d0 fd ff
	ff		 lea	 ecx, DWORD PTR $T3[ebp]
  00364	51		 push	 ecx
  00365	8b 95 08 ff ff
	ff		 mov	 edx, DWORD PTR _this$[ebp]
  0036b	52		 push	 edx
  0036c	e8 00 00 00 00	 call	 ??$max@H@std@@YAABHABH0@Z ; std::max<int>
  00371	83 c4 08	 add	 esp, 8
  00374	89 85 28 ff ff
	ff		 mov	 DWORD PTR tv71[ebp], eax
  0037a	8b 85 28 ff ff
	ff		 mov	 eax, DWORD PTR tv71[ebp]
  00380	50		 push	 eax
  00381	e8 00 00 00 00	 call	 ___asan_load4
  00386	83 c4 04	 add	 esp, 4
  00389	8d 8d c0 fd ff
	ff		 lea	 ecx, DWORD PTR _r1MaxX$[ebp]
  0038f	51		 push	 ecx
  00390	e8 00 00 00 00	 call	 ___asan_store4
  00395	83 c4 04	 add	 esp, 4
  00398	8b 95 28 ff ff
	ff		 mov	 edx, DWORD PTR tv71[ebp]
  0039e	8b 02		 mov	 eax, DWORD PTR [edx]
  003a0	89 85 c0 fd ff
	ff		 mov	 DWORD PTR _r1MaxX$[ebp], eax
  003a6	8d 8d d0 fd ff
	ff		 lea	 ecx, DWORD PTR $T3[ebp]
  003ac	c1 e9 03	 shr	 ecx, 3
  003af	c6 81 00 00 00
	30 f8		 mov	 BYTE PTR [ecx+805306368], 248 ; 000000f8H

; 116  :     T r1MinY = std::min(top, static_cast<T>(top + height));

  003b6	8b 95 08 ff ff
	ff		 mov	 edx, DWORD PTR _this$[ebp]
  003bc	83 c2 04	 add	 edx, 4
  003bf	89 95 2c ff ff
	ff		 mov	 DWORD PTR tv79[ebp], edx
  003c5	8b 85 08 ff ff
	ff		 mov	 eax, DWORD PTR _this$[ebp]
  003cb	83 c0 0c	 add	 eax, 12			; 0000000cH
  003ce	89 85 30 ff ff
	ff		 mov	 DWORD PTR tv80[ebp], eax
  003d4	8b 8d 2c ff ff
	ff		 mov	 ecx, DWORD PTR tv79[ebp]
  003da	51		 push	 ecx
  003db	e8 00 00 00 00	 call	 ___asan_load4
  003e0	83 c4 04	 add	 esp, 4
  003e3	8b 95 30 ff ff
	ff		 mov	 edx, DWORD PTR tv80[ebp]
  003e9	52		 push	 edx
  003ea	e8 00 00 00 00	 call	 ___asan_load4
  003ef	83 c4 04	 add	 esp, 4
  003f2	8b 85 2c ff ff
	ff		 mov	 eax, DWORD PTR tv79[ebp]
  003f8	8b 8d 30 ff ff
	ff		 mov	 ecx, DWORD PTR tv80[ebp]
  003fe	8b 10		 mov	 edx, DWORD PTR [eax]
  00400	03 11		 add	 edx, DWORD PTR [ecx]
  00402	89 55 a0	 mov	 DWORD PTR tv81[ebp], edx
  00405	8d 85 f0 fd ff
	ff		 lea	 eax, DWORD PTR $T4[ebp]
  0040b	50		 push	 eax
  0040c	e8 00 00 00 00	 call	 ___asan_store4
  00411	83 c4 04	 add	 esp, 4
  00414	8b 4d a0	 mov	 ecx, DWORD PTR tv81[ebp]
  00417	89 8d f0 fd ff
	ff		 mov	 DWORD PTR $T4[ebp], ecx
  0041d	8d 95 f0 fd ff
	ff		 lea	 edx, DWORD PTR $T4[ebp]
  00423	52		 push	 edx
  00424	8b 85 08 ff ff
	ff		 mov	 eax, DWORD PTR _this$[ebp]
  0042a	83 c0 04	 add	 eax, 4
  0042d	50		 push	 eax
  0042e	e8 00 00 00 00	 call	 ??$min@H@std@@YAABHABH0@Z ; std::min<int>
  00433	83 c4 08	 add	 esp, 8
  00436	89 85 34 ff ff
	ff		 mov	 DWORD PTR tv78[ebp], eax
  0043c	8b 8d 34 ff ff
	ff		 mov	 ecx, DWORD PTR tv78[ebp]
  00442	51		 push	 ecx
  00443	e8 00 00 00 00	 call	 ___asan_load4
  00448	83 c4 04	 add	 esp, 4
  0044b	8d 95 e0 fd ff
	ff		 lea	 edx, DWORD PTR _r1MinY$[ebp]
  00451	52		 push	 edx
  00452	e8 00 00 00 00	 call	 ___asan_store4
  00457	83 c4 04	 add	 esp, 4
  0045a	8b 85 34 ff ff
	ff		 mov	 eax, DWORD PTR tv78[ebp]
  00460	8b 08		 mov	 ecx, DWORD PTR [eax]
  00462	89 8d e0 fd ff
	ff		 mov	 DWORD PTR _r1MinY$[ebp], ecx
  00468	8d 95 f0 fd ff
	ff		 lea	 edx, DWORD PTR $T4[ebp]
  0046e	c1 ea 03	 shr	 edx, 3
  00471	c6 82 00 00 00
	30 f8		 mov	 BYTE PTR [edx+805306368], 248 ; 000000f8H

; 117  :     T r1MaxY = std::max(top, static_cast<T>(top + height));

  00478	8b 85 08 ff ff
	ff		 mov	 eax, DWORD PTR _this$[ebp]
  0047e	83 c0 04	 add	 eax, 4
  00481	89 85 38 ff ff
	ff		 mov	 DWORD PTR tv86[ebp], eax
  00487	8b 8d 08 ff ff
	ff		 mov	 ecx, DWORD PTR _this$[ebp]
  0048d	83 c1 0c	 add	 ecx, 12			; 0000000cH
  00490	89 8d 3c ff ff
	ff		 mov	 DWORD PTR tv87[ebp], ecx
  00496	8b 95 38 ff ff
	ff		 mov	 edx, DWORD PTR tv86[ebp]
  0049c	52		 push	 edx
  0049d	e8 00 00 00 00	 call	 ___asan_load4
  004a2	83 c4 04	 add	 esp, 4
  004a5	8b 85 3c ff ff
	ff		 mov	 eax, DWORD PTR tv87[ebp]
  004ab	50		 push	 eax
  004ac	e8 00 00 00 00	 call	 ___asan_load4
  004b1	83 c4 04	 add	 esp, 4
  004b4	8b 8d 38 ff ff
	ff		 mov	 ecx, DWORD PTR tv86[ebp]
  004ba	8b 95 3c ff ff
	ff		 mov	 edx, DWORD PTR tv87[ebp]
  004c0	8b 01		 mov	 eax, DWORD PTR [ecx]
  004c2	03 02		 add	 eax, DWORD PTR [edx]
  004c4	89 45 a4	 mov	 DWORD PTR tv88[ebp], eax
  004c7	8d 8d 10 fe ff
	ff		 lea	 ecx, DWORD PTR $T5[ebp]
  004cd	51		 push	 ecx
  004ce	e8 00 00 00 00	 call	 ___asan_store4
  004d3	83 c4 04	 add	 esp, 4
  004d6	8b 55 a4	 mov	 edx, DWORD PTR tv88[ebp]
  004d9	89 95 10 fe ff
	ff		 mov	 DWORD PTR $T5[ebp], edx
  004df	8d 85 10 fe ff
	ff		 lea	 eax, DWORD PTR $T5[ebp]
  004e5	50		 push	 eax
  004e6	8b 8d 08 ff ff
	ff		 mov	 ecx, DWORD PTR _this$[ebp]
  004ec	83 c1 04	 add	 ecx, 4
  004ef	51		 push	 ecx
  004f0	e8 00 00 00 00	 call	 ??$max@H@std@@YAABHABH0@Z ; std::max<int>
  004f5	83 c4 08	 add	 esp, 8
  004f8	89 85 40 ff ff
	ff		 mov	 DWORD PTR tv85[ebp], eax
  004fe	8b 95 40 ff ff
	ff		 mov	 edx, DWORD PTR tv85[ebp]
  00504	52		 push	 edx
  00505	e8 00 00 00 00	 call	 ___asan_load4
  0050a	83 c4 04	 add	 esp, 4
  0050d	8d 85 00 fe ff
	ff		 lea	 eax, DWORD PTR _r1MaxY$[ebp]
  00513	50		 push	 eax
  00514	e8 00 00 00 00	 call	 ___asan_store4
  00519	83 c4 04	 add	 esp, 4
  0051c	8b 8d 40 ff ff
	ff		 mov	 ecx, DWORD PTR tv85[ebp]
  00522	8b 11		 mov	 edx, DWORD PTR [ecx]
  00524	89 95 00 fe ff
	ff		 mov	 DWORD PTR _r1MaxY$[ebp], edx
  0052a	8d 85 10 fe ff
	ff		 lea	 eax, DWORD PTR $T5[ebp]
  00530	c1 e8 03	 shr	 eax, 3
  00533	c6 80 00 00 00
	30 f8		 mov	 BYTE PTR [eax+805306368], 248 ; 000000f8H

; 118  : 
; 119  :     // Compute the min and max of the second rectangle on both axes
; 120  :     T r2MinX = std::min(rectangle.left, static_cast<T>(rectangle.left + rectangle.width));

  0053a	8b 4b 08	 mov	 ecx, DWORD PTR _rectangle$[ebx]
  0053d	89 8d 44 ff ff
	ff		 mov	 DWORD PTR tv93[ebp], ecx
  00543	8b 53 08	 mov	 edx, DWORD PTR _rectangle$[ebx]
  00546	83 c2 08	 add	 edx, 8
  00549	89 95 48 ff ff
	ff		 mov	 DWORD PTR tv94[ebp], edx
  0054f	8b 85 44 ff ff
	ff		 mov	 eax, DWORD PTR tv93[ebp]
  00555	50		 push	 eax
  00556	e8 00 00 00 00	 call	 ___asan_load4
  0055b	83 c4 04	 add	 esp, 4
  0055e	8b 8d 48 ff ff
	ff		 mov	 ecx, DWORD PTR tv94[ebp]
  00564	51		 push	 ecx
  00565	e8 00 00 00 00	 call	 ___asan_load4
  0056a	83 c4 04	 add	 esp, 4
  0056d	8b 95 44 ff ff
	ff		 mov	 edx, DWORD PTR tv93[ebp]
  00573	8b 85 48 ff ff
	ff		 mov	 eax, DWORD PTR tv94[ebp]
  00579	8b 0a		 mov	 ecx, DWORD PTR [edx]
  0057b	03 08		 add	 ecx, DWORD PTR [eax]
  0057d	89 4d a8	 mov	 DWORD PTR tv95[ebp], ecx
  00580	8d 95 30 fe ff
	ff		 lea	 edx, DWORD PTR $T6[ebp]
  00586	52		 push	 edx
  00587	e8 00 00 00 00	 call	 ___asan_store4
  0058c	83 c4 04	 add	 esp, 4
  0058f	8b 45 a8	 mov	 eax, DWORD PTR tv95[ebp]
  00592	89 85 30 fe ff
	ff		 mov	 DWORD PTR $T6[ebp], eax
  00598	8d 8d 30 fe ff
	ff		 lea	 ecx, DWORD PTR $T6[ebp]
  0059e	51		 push	 ecx
  0059f	8b 53 08	 mov	 edx, DWORD PTR _rectangle$[ebx]
  005a2	52		 push	 edx
  005a3	e8 00 00 00 00	 call	 ??$min@H@std@@YAABHABH0@Z ; std::min<int>
  005a8	83 c4 08	 add	 esp, 8
  005ab	89 85 4c ff ff
	ff		 mov	 DWORD PTR tv92[ebp], eax
  005b1	8b 85 4c ff ff
	ff		 mov	 eax, DWORD PTR tv92[ebp]
  005b7	50		 push	 eax
  005b8	e8 00 00 00 00	 call	 ___asan_load4
  005bd	83 c4 04	 add	 esp, 4
  005c0	8d 8d 20 fe ff
	ff		 lea	 ecx, DWORD PTR _r2MinX$[ebp]
  005c6	51		 push	 ecx
  005c7	e8 00 00 00 00	 call	 ___asan_store4
  005cc	83 c4 04	 add	 esp, 4
  005cf	8b 95 4c ff ff
	ff		 mov	 edx, DWORD PTR tv92[ebp]
  005d5	8b 02		 mov	 eax, DWORD PTR [edx]
  005d7	89 85 20 fe ff
	ff		 mov	 DWORD PTR _r2MinX$[ebp], eax
  005dd	8d 8d 30 fe ff
	ff		 lea	 ecx, DWORD PTR $T6[ebp]
  005e3	c1 e9 03	 shr	 ecx, 3
  005e6	c6 81 00 00 00
	30 f8		 mov	 BYTE PTR [ecx+805306368], 248 ; 000000f8H

; 121  :     T r2MaxX = std::max(rectangle.left, static_cast<T>(rectangle.left + rectangle.width));

  005ed	8b 53 08	 mov	 edx, DWORD PTR _rectangle$[ebx]
  005f0	89 95 50 ff ff
	ff		 mov	 DWORD PTR tv132[ebp], edx
  005f6	8b 43 08	 mov	 eax, DWORD PTR _rectangle$[ebx]
  005f9	83 c0 08	 add	 eax, 8
  005fc	89 85 54 ff ff
	ff		 mov	 DWORD PTR tv133[ebp], eax
  00602	8b 8d 50 ff ff
	ff		 mov	 ecx, DWORD PTR tv132[ebp]
  00608	51		 push	 ecx
  00609	e8 00 00 00 00	 call	 ___asan_load4
  0060e	83 c4 04	 add	 esp, 4
  00611	8b 95 54 ff ff
	ff		 mov	 edx, DWORD PTR tv133[ebp]
  00617	52		 push	 edx
  00618	e8 00 00 00 00	 call	 ___asan_load4
  0061d	83 c4 04	 add	 esp, 4
  00620	8b 85 50 ff ff
	ff		 mov	 eax, DWORD PTR tv132[ebp]
  00626	8b 8d 54 ff ff
	ff		 mov	 ecx, DWORD PTR tv133[ebp]
  0062c	8b 10		 mov	 edx, DWORD PTR [eax]
  0062e	03 11		 add	 edx, DWORD PTR [ecx]
  00630	89 55 ac	 mov	 DWORD PTR tv134[ebp], edx
  00633	8d 85 50 fe ff
	ff		 lea	 eax, DWORD PTR $T7[ebp]
  00639	50		 push	 eax
  0063a	e8 00 00 00 00	 call	 ___asan_store4
  0063f	83 c4 04	 add	 esp, 4
  00642	8b 4d ac	 mov	 ecx, DWORD PTR tv134[ebp]
  00645	89 8d 50 fe ff
	ff		 mov	 DWORD PTR $T7[ebp], ecx
  0064b	8d 95 50 fe ff
	ff		 lea	 edx, DWORD PTR $T7[ebp]
  00651	52		 push	 edx
  00652	8b 43 08	 mov	 eax, DWORD PTR _rectangle$[ebx]
  00655	50		 push	 eax
  00656	e8 00 00 00 00	 call	 ??$max@H@std@@YAABHABH0@Z ; std::max<int>
  0065b	83 c4 08	 add	 esp, 8
  0065e	89 85 58 ff ff
	ff		 mov	 DWORD PTR tv131[ebp], eax
  00664	8b 8d 58 ff ff
	ff		 mov	 ecx, DWORD PTR tv131[ebp]
  0066a	51		 push	 ecx
  0066b	e8 00 00 00 00	 call	 ___asan_load4
  00670	83 c4 04	 add	 esp, 4
  00673	8d 95 40 fe ff
	ff		 lea	 edx, DWORD PTR _r2MaxX$[ebp]
  00679	52		 push	 edx
  0067a	e8 00 00 00 00	 call	 ___asan_store4
  0067f	83 c4 04	 add	 esp, 4
  00682	8b 85 58 ff ff
	ff		 mov	 eax, DWORD PTR tv131[ebp]
  00688	8b 08		 mov	 ecx, DWORD PTR [eax]
  0068a	89 8d 40 fe ff
	ff		 mov	 DWORD PTR _r2MaxX$[ebp], ecx
  00690	8d 95 50 fe ff
	ff		 lea	 edx, DWORD PTR $T7[ebp]
  00696	c1 ea 03	 shr	 edx, 3
  00699	c6 82 00 00 00
	30 f8		 mov	 BYTE PTR [edx+805306368], 248 ; 000000f8H

; 122  :     T r2MinY = std::min(rectangle.top, static_cast<T>(rectangle.top + rectangle.height));

  006a0	8b 43 08	 mov	 eax, DWORD PTR _rectangle$[ebx]
  006a3	83 c0 04	 add	 eax, 4
  006a6	89 85 5c ff ff
	ff		 mov	 DWORD PTR tv139[ebp], eax
  006ac	8b 4b 08	 mov	 ecx, DWORD PTR _rectangle$[ebx]
  006af	83 c1 0c	 add	 ecx, 12			; 0000000cH
  006b2	89 8d 60 ff ff
	ff		 mov	 DWORD PTR tv140[ebp], ecx
  006b8	8b 95 5c ff ff
	ff		 mov	 edx, DWORD PTR tv139[ebp]
  006be	52		 push	 edx
  006bf	e8 00 00 00 00	 call	 ___asan_load4
  006c4	83 c4 04	 add	 esp, 4
  006c7	8b 85 60 ff ff
	ff		 mov	 eax, DWORD PTR tv140[ebp]
  006cd	50		 push	 eax
  006ce	e8 00 00 00 00	 call	 ___asan_load4
  006d3	83 c4 04	 add	 esp, 4
  006d6	8b 8d 5c ff ff
	ff		 mov	 ecx, DWORD PTR tv139[ebp]
  006dc	8b 95 60 ff ff
	ff		 mov	 edx, DWORD PTR tv140[ebp]
  006e2	8b 01		 mov	 eax, DWORD PTR [ecx]
  006e4	03 02		 add	 eax, DWORD PTR [edx]
  006e6	89 45 b0	 mov	 DWORD PTR tv141[ebp], eax
  006e9	8d 8d 70 fe ff
	ff		 lea	 ecx, DWORD PTR $T8[ebp]
  006ef	51		 push	 ecx
  006f0	e8 00 00 00 00	 call	 ___asan_store4
  006f5	83 c4 04	 add	 esp, 4
  006f8	8b 55 b0	 mov	 edx, DWORD PTR tv141[ebp]
  006fb	89 95 70 fe ff
	ff		 mov	 DWORD PTR $T8[ebp], edx
  00701	8d 85 70 fe ff
	ff		 lea	 eax, DWORD PTR $T8[ebp]
  00707	50		 push	 eax
  00708	8b 4b 08	 mov	 ecx, DWORD PTR _rectangle$[ebx]
  0070b	83 c1 04	 add	 ecx, 4
  0070e	51		 push	 ecx
  0070f	e8 00 00 00 00	 call	 ??$min@H@std@@YAABHABH0@Z ; std::min<int>
  00714	83 c4 08	 add	 esp, 8
  00717	89 85 64 ff ff
	ff		 mov	 DWORD PTR tv138[ebp], eax
  0071d	8b 95 64 ff ff
	ff		 mov	 edx, DWORD PTR tv138[ebp]
  00723	52		 push	 edx
  00724	e8 00 00 00 00	 call	 ___asan_load4
  00729	83 c4 04	 add	 esp, 4
  0072c	8d 85 60 fe ff
	ff		 lea	 eax, DWORD PTR _r2MinY$[ebp]
  00732	50		 push	 eax
  00733	e8 00 00 00 00	 call	 ___asan_store4
  00738	83 c4 04	 add	 esp, 4
  0073b	8b 8d 64 ff ff
	ff		 mov	 ecx, DWORD PTR tv138[ebp]
  00741	8b 11		 mov	 edx, DWORD PTR [ecx]
  00743	89 95 60 fe ff
	ff		 mov	 DWORD PTR _r2MinY$[ebp], edx
  00749	8d 85 70 fe ff
	ff		 lea	 eax, DWORD PTR $T8[ebp]
  0074f	c1 e8 03	 shr	 eax, 3
  00752	c6 80 00 00 00
	30 f8		 mov	 BYTE PTR [eax+805306368], 248 ; 000000f8H

; 123  :     T r2MaxY = std::max(rectangle.top, static_cast<T>(rectangle.top + rectangle.height));

  00759	8b 4b 08	 mov	 ecx, DWORD PTR _rectangle$[ebx]
  0075c	83 c1 04	 add	 ecx, 4
  0075f	89 8d 68 ff ff
	ff		 mov	 DWORD PTR tv146[ebp], ecx
  00765	8b 53 08	 mov	 edx, DWORD PTR _rectangle$[ebx]
  00768	83 c2 0c	 add	 edx, 12			; 0000000cH
  0076b	89 95 6c ff ff
	ff		 mov	 DWORD PTR tv147[ebp], edx
  00771	8b 85 68 ff ff
	ff		 mov	 eax, DWORD PTR tv146[ebp]
  00777	50		 push	 eax
  00778	e8 00 00 00 00	 call	 ___asan_load4
  0077d	83 c4 04	 add	 esp, 4
  00780	8b 8d 6c ff ff
	ff		 mov	 ecx, DWORD PTR tv147[ebp]
  00786	51		 push	 ecx
  00787	e8 00 00 00 00	 call	 ___asan_load4
  0078c	83 c4 04	 add	 esp, 4
  0078f	8b 95 68 ff ff
	ff		 mov	 edx, DWORD PTR tv146[ebp]
  00795	8b 85 6c ff ff
	ff		 mov	 eax, DWORD PTR tv147[ebp]
  0079b	8b 0a		 mov	 ecx, DWORD PTR [edx]
  0079d	03 08		 add	 ecx, DWORD PTR [eax]
  0079f	89 4d b4	 mov	 DWORD PTR tv148[ebp], ecx
  007a2	8d 95 90 fe ff
	ff		 lea	 edx, DWORD PTR $T9[ebp]
  007a8	52		 push	 edx
  007a9	e8 00 00 00 00	 call	 ___asan_store4
  007ae	83 c4 04	 add	 esp, 4
  007b1	8b 45 b4	 mov	 eax, DWORD PTR tv148[ebp]
  007b4	89 85 90 fe ff
	ff		 mov	 DWORD PTR $T9[ebp], eax
  007ba	8d 8d 90 fe ff
	ff		 lea	 ecx, DWORD PTR $T9[ebp]
  007c0	51		 push	 ecx
  007c1	8b 53 08	 mov	 edx, DWORD PTR _rectangle$[ebx]
  007c4	83 c2 04	 add	 edx, 4
  007c7	52		 push	 edx
  007c8	e8 00 00 00 00	 call	 ??$max@H@std@@YAABHABH0@Z ; std::max<int>
  007cd	83 c4 08	 add	 esp, 8
  007d0	89 85 70 ff ff
	ff		 mov	 DWORD PTR tv145[ebp], eax
  007d6	8b 85 70 ff ff
	ff		 mov	 eax, DWORD PTR tv145[ebp]
  007dc	50		 push	 eax
  007dd	e8 00 00 00 00	 call	 ___asan_load4
  007e2	83 c4 04	 add	 esp, 4
  007e5	8d 8d 80 fe ff
	ff		 lea	 ecx, DWORD PTR _r2MaxY$[ebp]
  007eb	51		 push	 ecx
  007ec	e8 00 00 00 00	 call	 ___asan_store4
  007f1	83 c4 04	 add	 esp, 4
  007f4	8b 95 70 ff ff
	ff		 mov	 edx, DWORD PTR tv145[ebp]
  007fa	8b 02		 mov	 eax, DWORD PTR [edx]
  007fc	89 85 80 fe ff
	ff		 mov	 DWORD PTR _r2MaxY$[ebp], eax
  00802	8d 8d 90 fe ff
	ff		 lea	 ecx, DWORD PTR $T9[ebp]
  00808	c1 e9 03	 shr	 ecx, 3
  0080b	c6 81 00 00 00
	30 f8		 mov	 BYTE PTR [ecx+805306368], 248 ; 000000f8H

; 124  : 
; 125  :     // Compute the intersection boundaries
; 126  :     T interLeft   = std::max(r1MinX, r2MinX);

  00812	8d 95 20 fe ff
	ff		 lea	 edx, DWORD PTR _r2MinX$[ebp]
  00818	52		 push	 edx
  00819	8d 85 a0 fd ff
	ff		 lea	 eax, DWORD PTR _r1MinX$[ebp]
  0081f	50		 push	 eax
  00820	e8 00 00 00 00	 call	 ??$max@H@std@@YAABHABH0@Z ; std::max<int>
  00825	83 c4 08	 add	 esp, 8
  00828	89 85 74 ff ff
	ff		 mov	 DWORD PTR tv152[ebp], eax
  0082e	8b 8d 74 ff ff
	ff		 mov	 ecx, DWORD PTR tv152[ebp]
  00834	51		 push	 ecx
  00835	e8 00 00 00 00	 call	 ___asan_load4
  0083a	83 c4 04	 add	 esp, 4
  0083d	8b 95 74 ff ff
	ff		 mov	 edx, DWORD PTR tv152[ebp]
  00843	8b 02		 mov	 eax, DWORD PTR [edx]
  00845	89 85 10 ff ff
	ff		 mov	 DWORD PTR _interLeft$[ebp], eax

; 127  :     T interTop    = std::max(r1MinY, r2MinY);

  0084b	8d 8d 60 fe ff
	ff		 lea	 ecx, DWORD PTR _r2MinY$[ebp]
  00851	51		 push	 ecx
  00852	8d 95 e0 fd ff
	ff		 lea	 edx, DWORD PTR _r1MinY$[ebp]
  00858	52		 push	 edx
  00859	e8 00 00 00 00	 call	 ??$max@H@std@@YAABHABH0@Z ; std::max<int>
  0085e	83 c4 08	 add	 esp, 8
  00861	89 85 78 ff ff
	ff		 mov	 DWORD PTR tv155[ebp], eax
  00867	8b 85 78 ff ff
	ff		 mov	 eax, DWORD PTR tv155[ebp]
  0086d	50		 push	 eax
  0086e	e8 00 00 00 00	 call	 ___asan_load4
  00873	83 c4 04	 add	 esp, 4
  00876	8b 8d 78 ff ff
	ff		 mov	 ecx, DWORD PTR tv155[ebp]
  0087c	8b 11		 mov	 edx, DWORD PTR [ecx]
  0087e	89 95 0c ff ff
	ff		 mov	 DWORD PTR _interTop$[ebp], edx

; 128  :     T interRight  = std::min(r1MaxX, r2MaxX);

  00884	8d 85 40 fe ff
	ff		 lea	 eax, DWORD PTR _r2MaxX$[ebp]
  0088a	50		 push	 eax
  0088b	8d 8d c0 fd ff
	ff		 lea	 ecx, DWORD PTR _r1MaxX$[ebp]
  00891	51		 push	 ecx
  00892	e8 00 00 00 00	 call	 ??$min@H@std@@YAABHABH0@Z ; std::min<int>
  00897	83 c4 08	 add	 esp, 8
  0089a	89 85 7c ff ff
	ff		 mov	 DWORD PTR tv158[ebp], eax
  008a0	8b 95 7c ff ff
	ff		 mov	 edx, DWORD PTR tv158[ebp]
  008a6	52		 push	 edx
  008a7	e8 00 00 00 00	 call	 ___asan_load4
  008ac	83 c4 04	 add	 esp, 4
  008af	8b 85 7c ff ff
	ff		 mov	 eax, DWORD PTR tv158[ebp]
  008b5	8b 08		 mov	 ecx, DWORD PTR [eax]
  008b7	89 4d 88	 mov	 DWORD PTR _interRight$[ebp], ecx

; 129  :     T interBottom = std::min(r1MaxY, r2MaxY);

  008ba	8d 95 80 fe ff
	ff		 lea	 edx, DWORD PTR _r2MaxY$[ebp]
  008c0	52		 push	 edx
  008c1	8d 85 00 fe ff
	ff		 lea	 eax, DWORD PTR _r1MaxY$[ebp]
  008c7	50		 push	 eax
  008c8	e8 00 00 00 00	 call	 ??$min@H@std@@YAABHABH0@Z ; std::min<int>
  008cd	83 c4 08	 add	 esp, 8
  008d0	89 45 80	 mov	 DWORD PTR tv161[ebp], eax
  008d3	8b 4d 80	 mov	 ecx, DWORD PTR tv161[ebp]
  008d6	51		 push	 ecx
  008d7	e8 00 00 00 00	 call	 ___asan_load4
  008dc	83 c4 04	 add	 esp, 4
  008df	8b 55 80	 mov	 edx, DWORD PTR tv161[ebp]
  008e2	8b 02		 mov	 eax, DWORD PTR [edx]
  008e4	89 45 84	 mov	 DWORD PTR _interBottom$[ebp], eax

; 130  : 
; 131  :     // If the intersection is valid (positive non zero area), then there is an intersection
; 132  :     if ((interLeft < interRight) && (interTop < interBottom))

  008e7	8b 8d 10 ff ff
	ff		 mov	 ecx, DWORD PTR _interLeft$[ebp]
  008ed	3b 4d 88	 cmp	 ecx, DWORD PTR _interRight$[ebp]
  008f0	0f 8d 05 01 00
	00		 jge	 $LN2@intersects
  008f6	8b 95 0c ff ff
	ff		 mov	 edx, DWORD PTR _interTop$[ebp]
  008fc	3b 55 84	 cmp	 edx, DWORD PTR _interBottom$[ebp]
  008ff	0f 8d f6 00 00
	00		 jge	 $LN2@intersects
  00905	8d 85 a0 fe ff
	ff		 lea	 eax, DWORD PTR $T10[ebp]
  0090b	c1 e8 03	 shr	 eax, 3
  0090e	05 00 00 00 30	 add	 eax, 805306368		; 30000000H
  00913	89 45 b8	 mov	 DWORD PTR tv355[ebp], eax
  00916	6a 02		 push	 2
  00918	8b 4d b8	 mov	 ecx, DWORD PTR tv355[ebp]
  0091b	51		 push	 ecx
  0091c	e8 00 00 00 00	 call	 ___asan_set_shadow_00
  00921	83 c4 08	 add	 esp, 8

; 133  :     {
; 134  :         intersection = Rect<T>(interLeft, interTop, interRight - interLeft, interBottom - interTop);

  00924	8b 55 84	 mov	 edx, DWORD PTR _interBottom$[ebp]
  00927	2b 95 0c ff ff
	ff		 sub	 edx, DWORD PTR _interTop$[ebp]
  0092d	52		 push	 edx
  0092e	8b 45 88	 mov	 eax, DWORD PTR _interRight$[ebp]
  00931	2b 85 10 ff ff
	ff		 sub	 eax, DWORD PTR _interLeft$[ebp]
  00937	50		 push	 eax
  00938	8b 8d 0c ff ff
	ff		 mov	 ecx, DWORD PTR _interTop$[ebp]
  0093e	51		 push	 ecx
  0093f	8b 95 10 ff ff
	ff		 mov	 edx, DWORD PTR _interLeft$[ebp]
  00945	52		 push	 edx
  00946	8d 8d a0 fe ff
	ff		 lea	 ecx, DWORD PTR $T10[ebp]
  0094c	e8 00 00 00 00	 call	 ??0?$Rect@H@sf@@QAE@HHHH@Z ; sf::Rect<int>::Rect<int>
  00951	89 45 8c	 mov	 DWORD PTR tv167[ebp], eax
  00954	8b 45 8c	 mov	 eax, DWORD PTR tv167[ebp]
  00957	50		 push	 eax
  00958	e8 00 00 00 00	 call	 ___asan_load16
  0095d	83 c4 04	 add	 esp, 4
  00960	8b 4d 8c	 mov	 ecx, DWORD PTR tv167[ebp]
  00963	8b 11		 mov	 edx, DWORD PTR [ecx]
  00965	89 55 d8	 mov	 DWORD PTR $T12[ebp], edx
  00968	8b 41 04	 mov	 eax, DWORD PTR [ecx+4]
  0096b	89 45 dc	 mov	 DWORD PTR $T12[ebp+4], eax
  0096e	8b 51 08	 mov	 edx, DWORD PTR [ecx+8]
  00971	89 55 e0	 mov	 DWORD PTR $T12[ebp+8], edx
  00974	8b 41 0c	 mov	 eax, DWORD PTR [ecx+12]
  00977	89 45 e4	 mov	 DWORD PTR $T12[ebp+12], eax
  0097a	8b 4b 0c	 mov	 ecx, DWORD PTR _intersection$[ebx]
  0097d	89 4d bc	 mov	 DWORD PTR tv273[ebp], ecx
  00980	8b 55 bc	 mov	 edx, DWORD PTR tv273[ebp]
  00983	52		 push	 edx
  00984	e8 00 00 00 00	 call	 ___asan_store16
  00989	83 c4 04	 add	 esp, 4
  0098c	8b 43 0c	 mov	 eax, DWORD PTR _intersection$[ebx]
  0098f	8b 4d d8	 mov	 ecx, DWORD PTR $T12[ebp]
  00992	89 08		 mov	 DWORD PTR [eax], ecx
  00994	8b 55 dc	 mov	 edx, DWORD PTR $T12[ebp+4]
  00997	89 50 04	 mov	 DWORD PTR [eax+4], edx
  0099a	8b 4d e0	 mov	 ecx, DWORD PTR $T12[ebp+8]
  0099d	89 48 08	 mov	 DWORD PTR [eax+8], ecx
  009a0	8b 55 e4	 mov	 edx, DWORD PTR $T12[ebp+12]
  009a3	89 50 0c	 mov	 DWORD PTR [eax+12], edx
  009a6	8d 85 a0 fe ff
	ff		 lea	 eax, DWORD PTR $T10[ebp]
  009ac	c1 e8 03	 shr	 eax, 3
  009af	05 00 00 00 30	 add	 eax, 805306368		; 30000000H
  009b4	89 45 c0	 mov	 DWORD PTR tv361[ebp], eax
  009b7	6a 02		 push	 2
  009b9	8b 4d c0	 mov	 ecx, DWORD PTR tv361[ebp]
  009bc	51		 push	 ecx
  009bd	e8 00 00 00 00	 call	 ___asan_set_shadow_f8
  009c2	83 c4 08	 add	 esp, 8

; 135  :         return true;

  009c5	c7 85 90 fd ff
	ff 0e 36 e0 45	 mov	 DWORD PTR __asan_gen_0$[ebp], 1172321806 ; 45e0360eH
  009cf	8d 95 90 fd ff
	ff		 lea	 edx, DWORD PTR __asan_gen_0$[ebp]
  009d5	c1 ea 03	 shr	 edx, 3
  009d8	81 c2 00 00 00
	30		 add	 edx, 805306368		; 30000000H
  009de	89 55 c4	 mov	 DWORD PTR tv379[ebp], edx
  009e1	6a 2e		 push	 46			; 0000002eH
  009e3	8b 45 c4	 mov	 eax, DWORD PTR tv379[ebp]
  009e6	50		 push	 eax
  009e7	e8 00 00 00 00	 call	 ___asan_set_shadow_00
  009ec	83 c4 08	 add	 esp, 8
  009ef	b0 01		 mov	 al, 1
  009f1	e9 d8 00 00 00	 jmp	 $LN1@intersects

; 136  :     }

  009f6	e9 d3 00 00 00	 jmp	 $LN1@intersects
$LN2@intersects:
  009fb	8d 8d d0 fe ff
	ff		 lea	 ecx, DWORD PTR $T11[ebp]
  00a01	c1 e9 03	 shr	 ecx, 3
  00a04	81 c1 00 00 00
	30		 add	 ecx, 805306368		; 30000000H
  00a0a	89 4d c8	 mov	 DWORD PTR tv367[ebp], ecx
  00a0d	6a 02		 push	 2
  00a0f	8b 55 c8	 mov	 edx, DWORD PTR tv367[ebp]
  00a12	52		 push	 edx
  00a13	e8 00 00 00 00	 call	 ___asan_set_shadow_00
  00a18	83 c4 08	 add	 esp, 8

; 137  :     else
; 138  :     {
; 139  :         intersection = Rect<T>(0, 0, 0, 0);

  00a1b	6a 00		 push	 0
  00a1d	6a 00		 push	 0
  00a1f	6a 00		 push	 0
  00a21	6a 00		 push	 0
  00a23	8d 8d d0 fe ff
	ff		 lea	 ecx, DWORD PTR $T11[ebp]
  00a29	e8 00 00 00 00	 call	 ??0?$Rect@H@sf@@QAE@HHHH@Z ; sf::Rect<int>::Rect<int>
  00a2e	89 45 90	 mov	 DWORD PTR tv176[ebp], eax
  00a31	8b 45 90	 mov	 eax, DWORD PTR tv176[ebp]
  00a34	50		 push	 eax
  00a35	e8 00 00 00 00	 call	 ___asan_load16
  00a3a	83 c4 04	 add	 esp, 4
  00a3d	8b 4d 90	 mov	 ecx, DWORD PTR tv176[ebp]
  00a40	8b 11		 mov	 edx, DWORD PTR [ecx]
  00a42	89 55 e8	 mov	 DWORD PTR $T13[ebp], edx
  00a45	8b 41 04	 mov	 eax, DWORD PTR [ecx+4]
  00a48	89 45 ec	 mov	 DWORD PTR $T13[ebp+4], eax
  00a4b	8b 51 08	 mov	 edx, DWORD PTR [ecx+8]
  00a4e	89 55 f0	 mov	 DWORD PTR $T13[ebp+8], edx
  00a51	8b 41 0c	 mov	 eax, DWORD PTR [ecx+12]
  00a54	89 45 f4	 mov	 DWORD PTR $T13[ebp+12], eax
  00a57	8b 4b 0c	 mov	 ecx, DWORD PTR _intersection$[ebx]
  00a5a	89 4d cc	 mov	 DWORD PTR tv278[ebp], ecx
  00a5d	8b 55 cc	 mov	 edx, DWORD PTR tv278[ebp]
  00a60	52		 push	 edx
  00a61	e8 00 00 00 00	 call	 ___asan_store16
  00a66	83 c4 04	 add	 esp, 4
  00a69	8b 43 0c	 mov	 eax, DWORD PTR _intersection$[ebx]
  00a6c	8b 4d e8	 mov	 ecx, DWORD PTR $T13[ebp]
  00a6f	89 08		 mov	 DWORD PTR [eax], ecx
  00a71	8b 55 ec	 mov	 edx, DWORD PTR $T13[ebp+4]
  00a74	89 50 04	 mov	 DWORD PTR [eax+4], edx
  00a77	8b 4d f0	 mov	 ecx, DWORD PTR $T13[ebp+8]
  00a7a	89 48 08	 mov	 DWORD PTR [eax+8], ecx
  00a7d	8b 55 f4	 mov	 edx, DWORD PTR $T13[ebp+12]
  00a80	89 50 0c	 mov	 DWORD PTR [eax+12], edx
  00a83	8d 85 d0 fe ff
	ff		 lea	 eax, DWORD PTR $T11[ebp]
  00a89	c1 e8 03	 shr	 eax, 3
  00a8c	05 00 00 00 30	 add	 eax, 805306368		; 30000000H
  00a91	89 45 d0	 mov	 DWORD PTR tv373[ebp], eax
  00a94	6a 02		 push	 2
  00a96	8b 4d d0	 mov	 ecx, DWORD PTR tv373[ebp]
  00a99	51		 push	 ecx
  00a9a	e8 00 00 00 00	 call	 ___asan_set_shadow_f8
  00a9f	83 c4 08	 add	 esp, 8

; 140  :         return false;

  00aa2	c7 85 90 fd ff
	ff 0e 36 e0 45	 mov	 DWORD PTR __asan_gen_0$[ebp], 1172321806 ; 45e0360eH
  00aac	8d 95 90 fd ff
	ff		 lea	 edx, DWORD PTR __asan_gen_0$[ebp]
  00ab2	c1 ea 03	 shr	 edx, 3
  00ab5	81 c2 00 00 00
	30		 add	 edx, 805306368		; 30000000H
  00abb	89 55 d4	 mov	 DWORD PTR tv385[ebp], edx
  00abe	6a 2e		 push	 46			; 0000002eH
  00ac0	8b 45 d4	 mov	 eax, DWORD PTR tv385[ebp]
  00ac3	50		 push	 eax
  00ac4	e8 00 00 00 00	 call	 ___asan_set_shadow_00
  00ac9	83 c4 08	 add	 esp, 8
  00acc	32 c0		 xor	 al, al
$LN1@intersects:

; 141  :     }
; 142  : }

  00ace	8b 4d fc	 mov	 ecx, DWORD PTR __$ArrayPad$[ebp]
  00ad1	33 cd		 xor	 ecx, ebp
  00ad3	e8 00 00 00 00	 call	 @__security_check_cookie@4
  00ad8	8b e5		 mov	 esp, ebp
  00ada	5d		 pop	 ebp
  00adb	8b e3		 mov	 esp, ebx
  00add	5b		 pop	 ebx
  00ade	c2 08 00	 ret	 8
?intersects@?$Rect@H@sf@@QBE_NABV12@AAV12@@Z ENDP	; sf::Rect<int>::intersects
_TEXT	ENDS
; Function compile flags: /Odtp /RTCu
; File C:\Users\theob\Documents\GitHub\as-pts1\rendu2\vcpkg_installed\x86-windows\x86-windows\include\SFML\Graphics\Rect.inl
;	COMDAT ?intersects@?$Rect@H@sf@@QBE_NABV12@@Z
_TEXT	SEGMENT
__asan_gen_0$ = -88					; size = 4
__asan_gen_1$ = -84					; size = 4
__asan_gen_2$ = -80					; size = 4
_intersection$ = -72					; size = 16
tv70 = -21						; size = 1
tv73 = -20						; size = 4
tv71 = -16						; size = 4
_this$ = -12						; size = 4
tv76 = -8						; size = 4
__$ArrayPad$ = -4					; size = 4
_rectangle$ = 8						; size = 4
?intersects@?$Rect@H@sf@@QBE_NABV12@@Z PROC		; sf::Rect<int>::intersects, COMDAT
; _this$ = ecx

; 101  : {

  00000	53		 push	 ebx
  00001	8b dc		 mov	 ebx, esp
  00003	83 ec 08	 sub	 esp, 8
  00006	83 e4 e0	 and	 esp, -32		; ffffffe0H
  00009	83 c4 04	 add	 esp, 4
  0000c	55		 push	 ebp
  0000d	8b 6b 04	 mov	 ebp, DWORD PTR [ebx+4]
  00010	89 6c 24 04	 mov	 DWORD PTR [esp+4], ebp
  00014	8b ec		 mov	 ebp, esp
  00016	83 ec 60	 sub	 esp, 96			; 00000060H
  00019	a1 00 00 00 00	 mov	 eax, DWORD PTR ___security_cookie
  0001e	33 c5		 xor	 eax, ebp
  00020	89 45 fc	 mov	 DWORD PTR __$ArrayPad$[ebp], eax
  00023	89 4d f4	 mov	 DWORD PTR _this$[ebp], ecx
  00026	c7 45 a8 b3 8a
	b5 41		 mov	 DWORD PTR __asan_gen_0$[ebp], 1102416563 ; 41b58ab3H
  0002d	c7 45 ac 00 00
	00 00		 mov	 DWORD PTR __asan_gen_1$[ebp], OFFSET __L__asan_gen_.?intersects@?$Rect@H@sf@@QBE_NABV12@@Z
  00034	c7 45 b0 00 00
	00 00		 mov	 DWORD PTR __asan_gen_2$[ebp], OFFSET ?intersects@?$Rect@H@sf@@QBE_NABV12@@Z ; sf::Rect<int>::intersects
  0003b	8d 45 a8	 lea	 eax, DWORD PTR __asan_gen_0$[ebp]
  0003e	89 45 f0	 mov	 DWORD PTR tv71[ebp], eax
  00041	8b 4d f0	 mov	 ecx, DWORD PTR tv71[ebp]
  00044	c1 e9 03	 shr	 ecx, 3
  00047	81 c1 00 00 00
	30		 add	 ecx, 805306368		; 30000000H
  0004d	89 4d ec	 mov	 DWORD PTR tv73[ebp], ecx
  00050	8b 55 ec	 mov	 edx, DWORD PTR tv73[ebp]
  00053	c7 02 f1 f1 00
	00		 mov	 DWORD PTR [edx], 61937	; 0000f1f1H
  00059	83 45 ec 04	 add	 DWORD PTR tv73[ebp], 4
  0005d	8b 45 ec	 mov	 eax, DWORD PTR tv73[ebp]
  00060	c7 00 f3 f3 f3
	f3		 mov	 DWORD PTR [eax], -202116109 ; f3f3f3f3H
  00066	b9 00 00 00 00	 mov	 ecx, OFFSET __C23CD225_Rect@inl
  0006b	e8 00 00 00 00	 call	 @__CheckForDebuggerJustMyCode@4

; 102  :     Rect<T> intersection;

  00070	8d 4d b8	 lea	 ecx, DWORD PTR _intersection$[ebp]
  00073	e8 00 00 00 00	 call	 ??0?$Rect@H@sf@@QAE@XZ	; sf::Rect<int>::Rect<int>

; 103  :     return intersects(rectangle, intersection);

  00078	8d 4d b8	 lea	 ecx, DWORD PTR _intersection$[ebp]
  0007b	51		 push	 ecx
  0007c	8b 53 08	 mov	 edx, DWORD PTR _rectangle$[ebx]
  0007f	52		 push	 edx
  00080	8b 4d f4	 mov	 ecx, DWORD PTR _this$[ebp]
  00083	e8 00 00 00 00	 call	 ?intersects@?$Rect@H@sf@@QBE_NABV12@AAV12@@Z ; sf::Rect<int>::intersects
  00088	88 45 eb	 mov	 BYTE PTR tv70[ebp], al
  0008b	c7 45 a8 0e 36
	e0 45		 mov	 DWORD PTR __asan_gen_0$[ebp], 1172321806 ; 45e0360eH
  00092	8d 45 a8	 lea	 eax, DWORD PTR __asan_gen_0$[ebp]
  00095	c1 e8 03	 shr	 eax, 3
  00098	05 00 00 00 30	 add	 eax, 805306368		; 30000000H
  0009d	89 45 f8	 mov	 DWORD PTR tv76[ebp], eax
  000a0	6a 08		 push	 8
  000a2	8b 4d f8	 mov	 ecx, DWORD PTR tv76[ebp]
  000a5	51		 push	 ecx
  000a6	e8 00 00 00 00	 call	 ___asan_set_shadow_00
  000ab	83 c4 08	 add	 esp, 8
  000ae	8a 45 eb	 mov	 al, BYTE PTR tv70[ebp]

; 104  : }

  000b1	8b 4d fc	 mov	 ecx, DWORD PTR __$ArrayPad$[ebp]
  000b4	33 cd		 xor	 ecx, ebp
  000b6	e8 00 00 00 00	 call	 @__security_check_cookie@4
  000bb	8b e5		 mov	 esp, ebp
  000bd	5d		 pop	 ebp
  000be	8b e3		 mov	 esp, ebx
  000c0	5b		 pop	 ebx
  000c1	c2 04 00	 ret	 4
?intersects@?$Rect@H@sf@@QBE_NABV12@@Z ENDP		; sf::Rect<int>::intersects
_TEXT	ENDS
; Function compile flags: /Odtp /RTCu
; File C:\Users\theob\Documents\GitHub\as-pts1\rendu2\vcpkg_installed\x86-windows\x86-windows\include\SFML\Graphics\Rect.inl
;	COMDAT ??0?$Rect@H@sf@@QAE@HHHH@Z
_TEXT	SEGMENT
tv67 = -40						; size = 4
tv66 = -36						; size = 4
tv65 = -32						; size = 4
tv64 = -28						; size = 4
tv77 = -24						; size = 4
tv87 = -20						; size = 4
tv129 = -16						; size = 4
tv139 = -12						; size = 4
_this$ = -8						; size = 4
tv80 = -4						; size = 1
tv90 = -3						; size = 1
tv132 = -2						; size = 1
tv142 = -1						; size = 1
_rectLeft$ = 8						; size = 4
_rectTop$ = 12						; size = 4
_rectWidth$ = 16					; size = 4
_rectHeight$ = 20					; size = 4
??0?$Rect@H@sf@@QAE@HHHH@Z PROC				; sf::Rect<int>::Rect<int>, COMDAT
; _this$ = ecx

; 45   : {

  00000	55		 push	 ebp
  00001	8b ec		 mov	 ebp, esp
  00003	83 ec 28	 sub	 esp, 40			; 00000028H
  00006	89 4d f8	 mov	 DWORD PTR _this$[ebp], ecx
  00009	b9 00 00 00 00	 mov	 ecx, OFFSET __C23CD225_Rect@inl
  0000e	e8 00 00 00 00	 call	 @__CheckForDebuggerJustMyCode@4

; 41   : left  (rectLeft),

  00013	8b 45 f8	 mov	 eax, DWORD PTR _this$[ebp]
  00016	89 45 e4	 mov	 DWORD PTR tv64[ebp], eax
  00019	8b 4d e4	 mov	 ecx, DWORD PTR tv64[ebp]
  0001c	89 4d f4	 mov	 DWORD PTR tv139[ebp], ecx
  0001f	8b 55 f4	 mov	 edx, DWORD PTR tv139[ebp]
  00022	c1 ea 03	 shr	 edx, 3
  00025	8a 82 00 00 00
	30		 mov	 al, BYTE PTR [edx+805306368]
  0002b	88 45 ff	 mov	 BYTE PTR tv142[ebp], al
  0002e	80 7d ff 00	 cmp	 BYTE PTR tv142[ebp], 0
  00032	74 1a		 je	 SHORT $LN6@Rect
  00034	8a 4d f4	 mov	 cl, BYTE PTR tv139[ebp]
  00037	80 e1 07	 and	 cl, 7
  0003a	80 c1 03	 add	 cl, 3
  0003d	3a 4d ff	 cmp	 cl, BYTE PTR tv142[ebp]
  00040	7c 0c		 jl	 SHORT $LN6@Rect
  00042	8b 55 f4	 mov	 edx, DWORD PTR tv139[ebp]
  00045	52		 push	 edx
  00046	e8 00 00 00 00	 call	 ___asan_report_store4
  0004b	83 c4 04	 add	 esp, 4
$LN6@Rect:
  0004e	8b 45 e4	 mov	 eax, DWORD PTR tv64[ebp]
  00051	8b 4d 08	 mov	 ecx, DWORD PTR _rectLeft$[ebp]
  00054	89 08		 mov	 DWORD PTR [eax], ecx

; 42   : top   (rectTop),

  00056	8b 55 f8	 mov	 edx, DWORD PTR _this$[ebp]
  00059	83 c2 04	 add	 edx, 4
  0005c	89 55 e0	 mov	 DWORD PTR tv65[ebp], edx
  0005f	8b 45 e0	 mov	 eax, DWORD PTR tv65[ebp]
  00062	89 45 f0	 mov	 DWORD PTR tv129[ebp], eax
  00065	8b 4d f0	 mov	 ecx, DWORD PTR tv129[ebp]
  00068	c1 e9 03	 shr	 ecx, 3
  0006b	8a 91 00 00 00
	30		 mov	 dl, BYTE PTR [ecx+805306368]
  00071	88 55 fe	 mov	 BYTE PTR tv132[ebp], dl
  00074	80 7d fe 00	 cmp	 BYTE PTR tv132[ebp], 0
  00078	74 18		 je	 SHORT $LN5@Rect
  0007a	8a 45 f0	 mov	 al, BYTE PTR tv129[ebp]
  0007d	24 07		 and	 al, 7
  0007f	04 03		 add	 al, 3
  00081	3a 45 fe	 cmp	 al, BYTE PTR tv132[ebp]
  00084	7c 0c		 jl	 SHORT $LN5@Rect
  00086	8b 4d f0	 mov	 ecx, DWORD PTR tv129[ebp]
  00089	51		 push	 ecx
  0008a	e8 00 00 00 00	 call	 ___asan_report_store4
  0008f	83 c4 04	 add	 esp, 4
$LN5@Rect:
  00092	8b 55 e0	 mov	 edx, DWORD PTR tv65[ebp]
  00095	8b 45 0c	 mov	 eax, DWORD PTR _rectTop$[ebp]
  00098	89 02		 mov	 DWORD PTR [edx], eax

; 43   : width (rectWidth),

  0009a	8b 4d f8	 mov	 ecx, DWORD PTR _this$[ebp]
  0009d	83 c1 08	 add	 ecx, 8
  000a0	89 4d dc	 mov	 DWORD PTR tv66[ebp], ecx
  000a3	8b 55 dc	 mov	 edx, DWORD PTR tv66[ebp]
  000a6	89 55 ec	 mov	 DWORD PTR tv87[ebp], edx
  000a9	8b 45 ec	 mov	 eax, DWORD PTR tv87[ebp]
  000ac	c1 e8 03	 shr	 eax, 3
  000af	8a 88 00 00 00
	30		 mov	 cl, BYTE PTR [eax+805306368]
  000b5	88 4d fd	 mov	 BYTE PTR tv90[ebp], cl
  000b8	80 7d fd 00	 cmp	 BYTE PTR tv90[ebp], 0
  000bc	74 1a		 je	 SHORT $LN4@Rect
  000be	8a 55 ec	 mov	 dl, BYTE PTR tv87[ebp]
  000c1	80 e2 07	 and	 dl, 7
  000c4	80 c2 03	 add	 dl, 3
  000c7	3a 55 fd	 cmp	 dl, BYTE PTR tv90[ebp]
  000ca	7c 0c		 jl	 SHORT $LN4@Rect
  000cc	8b 45 ec	 mov	 eax, DWORD PTR tv87[ebp]
  000cf	50		 push	 eax
  000d0	e8 00 00 00 00	 call	 ___asan_report_store4
  000d5	83 c4 04	 add	 esp, 4
$LN4@Rect:
  000d8	8b 4d dc	 mov	 ecx, DWORD PTR tv66[ebp]
  000db	8b 55 10	 mov	 edx, DWORD PTR _rectWidth$[ebp]
  000de	89 11		 mov	 DWORD PTR [ecx], edx

; 44   : height(rectHeight)

  000e0	8b 45 f8	 mov	 eax, DWORD PTR _this$[ebp]
  000e3	83 c0 0c	 add	 eax, 12			; 0000000cH
  000e6	89 45 d8	 mov	 DWORD PTR tv67[ebp], eax
  000e9	8b 4d d8	 mov	 ecx, DWORD PTR tv67[ebp]
  000ec	89 4d e8	 mov	 DWORD PTR tv77[ebp], ecx
  000ef	8b 55 e8	 mov	 edx, DWORD PTR tv77[ebp]
  000f2	c1 ea 03	 shr	 edx, 3
  000f5	8a 82 00 00 00
	30		 mov	 al, BYTE PTR [edx+805306368]
  000fb	88 45 fc	 mov	 BYTE PTR tv80[ebp], al
  000fe	80 7d fc 00	 cmp	 BYTE PTR tv80[ebp], 0
  00102	74 1a		 je	 SHORT $LN3@Rect
  00104	8a 4d e8	 mov	 cl, BYTE PTR tv77[ebp]
  00107	80 e1 07	 and	 cl, 7
  0010a	80 c1 03	 add	 cl, 3
  0010d	3a 4d fc	 cmp	 cl, BYTE PTR tv80[ebp]
  00110	7c 0c		 jl	 SHORT $LN3@Rect
  00112	8b 55 e8	 mov	 edx, DWORD PTR tv77[ebp]
  00115	52		 push	 edx
  00116	e8 00 00 00 00	 call	 ___asan_report_store4
  0011b	83 c4 04	 add	 esp, 4
$LN3@Rect:
  0011e	8b 45 d8	 mov	 eax, DWORD PTR tv67[ebp]
  00121	8b 4d 14	 mov	 ecx, DWORD PTR _rectHeight$[ebp]
  00124	89 08		 mov	 DWORD PTR [eax], ecx

; 46   : 
; 47   : }

  00126	8b 45 f8	 mov	 eax, DWORD PTR _this$[ebp]
  00129	8b e5		 mov	 esp, ebp
  0012b	5d		 pop	 ebp
  0012c	c2 10 00	 ret	 16			; 00000010H
??0?$Rect@H@sf@@QAE@HHHH@Z ENDP				; sf::Rect<int>::Rect<int>
_TEXT	ENDS
; Function compile flags: /Odtp /RTCu
; File C:\Users\theob\Documents\GitHub\as-pts1\rendu2\vcpkg_installed\x86-windows\x86-windows\include\SFML\Graphics\Rect.inl
;	COMDAT ??0?$Rect@H@sf@@QAE@XZ
_TEXT	SEGMENT
tv67 = -40						; size = 4
tv66 = -36						; size = 4
tv65 = -32						; size = 4
tv64 = -28						; size = 4
tv77 = -24						; size = 4
tv87 = -20						; size = 4
tv129 = -16						; size = 4
tv139 = -12						; size = 4
_this$ = -8						; size = 4
tv80 = -4						; size = 1
tv90 = -3						; size = 1
tv132 = -2						; size = 1
tv142 = -1						; size = 1
??0?$Rect@H@sf@@QAE@XZ PROC				; sf::Rect<int>::Rect<int>, COMDAT
; _this$ = ecx

; 33   : {

  00000	55		 push	 ebp
  00001	8b ec		 mov	 ebp, esp
  00003	83 ec 28	 sub	 esp, 40			; 00000028H
  00006	89 4d f8	 mov	 DWORD PTR _this$[ebp], ecx
  00009	b9 00 00 00 00	 mov	 ecx, OFFSET __C23CD225_Rect@inl
  0000e	e8 00 00 00 00	 call	 @__CheckForDebuggerJustMyCode@4

; 29   : left  (0),

  00013	8b 45 f8	 mov	 eax, DWORD PTR _this$[ebp]
  00016	89 45 e4	 mov	 DWORD PTR tv64[ebp], eax
  00019	8b 4d e4	 mov	 ecx, DWORD PTR tv64[ebp]
  0001c	89 4d f4	 mov	 DWORD PTR tv139[ebp], ecx
  0001f	8b 55 f4	 mov	 edx, DWORD PTR tv139[ebp]
  00022	c1 ea 03	 shr	 edx, 3
  00025	8a 82 00 00 00
	30		 mov	 al, BYTE PTR [edx+805306368]
  0002b	88 45 ff	 mov	 BYTE PTR tv142[ebp], al
  0002e	80 7d ff 00	 cmp	 BYTE PTR tv142[ebp], 0
  00032	74 1a		 je	 SHORT $LN6@Rect
  00034	8a 4d f4	 mov	 cl, BYTE PTR tv139[ebp]
  00037	80 e1 07	 and	 cl, 7
  0003a	80 c1 03	 add	 cl, 3
  0003d	3a 4d ff	 cmp	 cl, BYTE PTR tv142[ebp]
  00040	7c 0c		 jl	 SHORT $LN6@Rect
  00042	8b 55 f4	 mov	 edx, DWORD PTR tv139[ebp]
  00045	52		 push	 edx
  00046	e8 00 00 00 00	 call	 ___asan_report_store4
  0004b	83 c4 04	 add	 esp, 4
$LN6@Rect:
  0004e	8b 45 e4	 mov	 eax, DWORD PTR tv64[ebp]
  00051	c7 00 00 00 00
	00		 mov	 DWORD PTR [eax], 0

; 30   : top   (0),

  00057	8b 4d f8	 mov	 ecx, DWORD PTR _this$[ebp]
  0005a	83 c1 04	 add	 ecx, 4
  0005d	89 4d e0	 mov	 DWORD PTR tv65[ebp], ecx
  00060	8b 55 e0	 mov	 edx, DWORD PTR tv65[ebp]
  00063	89 55 f0	 mov	 DWORD PTR tv129[ebp], edx
  00066	8b 45 f0	 mov	 eax, DWORD PTR tv129[ebp]
  00069	c1 e8 03	 shr	 eax, 3
  0006c	8a 88 00 00 00
	30		 mov	 cl, BYTE PTR [eax+805306368]
  00072	88 4d fe	 mov	 BYTE PTR tv132[ebp], cl
  00075	80 7d fe 00	 cmp	 BYTE PTR tv132[ebp], 0
  00079	74 1a		 je	 SHORT $LN5@Rect
  0007b	8a 55 f0	 mov	 dl, BYTE PTR tv129[ebp]
  0007e	80 e2 07	 and	 dl, 7
  00081	80 c2 03	 add	 dl, 3
  00084	3a 55 fe	 cmp	 dl, BYTE PTR tv132[ebp]
  00087	7c 0c		 jl	 SHORT $LN5@Rect
  00089	8b 45 f0	 mov	 eax, DWORD PTR tv129[ebp]
  0008c	50		 push	 eax
  0008d	e8 00 00 00 00	 call	 ___asan_report_store4
  00092	83 c4 04	 add	 esp, 4
$LN5@Rect:
  00095	8b 4d e0	 mov	 ecx, DWORD PTR tv65[ebp]
  00098	c7 01 00 00 00
	00		 mov	 DWORD PTR [ecx], 0

; 31   : width (0),

  0009e	8b 55 f8	 mov	 edx, DWORD PTR _this$[ebp]
  000a1	83 c2 08	 add	 edx, 8
  000a4	89 55 dc	 mov	 DWORD PTR tv66[ebp], edx
  000a7	8b 45 dc	 mov	 eax, DWORD PTR tv66[ebp]
  000aa	89 45 ec	 mov	 DWORD PTR tv87[ebp], eax
  000ad	8b 4d ec	 mov	 ecx, DWORD PTR tv87[ebp]
  000b0	c1 e9 03	 shr	 ecx, 3
  000b3	8a 91 00 00 00
	30		 mov	 dl, BYTE PTR [ecx+805306368]
  000b9	88 55 fd	 mov	 BYTE PTR tv90[ebp], dl
  000bc	80 7d fd 00	 cmp	 BYTE PTR tv90[ebp], 0
  000c0	74 18		 je	 SHORT $LN4@Rect
  000c2	8a 45 ec	 mov	 al, BYTE PTR tv87[ebp]
  000c5	24 07		 and	 al, 7
  000c7	04 03		 add	 al, 3
  000c9	3a 45 fd	 cmp	 al, BYTE PTR tv90[ebp]
  000cc	7c 0c		 jl	 SHORT $LN4@Rect
  000ce	8b 4d ec	 mov	 ecx, DWORD PTR tv87[ebp]
  000d1	51		 push	 ecx
  000d2	e8 00 00 00 00	 call	 ___asan_report_store4
  000d7	83 c4 04	 add	 esp, 4
$LN4@Rect:
  000da	8b 55 dc	 mov	 edx, DWORD PTR tv66[ebp]
  000dd	c7 02 00 00 00
	00		 mov	 DWORD PTR [edx], 0

; 32   : height(0)

  000e3	8b 45 f8	 mov	 eax, DWORD PTR _this$[ebp]
  000e6	83 c0 0c	 add	 eax, 12			; 0000000cH
  000e9	89 45 d8	 mov	 DWORD PTR tv67[ebp], eax
  000ec	8b 4d d8	 mov	 ecx, DWORD PTR tv67[ebp]
  000ef	89 4d e8	 mov	 DWORD PTR tv77[ebp], ecx
  000f2	8b 55 e8	 mov	 edx, DWORD PTR tv77[ebp]
  000f5	c1 ea 03	 shr	 edx, 3
  000f8	8a 82 00 00 00
	30		 mov	 al, BYTE PTR [edx+805306368]
  000fe	88 45 fc	 mov	 BYTE PTR tv80[ebp], al
  00101	80 7d fc 00	 cmp	 BYTE PTR tv80[ebp], 0
  00105	74 1a		 je	 SHORT $LN3@Rect
  00107	8a 4d e8	 mov	 cl, BYTE PTR tv77[ebp]
  0010a	80 e1 07	 and	 cl, 7
  0010d	80 c1 03	 add	 cl, 3
  00110	3a 4d fc	 cmp	 cl, BYTE PTR tv80[ebp]
  00113	7c 0c		 jl	 SHORT $LN3@Rect
  00115	8b 55 e8	 mov	 edx, DWORD PTR tv77[ebp]
  00118	52		 push	 edx
  00119	e8 00 00 00 00	 call	 ___asan_report_store4
  0011e	83 c4 04	 add	 esp, 4
$LN3@Rect:
  00121	8b 45 d8	 mov	 eax, DWORD PTR tv67[ebp]
  00124	c7 00 00 00 00
	00		 mov	 DWORD PTR [eax], 0

; 34   : 
; 35   : }

  0012a	8b 45 f8	 mov	 eax, DWORD PTR _this$[ebp]
  0012d	8b e5		 mov	 esp, ebp
  0012f	5d		 pop	 ebp
  00130	c3		 ret	 0
??0?$Rect@H@sf@@QAE@XZ ENDP				; sf::Rect<int>::Rect<int>
_TEXT	ENDS
; Function compile flags: /Odtp /RTCu
; File C:\Program Files (x86)\Microsoft Visual Studio\2019\Community\VC\Tools\MSVC\14.29.30133\include\xloctime
;	COMDAT ??$_Getvals@_W@?$time_get@_WV?$istreambuf_iterator@_WU?$char_traits@_W@std@@@std@@@std@@IAEX_WABV_Locinfo@1@@Z
_TEXT	SEGMENT
__asan_gen_0$ = -264					; size = 4
__asan_gen_1$ = -260					; size = 4
__asan_gen_2$ = -256					; size = 4
$T2 = -248						; size = 44
tv229 = -166						; size = 1
tv219 = -165						; size = 1
tv209 = -164						; size = 1
tv199 = -163						; size = 1
tv189 = -162						; size = 1
tv179 = -161						; size = 1
_this$ = -160						; size = 4
tv157 = -156						; size = 4
tv226 = -152						; size = 4
tv216 = -148						; size = 4
tv206 = -144						; size = 4
tv196 = -140						; size = 4
tv186 = -136						; size = 4
tv176 = -132						; size = 4
tv156 = -128						; size = 4
tv66 = -124						; size = 4
tv64 = -120						; size = 4
tv165 = -116						; size = 4
tv70 = -112						; size = 4
tv75 = -108						; size = 4
tv80 = -104						; size = 4
tv83 = -100						; size = 4
tv91 = -96						; size = 4
tv131 = -92						; size = 4
tv154 = -88						; size = 4
tv161 = -84						; size = 4
tv162 = -80						; size = 4
tv71 = -76						; size = 4
tv76 = -72						; size = 4
tv81 = -68						; size = 4
tv84 = -64						; size = 4
tv92 = -60						; size = 4
tv132 = -56						; size = 4
tv172 = -52						; size = 4
$T3 = -48						; size = 44
___formal$ = 8						; size = 2
__Lobj$ = 12						; size = 4
??$_Getvals@_W@?$time_get@_WV?$istreambuf_iterator@_WU?$char_traits@_W@std@@@std@@@std@@IAEX_WABV_Locinfo@1@@Z PROC ; std::time_get<wchar_t,std::istreambuf_iterator<wchar_t,std::char_traits<wchar_t> > >::_Getvals<wchar_t>, COMDAT
; _this$ = ecx

; 173  :     void __CLR_OR_THIS_CALL _Getvals(_Elem2, const _Locinfo& _Lobj) { // get values

  00000	53		 push	 ebx
  00001	8b dc		 mov	 ebx, esp
  00003	83 ec 08	 sub	 esp, 8
  00006	83 e4 e0	 and	 esp, -32		; ffffffe0H
  00009	83 c4 04	 add	 esp, 4
  0000c	55		 push	 ebp
  0000d	8b 6b 04	 mov	 ebp, DWORD PTR [ebx+4]
  00010	89 6c 24 04	 mov	 DWORD PTR [esp+4], ebp
  00014	8b ec		 mov	 ebp, esp
  00016	81 ec 18 01 00
	00		 sub	 esp, 280		; 00000118H
  0001c	56		 push	 esi
  0001d	57		 push	 edi
  0001e	89 8d 60 ff ff
	ff		 mov	 DWORD PTR _this$[ebp], ecx
  00024	c7 85 f8 fe ff
	ff b3 8a b5 41	 mov	 DWORD PTR __asan_gen_0$[ebp], 1102416563 ; 41b58ab3H
  0002e	c7 85 fc fe ff
	ff 00 00 00 00	 mov	 DWORD PTR __asan_gen_1$[ebp], OFFSET __L__asan_gen_.??$_Getvals@_W@?$time_get@_WV?$istreambuf_iterator@_WU?$char_traits@_W@std@@@std@@@std@@IAEX_WABV_Locinfo@1@@Z
  00038	c7 85 00 ff ff
	ff 00 00 00 00	 mov	 DWORD PTR __asan_gen_2$[ebp], OFFSET ??$_Getvals@_W@?$time_get@_WV?$istreambuf_iterator@_WU?$char_traits@_W@std@@@std@@@std@@IAEX_WABV_Locinfo@1@@Z ; std::time_get<wchar_t,std::istreambuf_iterator<wchar_t,std::char_traits<wchar_t> > >::_Getvals<wchar_t>
  00042	8d 85 f8 fe ff
	ff		 lea	 eax, DWORD PTR __asan_gen_0$[ebp]
  00048	89 45 a8	 mov	 DWORD PTR tv154[ebp], eax
  0004b	8b 4d a8	 mov	 ecx, DWORD PTR tv154[ebp]
  0004e	c1 e9 03	 shr	 ecx, 3
  00051	81 c1 00 00 00
	30		 add	 ecx, 805306368		; 30000000H
  00057	89 4d 80	 mov	 DWORD PTR tv156[ebp], ecx
  0005a	ba f1 f1 00 00	 mov	 edx, 61937		; 0000f1f1H
  0005f	8b 45 80	 mov	 eax, DWORD PTR tv156[ebp]
  00062	66 89 10	 mov	 WORD PTR [eax], dx
  00065	8b 4d 80	 mov	 ecx, DWORD PTR tv156[ebp]
  00068	83 c1 02	 add	 ecx, 2
  0006b	89 8d 64 ff ff
	ff		 mov	 DWORD PTR tv157[ebp], ecx
  00071	6a 05		 push	 5
  00073	8b 95 64 ff ff
	ff		 mov	 edx, DWORD PTR tv157[ebp]
  00079	52		 push	 edx
  0007a	e8 00 00 00 00	 call	 ___asan_set_shadow_00
  0007f	83 c4 08	 add	 esp, 8
  00082	8b 85 64 ff ff
	ff		 mov	 eax, DWORD PTR tv157[ebp]
  00088	83 c0 05	 add	 eax, 5
  0008b	89 45 ac	 mov	 DWORD PTR tv161[ebp], eax
  0008e	8b 4d ac	 mov	 ecx, DWORD PTR tv161[ebp]
  00091	c6 01 04	 mov	 BYTE PTR [ecx], 4
  00094	8b 95 64 ff ff
	ff		 mov	 edx, DWORD PTR tv157[ebp]
  0009a	83 c2 06	 add	 edx, 6
  0009d	89 55 b0	 mov	 DWORD PTR tv162[ebp], edx
  000a0	8b 45 b0	 mov	 eax, DWORD PTR tv162[ebp]
  000a3	c7 00 f3 f3 f3
	f3		 mov	 DWORD PTR [eax], -202116109 ; f3f3f3f3H
  000a9	b9 00 00 00 00	 mov	 ecx, OFFSET __D96D2425_xloctime
  000ae	e8 00 00 00 00	 call	 @__CheckForDebuggerJustMyCode@4

; 174  :         _Cvt = _Lobj._Getcvt();

  000b3	8d 8d 08 ff ff
	ff		 lea	 ecx, DWORD PTR $T2[ebp]
  000b9	51		 push	 ecx
  000ba	8b 4b 0c	 mov	 ecx, DWORD PTR __Lobj$[ebx]
  000bd	ff 15 00 00 00
	00		 call	 DWORD PTR __imp_?_Getcvt@_Locinfo@std@@QBE?AU_Cvtvec@@XZ
  000c3	89 45 84	 mov	 DWORD PTR tv66[ebp], eax
  000c6	6a 2c		 push	 44			; 0000002cH
  000c8	8b 55 84	 mov	 edx, DWORD PTR tv66[ebp]
  000cb	52		 push	 edx
  000cc	e8 00 00 00 00	 call	 ___asan_loadN
  000d1	83 c4 08	 add	 esp, 8
  000d4	b9 0b 00 00 00	 mov	 ecx, 11			; 0000000bH
  000d9	8b 75 84	 mov	 esi, DWORD PTR tv66[ebp]
  000dc	8d 7d d0	 lea	 edi, DWORD PTR $T3[ebp]
  000df	f3 a5		 rep movsd
  000e1	8b 85 60 ff ff
	ff		 mov	 eax, DWORD PTR _this$[ebp]
  000e7	83 c0 18	 add	 eax, 24			; 00000018H
  000ea	89 45 88	 mov	 DWORD PTR tv64[ebp], eax
  000ed	6a 2c		 push	 44			; 0000002cH
  000ef	8b 4d 88	 mov	 ecx, DWORD PTR tv64[ebp]
  000f2	51		 push	 ecx
  000f3	e8 00 00 00 00	 call	 ___asan_storeN
  000f8	83 c4 08	 add	 esp, 8
  000fb	b9 0b 00 00 00	 mov	 ecx, 11			; 0000000bH
  00100	8d 75 d0	 lea	 esi, DWORD PTR $T3[ebp]
  00103	8b 7d 88	 mov	 edi, DWORD PTR tv64[ebp]
  00106	f3 a5		 rep movsd
  00108	8d 95 08 ff ff
	ff		 lea	 edx, DWORD PTR $T2[ebp]
  0010e	c1 ea 03	 shr	 edx, 3
  00111	81 c2 00 00 00
	30		 add	 edx, 805306368		; 30000000H
  00117	89 55 8c	 mov	 DWORD PTR tv165[ebp], edx
  0011a	6a 05		 push	 5
  0011c	8b 45 8c	 mov	 eax, DWORD PTR tv165[ebp]
  0011f	50		 push	 eax
  00120	e8 00 00 00 00	 call	 ___asan_set_shadow_f8
  00125	83 c4 08	 add	 esp, 8
  00128	8b 4d 8c	 mov	 ecx, DWORD PTR tv165[ebp]
  0012b	c6 41 05 f8	 mov	 BYTE PTR [ecx+5], 248	; 000000f8H

; 175  : 
; 176  :         if (is_same_v<_Elem2, wchar_t>) {

  0012f	ba 01 00 00 00	 mov	 edx, 1
  00134	85 d2		 test	 edx, edx
  00136	0f 84 57 01 00
	00		 je	 $LN2@Getvals

; 177  :             _Days = reinterpret_cast<const _Elem*>(_Maklocwcs(reinterpret_cast<const wchar_t*>(_Lobj._W_Getdays())));

  0013c	8b 4b 0c	 mov	 ecx, DWORD PTR __Lobj$[ebx]
  0013f	ff 15 00 00 00
	00		 call	 DWORD PTR __imp_?_W_Getdays@_Locinfo@std@@QBEPBGXZ
  00145	50		 push	 eax
  00146	e8 00 00 00 00	 call	 ?_Maklocwcs@std@@YAPA_WPB_W@Z ; std::_Maklocwcs
  0014b	83 c4 04	 add	 esp, 4
  0014e	89 45 b4	 mov	 DWORD PTR tv71[ebp], eax
  00151	8b 85 60 ff ff
	ff		 mov	 eax, DWORD PTR _this$[ebp]
  00157	83 c0 08	 add	 eax, 8
  0015a	89 45 90	 mov	 DWORD PTR tv70[ebp], eax
  0015d	8b 4d 90	 mov	 ecx, DWORD PTR tv70[ebp]
  00160	89 8d 68 ff ff
	ff		 mov	 DWORD PTR tv226[ebp], ecx
  00166	8b 95 68 ff ff
	ff		 mov	 edx, DWORD PTR tv226[ebp]
  0016c	c1 ea 03	 shr	 edx, 3
  0016f	8a 82 00 00 00
	30		 mov	 al, BYTE PTR [edx+805306368]
  00175	88 85 5a ff ff
	ff		 mov	 BYTE PTR tv229[ebp], al
  0017b	80 bd 5a ff ff
	ff 00		 cmp	 BYTE PTR tv229[ebp], 0
  00182	74 23		 je	 SHORT $LN10@Getvals
  00184	8a 8d 68 ff ff
	ff		 mov	 cl, BYTE PTR tv226[ebp]
  0018a	80 e1 07	 and	 cl, 7
  0018d	80 c1 03	 add	 cl, 3
  00190	3a 8d 5a ff ff
	ff		 cmp	 cl, BYTE PTR tv229[ebp]
  00196	7c 0f		 jl	 SHORT $LN10@Getvals
  00198	8b 95 68 ff ff
	ff		 mov	 edx, DWORD PTR tv226[ebp]
  0019e	52		 push	 edx
  0019f	e8 00 00 00 00	 call	 ___asan_report_store4
  001a4	83 c4 04	 add	 esp, 4
$LN10@Getvals:
  001a7	8b 45 90	 mov	 eax, DWORD PTR tv70[ebp]
  001aa	8b 4d b4	 mov	 ecx, DWORD PTR tv71[ebp]
  001ad	89 08		 mov	 DWORD PTR [eax], ecx

; 178  :             _Months =

  001af	8b 4b 0c	 mov	 ecx, DWORD PTR __Lobj$[ebx]
  001b2	ff 15 00 00 00
	00		 call	 DWORD PTR __imp_?_W_Getmonths@_Locinfo@std@@QBEPBGXZ
  001b8	50		 push	 eax
  001b9	e8 00 00 00 00	 call	 ?_Maklocwcs@std@@YAPA_WPB_W@Z ; std::_Maklocwcs
  001be	83 c4 04	 add	 esp, 4
  001c1	89 45 b8	 mov	 DWORD PTR tv76[ebp], eax
  001c4	8b 95 60 ff ff
	ff		 mov	 edx, DWORD PTR _this$[ebp]
  001ca	83 c2 0c	 add	 edx, 12			; 0000000cH
  001cd	89 55 94	 mov	 DWORD PTR tv75[ebp], edx
  001d0	8b 45 94	 mov	 eax, DWORD PTR tv75[ebp]
  001d3	89 85 6c ff ff
	ff		 mov	 DWORD PTR tv216[ebp], eax
  001d9	8b 8d 6c ff ff
	ff		 mov	 ecx, DWORD PTR tv216[ebp]
  001df	c1 e9 03	 shr	 ecx, 3
  001e2	8a 91 00 00 00
	30		 mov	 dl, BYTE PTR [ecx+805306368]
  001e8	88 95 5b ff ff
	ff		 mov	 BYTE PTR tv219[ebp], dl
  001ee	80 bd 5b ff ff
	ff 00		 cmp	 BYTE PTR tv219[ebp], 0
  001f5	74 21		 je	 SHORT $LN9@Getvals
  001f7	8a 85 6c ff ff
	ff		 mov	 al, BYTE PTR tv216[ebp]
  001fd	24 07		 and	 al, 7
  001ff	04 03		 add	 al, 3
  00201	3a 85 5b ff ff
	ff		 cmp	 al, BYTE PTR tv219[ebp]
  00207	7c 0f		 jl	 SHORT $LN9@Getvals
  00209	8b 8d 6c ff ff
	ff		 mov	 ecx, DWORD PTR tv216[ebp]
  0020f	51		 push	 ecx
  00210	e8 00 00 00 00	 call	 ___asan_report_store4
  00215	83 c4 04	 add	 esp, 4
$LN9@Getvals:
  00218	8b 55 94	 mov	 edx, DWORD PTR tv75[ebp]
  0021b	8b 45 b8	 mov	 eax, DWORD PTR tv76[ebp]
  0021e	89 02		 mov	 DWORD PTR [edx], eax

; 179  :                 reinterpret_cast<const _Elem*>(_Maklocwcs(reinterpret_cast<const wchar_t*>(_Lobj._W_Getmonths())));
; 180  :             _Ampm = reinterpret_cast<const _Elem*>(_Maklocwcs(L":AM:am:PM:pm"));

  00220	68 00 00 00 00	 push	 OFFSET ??_C@_1BK@MHIKGOKE@?$AA?3?$AAA?$AAM?$AA?3?$AAa?$AAm?$AA?3?$AAP?$AAM?$AA?3?$AAp?$AAm@
  00225	e8 00 00 00 00	 call	 ?_Maklocwcs@std@@YAPA_WPB_W@Z ; std::_Maklocwcs
  0022a	83 c4 04	 add	 esp, 4
  0022d	89 45 bc	 mov	 DWORD PTR tv81[ebp], eax
  00230	8b 8d 60 ff ff
	ff		 mov	 ecx, DWORD PTR _this$[ebp]
  00236	83 c1 10	 add	 ecx, 16			; 00000010H
  00239	89 4d 98	 mov	 DWORD PTR tv80[ebp], ecx
  0023c	8b 55 98	 mov	 edx, DWORD PTR tv80[ebp]
  0023f	89 95 70 ff ff
	ff		 mov	 DWORD PTR tv206[ebp], edx
  00245	8b 85 70 ff ff
	ff		 mov	 eax, DWORD PTR tv206[ebp]
  0024b	c1 e8 03	 shr	 eax, 3
  0024e	8a 88 00 00 00
	30		 mov	 cl, BYTE PTR [eax+805306368]
  00254	88 8d 5c ff ff
	ff		 mov	 BYTE PTR tv209[ebp], cl
  0025a	80 bd 5c ff ff
	ff 00		 cmp	 BYTE PTR tv209[ebp], 0
  00261	74 23		 je	 SHORT $LN8@Getvals
  00263	8a 95 70 ff ff
	ff		 mov	 dl, BYTE PTR tv206[ebp]
  00269	80 e2 07	 and	 dl, 7
  0026c	80 c2 03	 add	 dl, 3
  0026f	3a 95 5c ff ff
	ff		 cmp	 dl, BYTE PTR tv209[ebp]
  00275	7c 0f		 jl	 SHORT $LN8@Getvals
  00277	8b 85 70 ff ff
	ff		 mov	 eax, DWORD PTR tv206[ebp]
  0027d	50		 push	 eax
  0027e	e8 00 00 00 00	 call	 ___asan_report_store4
  00283	83 c4 04	 add	 esp, 4
$LN8@Getvals:
  00286	8b 4d 98	 mov	 ecx, DWORD PTR tv80[ebp]
  00289	8b 55 bc	 mov	 edx, DWORD PTR tv81[ebp]
  0028c	89 11		 mov	 DWORD PTR [ecx], edx

; 181  :         } else {

  0028e	e9 78 01 00 00	 jmp	 $LN1@Getvals
$LN2@Getvals:

; 182  :             _Days   = _Maklocstr(_Lobj._Getdays(), static_cast<_Elem*>(nullptr), _Cvt);

  00293	8b 85 60 ff ff
	ff		 mov	 eax, DWORD PTR _this$[ebp]
  00299	83 c0 18	 add	 eax, 24			; 00000018H
  0029c	50		 push	 eax
  0029d	6a 00		 push	 0
  0029f	8b 4b 0c	 mov	 ecx, DWORD PTR __Lobj$[ebx]
  002a2	ff 15 00 00 00
	00		 call	 DWORD PTR __imp_?_Getdays@_Locinfo@std@@QBEPBDXZ
  002a8	50		 push	 eax
  002a9	e8 00 00 00 00	 call	 ??$_Maklocstr@_W@std@@YAPA_WPBDPA_WABU_Cvtvec@@@Z ; std::_Maklocstr<wchar_t>
  002ae	83 c4 0c	 add	 esp, 12			; 0000000cH
  002b1	89 45 c0	 mov	 DWORD PTR tv84[ebp], eax
  002b4	8b 8d 60 ff ff
	ff		 mov	 ecx, DWORD PTR _this$[ebp]
  002ba	83 c1 08	 add	 ecx, 8
  002bd	89 4d 9c	 mov	 DWORD PTR tv83[ebp], ecx
  002c0	8b 55 9c	 mov	 edx, DWORD PTR tv83[ebp]
  002c3	89 95 74 ff ff
	ff		 mov	 DWORD PTR tv196[ebp], edx
  002c9	8b 85 74 ff ff
	ff		 mov	 eax, DWORD PTR tv196[ebp]
  002cf	c1 e8 03	 shr	 eax, 3
  002d2	8a 88 00 00 00
	30		 mov	 cl, BYTE PTR [eax+805306368]
  002d8	88 8d 5d ff ff
	ff		 mov	 BYTE PTR tv199[ebp], cl
  002de	80 bd 5d ff ff
	ff 00		 cmp	 BYTE PTR tv199[ebp], 0
  002e5	74 23		 je	 SHORT $LN7@Getvals
  002e7	8a 95 74 ff ff
	ff		 mov	 dl, BYTE PTR tv196[ebp]
  002ed	80 e2 07	 and	 dl, 7
  002f0	80 c2 03	 add	 dl, 3
  002f3	3a 95 5d ff ff
	ff		 cmp	 dl, BYTE PTR tv199[ebp]
  002f9	7c 0f		 jl	 SHORT $LN7@Getvals
  002fb	8b 85 74 ff ff
	ff		 mov	 eax, DWORD PTR tv196[ebp]
  00301	50		 push	 eax
  00302	e8 00 00 00 00	 call	 ___asan_report_store4
  00307	83 c4 04	 add	 esp, 4
$LN7@Getvals:
  0030a	8b 4d 9c	 mov	 ecx, DWORD PTR tv83[ebp]
  0030d	8b 55 c0	 mov	 edx, DWORD PTR tv84[ebp]
  00310	89 11		 mov	 DWORD PTR [ecx], edx

; 183  :             _Months = _Maklocstr(_Lobj._Getmonths(), static_cast<_Elem*>(nullptr), _Cvt);

  00312	8b 85 60 ff ff
	ff		 mov	 eax, DWORD PTR _this$[ebp]
  00318	83 c0 18	 add	 eax, 24			; 00000018H
  0031b	50		 push	 eax
  0031c	6a 00		 push	 0
  0031e	8b 4b 0c	 mov	 ecx, DWORD PTR __Lobj$[ebx]
  00321	ff 15 00 00 00
	00		 call	 DWORD PTR __imp_?_Getmonths@_Locinfo@std@@QBEPBDXZ
  00327	50		 push	 eax
  00328	e8 00 00 00 00	 call	 ??$_Maklocstr@_W@std@@YAPA_WPBDPA_WABU_Cvtvec@@@Z ; std::_Maklocstr<wchar_t>
  0032d	83 c4 0c	 add	 esp, 12			; 0000000cH
  00330	89 45 c4	 mov	 DWORD PTR tv92[ebp], eax
  00333	8b 8d 60 ff ff
	ff		 mov	 ecx, DWORD PTR _this$[ebp]
  00339	83 c1 0c	 add	 ecx, 12			; 0000000cH
  0033c	89 4d a0	 mov	 DWORD PTR tv91[ebp], ecx
  0033f	8b 55 a0	 mov	 edx, DWORD PTR tv91[ebp]
  00342	89 95 78 ff ff
	ff		 mov	 DWORD PTR tv186[ebp], edx
  00348	8b 85 78 ff ff
	ff		 mov	 eax, DWORD PTR tv186[ebp]
  0034e	c1 e8 03	 shr	 eax, 3
  00351	8a 88 00 00 00
	30		 mov	 cl, BYTE PTR [eax+805306368]
  00357	88 8d 5e ff ff
	ff		 mov	 BYTE PTR tv189[ebp], cl
  0035d	80 bd 5e ff ff
	ff 00		 cmp	 BYTE PTR tv189[ebp], 0
  00364	74 23		 je	 SHORT $LN6@Getvals
  00366	8a 95 78 ff ff
	ff		 mov	 dl, BYTE PTR tv186[ebp]
  0036c	80 e2 07	 and	 dl, 7
  0036f	80 c2 03	 add	 dl, 3
  00372	3a 95 5e ff ff
	ff		 cmp	 dl, BYTE PTR tv189[ebp]
  00378	7c 0f		 jl	 SHORT $LN6@Getvals
  0037a	8b 85 78 ff ff
	ff		 mov	 eax, DWORD PTR tv186[ebp]
  00380	50		 push	 eax
  00381	e8 00 00 00 00	 call	 ___asan_report_store4
  00386	83 c4 04	 add	 esp, 4
$LN6@Getvals:
  00389	8b 4d a0	 mov	 ecx, DWORD PTR tv91[ebp]
  0038c	8b 55 c4	 mov	 edx, DWORD PTR tv92[ebp]
  0038f	89 11		 mov	 DWORD PTR [ecx], edx

; 184  :             _Ampm   = _Maklocstr(":AM:am:PM:pm", static_cast<_Elem*>(nullptr), _Cvt);

  00391	8b 85 60 ff ff
	ff		 mov	 eax, DWORD PTR _this$[ebp]
  00397	83 c0 18	 add	 eax, 24			; 00000018H
  0039a	50		 push	 eax
  0039b	6a 00		 push	 0
  0039d	68 00 00 00 00	 push	 OFFSET ??_C@_0N@LPFKKEBD@?3AM?3am?3PM?3pm@
  003a2	e8 00 00 00 00	 call	 ??$_Maklocstr@_W@std@@YAPA_WPBDPA_WABU_Cvtvec@@@Z ; std::_Maklocstr<wchar_t>
  003a7	83 c4 0c	 add	 esp, 12			; 0000000cH
  003aa	89 45 c8	 mov	 DWORD PTR tv132[ebp], eax
  003ad	8b 8d 60 ff ff
	ff		 mov	 ecx, DWORD PTR _this$[ebp]
  003b3	83 c1 10	 add	 ecx, 16			; 00000010H
  003b6	89 4d a4	 mov	 DWORD PTR tv131[ebp], ecx
  003b9	8b 55 a4	 mov	 edx, DWORD PTR tv131[ebp]
  003bc	89 95 7c ff ff
	ff		 mov	 DWORD PTR tv176[ebp], edx
  003c2	8b 85 7c ff ff
	ff		 mov	 eax, DWORD PTR tv176[ebp]
  003c8	c1 e8 03	 shr	 eax, 3
  003cb	8a 88 00 00 00
	30		 mov	 cl, BYTE PTR [eax+805306368]
  003d1	88 8d 5f ff ff
	ff		 mov	 BYTE PTR tv179[ebp], cl
  003d7	80 bd 5f ff ff
	ff 00		 cmp	 BYTE PTR tv179[ebp], 0
  003de	74 23		 je	 SHORT $LN5@Getvals
  003e0	8a 95 7c ff ff
	ff		 mov	 dl, BYTE PTR tv176[ebp]
  003e6	80 e2 07	 and	 dl, 7
  003e9	80 c2 03	 add	 dl, 3
  003ec	3a 95 5f ff ff
	ff		 cmp	 dl, BYTE PTR tv179[ebp]
  003f2	7c 0f		 jl	 SHORT $LN5@Getvals
  003f4	8b 85 7c ff ff
	ff		 mov	 eax, DWORD PTR tv176[ebp]
  003fa	50		 push	 eax
  003fb	e8 00 00 00 00	 call	 ___asan_report_store4
  00400	83 c4 04	 add	 esp, 4
$LN5@Getvals:
  00403	8b 4d a4	 mov	 ecx, DWORD PTR tv131[ebp]
  00406	8b 55 c8	 mov	 edx, DWORD PTR tv132[ebp]
  00409	89 11		 mov	 DWORD PTR [ecx], edx
$LN1@Getvals:

; 185  :         }
; 186  :     }

  0040b	c7 85 f8 fe ff
	ff 0e 36 e0 45	 mov	 DWORD PTR __asan_gen_0$[ebp], 1172321806 ; 45e0360eH
  00415	8d 85 f8 fe ff
	ff		 lea	 eax, DWORD PTR __asan_gen_0$[ebp]
  0041b	c1 e8 03	 shr	 eax, 3
  0041e	05 00 00 00 30	 add	 eax, 805306368		; 30000000H
  00423	89 45 cc	 mov	 DWORD PTR tv172[ebp], eax
  00426	6a 0c		 push	 12			; 0000000cH
  00428	8b 4d cc	 mov	 ecx, DWORD PTR tv172[ebp]
  0042b	51		 push	 ecx
  0042c	e8 00 00 00 00	 call	 ___asan_set_shadow_00
  00431	83 c4 08	 add	 esp, 8
  00434	5f		 pop	 edi
  00435	5e		 pop	 esi
  00436	8b e5		 mov	 esp, ebp
  00438	5d		 pop	 ebp
  00439	8b e3		 mov	 esp, ebx
  0043b	5b		 pop	 ebx
  0043c	c2 08 00	 ret	 8
??$_Getvals@_W@?$time_get@_WV?$istreambuf_iterator@_WU?$char_traits@_W@std@@@std@@@std@@IAEX_WABV_Locinfo@1@@Z ENDP ; std::time_get<wchar_t,std::istreambuf_iterator<wchar_t,std::char_traits<wchar_t> > >::_Getvals<wchar_t>
_TEXT	ENDS
; Function compile flags: /Odtp /RTCu
; File C:\Program Files (x86)\Microsoft Visual Studio\2019\Community\VC\Tools\MSVC\14.29.30133\include\xloctime
;	COMDAT ??$_Getvals@_W@?$time_get@DV?$istreambuf_iterator@DU?$char_traits@D@std@@@std@@@std@@IAEX_WABV_Locinfo@1@@Z
_TEXT	SEGMENT
__asan_gen_0$ = -264					; size = 4
__asan_gen_1$ = -260					; size = 4
__asan_gen_2$ = -256					; size = 4
$T2 = -248						; size = 44
tv229 = -166						; size = 1
tv219 = -165						; size = 1
tv209 = -164						; size = 1
tv199 = -163						; size = 1
tv189 = -162						; size = 1
tv179 = -161						; size = 1
_this$ = -160						; size = 4
tv157 = -156						; size = 4
tv226 = -152						; size = 4
tv216 = -148						; size = 4
tv206 = -144						; size = 4
tv196 = -140						; size = 4
tv186 = -136						; size = 4
tv176 = -132						; size = 4
tv156 = -128						; size = 4
tv66 = -124						; size = 4
tv64 = -120						; size = 4
tv165 = -116						; size = 4
tv70 = -112						; size = 4
tv75 = -108						; size = 4
tv80 = -104						; size = 4
tv83 = -100						; size = 4
tv91 = -96						; size = 4
tv131 = -92						; size = 4
tv154 = -88						; size = 4
tv161 = -84						; size = 4
tv162 = -80						; size = 4
tv71 = -76						; size = 4
tv76 = -72						; size = 4
tv81 = -68						; size = 4
tv84 = -64						; size = 4
tv92 = -60						; size = 4
tv132 = -56						; size = 4
tv172 = -52						; size = 4
$T3 = -48						; size = 44
___formal$ = 8						; size = 2
__Lobj$ = 12						; size = 4
??$_Getvals@_W@?$time_get@DV?$istreambuf_iterator@DU?$char_traits@D@std@@@std@@@std@@IAEX_WABV_Locinfo@1@@Z PROC ; std::time_get<char,std::istreambuf_iterator<char,std::char_traits<char> > >::_Getvals<wchar_t>, COMDAT
; _this$ = ecx

; 173  :     void __CLR_OR_THIS_CALL _Getvals(_Elem2, const _Locinfo& _Lobj) { // get values

  00000	53		 push	 ebx
  00001	8b dc		 mov	 ebx, esp
  00003	83 ec 08	 sub	 esp, 8
  00006	83 e4 e0	 and	 esp, -32		; ffffffe0H
  00009	83 c4 04	 add	 esp, 4
  0000c	55		 push	 ebp
  0000d	8b 6b 04	 mov	 ebp, DWORD PTR [ebx+4]
  00010	89 6c 24 04	 mov	 DWORD PTR [esp+4], ebp
  00014	8b ec		 mov	 ebp, esp
  00016	81 ec 18 01 00
	00		 sub	 esp, 280		; 00000118H
  0001c	56		 push	 esi
  0001d	57		 push	 edi
  0001e	89 8d 60 ff ff
	ff		 mov	 DWORD PTR _this$[ebp], ecx
  00024	c7 85 f8 fe ff
	ff b3 8a b5 41	 mov	 DWORD PTR __asan_gen_0$[ebp], 1102416563 ; 41b58ab3H
  0002e	c7 85 fc fe ff
	ff 00 00 00 00	 mov	 DWORD PTR __asan_gen_1$[ebp], OFFSET __L__asan_gen_.??$_Getvals@_W@?$time_get@DV?$istreambuf_iterator@DU?$char_traits@D@std@@@std@@@std@@IAEX_WABV_Locinfo@1@@Z
  00038	c7 85 00 ff ff
	ff 00 00 00 00	 mov	 DWORD PTR __asan_gen_2$[ebp], OFFSET ??$_Getvals@_W@?$time_get@DV?$istreambuf_iterator@DU?$char_traits@D@std@@@std@@@std@@IAEX_WABV_Locinfo@1@@Z ; std::time_get<char,std::istreambuf_iterator<char,std::char_traits<char> > >::_Getvals<wchar_t>
  00042	8d 85 f8 fe ff
	ff		 lea	 eax, DWORD PTR __asan_gen_0$[ebp]
  00048	89 45 a8	 mov	 DWORD PTR tv154[ebp], eax
  0004b	8b 4d a8	 mov	 ecx, DWORD PTR tv154[ebp]
  0004e	c1 e9 03	 shr	 ecx, 3
  00051	81 c1 00 00 00
	30		 add	 ecx, 805306368		; 30000000H
  00057	89 4d 80	 mov	 DWORD PTR tv156[ebp], ecx
  0005a	ba f1 f1 00 00	 mov	 edx, 61937		; 0000f1f1H
  0005f	8b 45 80	 mov	 eax, DWORD PTR tv156[ebp]
  00062	66 89 10	 mov	 WORD PTR [eax], dx
  00065	8b 4d 80	 mov	 ecx, DWORD PTR tv156[ebp]
  00068	83 c1 02	 add	 ecx, 2
  0006b	89 8d 64 ff ff
	ff		 mov	 DWORD PTR tv157[ebp], ecx
  00071	6a 05		 push	 5
  00073	8b 95 64 ff ff
	ff		 mov	 edx, DWORD PTR tv157[ebp]
  00079	52		 push	 edx
  0007a	e8 00 00 00 00	 call	 ___asan_set_shadow_00
  0007f	83 c4 08	 add	 esp, 8
  00082	8b 85 64 ff ff
	ff		 mov	 eax, DWORD PTR tv157[ebp]
  00088	83 c0 05	 add	 eax, 5
  0008b	89 45 ac	 mov	 DWORD PTR tv161[ebp], eax
  0008e	8b 4d ac	 mov	 ecx, DWORD PTR tv161[ebp]
  00091	c6 01 04	 mov	 BYTE PTR [ecx], 4
  00094	8b 95 64 ff ff
	ff		 mov	 edx, DWORD PTR tv157[ebp]
  0009a	83 c2 06	 add	 edx, 6
  0009d	89 55 b0	 mov	 DWORD PTR tv162[ebp], edx
  000a0	8b 45 b0	 mov	 eax, DWORD PTR tv162[ebp]
  000a3	c7 00 f3 f3 f3
	f3		 mov	 DWORD PTR [eax], -202116109 ; f3f3f3f3H
  000a9	b9 00 00 00 00	 mov	 ecx, OFFSET __D96D2425_xloctime
  000ae	e8 00 00 00 00	 call	 @__CheckForDebuggerJustMyCode@4

; 174  :         _Cvt = _Lobj._Getcvt();

  000b3	8d 8d 08 ff ff
	ff		 lea	 ecx, DWORD PTR $T2[ebp]
  000b9	51		 push	 ecx
  000ba	8b 4b 0c	 mov	 ecx, DWORD PTR __Lobj$[ebx]
  000bd	ff 15 00 00 00
	00		 call	 DWORD PTR __imp_?_Getcvt@_Locinfo@std@@QBE?AU_Cvtvec@@XZ
  000c3	89 45 84	 mov	 DWORD PTR tv66[ebp], eax
  000c6	6a 2c		 push	 44			; 0000002cH
  000c8	8b 55 84	 mov	 edx, DWORD PTR tv66[ebp]
  000cb	52		 push	 edx
  000cc	e8 00 00 00 00	 call	 ___asan_loadN
  000d1	83 c4 08	 add	 esp, 8
  000d4	b9 0b 00 00 00	 mov	 ecx, 11			; 0000000bH
  000d9	8b 75 84	 mov	 esi, DWORD PTR tv66[ebp]
  000dc	8d 7d d0	 lea	 edi, DWORD PTR $T3[ebp]
  000df	f3 a5		 rep movsd
  000e1	8b 85 60 ff ff
	ff		 mov	 eax, DWORD PTR _this$[ebp]
  000e7	83 c0 18	 add	 eax, 24			; 00000018H
  000ea	89 45 88	 mov	 DWORD PTR tv64[ebp], eax
  000ed	6a 2c		 push	 44			; 0000002cH
  000ef	8b 4d 88	 mov	 ecx, DWORD PTR tv64[ebp]
  000f2	51		 push	 ecx
  000f3	e8 00 00 00 00	 call	 ___asan_storeN
  000f8	83 c4 08	 add	 esp, 8
  000fb	b9 0b 00 00 00	 mov	 ecx, 11			; 0000000bH
  00100	8d 75 d0	 lea	 esi, DWORD PTR $T3[ebp]
  00103	8b 7d 88	 mov	 edi, DWORD PTR tv64[ebp]
  00106	f3 a5		 rep movsd
  00108	8d 95 08 ff ff
	ff		 lea	 edx, DWORD PTR $T2[ebp]
  0010e	c1 ea 03	 shr	 edx, 3
  00111	81 c2 00 00 00
	30		 add	 edx, 805306368		; 30000000H
  00117	89 55 8c	 mov	 DWORD PTR tv165[ebp], edx
  0011a	6a 05		 push	 5
  0011c	8b 45 8c	 mov	 eax, DWORD PTR tv165[ebp]
  0011f	50		 push	 eax
  00120	e8 00 00 00 00	 call	 ___asan_set_shadow_f8
  00125	83 c4 08	 add	 esp, 8
  00128	8b 4d 8c	 mov	 ecx, DWORD PTR tv165[ebp]
  0012b	c6 41 05 f8	 mov	 BYTE PTR [ecx+5], 248	; 000000f8H

; 175  : 
; 176  :         if (is_same_v<_Elem2, wchar_t>) {

  0012f	ba 01 00 00 00	 mov	 edx, 1
  00134	85 d2		 test	 edx, edx
  00136	0f 84 57 01 00
	00		 je	 $LN2@Getvals

; 177  :             _Days = reinterpret_cast<const _Elem*>(_Maklocwcs(reinterpret_cast<const wchar_t*>(_Lobj._W_Getdays())));

  0013c	8b 4b 0c	 mov	 ecx, DWORD PTR __Lobj$[ebx]
  0013f	ff 15 00 00 00
	00		 call	 DWORD PTR __imp_?_W_Getdays@_Locinfo@std@@QBEPBGXZ
  00145	50		 push	 eax
  00146	e8 00 00 00 00	 call	 ?_Maklocwcs@std@@YAPA_WPB_W@Z ; std::_Maklocwcs
  0014b	83 c4 04	 add	 esp, 4
  0014e	89 45 b4	 mov	 DWORD PTR tv71[ebp], eax
  00151	8b 85 60 ff ff
	ff		 mov	 eax, DWORD PTR _this$[ebp]
  00157	83 c0 08	 add	 eax, 8
  0015a	89 45 90	 mov	 DWORD PTR tv70[ebp], eax
  0015d	8b 4d 90	 mov	 ecx, DWORD PTR tv70[ebp]
  00160	89 8d 68 ff ff
	ff		 mov	 DWORD PTR tv226[ebp], ecx
  00166	8b 95 68 ff ff
	ff		 mov	 edx, DWORD PTR tv226[ebp]
  0016c	c1 ea 03	 shr	 edx, 3
  0016f	8a 82 00 00 00
	30		 mov	 al, BYTE PTR [edx+805306368]
  00175	88 85 5a ff ff
	ff		 mov	 BYTE PTR tv229[ebp], al
  0017b	80 bd 5a ff ff
	ff 00		 cmp	 BYTE PTR tv229[ebp], 0
  00182	74 23		 je	 SHORT $LN10@Getvals
  00184	8a 8d 68 ff ff
	ff		 mov	 cl, BYTE PTR tv226[ebp]
  0018a	80 e1 07	 and	 cl, 7
  0018d	80 c1 03	 add	 cl, 3
  00190	3a 8d 5a ff ff
	ff		 cmp	 cl, BYTE PTR tv229[ebp]
  00196	7c 0f		 jl	 SHORT $LN10@Getvals
  00198	8b 95 68 ff ff
	ff		 mov	 edx, DWORD PTR tv226[ebp]
  0019e	52		 push	 edx
  0019f	e8 00 00 00 00	 call	 ___asan_report_store4
  001a4	83 c4 04	 add	 esp, 4
$LN10@Getvals:
  001a7	8b 45 90	 mov	 eax, DWORD PTR tv70[ebp]
  001aa	8b 4d b4	 mov	 ecx, DWORD PTR tv71[ebp]
  001ad	89 08		 mov	 DWORD PTR [eax], ecx

; 178  :             _Months =

  001af	8b 4b 0c	 mov	 ecx, DWORD PTR __Lobj$[ebx]
  001b2	ff 15 00 00 00
	00		 call	 DWORD PTR __imp_?_W_Getmonths@_Locinfo@std@@QBEPBGXZ
  001b8	50		 push	 eax
  001b9	e8 00 00 00 00	 call	 ?_Maklocwcs@std@@YAPA_WPB_W@Z ; std::_Maklocwcs
  001be	83 c4 04	 add	 esp, 4
  001c1	89 45 b8	 mov	 DWORD PTR tv76[ebp], eax
  001c4	8b 95 60 ff ff
	ff		 mov	 edx, DWORD PTR _this$[ebp]
  001ca	83 c2 0c	 add	 edx, 12			; 0000000cH
  001cd	89 55 94	 mov	 DWORD PTR tv75[ebp], edx
  001d0	8b 45 94	 mov	 eax, DWORD PTR tv75[ebp]
  001d3	89 85 6c ff ff
	ff		 mov	 DWORD PTR tv216[ebp], eax
  001d9	8b 8d 6c ff ff
	ff		 mov	 ecx, DWORD PTR tv216[ebp]
  001df	c1 e9 03	 shr	 ecx, 3
  001e2	8a 91 00 00 00
	30		 mov	 dl, BYTE PTR [ecx+805306368]
  001e8	88 95 5b ff ff
	ff		 mov	 BYTE PTR tv219[ebp], dl
  001ee	80 bd 5b ff ff
	ff 00		 cmp	 BYTE PTR tv219[ebp], 0
  001f5	74 21		 je	 SHORT $LN9@Getvals
  001f7	8a 85 6c ff ff
	ff		 mov	 al, BYTE PTR tv216[ebp]
  001fd	24 07		 and	 al, 7
  001ff	04 03		 add	 al, 3
  00201	3a 85 5b ff ff
	ff		 cmp	 al, BYTE PTR tv219[ebp]
  00207	7c 0f		 jl	 SHORT $LN9@Getvals
  00209	8b 8d 6c ff ff
	ff		 mov	 ecx, DWORD PTR tv216[ebp]
  0020f	51		 push	 ecx
  00210	e8 00 00 00 00	 call	 ___asan_report_store4
  00215	83 c4 04	 add	 esp, 4
$LN9@Getvals:
  00218	8b 55 94	 mov	 edx, DWORD PTR tv75[ebp]
  0021b	8b 45 b8	 mov	 eax, DWORD PTR tv76[ebp]
  0021e	89 02		 mov	 DWORD PTR [edx], eax

; 179  :                 reinterpret_cast<const _Elem*>(_Maklocwcs(reinterpret_cast<const wchar_t*>(_Lobj._W_Getmonths())));
; 180  :             _Ampm = reinterpret_cast<const _Elem*>(_Maklocwcs(L":AM:am:PM:pm"));

  00220	68 00 00 00 00	 push	 OFFSET ??_C@_1BK@MHIKGOKE@?$AA?3?$AAA?$AAM?$AA?3?$AAa?$AAm?$AA?3?$AAP?$AAM?$AA?3?$AAp?$AAm@
  00225	e8 00 00 00 00	 call	 ?_Maklocwcs@std@@YAPA_WPB_W@Z ; std::_Maklocwcs
  0022a	83 c4 04	 add	 esp, 4
  0022d	89 45 bc	 mov	 DWORD PTR tv81[ebp], eax
  00230	8b 8d 60 ff ff
	ff		 mov	 ecx, DWORD PTR _this$[ebp]
  00236	83 c1 10	 add	 ecx, 16			; 00000010H
  00239	89 4d 98	 mov	 DWORD PTR tv80[ebp], ecx
  0023c	8b 55 98	 mov	 edx, DWORD PTR tv80[ebp]
  0023f	89 95 70 ff ff
	ff		 mov	 DWORD PTR tv206[ebp], edx
  00245	8b 85 70 ff ff
	ff		 mov	 eax, DWORD PTR tv206[ebp]
  0024b	c1 e8 03	 shr	 eax, 3
  0024e	8a 88 00 00 00
	30		 mov	 cl, BYTE PTR [eax+805306368]
  00254	88 8d 5c ff ff
	ff		 mov	 BYTE PTR tv209[ebp], cl
  0025a	80 bd 5c ff ff
	ff 00		 cmp	 BYTE PTR tv209[ebp], 0
  00261	74 23		 je	 SHORT $LN8@Getvals
  00263	8a 95 70 ff ff
	ff		 mov	 dl, BYTE PTR tv206[ebp]
  00269	80 e2 07	 and	 dl, 7
  0026c	80 c2 03	 add	 dl, 3
  0026f	3a 95 5c ff ff
	ff		 cmp	 dl, BYTE PTR tv209[ebp]
  00275	7c 0f		 jl	 SHORT $LN8@Getvals
  00277	8b 85 70 ff ff
	ff		 mov	 eax, DWORD PTR tv206[ebp]
  0027d	50		 push	 eax
  0027e	e8 00 00 00 00	 call	 ___asan_report_store4
  00283	83 c4 04	 add	 esp, 4
$LN8@Getvals:
  00286	8b 4d 98	 mov	 ecx, DWORD PTR tv80[ebp]
  00289	8b 55 bc	 mov	 edx, DWORD PTR tv81[ebp]
  0028c	89 11		 mov	 DWORD PTR [ecx], edx

; 181  :         } else {

  0028e	e9 78 01 00 00	 jmp	 $LN1@Getvals
$LN2@Getvals:

; 182  :             _Days   = _Maklocstr(_Lobj._Getdays(), static_cast<_Elem*>(nullptr), _Cvt);

  00293	8b 85 60 ff ff
	ff		 mov	 eax, DWORD PTR _this$[ebp]
  00299	83 c0 18	 add	 eax, 24			; 00000018H
  0029c	50		 push	 eax
  0029d	6a 00		 push	 0
  0029f	8b 4b 0c	 mov	 ecx, DWORD PTR __Lobj$[ebx]
  002a2	ff 15 00 00 00
	00		 call	 DWORD PTR __imp_?_Getdays@_Locinfo@std@@QBEPBDXZ
  002a8	50		 push	 eax
  002a9	e8 00 00 00 00	 call	 ??$_Maklocstr@D@std@@YAPADPBDPADABU_Cvtvec@@@Z ; std::_Maklocstr<char>
  002ae	83 c4 0c	 add	 esp, 12			; 0000000cH
  002b1	89 45 c0	 mov	 DWORD PTR tv84[ebp], eax
  002b4	8b 8d 60 ff ff
	ff		 mov	 ecx, DWORD PTR _this$[ebp]
  002ba	83 c1 08	 add	 ecx, 8
  002bd	89 4d 9c	 mov	 DWORD PTR tv83[ebp], ecx
  002c0	8b 55 9c	 mov	 edx, DWORD PTR tv83[ebp]
  002c3	89 95 74 ff ff
	ff		 mov	 DWORD PTR tv196[ebp], edx
  002c9	8b 85 74 ff ff
	ff		 mov	 eax, DWORD PTR tv196[ebp]
  002cf	c1 e8 03	 shr	 eax, 3
  002d2	8a 88 00 00 00
	30		 mov	 cl, BYTE PTR [eax+805306368]
  002d8	88 8d 5d ff ff
	ff		 mov	 BYTE PTR tv199[ebp], cl
  002de	80 bd 5d ff ff
	ff 00		 cmp	 BYTE PTR tv199[ebp], 0
  002e5	74 23		 je	 SHORT $LN7@Getvals
  002e7	8a 95 74 ff ff
	ff		 mov	 dl, BYTE PTR tv196[ebp]
  002ed	80 e2 07	 and	 dl, 7
  002f0	80 c2 03	 add	 dl, 3
  002f3	3a 95 5d ff ff
	ff		 cmp	 dl, BYTE PTR tv199[ebp]
  002f9	7c 0f		 jl	 SHORT $LN7@Getvals
  002fb	8b 85 74 ff ff
	ff		 mov	 eax, DWORD PTR tv196[ebp]
  00301	50		 push	 eax
  00302	e8 00 00 00 00	 call	 ___asan_report_store4
  00307	83 c4 04	 add	 esp, 4
$LN7@Getvals:
  0030a	8b 4d 9c	 mov	 ecx, DWORD PTR tv83[ebp]
  0030d	8b 55 c0	 mov	 edx, DWORD PTR tv84[ebp]
  00310	89 11		 mov	 DWORD PTR [ecx], edx

; 183  :             _Months = _Maklocstr(_Lobj._Getmonths(), static_cast<_Elem*>(nullptr), _Cvt);

  00312	8b 85 60 ff ff
	ff		 mov	 eax, DWORD PTR _this$[ebp]
  00318	83 c0 18	 add	 eax, 24			; 00000018H
  0031b	50		 push	 eax
  0031c	6a 00		 push	 0
  0031e	8b 4b 0c	 mov	 ecx, DWORD PTR __Lobj$[ebx]
  00321	ff 15 00 00 00
	00		 call	 DWORD PTR __imp_?_Getmonths@_Locinfo@std@@QBEPBDXZ
  00327	50		 push	 eax
  00328	e8 00 00 00 00	 call	 ??$_Maklocstr@D@std@@YAPADPBDPADABU_Cvtvec@@@Z ; std::_Maklocstr<char>
  0032d	83 c4 0c	 add	 esp, 12			; 0000000cH
  00330	89 45 c4	 mov	 DWORD PTR tv92[ebp], eax
  00333	8b 8d 60 ff ff
	ff		 mov	 ecx, DWORD PTR _this$[ebp]
  00339	83 c1 0c	 add	 ecx, 12			; 0000000cH
  0033c	89 4d a0	 mov	 DWORD PTR tv91[ebp], ecx
  0033f	8b 55 a0	 mov	 edx, DWORD PTR tv91[ebp]
  00342	89 95 78 ff ff
	ff		 mov	 DWORD PTR tv186[ebp], edx
  00348	8b 85 78 ff ff
	ff		 mov	 eax, DWORD PTR tv186[ebp]
  0034e	c1 e8 03	 shr	 eax, 3
  00351	8a 88 00 00 00
	30		 mov	 cl, BYTE PTR [eax+805306368]
  00357	88 8d 5e ff ff
	ff		 mov	 BYTE PTR tv189[ebp], cl
  0035d	80 bd 5e ff ff
	ff 00		 cmp	 BYTE PTR tv189[ebp], 0
  00364	74 23		 je	 SHORT $LN6@Getvals
  00366	8a 95 78 ff ff
	ff		 mov	 dl, BYTE PTR tv186[ebp]
  0036c	80 e2 07	 and	 dl, 7
  0036f	80 c2 03	 add	 dl, 3
  00372	3a 95 5e ff ff
	ff		 cmp	 dl, BYTE PTR tv189[ebp]
  00378	7c 0f		 jl	 SHORT $LN6@Getvals
  0037a	8b 85 78 ff ff
	ff		 mov	 eax, DWORD PTR tv186[ebp]
  00380	50		 push	 eax
  00381	e8 00 00 00 00	 call	 ___asan_report_store4
  00386	83 c4 04	 add	 esp, 4
$LN6@Getvals:
  00389	8b 4d a0	 mov	 ecx, DWORD PTR tv91[ebp]
  0038c	8b 55 c4	 mov	 edx, DWORD PTR tv92[ebp]
  0038f	89 11		 mov	 DWORD PTR [ecx], edx

; 184  :             _Ampm   = _Maklocstr(":AM:am:PM:pm", static_cast<_Elem*>(nullptr), _Cvt);

  00391	8b 85 60 ff ff
	ff		 mov	 eax, DWORD PTR _this$[ebp]
  00397	83 c0 18	 add	 eax, 24			; 00000018H
  0039a	50		 push	 eax
  0039b	6a 00		 push	 0
  0039d	68 00 00 00 00	 push	 OFFSET ??_C@_0N@LPFKKEBD@?3AM?3am?3PM?3pm@
  003a2	e8 00 00 00 00	 call	 ??$_Maklocstr@D@std@@YAPADPBDPADABU_Cvtvec@@@Z ; std::_Maklocstr<char>
  003a7	83 c4 0c	 add	 esp, 12			; 0000000cH
  003aa	89 45 c8	 mov	 DWORD PTR tv132[ebp], eax
  003ad	8b 8d 60 ff ff
	ff		 mov	 ecx, DWORD PTR _this$[ebp]
  003b3	83 c1 10	 add	 ecx, 16			; 00000010H
  003b6	89 4d a4	 mov	 DWORD PTR tv131[ebp], ecx
  003b9	8b 55 a4	 mov	 edx, DWORD PTR tv131[ebp]
  003bc	89 95 7c ff ff
	ff		 mov	 DWORD PTR tv176[ebp], edx
  003c2	8b 85 7c ff ff
	ff		 mov	 eax, DWORD PTR tv176[ebp]
  003c8	c1 e8 03	 shr	 eax, 3
  003cb	8a 88 00 00 00
	30		 mov	 cl, BYTE PTR [eax+805306368]
  003d1	88 8d 5f ff ff
	ff		 mov	 BYTE PTR tv179[ebp], cl
  003d7	80 bd 5f ff ff
	ff 00		 cmp	 BYTE PTR tv179[ebp], 0
  003de	74 23		 je	 SHORT $LN5@Getvals
  003e0	8a 95 7c ff ff
	ff		 mov	 dl, BYTE PTR tv176[ebp]
  003e6	80 e2 07	 and	 dl, 7
  003e9	80 c2 03	 add	 dl, 3
  003ec	3a 95 5f ff ff
	ff		 cmp	 dl, BYTE PTR tv179[ebp]
  003f2	7c 0f		 jl	 SHORT $LN5@Getvals
  003f4	8b 85 7c ff ff
	ff		 mov	 eax, DWORD PTR tv176[ebp]
  003fa	50		 push	 eax
  003fb	e8 00 00 00 00	 call	 ___asan_report_store4
  00400	83 c4 04	 add	 esp, 4
$LN5@Getvals:
  00403	8b 4d a4	 mov	 ecx, DWORD PTR tv131[ebp]
  00406	8b 55 c8	 mov	 edx, DWORD PTR tv132[ebp]
  00409	89 11		 mov	 DWORD PTR [ecx], edx
$LN1@Getvals:

; 185  :         }
; 186  :     }

  0040b	c7 85 f8 fe ff
	ff 0e 36 e0 45	 mov	 DWORD PTR __asan_gen_0$[ebp], 1172321806 ; 45e0360eH
  00415	8d 85 f8 fe ff
	ff		 lea	 eax, DWORD PTR __asan_gen_0$[ebp]
  0041b	c1 e8 03	 shr	 eax, 3
  0041e	05 00 00 00 30	 add	 eax, 805306368		; 30000000H
  00423	89 45 cc	 mov	 DWORD PTR tv172[ebp], eax
  00426	6a 0c		 push	 12			; 0000000cH
  00428	8b 4d cc	 mov	 ecx, DWORD PTR tv172[ebp]
  0042b	51		 push	 ecx
  0042c	e8 00 00 00 00	 call	 ___asan_set_shadow_00
  00431	83 c4 08	 add	 esp, 8
  00434	5f		 pop	 edi
  00435	5e		 pop	 esi
  00436	8b e5		 mov	 esp, ebp
  00438	5d		 pop	 ebp
  00439	8b e3		 mov	 esp, ebx
  0043b	5b		 pop	 ebx
  0043c	c2 08 00	 ret	 8
??$_Getvals@_W@?$time_get@DV?$istreambuf_iterator@DU?$char_traits@D@std@@@std@@@std@@IAEX_WABV_Locinfo@1@@Z ENDP ; std::time_get<char,std::istreambuf_iterator<char,std::char_traits<char> > >::_Getvals<wchar_t>
_TEXT	ENDS
; Function compile flags: /Odtp /RTCu
; File C:\Program Files (x86)\Microsoft Visual Studio\2019\Community\VC\Tools\MSVC\14.29.30133\include\xlocale
;	COMDAT ??$_Maklocstr@D@std@@YAPADPBDPADABU_Cvtvec@@@Z
_TEXT	SEGMENT
tv85 = -32						; size = 4
tv82 = -28						; size = 4
__Ptrdest$ = -24					; size = 4
tv88 = -20						; size = 4
tv130 = -16						; size = 4
__Ptrnext$1 = -12					; size = 4
__Count$ = -8						; size = 4
tv91 = -2						; size = 1
tv133 = -1						; size = 1
__Ptr$ = 8						; size = 4
___formal$ = 12						; size = 4
___formal$ = 16						; size = 4
??$_Maklocstr@D@std@@YAPADPBDPADABU_Cvtvec@@@Z PROC	; std::_Maklocstr<char>, COMDAT

; 522  : _Elem* __CRTDECL _Maklocstr(const char* _Ptr, _Elem*, const _Locinfo::_Cvtvec&) {

  00000	55		 push	 ebp
  00001	8b ec		 mov	 ebp, esp
  00003	83 ec 20	 sub	 esp, 32			; 00000020H
  00006	b9 00 00 00 00	 mov	 ecx, OFFSET __D23FE460_xlocale
  0000b	e8 00 00 00 00	 call	 @__CheckForDebuggerJustMyCode@4

; 523  :     // convert C string to _Elem sequence using _Cvtvec
; 524  :     size_t _Count = _CSTD strlen(_Ptr) + 1;

  00010	8b 45 08	 mov	 eax, DWORD PTR __Ptr$[ebp]
  00013	50		 push	 eax
  00014	e8 00 00 00 00	 call	 _strlen
  00019	83 c4 04	 add	 esp, 4
  0001c	83 c0 01	 add	 eax, 1
  0001f	89 45 f8	 mov	 DWORD PTR __Count$[ebp], eax

; 525  : 
; 526  :     _Elem* _Ptrdest = static_cast<_Elem*>(_calloc_dbg(_Count, sizeof(_Elem), _CRT_BLOCK, __FILE__, __LINE__));

  00022	68 0e 02 00 00	 push	 526			; 0000020eH
  00027	68 00 00 00 00	 push	 OFFSET $SG86273
  0002c	6a 02		 push	 2
  0002e	6a 01		 push	 1
  00030	8b 4d f8	 mov	 ecx, DWORD PTR __Count$[ebp]
  00033	51		 push	 ecx
  00034	ff 15 00 00 00
	00		 call	 DWORD PTR __imp___calloc_dbg
  0003a	83 c4 14	 add	 esp, 20			; 00000014H
  0003d	89 45 e8	 mov	 DWORD PTR __Ptrdest$[ebp], eax

; 527  : 
; 528  :     if (!_Ptrdest) {

  00040	83 7d e8 00	 cmp	 DWORD PTR __Ptrdest$[ebp], 0
  00044	75 05		 jne	 SHORT $LN5@Maklocstr

; 529  :         _Xbad_alloc();

  00046	e8 00 00 00 00	 call	 ?_Xbad_alloc@std@@YAXXZ	; std::_Xbad_alloc
$LN5@Maklocstr:

; 530  :     }
; 531  : 
; 532  :     for (_Elem* _Ptrnext = _Ptrdest; 0 < _Count; --_Count, ++_Ptrnext, ++_Ptr) {

  0004b	8b 55 e8	 mov	 edx, DWORD PTR __Ptrdest$[ebp]
  0004e	89 55 f4	 mov	 DWORD PTR __Ptrnext$1[ebp], edx
  00051	eb 1b		 jmp	 SHORT $LN4@Maklocstr
$LN2@Maklocstr:
  00053	8b 45 f8	 mov	 eax, DWORD PTR __Count$[ebp]
  00056	83 e8 01	 sub	 eax, 1
  00059	89 45 f8	 mov	 DWORD PTR __Count$[ebp], eax
  0005c	8b 4d f4	 mov	 ecx, DWORD PTR __Ptrnext$1[ebp]
  0005f	83 c1 01	 add	 ecx, 1
  00062	89 4d f4	 mov	 DWORD PTR __Ptrnext$1[ebp], ecx
  00065	8b 55 08	 mov	 edx, DWORD PTR __Ptr$[ebp]
  00068	83 c2 01	 add	 edx, 1
  0006b	89 55 08	 mov	 DWORD PTR __Ptr$[ebp], edx
$LN4@Maklocstr:
  0006e	83 7d f8 00	 cmp	 DWORD PTR __Count$[ebp], 0
  00072	76 7f		 jbe	 SHORT $LN3@Maklocstr

; 533  :         *_Ptrnext = static_cast<_Elem>(static_cast<unsigned char>(*_Ptr));

  00074	8b 45 08	 mov	 eax, DWORD PTR __Ptr$[ebp]
  00077	89 45 e4	 mov	 DWORD PTR tv82[ebp], eax
  0007a	8b 4d e4	 mov	 ecx, DWORD PTR tv82[ebp]
  0007d	89 4d f0	 mov	 DWORD PTR tv130[ebp], ecx
  00080	8b 55 f0	 mov	 edx, DWORD PTR tv130[ebp]
  00083	c1 ea 03	 shr	 edx, 3
  00086	8a 82 00 00 00
	30		 mov	 al, BYTE PTR [edx+805306368]
  0008c	88 45 ff	 mov	 BYTE PTR tv133[ebp], al
  0008f	80 7d ff 00	 cmp	 BYTE PTR tv133[ebp], 0
  00093	74 17		 je	 SHORT $LN8@Maklocstr
  00095	8a 4d f0	 mov	 cl, BYTE PTR tv130[ebp]
  00098	80 e1 07	 and	 cl, 7
  0009b	3a 4d ff	 cmp	 cl, BYTE PTR tv133[ebp]
  0009e	7c 0c		 jl	 SHORT $LN8@Maklocstr
  000a0	8b 55 f0	 mov	 edx, DWORD PTR tv130[ebp]
  000a3	52		 push	 edx
  000a4	e8 00 00 00 00	 call	 ___asan_report_load1
  000a9	83 c4 04	 add	 esp, 4
$LN8@Maklocstr:
  000ac	8b 45 f4	 mov	 eax, DWORD PTR __Ptrnext$1[ebp]
  000af	89 45 e0	 mov	 DWORD PTR tv85[ebp], eax
  000b2	8b 4d e0	 mov	 ecx, DWORD PTR tv85[ebp]
  000b5	89 4d ec	 mov	 DWORD PTR tv88[ebp], ecx
  000b8	8b 55 ec	 mov	 edx, DWORD PTR tv88[ebp]
  000bb	c1 ea 03	 shr	 edx, 3
  000be	8a 82 00 00 00
	30		 mov	 al, BYTE PTR [edx+805306368]
  000c4	88 45 fe	 mov	 BYTE PTR tv91[ebp], al
  000c7	80 7d fe 00	 cmp	 BYTE PTR tv91[ebp], 0
  000cb	74 17		 je	 SHORT $LN7@Maklocstr
  000cd	8a 4d ec	 mov	 cl, BYTE PTR tv88[ebp]
  000d0	80 e1 07	 and	 cl, 7
  000d3	3a 4d fe	 cmp	 cl, BYTE PTR tv91[ebp]
  000d6	7c 0c		 jl	 SHORT $LN7@Maklocstr
  000d8	8b 55 ec	 mov	 edx, DWORD PTR tv88[ebp]
  000db	52		 push	 edx
  000dc	e8 00 00 00 00	 call	 ___asan_report_store1
  000e1	83 c4 04	 add	 esp, 4
$LN7@Maklocstr:
  000e4	8b 45 f4	 mov	 eax, DWORD PTR __Ptrnext$1[ebp]
  000e7	8b 4d 08	 mov	 ecx, DWORD PTR __Ptr$[ebp]
  000ea	8a 11		 mov	 dl, BYTE PTR [ecx]
  000ec	88 10		 mov	 BYTE PTR [eax], dl

; 534  :     }

  000ee	e9 60 ff ff ff	 jmp	 $LN2@Maklocstr
$LN3@Maklocstr:

; 535  : 
; 536  :     return _Ptrdest;

  000f3	8b 45 e8	 mov	 eax, DWORD PTR __Ptrdest$[ebp]
$LN6@Maklocstr:

; 537  : }

  000f6	8b e5		 mov	 esp, ebp
  000f8	5d		 pop	 ebp
  000f9	c3		 ret	 0
??$_Maklocstr@D@std@@YAPADPBDPADABU_Cvtvec@@@Z ENDP	; std::_Maklocstr<char>
_TEXT	ENDS
; Function compile flags: /Odtp /RTCu
; File C:\Program Files (x86)\Microsoft Visual Studio\2019\Community\VC\Tools\MSVC\14.29.30133\include\xlocnum
;	COMDAT ?_Maklocwcs@std@@YAPA_WPB_W@Z
_TEXT	SEGMENT
__Count$ = -8						; size = 4
__Ptrdest$ = -4						; size = 4
__Ptr$ = 8						; size = 4
?_Maklocwcs@std@@YAPA_WPB_W@Z PROC			; std::_Maklocwcs, COMDAT

; 90   : inline wchar_t* _Maklocwcs(const wchar_t* _Ptr) { // copy NTWCS to allocated storage

  00000	55		 push	 ebp
  00001	8b ec		 mov	 ebp, esp
  00003	83 ec 08	 sub	 esp, 8
  00006	b9 00 00 00 00	 mov	 ecx, OFFSET __4CB88277_xlocnum
  0000b	e8 00 00 00 00	 call	 @__CheckForDebuggerJustMyCode@4

; 91   :     const size_t _Count = _CSTD wcslen(_Ptr) + 1;

  00010	8b 45 08	 mov	 eax, DWORD PTR __Ptr$[ebp]
  00013	50		 push	 eax
  00014	ff 15 00 00 00
	00		 call	 DWORD PTR __imp__wcslen
  0001a	83 c4 04	 add	 esp, 4
  0001d	83 c0 01	 add	 eax, 1
  00020	89 45 f8	 mov	 DWORD PTR __Count$[ebp], eax

; 92   : 
; 93   :     wchar_t* _Ptrdest = static_cast<wchar_t*>(_calloc_dbg(_Count, sizeof(wchar_t), _CRT_BLOCK, __FILE__, __LINE__));

  00023	6a 5d		 push	 93			; 0000005dH
  00025	68 00 00 00 00	 push	 OFFSET ??_C@_0GI@OGMNKBMN@C?3?2Program?5Files?5?$CIx86?$CJ?2Microsof@
  0002a	6a 02		 push	 2
  0002c	6a 02		 push	 2
  0002e	8b 4d f8	 mov	 ecx, DWORD PTR __Count$[ebp]
  00031	51		 push	 ecx
  00032	ff 15 00 00 00
	00		 call	 DWORD PTR __imp___calloc_dbg
  00038	83 c4 14	 add	 esp, 20			; 00000014H
  0003b	89 45 fc	 mov	 DWORD PTR __Ptrdest$[ebp], eax

; 94   : 
; 95   :     if (!_Ptrdest) {

  0003e	83 7d fc 00	 cmp	 DWORD PTR __Ptrdest$[ebp], 0
  00042	75 05		 jne	 SHORT $LN2@Maklocwcs

; 96   :         _Xbad_alloc();

  00044	e8 00 00 00 00	 call	 ?_Xbad_alloc@std@@YAXXZ	; std::_Xbad_alloc
$LN2@Maklocwcs:

; 97   :     }
; 98   : 
; 99   :     _CSTD wmemcpy(_Ptrdest, _Ptr, _Count);

  00049	8b 55 f8	 mov	 edx, DWORD PTR __Count$[ebp]
  0004c	52		 push	 edx
  0004d	8b 45 08	 mov	 eax, DWORD PTR __Ptr$[ebp]
  00050	50		 push	 eax
  00051	8b 4d fc	 mov	 ecx, DWORD PTR __Ptrdest$[ebp]
  00054	51		 push	 ecx
  00055	e8 00 00 00 00	 call	 _wmemcpy
  0005a	83 c4 0c	 add	 esp, 12			; 0000000cH

; 100  :     return _Ptrdest;

  0005d	8b 45 fc	 mov	 eax, DWORD PTR __Ptrdest$[ebp]
$LN3@Maklocwcs:

; 101  : }

  00060	8b e5		 mov	 esp, ebp
  00062	5d		 pop	 ebp
  00063	c3		 ret	 0
?_Maklocwcs@std@@YAPA_WPB_W@Z ENDP			; std::_Maklocwcs
_TEXT	ENDS
; Function compile flags: /Odtp /RTCu
; File C:\Program Files (x86)\Microsoft Visual Studio\2019\Community\VC\Tools\MSVC\14.29.30133\include\utility
;	COMDAT ??$min@H@std@@YAABHABH0@Z
_TEXT	SEGMENT
$T1 = -28						; size = 4
tv70 = -24						; size = 4
tv67 = -20						; size = 4
tv65 = -16						; size = 4
tv73 = -12						; size = 4
tv83 = -8						; size = 4
tv76 = -2						; size = 1
tv86 = -1						; size = 1
__Left$ = 8						; size = 4
__Right$ = 12						; size = 4
??$min@H@std@@YAABHABH0@Z PROC				; std::min<int>, COMDAT

; 66   :     const _Ty& _Left, const _Ty& _Right) noexcept(noexcept(_Right < _Left)) /* strengthened */ {

  00000	55		 push	 ebp
  00001	8b ec		 mov	 ebp, esp
  00003	83 ec 1c	 sub	 esp, 28			; 0000001cH
  00006	b9 00 00 00 00	 mov	 ecx, OFFSET __1347750E_utility
  0000b	e8 00 00 00 00	 call	 @__CheckForDebuggerJustMyCode@4

; 67   :     // return smaller of _Left and _Right
; 68   :     return _Right < _Left ? _Right : _Left;

  00010	8b 45 0c	 mov	 eax, DWORD PTR __Right$[ebp]
  00013	89 45 ec	 mov	 DWORD PTR tv67[ebp], eax
  00016	8b 4d ec	 mov	 ecx, DWORD PTR tv67[ebp]
  00019	89 4d f8	 mov	 DWORD PTR tv83[ebp], ecx
  0001c	8b 55 f8	 mov	 edx, DWORD PTR tv83[ebp]
  0001f	c1 ea 03	 shr	 edx, 3
  00022	8a 82 00 00 00
	30		 mov	 al, BYTE PTR [edx+805306368]
  00028	88 45 ff	 mov	 BYTE PTR tv86[ebp], al
  0002b	80 7d ff 00	 cmp	 BYTE PTR tv86[ebp], 0
  0002f	74 1a		 je	 SHORT $LN6@min
  00031	8a 4d f8	 mov	 cl, BYTE PTR tv83[ebp]
  00034	80 e1 07	 and	 cl, 7
  00037	80 c1 03	 add	 cl, 3
  0003a	3a 4d ff	 cmp	 cl, BYTE PTR tv86[ebp]
  0003d	7c 0c		 jl	 SHORT $LN6@min
  0003f	8b 55 f8	 mov	 edx, DWORD PTR tv83[ebp]
  00042	52		 push	 edx
  00043	e8 00 00 00 00	 call	 ___asan_report_load4
  00048	83 c4 04	 add	 esp, 4
$LN6@min:
  0004b	8b 45 08	 mov	 eax, DWORD PTR __Left$[ebp]
  0004e	89 45 e8	 mov	 DWORD PTR tv70[ebp], eax
  00051	8b 4d e8	 mov	 ecx, DWORD PTR tv70[ebp]
  00054	89 4d f4	 mov	 DWORD PTR tv73[ebp], ecx
  00057	8b 55 f4	 mov	 edx, DWORD PTR tv73[ebp]
  0005a	c1 ea 03	 shr	 edx, 3
  0005d	8a 82 00 00 00
	30		 mov	 al, BYTE PTR [edx+805306368]
  00063	88 45 fe	 mov	 BYTE PTR tv76[ebp], al
  00066	80 7d fe 00	 cmp	 BYTE PTR tv76[ebp], 0
  0006a	74 1a		 je	 SHORT $LN5@min
  0006c	8a 4d f4	 mov	 cl, BYTE PTR tv73[ebp]
  0006f	80 e1 07	 and	 cl, 7
  00072	80 c1 03	 add	 cl, 3
  00075	3a 4d fe	 cmp	 cl, BYTE PTR tv76[ebp]
  00078	7c 0c		 jl	 SHORT $LN5@min
  0007a	8b 55 f4	 mov	 edx, DWORD PTR tv73[ebp]
  0007d	52		 push	 edx
  0007e	e8 00 00 00 00	 call	 ___asan_report_load4
  00083	83 c4 04	 add	 esp, 4
$LN5@min:
  00086	8b 45 0c	 mov	 eax, DWORD PTR __Right$[ebp]
  00089	8b 4d 08	 mov	 ecx, DWORD PTR __Left$[ebp]
  0008c	8b 10		 mov	 edx, DWORD PTR [eax]
  0008e	3b 11		 cmp	 edx, DWORD PTR [ecx]
  00090	7d 08		 jge	 SHORT $LN3@min
  00092	8b 45 0c	 mov	 eax, DWORD PTR __Right$[ebp]
  00095	89 45 f0	 mov	 DWORD PTR tv65[ebp], eax
  00098	eb 06		 jmp	 SHORT $LN4@min
$LN3@min:
  0009a	8b 4d 08	 mov	 ecx, DWORD PTR __Left$[ebp]
  0009d	89 4d f0	 mov	 DWORD PTR tv65[ebp], ecx
$LN4@min:
  000a0	8b 55 f0	 mov	 edx, DWORD PTR tv65[ebp]
  000a3	89 55 e4	 mov	 DWORD PTR $T1[ebp], edx
  000a6	8b 45 e4	 mov	 eax, DWORD PTR $T1[ebp]

; 69   : }

  000a9	8b e5		 mov	 esp, ebp
  000ab	5d		 pop	 ebp
  000ac	c3		 ret	 0
??$min@H@std@@YAABHABH0@Z ENDP				; std::min<int>
_TEXT	ENDS
; Function compile flags: /Odtp /RTCu
; File C:\Program Files (x86)\Microsoft Visual Studio\2019\Community\VC\Tools\MSVC\14.29.30133\include\xlocale
;	COMDAT ??$_Maklocstr@_W@std@@YAPA_WPBDPA_WABU_Cvtvec@@@Z
_TEXT	SEGMENT
__asan_gen_0$ = -152					; size = 4
__asan_gen_1$ = -148					; size = 4
__asan_gen_2$ = -144					; size = 4
__Mbst1$ = -136						; size = 8
__Wc$ = -120						; size = 2
__Mbst2$ = -104						; size = 8
tv156 = -57						; size = 1
tv146 = -56						; size = 4
__Wchars$ = -52						; size = 4
__Bytes$ = -48						; size = 4
__Count$ = -44						; size = 4
__Ptrnext$ = -40					; size = 4
__Ptr1$ = -36						; size = 4
tv153 = -32						; size = 4
__Ptrdest$ = -28					; size = 4
__Count1$ = -24						; size = 4
tv144 = -20						; size = 4
tv141 = -16						; size = 4
tv149 = -12						; size = 4
tv140 = -8						; size = 4
__$ArrayPad$ = -4					; size = 4
__Ptr$ = 8						; size = 4
___formal$ = 12						; size = 4
__Cvt$ = 16						; size = 4
??$_Maklocstr@_W@std@@YAPA_WPBDPA_WABU_Cvtvec@@@Z PROC	; std::_Maklocstr<wchar_t>, COMDAT

; 540  : inline wchar_t* __CRTDECL _Maklocstr(const char* _Ptr, wchar_t*, const _Locinfo::_Cvtvec& _Cvt) {

  00000	53		 push	 ebx
  00001	8b dc		 mov	 ebx, esp
  00003	83 ec 08	 sub	 esp, 8
  00006	83 e4 e0	 and	 esp, -32		; ffffffe0H
  00009	83 c4 04	 add	 esp, 4
  0000c	55		 push	 ebp
  0000d	8b 6b 04	 mov	 ebp, DWORD PTR [ebx+4]
  00010	89 6c 24 04	 mov	 DWORD PTR [esp+4], ebp
  00014	8b ec		 mov	 ebp, esp
  00016	81 ec a0 00 00
	00		 sub	 esp, 160		; 000000a0H
  0001c	a1 00 00 00 00	 mov	 eax, DWORD PTR ___security_cookie
  00021	33 c5		 xor	 eax, ebp
  00023	89 45 fc	 mov	 DWORD PTR __$ArrayPad$[ebp], eax
  00026	c7 85 68 ff ff
	ff b3 8a b5 41	 mov	 DWORD PTR __asan_gen_0$[ebp], 1102416563 ; 41b58ab3H
  00030	c7 85 6c ff ff
	ff 00 00 00 00	 mov	 DWORD PTR __asan_gen_1$[ebp], OFFSET __L__asan_gen_.??$_Maklocstr@_W@std@@YAPA_WPBDPA_WABU_Cvtvec@@@Z
  0003a	c7 85 70 ff ff
	ff 00 00 00 00	 mov	 DWORD PTR __asan_gen_2$[ebp], OFFSET ??$_Maklocstr@_W@std@@YAPA_WPBDPA_WABU_Cvtvec@@@Z ; std::_Maklocstr<wchar_t>
  00044	8d 85 68 ff ff
	ff		 lea	 eax, DWORD PTR __asan_gen_0$[ebp]
  0004a	89 45 ec	 mov	 DWORD PTR tv144[ebp], eax
  0004d	8b 4d ec	 mov	 ecx, DWORD PTR tv144[ebp]
  00050	c1 e9 03	 shr	 ecx, 3
  00053	81 c1 00 00 00
	30		 add	 ecx, 805306368		; 30000000H
  00059	89 4d c8	 mov	 DWORD PTR tv146[ebp], ecx
  0005c	8b 55 c8	 mov	 edx, DWORD PTR tv146[ebp]
  0005f	c7 02 f1 f1 00
	f2		 mov	 DWORD PTR [edx], -234819087 ; f200f1f1H
  00065	83 45 c8 04	 add	 DWORD PTR tv146[ebp], 4
  00069	8b 45 c8	 mov	 eax, DWORD PTR tv146[ebp]
  0006c	c7 00 02 f2 00
	f3		 mov	 DWORD PTR [eax], -218041854 ; f300f202H
  00072	83 45 c8 04	 add	 DWORD PTR tv146[ebp], 4
  00076	b9 f3 f3 00 00	 mov	 ecx, 62451		; 0000f3f3H
  0007b	8b 55 c8	 mov	 edx, DWORD PTR tv146[ebp]
  0007e	66 89 0a	 mov	 WORD PTR [edx], cx
  00081	83 45 c8 02	 add	 DWORD PTR tv146[ebp], 2
  00085	8b 45 c8	 mov	 eax, DWORD PTR tv146[ebp]
  00088	c6 00 f3	 mov	 BYTE PTR [eax], 243	; 000000f3H
  0008b	b9 00 00 00 00	 mov	 ecx, OFFSET __D23FE460_xlocale
  00090	e8 00 00 00 00	 call	 @__CheckForDebuggerJustMyCode@4

; 541  :     // convert C string to wchar_t sequence using _Cvtvec
; 542  :     size_t _Count;
; 543  :     size_t _Count1;
; 544  :     size_t _Wchars;
; 545  :     const char* _Ptr1;
; 546  :     int _Bytes;
; 547  :     wchar_t _Wc;
; 548  :     mbstate_t _Mbst1 = {};

  00095	6a 08		 push	 8
  00097	6a 00		 push	 0
  00099	8d 8d 78 ff ff
	ff		 lea	 ecx, DWORD PTR __Mbst1$[ebp]
  0009f	51		 push	 ecx
  000a0	e8 00 00 00 00	 call	 ___asan_memset
  000a5	83 c4 0c	 add	 esp, 12			; 0000000cH

; 549  : 
; 550  :     _Count1 = _CSTD strlen(_Ptr) + 1;

  000a8	8b 53 08	 mov	 edx, DWORD PTR __Ptr$[ebx]
  000ab	52		 push	 edx
  000ac	e8 00 00 00 00	 call	 _strlen
  000b1	83 c4 04	 add	 esp, 4
  000b4	83 c0 01	 add	 eax, 1
  000b7	89 45 e8	 mov	 DWORD PTR __Count1$[ebp], eax

; 551  :     for (_Count = _Count1, _Wchars = 0, _Ptr1 = _Ptr; 0 < _Count; _Count -= _Bytes, _Ptr1 += _Bytes, ++_Wchars) {

  000ba	8b 45 e8	 mov	 eax, DWORD PTR __Count1$[ebp]
  000bd	89 45 d4	 mov	 DWORD PTR __Count$[ebp], eax
  000c0	c7 45 cc 00 00
	00 00		 mov	 DWORD PTR __Wchars$[ebp], 0
  000c7	8b 4b 08	 mov	 ecx, DWORD PTR __Ptr$[ebx]
  000ca	89 4d dc	 mov	 DWORD PTR __Ptr1$[ebp], ecx
  000cd	eb 1b		 jmp	 SHORT $LN4@Maklocstr
$LN2@Maklocstr:
  000cf	8b 55 d4	 mov	 edx, DWORD PTR __Count$[ebp]
  000d2	2b 55 d0	 sub	 edx, DWORD PTR __Bytes$[ebp]
  000d5	89 55 d4	 mov	 DWORD PTR __Count$[ebp], edx
  000d8	8b 45 dc	 mov	 eax, DWORD PTR __Ptr1$[ebp]
  000db	03 45 d0	 add	 eax, DWORD PTR __Bytes$[ebp]
  000de	89 45 dc	 mov	 DWORD PTR __Ptr1$[ebp], eax
  000e1	8b 4d cc	 mov	 ecx, DWORD PTR __Wchars$[ebp]
  000e4	83 c1 01	 add	 ecx, 1
  000e7	89 4d cc	 mov	 DWORD PTR __Wchars$[ebp], ecx
$LN4@Maklocstr:
  000ea	83 7d d4 00	 cmp	 DWORD PTR __Count$[ebp], 0
  000ee	76 2c		 jbe	 SHORT $LN3@Maklocstr

; 552  :         if ((_Bytes = _Mbrtowc(&_Wc, _Ptr1, _Count, &_Mbst1, &_Cvt)) <= 0) {

  000f0	8b 53 10	 mov	 edx, DWORD PTR __Cvt$[ebx]
  000f3	52		 push	 edx
  000f4	8d 85 78 ff ff
	ff		 lea	 eax, DWORD PTR __Mbst1$[ebp]
  000fa	50		 push	 eax
  000fb	8b 4d d4	 mov	 ecx, DWORD PTR __Count$[ebp]
  000fe	51		 push	 ecx
  000ff	8b 55 dc	 mov	 edx, DWORD PTR __Ptr1$[ebp]
  00102	52		 push	 edx
  00103	8d 45 88	 lea	 eax, DWORD PTR __Wc$[ebp]
  00106	50		 push	 eax
  00107	e8 00 00 00 00	 call	 __Mbrtowc
  0010c	83 c4 14	 add	 esp, 20			; 00000014H
  0010f	89 45 d0	 mov	 DWORD PTR __Bytes$[ebp], eax
  00112	83 7d d0 00	 cmp	 DWORD PTR __Bytes$[ebp], 0
  00116	7f 02		 jg	 SHORT $LN8@Maklocstr

; 553  :             break;

  00118	eb 02		 jmp	 SHORT $LN3@Maklocstr
$LN8@Maklocstr:

; 554  :         }
; 555  :     }

  0011a	eb b3		 jmp	 SHORT $LN2@Maklocstr
$LN3@Maklocstr:

; 556  : 
; 557  :     ++_Wchars; // count terminating nul

  0011c	8b 4d cc	 mov	 ecx, DWORD PTR __Wchars$[ebp]
  0011f	83 c1 01	 add	 ecx, 1
  00122	89 4d cc	 mov	 DWORD PTR __Wchars$[ebp], ecx

; 558  : 
; 559  :     wchar_t* _Ptrdest = static_cast<wchar_t*>(_calloc_dbg(_Wchars, sizeof(wchar_t), _CRT_BLOCK, __FILE__, __LINE__));

  00125	68 2f 02 00 00	 push	 559			; 0000022fH
  0012a	68 00 00 00 00	 push	 OFFSET ??_C@_0GI@GFIAKDGM@C?3?2Program?5Files?5?$CIx86?$CJ?2Microsof@
  0012f	6a 02		 push	 2
  00131	6a 02		 push	 2
  00133	8b 55 cc	 mov	 edx, DWORD PTR __Wchars$[ebp]
  00136	52		 push	 edx
  00137	ff 15 00 00 00
	00		 call	 DWORD PTR __imp___calloc_dbg
  0013d	83 c4 14	 add	 esp, 20			; 00000014H
  00140	89 45 e4	 mov	 DWORD PTR __Ptrdest$[ebp], eax

; 560  : 
; 561  :     if (!_Ptrdest) {

  00143	83 7d e4 00	 cmp	 DWORD PTR __Ptrdest$[ebp], 0
  00147	75 05		 jne	 SHORT $LN9@Maklocstr

; 562  :         _Xbad_alloc();

  00149	e8 00 00 00 00	 call	 ?_Xbad_alloc@std@@YAXXZ	; std::_Xbad_alloc
$LN9@Maklocstr:

; 563  :     }
; 564  : 
; 565  :     wchar_t* _Ptrnext = _Ptrdest;

  0014e	8b 45 e4	 mov	 eax, DWORD PTR __Ptrdest$[ebp]
  00151	89 45 d8	 mov	 DWORD PTR __Ptrnext$[ebp], eax

; 566  :     mbstate_t _Mbst2  = {};

  00154	6a 08		 push	 8
  00156	6a 00		 push	 0
  00158	8d 4d 98	 lea	 ecx, DWORD PTR __Mbst2$[ebp]
  0015b	51		 push	 ecx
  0015c	e8 00 00 00 00	 call	 ___asan_memset
  00161	83 c4 0c	 add	 esp, 12			; 0000000cH

; 567  : 
; 568  :     for (; 0 < _Wchars; _Count -= _Bytes, _Ptr += _Bytes, --_Wchars, ++_Ptrnext) {

  00164	eb 24		 jmp	 SHORT $LN7@Maklocstr
$LN5@Maklocstr:
  00166	8b 55 d4	 mov	 edx, DWORD PTR __Count$[ebp]
  00169	2b 55 d0	 sub	 edx, DWORD PTR __Bytes$[ebp]
  0016c	89 55 d4	 mov	 DWORD PTR __Count$[ebp], edx
  0016f	8b 43 08	 mov	 eax, DWORD PTR __Ptr$[ebx]
  00172	03 45 d0	 add	 eax, DWORD PTR __Bytes$[ebp]
  00175	89 43 08	 mov	 DWORD PTR __Ptr$[ebx], eax
  00178	8b 4d cc	 mov	 ecx, DWORD PTR __Wchars$[ebp]
  0017b	83 e9 01	 sub	 ecx, 1
  0017e	89 4d cc	 mov	 DWORD PTR __Wchars$[ebp], ecx
  00181	8b 55 d8	 mov	 edx, DWORD PTR __Ptrnext$[ebp]
  00184	83 c2 02	 add	 edx, 2
  00187	89 55 d8	 mov	 DWORD PTR __Ptrnext$[ebp], edx
$LN7@Maklocstr:
  0018a	83 7d cc 00	 cmp	 DWORD PTR __Wchars$[ebp], 0
  0018e	76 29		 jbe	 SHORT $LN6@Maklocstr

; 569  :         if ((_Bytes = _Mbrtowc(_Ptrnext, _Ptr, _Count1, &_Mbst2, &_Cvt)) <= 0) {

  00190	8b 43 10	 mov	 eax, DWORD PTR __Cvt$[ebx]
  00193	50		 push	 eax
  00194	8d 4d 98	 lea	 ecx, DWORD PTR __Mbst2$[ebp]
  00197	51		 push	 ecx
  00198	8b 55 e8	 mov	 edx, DWORD PTR __Count1$[ebp]
  0019b	52		 push	 edx
  0019c	8b 43 08	 mov	 eax, DWORD PTR __Ptr$[ebx]
  0019f	50		 push	 eax
  001a0	8b 4d d8	 mov	 ecx, DWORD PTR __Ptrnext$[ebp]
  001a3	51		 push	 ecx
  001a4	e8 00 00 00 00	 call	 __Mbrtowc
  001a9	83 c4 14	 add	 esp, 20			; 00000014H
  001ac	89 45 d0	 mov	 DWORD PTR __Bytes$[ebp], eax
  001af	83 7d d0 00	 cmp	 DWORD PTR __Bytes$[ebp], 0
  001b3	7f 02		 jg	 SHORT $LN10@Maklocstr

; 570  :             break;

  001b5	eb 02		 jmp	 SHORT $LN6@Maklocstr
$LN10@Maklocstr:

; 571  :         }
; 572  :     }

  001b7	eb ad		 jmp	 SHORT $LN5@Maklocstr
$LN6@Maklocstr:

; 573  : 
; 574  :     *_Ptrnext = L'\0';

  001b9	8b 55 d8	 mov	 edx, DWORD PTR __Ptrnext$[ebp]
  001bc	89 55 f0	 mov	 DWORD PTR tv141[ebp], edx
  001bf	8b 45 f0	 mov	 eax, DWORD PTR tv141[ebp]
  001c2	89 45 e0	 mov	 DWORD PTR tv153[ebp], eax
  001c5	8b 4d e0	 mov	 ecx, DWORD PTR tv153[ebp]
  001c8	c1 e9 03	 shr	 ecx, 3
  001cb	8a 91 00 00 00
	30		 mov	 dl, BYTE PTR [ecx+805306368]
  001d1	88 55 c7	 mov	 BYTE PTR tv156[ebp], dl
  001d4	80 7d c7 00	 cmp	 BYTE PTR tv156[ebp], 0
  001d8	74 18		 je	 SHORT $LN12@Maklocstr
  001da	8a 45 e0	 mov	 al, BYTE PTR tv153[ebp]
  001dd	24 07		 and	 al, 7
  001df	04 01		 add	 al, 1
  001e1	3a 45 c7	 cmp	 al, BYTE PTR tv156[ebp]
  001e4	7c 0c		 jl	 SHORT $LN12@Maklocstr
  001e6	8b 4d e0	 mov	 ecx, DWORD PTR tv153[ebp]
  001e9	51		 push	 ecx
  001ea	e8 00 00 00 00	 call	 ___asan_report_store2
  001ef	83 c4 04	 add	 esp, 4
$LN12@Maklocstr:
  001f2	33 d2		 xor	 edx, edx
  001f4	8b 45 d8	 mov	 eax, DWORD PTR __Ptrnext$[ebp]
  001f7	66 89 10	 mov	 WORD PTR [eax], dx

; 575  : 
; 576  :     return _Ptrdest;

  001fa	8b 4d e4	 mov	 ecx, DWORD PTR __Ptrdest$[ebp]
  001fd	89 4d f8	 mov	 DWORD PTR tv140[ebp], ecx
  00200	c7 85 68 ff ff
	ff 0e 36 e0 45	 mov	 DWORD PTR __asan_gen_0$[ebp], 1172321806 ; 45e0360eH
  0020a	8d 95 68 ff ff
	ff		 lea	 edx, DWORD PTR __asan_gen_0$[ebp]
  00210	c1 ea 03	 shr	 edx, 3
  00213	81 c2 00 00 00
	30		 add	 edx, 805306368		; 30000000H
  00219	89 55 f4	 mov	 DWORD PTR tv149[ebp], edx
  0021c	6a 0b		 push	 11			; 0000000bH
  0021e	8b 45 f4	 mov	 eax, DWORD PTR tv149[ebp]
  00221	50		 push	 eax
  00222	e8 00 00 00 00	 call	 ___asan_set_shadow_00
  00227	83 c4 08	 add	 esp, 8
  0022a	8b 45 f8	 mov	 eax, DWORD PTR tv140[ebp]
$LN11@Maklocstr:

; 577  : }

  0022d	8b 4d fc	 mov	 ecx, DWORD PTR __$ArrayPad$[ebp]
  00230	33 cd		 xor	 ecx, ebp
  00232	e8 00 00 00 00	 call	 @__security_check_cookie@4
  00237	8b e5		 mov	 esp, ebp
  00239	5d		 pop	 ebp
  0023a	8b e3		 mov	 esp, ebx
  0023c	5b		 pop	 ebx
  0023d	c3		 ret	 0
??$_Maklocstr@_W@std@@YAPA_WPBDPA_WABU_Cvtvec@@@Z ENDP	; std::_Maklocstr<wchar_t>
_TEXT	ENDS
; Function compile flags: /Odtp /RTCu
; File C:\Program Files (x86)\Windows Kits\10\Include\10.0.19041.0\ucrt\wchar.h
;	COMDAT _wmemcpy
_TEXT	SEGMENT
__S1$ = 8						; size = 4
__S2$ = 12						; size = 4
__N$ = 16						; size = 4
_wmemcpy PROC						; COMDAT

; 234  :     {

  00000	55		 push	 ebp
  00001	8b ec		 mov	 ebp, esp
  00003	b9 00 00 00 00	 mov	 ecx, OFFSET __93DC0B45_wchar@h
  00008	e8 00 00 00 00	 call	 @__CheckForDebuggerJustMyCode@4

; 235  :         #pragma warning(suppress: 6386) // Buffer overrun
; 236  :         return (wchar_t*)memcpy(_S1, _S2, _N*sizeof(wchar_t));

  0000d	8b 45 10	 mov	 eax, DWORD PTR __N$[ebp]
  00010	d1 e0		 shl	 eax, 1
  00012	50		 push	 eax
  00013	8b 4d 0c	 mov	 ecx, DWORD PTR __S2$[ebp]
  00016	51		 push	 ecx
  00017	8b 55 08	 mov	 edx, DWORD PTR __S1$[ebp]
  0001a	52		 push	 edx
  0001b	e8 00 00 00 00	 call	 _memcpy
  00020	83 c4 0c	 add	 esp, 12			; 0000000cH

; 237  :     }

  00023	5d		 pop	 ebp
  00024	c3		 ret	 0
_wmemcpy ENDP
_TEXT	ENDS
; Function compile flags: /Odtp /RTCu
; File C:\Users\theob\Documents\GitHub\as-pts1\rendu2\Block.cpp
;	COMDAT ?__empty_global_delete@@YAXPAXIW4align_val_t@std@@@Z
_TEXT	SEGMENT
___formal$ = 8						; size = 4
___formal$ = 12						; size = 4
___formal$ = 16						; size = 4
?__empty_global_delete@@YAXPAXIW4align_val_t@std@@@Z PROC ; __empty_global_delete, COMDAT

  00000	55		 push	 ebp
  00001	8b ec		 mov	 ebp, esp
  00003	b9 00 00 00 00	 mov	 ecx, OFFSET __E070E73D_Block@cpp
  00008	e8 00 00 00 00	 call	 @__CheckForDebuggerJustMyCode@4
  0000d	5d		 pop	 ebp
  0000e	c3		 ret	 0
?__empty_global_delete@@YAXPAXIW4align_val_t@std@@@Z ENDP ; __empty_global_delete
_TEXT	ENDS
; Function compile flags: /Odtp /RTCu
; File C:\Users\theob\Documents\GitHub\as-pts1\rendu2\Block.cpp
;	COMDAT ?__empty_global_delete@@YAXPAXW4align_val_t@std@@@Z
_TEXT	SEGMENT
___formal$ = 8						; size = 4
___formal$ = 12						; size = 4
?__empty_global_delete@@YAXPAXW4align_val_t@std@@@Z PROC ; __empty_global_delete, COMDAT

  00000	55		 push	 ebp
  00001	8b ec		 mov	 ebp, esp
  00003	b9 00 00 00 00	 mov	 ecx, OFFSET __E070E73D_Block@cpp
  00008	e8 00 00 00 00	 call	 @__CheckForDebuggerJustMyCode@4
  0000d	5d		 pop	 ebp
  0000e	c3		 ret	 0
?__empty_global_delete@@YAXPAXW4align_val_t@std@@@Z ENDP ; __empty_global_delete
_TEXT	ENDS
; Function compile flags: /Odtp /RTCu
; File C:\Users\theob\Documents\GitHub\as-pts1\rendu2\Block.cpp
;	COMDAT ?__empty_global_delete@@YAXPAXI@Z
_TEXT	SEGMENT
___formal$ = 8						; size = 4
___formal$ = 12						; size = 4
?__empty_global_delete@@YAXPAXI@Z PROC			; __empty_global_delete, COMDAT

  00000	55		 push	 ebp
  00001	8b ec		 mov	 ebp, esp
  00003	b9 00 00 00 00	 mov	 ecx, OFFSET __E070E73D_Block@cpp
  00008	e8 00 00 00 00	 call	 @__CheckForDebuggerJustMyCode@4
  0000d	5d		 pop	 ebp
  0000e	c3		 ret	 0
?__empty_global_delete@@YAXPAXI@Z ENDP			; __empty_global_delete
_TEXT	ENDS
; Function compile flags: /Odtp /RTCu
; File C:\Users\theob\Documents\GitHub\as-pts1\rendu2\Block.cpp
;	COMDAT ?__empty_global_delete@@YAXPAX@Z
_TEXT	SEGMENT
___formal$ = 8						; size = 4
?__empty_global_delete@@YAXPAX@Z PROC			; __empty_global_delete, COMDAT

  00000	55		 push	 ebp
  00001	8b ec		 mov	 ebp, esp
  00003	b9 00 00 00 00	 mov	 ecx, OFFSET __E070E73D_Block@cpp
  00008	e8 00 00 00 00	 call	 @__CheckForDebuggerJustMyCode@4
  0000d	5d		 pop	 ebp
  0000e	c3		 ret	 0
?__empty_global_delete@@YAXPAX@Z ENDP			; __empty_global_delete
_TEXT	ENDS
END
