; Listing generated by Microsoft (R) Optimizing Compiler Version 19.29.30137.0 

	TITLE	C:\Users\theob\Documents\GitHub\as-pts1\travail\ProjetTutore1\Debug\Block.obj
	.686P
	.XMM
	include listing.inc
	.model	flat

INCLUDELIB MSVCRTD
INCLUDELIB OLDNAMES

msvcjmc	SEGMENT
__97D3638F_vcruntime_new@h DB 01H
__741AE07E_corecrt_math@h DB 01H
__B49664B7_stdlib@h DB 01H
__244AF085_cstdlib DB 01H
__47F37C5A_xtr1common DB 01H
__1FEB9909_corecrt_memcpy_s@h DB 01H
__A751F051_corecrt_memory@h DB 01H
__9200769A_corecrt_wstring@h DB 01H
__32E5F013_string@h DB 01H
__81812A28_cstddef DB 01H
__589FA321_type_traits DB 01H
__A2143F22_corecrt_stdio_config@h DB 01H
__829E1958_corecrt_wstdio@h DB 01H
__6DFAE8B8_stdio@h DB 01H
__C6E16F6F_corecrt_wconio@h DB 01H
__6D390390_corecrt_wio@h DB 01H
__1157D6BA_corecrt_wtime@h DB 01H
__1DC1E279_stat@h DB 01H
__93DC0B45_wchar@h DB 01H
__7FE5F402_limits DB 01H
__DD5FCA34_compare DB 01H
__12269DE6_xutility DB 01H
__60BC708E_cmath DB 01H
__20BB4341_malloc@h DB 01H
__B0A13A33_vcruntime_exception@h DB 01H
__FF458F76_exception DB 01H
__C69F69CF_tuple DB 01H
__79D216CD_xmemory DB 01H
__374A57BA_xpolymorphic_allocator@h DB 01H
__0D019051_xstring DB 01H
__760BB52B_stdexcept DB 01H
__A4685E82_xcall_once@h DB 01H
__A0B61CF9_time@h DB 01H
__DDB379A0_xthreads@h DB 01H
__14D0A8C0_atomic DB 01H
__1B354CA2_system_error DB 01H
__65ADBEC9_vcruntime_typeinfo@h DB 01H
__62F96EFF_typeinfo DB 01H
__C34BF88C_memory DB 01H
__EF0EAF83_xfacet DB 01H
__B2D2BA86_ctype@h DB 01H
__7D708D37_xlocinfo DB 01H
__D23FE460_xlocale DB 01H
__4495FA24_xiosbase DB 01H
__4CB88277_xlocnum DB 01H
__845859A3_ios DB 01H
__98EE5594_InputStream@hpp DB 01H
__489ACE24_NonCopyable@hpp DB 01H
__B7987E10_string DB 01H
__1589CDA2_algorithm DB 01H
__FE33131C_xlocmes DB 01H
__67DA974F_xlocmon DB 01H
__D96D2425_xloctime DB 01H
__54960FDB_Thread@inl DB 01H
__7A0EAAD2_ContextSettings@hpp DB 01H
__A5094FF8_Drawable@hpp DB 01H
__617EE64B_Glyph@hpp DB 01H
__69958C8C_xtree DB 01H
__4B7B7884_Font@hpp DB 01H
__5A681CBB_Block@h DB 01H
__8D8A9CEF_Sprite@hpp DB 01H
__605F967F_Block@cpp DB 01H
__68A60A21_locale DB 01H
__C12F3EA4_ostream DB 01H
__74AB0D97_streambuf DB 01H
__038A2AA6_iterator DB 01H
__B30C2184_iosfwd DB 01H
__1347750E_utility DB 01H
__E458E21C_xstddef DB 01H
__6AE60262_Rect@inl DB 01H
__AB640BC5_Rect@hpp DB 01H
__F54903A0_xatomic@h DB 01H
msvcjmc	ENDS
CONST	SEGMENT
$SG85598 DB	'C:\Program Files (x86)\Microsoft Visual Studio\2019\Comm'
	DB	'unity\VC\Tools\MSVC\14.29.30133\include\xlocale', 00H
$SG88272 DB	'invalid argument', 00H
	ORG $+3
$SG88273 DB	'%s', 00H
	ORG $+1
$SG88274 DB	'C:\Program Files (x86)\Microsoft Visual Studio\2019\Comm'
	DB	'unity\VC\Tools\MSVC\14.29.30133\include\xmemory', 00H
$SG88275 DB	'C', 00H, ':', 00H, '\', 00H, 'P', 00H, 'r', 00H, 'o', 00H
	DB	'g', 00H, 'r', 00H, 'a', 00H, 'm', 00H, ' ', 00H, 'F', 00H, 'i'
	DB	00H, 'l', 00H, 'e', 00H, 's', 00H, ' ', 00H, '(', 00H, 'x', 00H
	DB	'8', 00H, '6', 00H, ')', 00H, '\', 00H, 'M', 00H, 'i', 00H, 'c'
	DB	00H, 'r', 00H, 'o', 00H, 's', 00H, 'o', 00H, 'f', 00H, 't', 00H
	DB	' ', 00H, 'V', 00H, 'i', 00H, 's', 00H, 'u', 00H, 'a', 00H, 'l'
	DB	00H, ' ', 00H, 'S', 00H, 't', 00H, 'u', 00H, 'd', 00H, 'i', 00H
	DB	'o', 00H, '\', 00H, '2', 00H, '0', 00H, '1', 00H, '9', 00H, '\'
	DB	00H, 'C', 00H, 'o', 00H, 'm', 00H, 'm', 00H, 'u', 00H, 'n', 00H
	DB	'i', 00H, 't', 00H, 'y', 00H, '\', 00H, 'V', 00H, 'C', 00H, '\'
	DB	00H, 'T', 00H, 'o', 00H, 'o', 00H, 'l', 00H, 's', 00H, '\', 00H
	DB	'M', 00H, 'S', 00H, 'V', 00H, 'C', 00H, '\', 00H, '1', 00H, '4'
	DB	00H, '.', 00H, '2', 00H, '9', 00H, '.', 00H, '3', 00H, '0', 00H
	DB	'1', 00H, '3', 00H, '3', 00H, '\', 00H, 'i', 00H, 'n', 00H, 'c'
	DB	00H, 'l', 00H, 'u', 00H, 'd', 00H, 'e', 00H, '\', 00H, 'x', 00H
	DB	'm', 00H, 'e', 00H, 'm', 00H, 'o', 00H, 'r', 00H, 'y', 00H, 00H
	DB	00H
$SG88276 DB	's', 00H, 't', 00H, 'd', 00H, ':', 00H, ':', 00H, '_', 00H
	DB	'A', 00H, 'l', 00H, 'l', 00H, 'o', 00H, 'c', 00H, 'a', 00H, 't'
	DB	00H, 'e', 00H, '_', 00H, 'm', 00H, 'a', 00H, 'n', 00H, 'u', 00H
	DB	'a', 00H, 'l', 00H, 'l', 00H, 'y', 00H, '_', 00H, 'v', 00H, 'e'
	DB	00H, 'c', 00H, 't', 00H, 'o', 00H, 'r', 00H, '_', 00H, 'a', 00H
	DB	'l', 00H, 'i', 00H, 'g', 00H, 'n', 00H, 'e', 00H, 'd', 00H, 00H
	DB	00H
	ORG $+2
$SG88277 DB	'"', 00H, 'i', 00H, 'n', 00H, 'v', 00H, 'a', 00H, 'l', 00H
	DB	'i', 00H, 'd', 00H, ' ', 00H, 'a', 00H, 'r', 00H, 'g', 00H, 'u'
	DB	00H, 'm', 00H, 'e', 00H, 'n', 00H, 't', 00H, '"', 00H, 00H, 00H
CONST	ENDS
PUBLIC	?__empty_global_delete@@YAXPAX@Z		; __empty_global_delete
PUBLIC	?__empty_global_delete@@YAXPAXI@Z		; __empty_global_delete
PUBLIC	?__empty_global_delete@@YAXPAXW4align_val_t@std@@@Z ; __empty_global_delete
PUBLIC	?__empty_global_delete@@YAXPAXIW4align_val_t@std@@@Z ; __empty_global_delete
PUBLIC	_wmemcpy
PUBLIC	??$_Maklocstr@_W@std@@YAPA_WPBDPA_WABU_Cvtvec@@@Z ; std::_Maklocstr<wchar_t>
PUBLIC	??$min@H@std@@YAABHABH0@Z			; std::min<int>
PUBLIC	?_Maklocwcs@std@@YAPA_WPB_W@Z			; std::_Maklocwcs
PUBLIC	??$_Maklocstr@D@std@@YAPADPBDPADABU_Cvtvec@@@Z	; std::_Maklocstr<char>
PUBLIC	??$_Getvals@_W@?$time_get@DV?$istreambuf_iterator@DU?$char_traits@D@std@@@std@@@std@@IAEX_WABV_Locinfo@1@@Z ; std::time_get<char,std::istreambuf_iterator<char,std::char_traits<char> > >::_Getvals<wchar_t>
PUBLIC	??$_Getvals@_W@?$time_get@_WV?$istreambuf_iterator@_WU?$char_traits@_W@std@@@std@@@std@@IAEX_WABV_Locinfo@1@@Z ; std::time_get<wchar_t,std::istreambuf_iterator<wchar_t,std::char_traits<wchar_t> > >::_Getvals<wchar_t>
PUBLIC	??0?$Rect@H@sf@@QAE@XZ				; sf::Rect<int>::Rect<int>
PUBLIC	??0?$Rect@H@sf@@QAE@HHHH@Z			; sf::Rect<int>::Rect<int>
PUBLIC	?intersects@?$Rect@H@sf@@QBE_NABV12@@Z		; sf::Rect<int>::intersects
PUBLIC	?intersects@?$Rect@H@sf@@QBE_NABV12@AAV12@@Z	; sf::Rect<int>::intersects
PUBLIC	??_GTexture@sf@@QAEPAXI@Z			; sf::Texture::`scalar deleting destructor'
PUBLIC	??_GSprite@sf@@UAEPAXI@Z			; sf::Sprite::`scalar deleting destructor'
PUBLIC	??0Block@@QAE@HHPAVImage@sf@@@Z			; Block::Block
PUBLIC	??1Block@@QAE@XZ				; Block::~Block
PUBLIC	?show@Block@@QAEXPAVRenderWindow@sf@@@Z		; Block::show
PUBLIC	?collide@Block@@QAE_NV?$Rect@H@sf@@@Z		; Block::collide
PUBLIC	??$max@H@std@@YAABHABH0@Z			; std::max<int>
PUBLIC	??_ESprite@sf@@W3AEPAXI@Z			; [thunk]:sf::Sprite::`vector deleting destructor'
PUBLIC	__JustMyCode_Default
PUBLIC	??_C@_0GI@GFIAKDGM@C?3?2Program?5Files?5?$CIx86?$CJ?2Microsof@ ; `string'
PUBLIC	??_C@_0GI@OGMNKBMN@C?3?2Program?5Files?5?$CIx86?$CJ?2Microsof@ ; `string'
PUBLIC	??_SSprite@sf@@6BDrawable@1@@			; sf::Sprite::`local vftable'
PUBLIC	??_SSprite@sf@@6BTransformable@1@@		; sf::Sprite::`local vftable'
PUBLIC	??_C@_0N@LPFKKEBD@?3AM?3am?3PM?3pm@		; `string'
PUBLIC	??_C@_1BK@MHIKGOKE@?$AA?3?$AAA?$AAM?$AA?3?$AAa?$AAm?$AA?3?$AAP?$AAM?$AA?3?$AAp?$AAm@ ; `string'
PUBLIC	??_R4Sprite@sf@@6BDrawable@1@@			; sf::Sprite::`RTTI Complete Object Locator'
PUBLIC	??_R0?AVSprite@sf@@@8				; sf::Sprite `RTTI Type Descriptor'
PUBLIC	??_R3Sprite@sf@@8				; sf::Sprite::`RTTI Class Hierarchy Descriptor'
PUBLIC	??_R2Sprite@sf@@8				; sf::Sprite::`RTTI Base Class Array'
PUBLIC	??_R1A@?0A@EA@Sprite@sf@@8			; sf::Sprite::`RTTI Base Class Descriptor at (0,-1,0,64)'
PUBLIC	??_R1A@?0A@EA@Drawable@sf@@8			; sf::Drawable::`RTTI Base Class Descriptor at (0,-1,0,64)'
PUBLIC	??_R0?AVDrawable@sf@@@8				; sf::Drawable `RTTI Type Descriptor'
PUBLIC	??_R3Drawable@sf@@8				; sf::Drawable::`RTTI Class Hierarchy Descriptor'
PUBLIC	??_R2Drawable@sf@@8				; sf::Drawable::`RTTI Base Class Array'
PUBLIC	??_R13?0A@EA@Transformable@sf@@8		; sf::Transformable::`RTTI Base Class Descriptor at (4,-1,0,64)'
PUBLIC	??_R0?AVTransformable@sf@@@8			; sf::Transformable `RTTI Type Descriptor'
PUBLIC	??_R3Transformable@sf@@8			; sf::Transformable::`RTTI Class Hierarchy Descriptor'
PUBLIC	??_R2Transformable@sf@@8			; sf::Transformable::`RTTI Base Class Array'
PUBLIC	??_R1A@?0A@EA@Transformable@sf@@8		; sf::Transformable::`RTTI Base Class Descriptor at (0,-1,0,64)'
PUBLIC	??_R4Sprite@sf@@6BTransformable@1@@		; sf::Sprite::`RTTI Complete Object Locator'
EXTRN	??2@YAPAXI@Z:PROC				; operator new
EXTRN	??3@YAXPAXI@Z:PROC				; operator delete
EXTRN	__imp___calloc_dbg:PROC
EXTRN	_memcpy:PROC
EXTRN	__imp__wcslen:PROC
EXTRN	_strlen:PROC
EXTRN	?_Xbad_alloc@std@@YAXXZ:PROC			; std::_Xbad_alloc
EXTRN	__Mbrtowc:PROC
EXTRN	__imp_?_Getcvt@_Locinfo@std@@QBE?AU_Cvtvec@@XZ:PROC
EXTRN	__imp_?_Getdays@_Locinfo@std@@QBEPBDXZ:PROC
EXTRN	__imp_?_Getmonths@_Locinfo@std@@QBEPBDXZ:PROC
EXTRN	__imp_?_W_Getdays@_Locinfo@std@@QBEPBGXZ:PROC
EXTRN	__imp_?_W_Getmonths@_Locinfo@std@@QBEPBGXZ:PROC
EXTRN	__imp_?setPosition@Transformable@sf@@QAEXMM@Z:PROC
EXTRN	__imp_??0Texture@sf@@QAE@XZ:PROC
EXTRN	__imp_??1Texture@sf@@QAE@XZ:PROC
EXTRN	__imp_?loadFromImage@Texture@sf@@QAE_NABVImage@2@ABV?$Rect@H@2@@Z:PROC
EXTRN	__imp_?setSmooth@Texture@sf@@QAEX_N@Z:PROC
EXTRN	__imp_?draw@RenderTarget@sf@@QAEXABVDrawable@2@ABVRenderStates@2@@Z:PROC
EXTRN	__imp_??0Sprite@sf@@QAE@ABVTexture@1@ABV?$Rect@H@1@@Z:PROC
EXTRN	__imp_??1Sprite@sf@@UAE@XZ:PROC
EXTRN	??_ESprite@sf@@UAEPAXI@Z:PROC			; sf::Sprite::`vector deleting destructor'
EXTRN	?draw@Sprite@sf@@EBEXAAVRenderTarget@2@VRenderStates@2@@Z:PROC ; sf::Sprite::draw
EXTRN	@_RTC_CheckStackVars@8:PROC
EXTRN	@__CheckForDebuggerJustMyCode@4:PROC
EXTRN	@__security_check_cookie@4:PROC
EXTRN	__RTC_CheckEsp:PROC
EXTRN	__RTC_InitBase:PROC
EXTRN	__RTC_Shutdown:PROC
EXTRN	___CxxFrameHandler3:PROC
EXTRN	??_7type_info@@6B@:QWORD			; type_info::`vftable'
EXTRN	__imp_?Default@RenderStates@sf@@2V12@B:BYTE
EXTRN	___security_cookie:DWORD
EXTRN	__fltused:DWORD
;	COMDAT rtc$TMZ
rtc$TMZ	SEGMENT
__RTC_Shutdown.rtc$TMZ DD FLAT:__RTC_Shutdown
rtc$TMZ	ENDS
;	COMDAT rtc$IMZ
rtc$IMZ	SEGMENT
__RTC_InitBase.rtc$IMZ DD FLAT:__RTC_InitBase
rtc$IMZ	ENDS
;	COMDAT ??_R4Sprite@sf@@6BTransformable@1@@
rdata$r	SEGMENT
??_R4Sprite@sf@@6BTransformable@1@@ DD 00H		; sf::Sprite::`RTTI Complete Object Locator'
	DD	04H
	DD	00H
	DD	FLAT:??_R0?AVSprite@sf@@@8
	DD	FLAT:??_R3Sprite@sf@@8
rdata$r	ENDS
;	COMDAT ??_R1A@?0A@EA@Transformable@sf@@8
rdata$r	SEGMENT
??_R1A@?0A@EA@Transformable@sf@@8 DD FLAT:??_R0?AVTransformable@sf@@@8 ; sf::Transformable::`RTTI Base Class Descriptor at (0,-1,0,64)'
	DD	00H
	DD	00H
	DD	0ffffffffH
	DD	00H
	DD	040H
	DD	FLAT:??_R3Transformable@sf@@8
rdata$r	ENDS
;	COMDAT ??_R2Transformable@sf@@8
rdata$r	SEGMENT
??_R2Transformable@sf@@8 DD FLAT:??_R1A@?0A@EA@Transformable@sf@@8 ; sf::Transformable::`RTTI Base Class Array'
rdata$r	ENDS
;	COMDAT ??_R3Transformable@sf@@8
rdata$r	SEGMENT
??_R3Transformable@sf@@8 DD 00H				; sf::Transformable::`RTTI Class Hierarchy Descriptor'
	DD	00H
	DD	01H
	DD	FLAT:??_R2Transformable@sf@@8
rdata$r	ENDS
;	COMDAT ??_R0?AVTransformable@sf@@@8
data$rs	SEGMENT
??_R0?AVTransformable@sf@@@8 DD FLAT:??_7type_info@@6B@	; sf::Transformable `RTTI Type Descriptor'
	DD	00H
	DB	'.?AVTransformable@sf@@', 00H
data$rs	ENDS
;	COMDAT ??_R13?0A@EA@Transformable@sf@@8
rdata$r	SEGMENT
??_R13?0A@EA@Transformable@sf@@8 DD FLAT:??_R0?AVTransformable@sf@@@8 ; sf::Transformable::`RTTI Base Class Descriptor at (4,-1,0,64)'
	DD	00H
	DD	04H
	DD	0ffffffffH
	DD	00H
	DD	040H
	DD	FLAT:??_R3Transformable@sf@@8
rdata$r	ENDS
;	COMDAT ??_R2Drawable@sf@@8
rdata$r	SEGMENT
??_R2Drawable@sf@@8 DD FLAT:??_R1A@?0A@EA@Drawable@sf@@8 ; sf::Drawable::`RTTI Base Class Array'
rdata$r	ENDS
;	COMDAT ??_R3Drawable@sf@@8
rdata$r	SEGMENT
??_R3Drawable@sf@@8 DD 00H				; sf::Drawable::`RTTI Class Hierarchy Descriptor'
	DD	00H
	DD	01H
	DD	FLAT:??_R2Drawable@sf@@8
rdata$r	ENDS
;	COMDAT ??_R0?AVDrawable@sf@@@8
data$rs	SEGMENT
??_R0?AVDrawable@sf@@@8 DD FLAT:??_7type_info@@6B@	; sf::Drawable `RTTI Type Descriptor'
	DD	00H
	DB	'.?AVDrawable@sf@@', 00H
data$rs	ENDS
;	COMDAT ??_R1A@?0A@EA@Drawable@sf@@8
rdata$r	SEGMENT
??_R1A@?0A@EA@Drawable@sf@@8 DD FLAT:??_R0?AVDrawable@sf@@@8 ; sf::Drawable::`RTTI Base Class Descriptor at (0,-1,0,64)'
	DD	00H
	DD	00H
	DD	0ffffffffH
	DD	00H
	DD	040H
	DD	FLAT:??_R3Drawable@sf@@8
rdata$r	ENDS
;	COMDAT ??_R1A@?0A@EA@Sprite@sf@@8
rdata$r	SEGMENT
??_R1A@?0A@EA@Sprite@sf@@8 DD FLAT:??_R0?AVSprite@sf@@@8 ; sf::Sprite::`RTTI Base Class Descriptor at (0,-1,0,64)'
	DD	02H
	DD	00H
	DD	0ffffffffH
	DD	00H
	DD	040H
	DD	FLAT:??_R3Sprite@sf@@8
rdata$r	ENDS
;	COMDAT ??_R2Sprite@sf@@8
rdata$r	SEGMENT
??_R2Sprite@sf@@8 DD FLAT:??_R1A@?0A@EA@Sprite@sf@@8	; sf::Sprite::`RTTI Base Class Array'
	DD	FLAT:??_R1A@?0A@EA@Drawable@sf@@8
	DD	FLAT:??_R13?0A@EA@Transformable@sf@@8
rdata$r	ENDS
;	COMDAT ??_R3Sprite@sf@@8
rdata$r	SEGMENT
??_R3Sprite@sf@@8 DD 00H				; sf::Sprite::`RTTI Class Hierarchy Descriptor'
	DD	01H
	DD	03H
	DD	FLAT:??_R2Sprite@sf@@8
rdata$r	ENDS
;	COMDAT ??_R0?AVSprite@sf@@@8
data$rs	SEGMENT
??_R0?AVSprite@sf@@@8 DD FLAT:??_7type_info@@6B@	; sf::Sprite `RTTI Type Descriptor'
	DD	00H
	DB	'.?AVSprite@sf@@', 00H
data$rs	ENDS
;	COMDAT ??_R4Sprite@sf@@6BDrawable@1@@
rdata$r	SEGMENT
??_R4Sprite@sf@@6BDrawable@1@@ DD 00H			; sf::Sprite::`RTTI Complete Object Locator'
	DD	00H
	DD	00H
	DD	FLAT:??_R0?AVSprite@sf@@@8
	DD	FLAT:??_R3Sprite@sf@@8
rdata$r	ENDS
;	COMDAT ??_C@_1BK@MHIKGOKE@?$AA?3?$AAA?$AAM?$AA?3?$AAa?$AAm?$AA?3?$AAP?$AAM?$AA?3?$AAp?$AAm@
CONST	SEGMENT
??_C@_1BK@MHIKGOKE@?$AA?3?$AAA?$AAM?$AA?3?$AAa?$AAm?$AA?3?$AAP?$AAM?$AA?3?$AAp?$AAm@ DB ':'
	DB	00H, 'A', 00H, 'M', 00H, ':', 00H, 'a', 00H, 'm', 00H, ':', 00H
	DB	'P', 00H, 'M', 00H, ':', 00H, 'p', 00H, 'm', 00H, 00H, 00H ; `string'
CONST	ENDS
;	COMDAT ??_C@_0N@LPFKKEBD@?3AM?3am?3PM?3pm@
CONST	SEGMENT
??_C@_0N@LPFKKEBD@?3AM?3am?3PM?3pm@ DB ':AM:am:PM:pm', 00H ; `string'
CONST	ENDS
;	COMDAT ??_SSprite@sf@@6BTransformable@1@@
CONST	SEGMENT
??_SSprite@sf@@6BTransformable@1@@ DD FLAT:??_R4Sprite@sf@@6BTransformable@1@@ ; sf::Sprite::`local vftable'
	DD	FLAT:??_ESprite@sf@@W3AEPAXI@Z
CONST	ENDS
;	COMDAT ??_SSprite@sf@@6BDrawable@1@@
CONST	SEGMENT
??_SSprite@sf@@6BDrawable@1@@ DD FLAT:??_R4Sprite@sf@@6BDrawable@1@@ ; sf::Sprite::`local vftable'
	DD	FLAT:??_ESprite@sf@@UAEPAXI@Z
	DD	FLAT:?draw@Sprite@sf@@EBEXAAVRenderTarget@2@VRenderStates@2@@Z
CONST	ENDS
;	COMDAT ??_C@_0GI@OGMNKBMN@C?3?2Program?5Files?5?$CIx86?$CJ?2Microsof@
CONST	SEGMENT
??_C@_0GI@OGMNKBMN@C?3?2Program?5Files?5?$CIx86?$CJ?2Microsof@ DB 'C:\Pro'
	DB	'gram Files (x86)\Microsoft Visual Studio\2019\Community\VC\To'
	DB	'ols\MSVC\14.29.30133\include\xlocnum', 00H	; `string'
CONST	ENDS
;	COMDAT ??_C@_0GI@GFIAKDGM@C?3?2Program?5Files?5?$CIx86?$CJ?2Microsof@
CONST	SEGMENT
??_C@_0GI@GFIAKDGM@C?3?2Program?5Files?5?$CIx86?$CJ?2Microsof@ DB 'C:\Pro'
	DB	'gram Files (x86)\Microsoft Visual Studio\2019\Community\VC\To'
	DB	'ols\MSVC\14.29.30133\include\xlocale', 00H	; `string'
CONST	ENDS
voltbl	SEGMENT
_volmd	DD	0ffffffffH
	DDSymXIndex: 	FLAT:__unwindfunclet$??0Block@@QAE@HHPAVImage@sf@@@Z$0
	DD	04dH
voltbl	ENDS
xdata$x	SEGMENT
__unwindtable$??0Block@@QAE@HHPAVImage@sf@@@Z DD 0ffffffffH
	DD	FLAT:__unwindfunclet$??0Block@@QAE@HHPAVImage@sf@@@Z$0
	DD	0ffffffffH
	DD	FLAT:__unwindfunclet$??0Block@@QAE@HHPAVImage@sf@@@Z$1
	DD	0ffffffffH
	DD	FLAT:__unwindfunclet$??0Block@@QAE@HHPAVImage@sf@@@Z$2
	DD	0ffffffffH
	DD	FLAT:__unwindfunclet$??0Block@@QAE@HHPAVImage@sf@@@Z$3
__ehfuncinfo$??0Block@@QAE@HHPAVImage@sf@@@Z DD 019930522H
	DD	04H
	DD	FLAT:__unwindtable$??0Block@@QAE@HHPAVImage@sf@@@Z
	DD	2 DUP(00H)
	DD	2 DUP(00H)
	DD	00H
	DD	01H
xdata$x	ENDS
;	COMDAT voltbl
voltbl	SEGMENT
_volmd	DW	025H
	DW	0265H
voltbl	ENDS
;	COMDAT voltbl
voltbl	SEGMENT
_volmd	DB	02aH
	DB	063H
voltbl	ENDS
;	COMDAT voltbl
voltbl	SEGMENT
_volmd	DW	01eH
	DW	0160H
voltbl	ENDS
; Function compile flags: /Odt
;	COMDAT __JustMyCode_Default
_TEXT	SEGMENT
__JustMyCode_Default PROC				; COMDAT
  00000	55		 push	 ebp
  00001	8b ec		 mov	 ebp, esp
  00003	5d		 pop	 ebp
  00004	c3		 ret	 0
__JustMyCode_Default ENDP
_TEXT	ENDS
; Function compile flags: /Odsp /RTCsu
;	COMDAT ??_ESprite@sf@@W3AEPAXI@Z
_TEXT	SEGMENT
??_ESprite@sf@@W3AEPAXI@Z PROC				; [thunk]:sf::Sprite::`vector deleting destructor', COMDAT
  00000	83 e9 04	 sub	 ecx, 4
  00003	e9 00 00 00 00	 jmp	 ??_ESprite@sf@@UAEPAXI@Z
??_ESprite@sf@@W3AEPAXI@Z ENDP				; [thunk]:sf::Sprite::`vector deleting destructor'
_TEXT	ENDS
; Function compile flags: /Odtp /RTCsu
; File C:\Program Files (x86)\Microsoft Visual Studio\2019\Community\VC\Tools\MSVC\14.29.30133\include\utility
;	COMDAT ??$max@H@std@@YAABHABH0@Z
_TEXT	SEGMENT
tv65 = -8						; size = 4
$T1 = -4						; size = 4
__Left$ = 8						; size = 4
__Right$ = 12						; size = 4
??$max@H@std@@YAABHABH0@Z PROC				; std::max<int>, COMDAT

; 42   :     const _Ty& _Left, const _Ty& _Right) noexcept(noexcept(_Left < _Right)) /* strengthened */ {

  00000	55		 push	 ebp
  00001	8b ec		 mov	 ebp, esp
  00003	83 ec 08	 sub	 esp, 8
  00006	c7 45 f8 cc cc
	cc cc		 mov	 DWORD PTR [ebp-8], -858993460 ; ccccccccH
  0000d	c7 45 fc cc cc
	cc cc		 mov	 DWORD PTR [ebp-4], -858993460 ; ccccccccH
  00014	b9 00 00 00 00	 mov	 ecx, OFFSET __1347750E_utility
  00019	e8 00 00 00 00	 call	 @__CheckForDebuggerJustMyCode@4

; 43   :     // return larger of _Left and _Right
; 44   :     return _Left < _Right ? _Right : _Left;

  0001e	8b 45 08	 mov	 eax, DWORD PTR __Left$[ebp]
  00021	8b 4d 0c	 mov	 ecx, DWORD PTR __Right$[ebp]
  00024	8b 10		 mov	 edx, DWORD PTR [eax]
  00026	3b 11		 cmp	 edx, DWORD PTR [ecx]
  00028	7d 08		 jge	 SHORT $LN3@max
  0002a	8b 45 0c	 mov	 eax, DWORD PTR __Right$[ebp]
  0002d	89 45 f8	 mov	 DWORD PTR tv65[ebp], eax
  00030	eb 06		 jmp	 SHORT $LN4@max
$LN3@max:
  00032	8b 4d 08	 mov	 ecx, DWORD PTR __Left$[ebp]
  00035	89 4d f8	 mov	 DWORD PTR tv65[ebp], ecx
$LN4@max:
  00038	8b 55 f8	 mov	 edx, DWORD PTR tv65[ebp]
  0003b	89 55 fc	 mov	 DWORD PTR $T1[ebp], edx
  0003e	8b 45 fc	 mov	 eax, DWORD PTR $T1[ebp]

; 45   : }

  00041	83 c4 08	 add	 esp, 8
  00044	3b ec		 cmp	 ebp, esp
  00046	e8 00 00 00 00	 call	 __RTC_CheckEsp
  0004b	8b e5		 mov	 esp, ebp
  0004d	5d		 pop	 ebp
  0004e	c3		 ret	 0
??$max@H@std@@YAABHABH0@Z ENDP				; std::max<int>
_TEXT	ENDS
; Function compile flags: /Odtp /RTCsu
; File C:\Users\theob\Documents\GitHub\as-pts1\travail\ProjetTutore1\Block.cpp
_TEXT	SEGMENT
tv69 = -8						; size = 4
_this$ = -4						; size = 4
_rect$ = 8						; size = 16
?collide@Block@@QAE_NV?$Rect@H@sf@@@Z PROC		; Block::collide
; _this$ = ecx

; 35   : {

  00000	55		 push	 ebp
  00001	8b ec		 mov	 ebp, esp
  00003	83 ec 08	 sub	 esp, 8
  00006	c7 45 f8 cc cc
	cc cc		 mov	 DWORD PTR [ebp-8], -858993460 ; ccccccccH
  0000d	c7 45 fc cc cc
	cc cc		 mov	 DWORD PTR [ebp-4], -858993460 ; ccccccccH
  00014	89 4d fc	 mov	 DWORD PTR _this$[ebp], ecx
  00017	b9 00 00 00 00	 mov	 ecx, OFFSET __605F967F_Block@cpp
  0001c	e8 00 00 00 00	 call	 @__CheckForDebuggerJustMyCode@4

; 36   : 	return _rect->intersects(rect);

  00021	8b 45 fc	 mov	 eax, DWORD PTR _this$[ebp]
  00024	8b 48 08	 mov	 ecx, DWORD PTR [eax+8]
  00027	89 4d f8	 mov	 DWORD PTR tv69[ebp], ecx
  0002a	8d 55 08	 lea	 edx, DWORD PTR _rect$[ebp]
  0002d	52		 push	 edx
  0002e	8b 4d f8	 mov	 ecx, DWORD PTR tv69[ebp]
  00031	e8 00 00 00 00	 call	 ?intersects@?$Rect@H@sf@@QBE_NABV12@@Z ; sf::Rect<int>::intersects

; 37   : }

  00036	83 c4 08	 add	 esp, 8
  00039	3b ec		 cmp	 ebp, esp
  0003b	e8 00 00 00 00	 call	 __RTC_CheckEsp
  00040	8b e5		 mov	 esp, ebp
  00042	5d		 pop	 ebp
  00043	c2 10 00	 ret	 16			; 00000010H
?collide@Block@@QAE_NV?$Rect@H@sf@@@Z ENDP		; Block::collide
_TEXT	ENDS
; Function compile flags: /Odtp /RTCsu
; File C:\Users\theob\Documents\GitHub\as-pts1\travail\ProjetTutore1\Block.cpp
_TEXT	SEGMENT
tv77 = -8						; size = 4
_this$ = -4						; size = 4
_rw$ = 8						; size = 4
?show@Block@@QAEXPAVRenderWindow@sf@@@Z PROC		; Block::show
; _this$ = ecx

; 17   : void Block::show(sf::RenderWindow* rw) {

  00000	55		 push	 ebp
  00001	8b ec		 mov	 ebp, esp
  00003	83 ec 08	 sub	 esp, 8
  00006	56		 push	 esi
  00007	c7 45 f8 cc cc
	cc cc		 mov	 DWORD PTR [ebp-8], -858993460 ; ccccccccH
  0000e	c7 45 fc cc cc
	cc cc		 mov	 DWORD PTR [ebp-4], -858993460 ; ccccccccH
  00015	89 4d fc	 mov	 DWORD PTR _this$[ebp], ecx
  00018	b9 00 00 00 00	 mov	 ecx, OFFSET __605F967F_Block@cpp
  0001d	e8 00 00 00 00	 call	 @__CheckForDebuggerJustMyCode@4

; 18   : 	// définit un rectangle de 120x50
; 19   : 	/*
; 20   : 
; 21   : 	*/
; 22   : 	#ifdef DEBUG
; 23   : 	if (colliding) {
; 24   : 		sf::RectangleShape rectangle(sf::Vector2f(BLOCKWIDTH, BLOCKHEIGHT));
; 25   : 		rectangle.setPosition(sf::Vector2f(_x, _y));
; 26   : 		rw->draw(rectangle);
; 27   : 		colliding = false;
; 28   : 		return;
; 29   : 	}
; 30   : 	#endif // DEBUG
; 31   : 	rw->draw(*_sprite);

  00022	8b 45 08	 mov	 eax, DWORD PTR _rw$[ebp]
  00025	83 c0 30	 add	 eax, 48			; 00000030H
  00028	89 45 f8	 mov	 DWORD PTR tv77[ebp], eax
  0002b	8b f4		 mov	 esi, esp
  0002d	8b 0d 00 00 00
	00		 mov	 ecx, DWORD PTR __imp_?Default@RenderStates@sf@@2V12@B
  00033	51		 push	 ecx
  00034	8b 55 fc	 mov	 edx, DWORD PTR _this$[ebp]
  00037	8b 42 0c	 mov	 eax, DWORD PTR [edx+12]
  0003a	50		 push	 eax
  0003b	8b 4d f8	 mov	 ecx, DWORD PTR tv77[ebp]
  0003e	ff 15 00 00 00
	00		 call	 DWORD PTR __imp_?draw@RenderTarget@sf@@QAEXABVDrawable@2@ABVRenderStates@2@@Z
  00044	3b f4		 cmp	 esi, esp
  00046	e8 00 00 00 00	 call	 __RTC_CheckEsp

; 32   : }

  0004b	5e		 pop	 esi
  0004c	83 c4 08	 add	 esp, 8
  0004f	3b ec		 cmp	 ebp, esp
  00051	e8 00 00 00 00	 call	 __RTC_CheckEsp
  00056	8b e5		 mov	 esp, ebp
  00058	5d		 pop	 ebp
  00059	c2 04 00	 ret	 4
?show@Block@@QAEXPAVRenderWindow@sf@@@Z ENDP		; Block::show
_TEXT	ENDS
; Function compile flags: /Odtp /RTCsu
; File C:\Users\theob\Documents\GitHub\as-pts1\travail\ProjetTutore1\Block.cpp
_TEXT	SEGMENT
tv83 = -28						; size = 4
tv77 = -24						; size = 4
tv76 = -20						; size = 4
$T1 = -16						; size = 4
$T2 = -12						; size = 4
$T3 = -8						; size = 4
_this$ = -4						; size = 4
??1Block@@QAE@XZ PROC					; Block::~Block
; _this$ = ecx

; 40   : {

  00000	55		 push	 ebp
  00001	8b ec		 mov	 ebp, esp
  00003	83 ec 1c	 sub	 esp, 28			; 0000001cH
  00006	56		 push	 esi
  00007	b8 cc cc cc cc	 mov	 eax, -858993460		; ccccccccH
  0000c	89 45 e4	 mov	 DWORD PTR [ebp-28], eax
  0000f	89 45 e8	 mov	 DWORD PTR [ebp-24], eax
  00012	89 45 ec	 mov	 DWORD PTR [ebp-20], eax
  00015	89 45 f0	 mov	 DWORD PTR [ebp-16], eax
  00018	89 45 f4	 mov	 DWORD PTR [ebp-12], eax
  0001b	89 45 f8	 mov	 DWORD PTR [ebp-8], eax
  0001e	89 45 fc	 mov	 DWORD PTR [ebp-4], eax
  00021	89 4d fc	 mov	 DWORD PTR _this$[ebp], ecx
  00024	b9 00 00 00 00	 mov	 ecx, OFFSET __605F967F_Block@cpp
  00029	e8 00 00 00 00	 call	 @__CheckForDebuggerJustMyCode@4

; 41   : 	delete(_sprite);

  0002e	8b 45 fc	 mov	 eax, DWORD PTR _this$[ebp]
  00031	8b 48 0c	 mov	 ecx, DWORD PTR [eax+12]
  00034	89 4d f8	 mov	 DWORD PTR $T3[ebp], ecx
  00037	83 7d f8 00	 cmp	 DWORD PTR $T3[ebp], 0
  0003b	74 20		 je	 SHORT $LN3@Block
  0003d	8b 55 f8	 mov	 edx, DWORD PTR $T3[ebp]
  00040	8b 02		 mov	 eax, DWORD PTR [edx]
  00042	8b 08		 mov	 ecx, DWORD PTR [eax]
  00044	89 4d ec	 mov	 DWORD PTR tv76[ebp], ecx
  00047	8b f4		 mov	 esi, esp
  00049	6a 01		 push	 1
  0004b	8b 4d f8	 mov	 ecx, DWORD PTR $T3[ebp]
  0004e	ff 55 ec	 call	 DWORD PTR tv76[ebp]
  00051	3b f4		 cmp	 esi, esp
  00053	e8 00 00 00 00	 call	 __RTC_CheckEsp
  00058	89 45 e8	 mov	 DWORD PTR tv77[ebp], eax
  0005b	eb 07		 jmp	 SHORT $LN4@Block
$LN3@Block:
  0005d	c7 45 e8 00 00
	00 00		 mov	 DWORD PTR tv77[ebp], 0
$LN4@Block:

; 42   : 	delete(_tex);

  00064	8b 55 fc	 mov	 edx, DWORD PTR _this$[ebp]
  00067	8b 42 10	 mov	 eax, DWORD PTR [edx+16]
  0006a	89 45 f4	 mov	 DWORD PTR $T2[ebp], eax
  0006d	83 7d f4 00	 cmp	 DWORD PTR $T2[ebp], 0
  00071	74 0f		 je	 SHORT $LN5@Block
  00073	6a 01		 push	 1
  00075	8b 4d f4	 mov	 ecx, DWORD PTR $T2[ebp]
  00078	e8 00 00 00 00	 call	 ??_GTexture@sf@@QAEPAXI@Z
  0007d	89 45 e4	 mov	 DWORD PTR tv83[ebp], eax
  00080	eb 07		 jmp	 SHORT $LN6@Block
$LN5@Block:
  00082	c7 45 e4 00 00
	00 00		 mov	 DWORD PTR tv83[ebp], 0
$LN6@Block:

; 43   : 	delete(_rect);	

  00089	8b 4d fc	 mov	 ecx, DWORD PTR _this$[ebp]
  0008c	8b 51 08	 mov	 edx, DWORD PTR [ecx+8]
  0008f	89 55 f0	 mov	 DWORD PTR $T1[ebp], edx
  00092	6a 10		 push	 16			; 00000010H
  00094	8b 45 f0	 mov	 eax, DWORD PTR $T1[ebp]
  00097	50		 push	 eax
  00098	e8 00 00 00 00	 call	 ??3@YAXPAXI@Z		; operator delete
  0009d	83 c4 08	 add	 esp, 8

; 44   : }

  000a0	5e		 pop	 esi
  000a1	83 c4 1c	 add	 esp, 28			; 0000001cH
  000a4	3b ec		 cmp	 ebp, esp
  000a6	e8 00 00 00 00	 call	 __RTC_CheckEsp
  000ab	8b e5		 mov	 esp, ebp
  000ad	5d		 pop	 ebp
  000ae	c3		 ret	 0
??1Block@@QAE@XZ ENDP					; Block::~Block
_TEXT	ENDS
; Function compile flags: /Odtp /RTCsu
; File C:\Users\theob\Documents\GitHub\as-pts1\travail\ProjetTutore1\Block.cpp
; File C:\Users\theob\Documents\GitHub\as-pts1\travail\ProjetTutore1\Block.h
; File C:\Users\theob\Documents\GitHub\as-pts1\travail\ProjetTutore1\Block.cpp
_TEXT	SEGMENT
tv186 = -100						; size = 4
tv170 = -96						; size = 4
tv158 = -92						; size = 4
tv152 = -88						; size = 4
tv154 = -84						; size = 4
tv144 = -80						; size = 4
tv132 = -76						; size = 4
tv85 = -72						; size = 4
$T2 = -68						; size = 4
$T3 = -64						; size = 4
$T4 = -60						; size = 16
$T5 = -44						; size = 4
$T6 = -40						; size = 4
$T7 = -36						; size = 4
$T8 = -32						; size = 4
$T9 = -28						; size = 4
$T10 = -24						; size = 4
_texrect$ = -20						; size = 4
_this$ = -16						; size = 4
__$EHRec$ = -12						; size = 12
_x$ = 8							; size = 4
_y$ = 12						; size = 4
_img$ = 16						; size = 4
??0Block@@QAE@HHPAVImage@sf@@@Z PROC			; Block::Block
; _this$ = ecx

; 4    : {

  00000	55		 push	 ebp
  00001	8b ec		 mov	 ebp, esp
  00003	6a ff		 push	 -1
  00005	68 00 00 00 00	 push	 __ehhandler$??0Block@@QAE@HHPAVImage@sf@@@Z
  0000a	64 a1 00 00 00
	00		 mov	 eax, DWORD PTR fs:0
  00010	50		 push	 eax
  00011	83 ec 58	 sub	 esp, 88			; 00000058H
  00014	56		 push	 esi
  00015	57		 push	 edi
  00016	51		 push	 ecx
  00017	8d 7d 9c	 lea	 edi, DWORD PTR [ebp-100]
  0001a	b9 16 00 00 00	 mov	 ecx, 22			; 00000016H
  0001f	b8 cc cc cc cc	 mov	 eax, -858993460		; ccccccccH
  00024	f3 ab		 rep stosd
  00026	59		 pop	 ecx
  00027	a1 00 00 00 00	 mov	 eax, DWORD PTR ___security_cookie
  0002c	33 c5		 xor	 eax, ebp
  0002e	50		 push	 eax
  0002f	8d 45 f4	 lea	 eax, DWORD PTR __$EHRec$[ebp]
  00032	64 a3 00 00 00
	00		 mov	 DWORD PTR fs:0, eax
  00038	89 4d f0	 mov	 DWORD PTR _this$[ebp], ecx
  0003b	b9 00 00 00 00	 mov	 ecx, OFFSET __605F967F_Block@cpp
  00040	e8 00 00 00 00	 call	 @__CheckForDebuggerJustMyCode@4
; File C:\Users\theob\Documents\GitHub\as-pts1\travail\ProjetTutore1\Block.h

; 6    : 	int _x = 0;

  00045	8b 45 f0	 mov	 eax, DWORD PTR _this$[ebp]
  00048	c7 00 00 00 00
	00		 mov	 DWORD PTR [eax], 0

; 7    : 	int _y = 0;

  0004e	8b 4d f0	 mov	 ecx, DWORD PTR _this$[ebp]
  00051	c7 41 04 00 00
	00 00		 mov	 DWORD PTR [ecx+4], 0

; 8    : 	sf::IntRect *_rect;
; 9    : 	sf::Sprite *_sprite;
; 10   : 	sf::Texture* _tex;
; 11   : public :
; 12   : 	//NEVER USE FOR DEBUG ONLY
; 13   : 	bool colliding = false;

  00058	8b 55 f0	 mov	 edx, DWORD PTR _this$[ebp]
  0005b	c6 42 14 00	 mov	 BYTE PTR [edx+20], 0
; File C:\Users\theob\Documents\GitHub\as-pts1\travail\ProjetTutore1\Block.cpp

; 5    : 	_x = x;

  0005f	8b 45 f0	 mov	 eax, DWORD PTR _this$[ebp]
  00062	8b 4d 08	 mov	 ecx, DWORD PTR _x$[ebp]
  00065	89 08		 mov	 DWORD PTR [eax], ecx

; 6    : 	_y = y;

  00067	8b 55 f0	 mov	 edx, DWORD PTR _this$[ebp]
  0006a	8b 45 0c	 mov	 eax, DWORD PTR _y$[ebp]
  0006d	89 42 04	 mov	 DWORD PTR [edx+4], eax

; 7    : 	_rect = new sf::IntRect(x, y, BLOCKWIDTH, BLOCKHEIGHT);

  00070	6a 10		 push	 16			; 00000010H
  00072	e8 00 00 00 00	 call	 ??2@YAPAXI@Z		; operator new
  00077	83 c4 04	 add	 esp, 4
  0007a	89 45 e4	 mov	 DWORD PTR $T9[ebp], eax
  0007d	c7 45 fc 00 00
	00 00		 mov	 DWORD PTR __$EHRec$[ebp+8], 0
  00084	83 7d e4 00	 cmp	 DWORD PTR $T9[ebp], 0
  00088	74 19		 je	 SHORT $LN3@Block
  0008a	6a 28		 push	 40			; 00000028H
  0008c	6a 32		 push	 50			; 00000032H
  0008e	8b 4d 0c	 mov	 ecx, DWORD PTR _y$[ebp]
  00091	51		 push	 ecx
  00092	8b 55 08	 mov	 edx, DWORD PTR _x$[ebp]
  00095	52		 push	 edx
  00096	8b 4d e4	 mov	 ecx, DWORD PTR $T9[ebp]
  00099	e8 00 00 00 00	 call	 ??0?$Rect@H@sf@@QAE@HHHH@Z ; sf::Rect<int>::Rect<int>
  0009e	89 45 b8	 mov	 DWORD PTR tv85[ebp], eax
  000a1	eb 07		 jmp	 SHORT $LN4@Block
$LN3@Block:
  000a3	c7 45 b8 00 00
	00 00		 mov	 DWORD PTR tv85[ebp], 0
$LN4@Block:
  000aa	8b 45 b8	 mov	 eax, DWORD PTR tv85[ebp]
  000ad	89 45 e8	 mov	 DWORD PTR $T10[ebp], eax
  000b0	c7 45 fc ff ff
	ff ff		 mov	 DWORD PTR __$EHRec$[ebp+8], -1
  000b7	8b 4d f0	 mov	 ecx, DWORD PTR _this$[ebp]
  000ba	8b 55 e8	 mov	 edx, DWORD PTR $T10[ebp]
  000bd	89 51 08	 mov	 DWORD PTR [ecx+8], edx

; 8    : 	sf::IntRect *texrect = new sf::IntRect(0, 0, BLOCKWIDTH, BLOCKHEIGHT);

  000c0	6a 10		 push	 16			; 00000010H
  000c2	e8 00 00 00 00	 call	 ??2@YAPAXI@Z		; operator new
  000c7	83 c4 04	 add	 esp, 4
  000ca	89 45 dc	 mov	 DWORD PTR $T7[ebp], eax
  000cd	c7 45 fc 01 00
	00 00		 mov	 DWORD PTR __$EHRec$[ebp+8], 1
  000d4	83 7d dc 00	 cmp	 DWORD PTR $T7[ebp], 0
  000d8	74 15		 je	 SHORT $LN5@Block
  000da	6a 28		 push	 40			; 00000028H
  000dc	6a 32		 push	 50			; 00000032H
  000de	6a 00		 push	 0
  000e0	6a 00		 push	 0
  000e2	8b 4d dc	 mov	 ecx, DWORD PTR $T7[ebp]
  000e5	e8 00 00 00 00	 call	 ??0?$Rect@H@sf@@QAE@HHHH@Z ; sf::Rect<int>::Rect<int>
  000ea	89 45 b4	 mov	 DWORD PTR tv132[ebp], eax
  000ed	eb 07		 jmp	 SHORT $LN6@Block
$LN5@Block:
  000ef	c7 45 b4 00 00
	00 00		 mov	 DWORD PTR tv132[ebp], 0
$LN6@Block:
  000f6	8b 45 b4	 mov	 eax, DWORD PTR tv132[ebp]
  000f9	89 45 e0	 mov	 DWORD PTR $T8[ebp], eax
  000fc	c7 45 fc ff ff
	ff ff		 mov	 DWORD PTR __$EHRec$[ebp+8], -1
  00103	8b 4d e0	 mov	 ecx, DWORD PTR $T8[ebp]
  00106	89 4d ec	 mov	 DWORD PTR _texrect$[ebp], ecx

; 9    : 	_tex = new sf::Texture();

  00109	6a 28		 push	 40			; 00000028H
  0010b	e8 00 00 00 00	 call	 ??2@YAPAXI@Z		; operator new
  00110	83 c4 04	 add	 esp, 4
  00113	89 45 d4	 mov	 DWORD PTR $T5[ebp], eax
  00116	c7 45 fc 02 00
	00 00		 mov	 DWORD PTR __$EHRec$[ebp+8], 2
  0011d	83 7d d4 00	 cmp	 DWORD PTR $T5[ebp], 0
  00121	74 17		 je	 SHORT $LN7@Block
  00123	8b f4		 mov	 esi, esp
  00125	8b 4d d4	 mov	 ecx, DWORD PTR $T5[ebp]
  00128	ff 15 00 00 00
	00		 call	 DWORD PTR __imp_??0Texture@sf@@QAE@XZ
  0012e	3b f4		 cmp	 esi, esp
  00130	e8 00 00 00 00	 call	 __RTC_CheckEsp
  00135	89 45 b0	 mov	 DWORD PTR tv144[ebp], eax
  00138	eb 07		 jmp	 SHORT $LN8@Block
$LN7@Block:
  0013a	c7 45 b0 00 00
	00 00		 mov	 DWORD PTR tv144[ebp], 0
$LN8@Block:
  00141	8b 55 b0	 mov	 edx, DWORD PTR tv144[ebp]
  00144	89 55 d8	 mov	 DWORD PTR $T6[ebp], edx
  00147	c7 45 fc ff ff
	ff ff		 mov	 DWORD PTR __$EHRec$[ebp+8], -1
  0014e	8b 45 f0	 mov	 eax, DWORD PTR _this$[ebp]
  00151	8b 4d d8	 mov	 ecx, DWORD PTR $T6[ebp]
  00154	89 48 10	 mov	 DWORD PTR [eax+16], ecx

; 10   : 	_tex->loadFromImage(*img);

  00157	8b 55 f0	 mov	 edx, DWORD PTR _this$[ebp]
  0015a	8b 42 10	 mov	 eax, DWORD PTR [edx+16]
  0015d	89 45 ac	 mov	 DWORD PTR tv154[ebp], eax
  00160	8d 4d c4	 lea	 ecx, DWORD PTR $T4[ebp]
  00163	e8 00 00 00 00	 call	 ??0?$Rect@H@sf@@QAE@XZ	; sf::Rect<int>::Rect<int>
  00168	89 45 a8	 mov	 DWORD PTR tv152[ebp], eax
  0016b	8b f4		 mov	 esi, esp
  0016d	8b 4d a8	 mov	 ecx, DWORD PTR tv152[ebp]
  00170	51		 push	 ecx
  00171	8b 55 10	 mov	 edx, DWORD PTR _img$[ebp]
  00174	52		 push	 edx
  00175	8b 4d ac	 mov	 ecx, DWORD PTR tv154[ebp]
  00178	ff 15 00 00 00
	00		 call	 DWORD PTR __imp_?loadFromImage@Texture@sf@@QAE_NABVImage@2@ABV?$Rect@H@2@@Z
  0017e	3b f4		 cmp	 esi, esp
  00180	e8 00 00 00 00	 call	 __RTC_CheckEsp

; 11   : 	_tex->setSmooth(true);

  00185	8b 45 f0	 mov	 eax, DWORD PTR _this$[ebp]
  00188	8b 48 10	 mov	 ecx, DWORD PTR [eax+16]
  0018b	89 4d a4	 mov	 DWORD PTR tv158[ebp], ecx
  0018e	8b f4		 mov	 esi, esp
  00190	6a 01		 push	 1
  00192	8b 4d a4	 mov	 ecx, DWORD PTR tv158[ebp]
  00195	ff 15 00 00 00
	00		 call	 DWORD PTR __imp_?setSmooth@Texture@sf@@QAEX_N@Z
  0019b	3b f4		 cmp	 esi, esp
  0019d	e8 00 00 00 00	 call	 __RTC_CheckEsp

; 12   : 	_sprite = new sf::Sprite(*_tex, *texrect);

  001a2	68 10 01 00 00	 push	 272			; 00000110H
  001a7	e8 00 00 00 00	 call	 ??2@YAPAXI@Z		; operator new
  001ac	83 c4 04	 add	 esp, 4
  001af	89 45 bc	 mov	 DWORD PTR $T2[ebp], eax
  001b2	c7 45 fc 03 00
	00 00		 mov	 DWORD PTR __$EHRec$[ebp+8], 3
  001b9	83 7d bc 00	 cmp	 DWORD PTR $T2[ebp], 0
  001bd	74 38		 je	 SHORT $LN9@Block
  001bf	8b f4		 mov	 esi, esp
  001c1	8b 55 ec	 mov	 edx, DWORD PTR _texrect$[ebp]
  001c4	52		 push	 edx
  001c5	8b 45 f0	 mov	 eax, DWORD PTR _this$[ebp]
  001c8	8b 48 10	 mov	 ecx, DWORD PTR [eax+16]
  001cb	51		 push	 ecx
  001cc	8b 4d bc	 mov	 ecx, DWORD PTR $T2[ebp]
  001cf	ff 15 00 00 00
	00		 call	 DWORD PTR __imp_??0Sprite@sf@@QAE@ABVTexture@1@ABV?$Rect@H@1@@Z
  001d5	3b f4		 cmp	 esi, esp
  001d7	e8 00 00 00 00	 call	 __RTC_CheckEsp
  001dc	8b 55 bc	 mov	 edx, DWORD PTR $T2[ebp]
  001df	c7 02 00 00 00
	00		 mov	 DWORD PTR [edx], OFFSET ??_SSprite@sf@@6BDrawable@1@@
  001e5	8b 45 bc	 mov	 eax, DWORD PTR $T2[ebp]
  001e8	c7 40 04 00 00
	00 00		 mov	 DWORD PTR [eax+4], OFFSET ??_SSprite@sf@@6BTransformable@1@@
  001ef	8b 4d bc	 mov	 ecx, DWORD PTR $T2[ebp]
  001f2	89 4d a0	 mov	 DWORD PTR tv170[ebp], ecx
  001f5	eb 07		 jmp	 SHORT $LN10@Block
$LN9@Block:
  001f7	c7 45 a0 00 00
	00 00		 mov	 DWORD PTR tv170[ebp], 0
$LN10@Block:
  001fe	8b 55 a0	 mov	 edx, DWORD PTR tv170[ebp]
  00201	89 55 c0	 mov	 DWORD PTR $T3[ebp], edx
  00204	c7 45 fc ff ff
	ff ff		 mov	 DWORD PTR __$EHRec$[ebp+8], -1
  0020b	8b 45 f0	 mov	 eax, DWORD PTR _this$[ebp]
  0020e	8b 4d c0	 mov	 ecx, DWORD PTR $T3[ebp]
  00211	89 48 0c	 mov	 DWORD PTR [eax+12], ecx

; 13   : 	//_sprite->setTexture(*_tex);
; 14   : 	_sprite->setPosition(x, y);

  00214	8b 55 f0	 mov	 edx, DWORD PTR _this$[ebp]
  00217	8b 42 0c	 mov	 eax, DWORD PTR [edx+12]
  0021a	83 c0 04	 add	 eax, 4
  0021d	89 45 9c	 mov	 DWORD PTR tv186[ebp], eax
  00220	f3 0f 2a 45 0c	 cvtsi2ss xmm0, DWORD PTR _y$[ebp]
  00225	8b f4		 mov	 esi, esp
  00227	51		 push	 ecx
  00228	f3 0f 11 04 24	 movss	 DWORD PTR [esp], xmm0
  0022d	f3 0f 2a 45 08	 cvtsi2ss xmm0, DWORD PTR _x$[ebp]
  00232	51		 push	 ecx
  00233	f3 0f 11 04 24	 movss	 DWORD PTR [esp], xmm0
  00238	8b 4d 9c	 mov	 ecx, DWORD PTR tv186[ebp]
  0023b	ff 15 00 00 00
	00		 call	 DWORD PTR __imp_?setPosition@Transformable@sf@@QAEXMM@Z
  00241	3b f4		 cmp	 esi, esp
  00243	e8 00 00 00 00	 call	 __RTC_CheckEsp

; 15   : }

  00248	8b 45 f0	 mov	 eax, DWORD PTR _this$[ebp]
  0024b	8b 4d f4	 mov	 ecx, DWORD PTR __$EHRec$[ebp]
  0024e	64 89 0d 00 00
	00 00		 mov	 DWORD PTR fs:0, ecx
  00255	59		 pop	 ecx
  00256	5f		 pop	 edi
  00257	5e		 pop	 esi
  00258	83 c4 64	 add	 esp, 100		; 00000064H
  0025b	3b ec		 cmp	 ebp, esp
  0025d	e8 00 00 00 00	 call	 __RTC_CheckEsp
  00262	8b e5		 mov	 esp, ebp
  00264	5d		 pop	 ebp
  00265	c2 0c 00	 ret	 12			; 0000000cH
_TEXT	ENDS
text$x	SEGMENT
__unwindfunclet$??0Block@@QAE@HHPAVImage@sf@@@Z$0:
  00000	6a 10		 push	 16			; 00000010H
  00002	8b 45 e4	 mov	 eax, DWORD PTR $T9[ebp]
  00005	50		 push	 eax
  00006	e8 00 00 00 00	 call	 ??3@YAXPAXI@Z		; operator delete
  0000b	83 c4 08	 add	 esp, 8
  0000e	c3		 ret	 0
__unwindfunclet$??0Block@@QAE@HHPAVImage@sf@@@Z$1:
  0000f	6a 10		 push	 16			; 00000010H
  00011	8b 45 dc	 mov	 eax, DWORD PTR $T7[ebp]
  00014	50		 push	 eax
  00015	e8 00 00 00 00	 call	 ??3@YAXPAXI@Z		; operator delete
  0001a	83 c4 08	 add	 esp, 8
  0001d	c3		 ret	 0
__unwindfunclet$??0Block@@QAE@HHPAVImage@sf@@@Z$2:
  0001e	6a 28		 push	 40			; 00000028H
  00020	8b 45 d4	 mov	 eax, DWORD PTR $T5[ebp]
  00023	50		 push	 eax
  00024	e8 00 00 00 00	 call	 ??3@YAXPAXI@Z		; operator delete
  00029	83 c4 08	 add	 esp, 8
  0002c	c3		 ret	 0
__unwindfunclet$??0Block@@QAE@HHPAVImage@sf@@@Z$3:
  0002d	68 10 01 00 00	 push	 272			; 00000110H
  00032	8b 45 bc	 mov	 eax, DWORD PTR $T2[ebp]
  00035	50		 push	 eax
  00036	e8 00 00 00 00	 call	 ??3@YAXPAXI@Z		; operator delete
  0003b	83 c4 08	 add	 esp, 8
  0003e	c3		 ret	 0
  0003f	cc		 int	 3
  00040	cc		 int	 3
  00041	cc		 int	 3
  00042	cc		 int	 3
  00043	cc		 int	 3
__ehhandler$??0Block@@QAE@HHPAVImage@sf@@@Z:
  00044	90		 npad	 1
  00045	90		 npad	 1
  00046	8b 54 24 08	 mov	 edx, DWORD PTR [esp+8]
  0004a	8d 42 0c	 lea	 eax, DWORD PTR [edx+12]
  0004d	8b 4a 9c	 mov	 ecx, DWORD PTR [edx-100]
  00050	33 c8		 xor	 ecx, eax
  00052	e8 00 00 00 00	 call	 @__security_check_cookie@4
  00057	b8 00 00 00 00	 mov	 eax, OFFSET __ehfuncinfo$??0Block@@QAE@HHPAVImage@sf@@@Z
  0005c	e9 00 00 00 00	 jmp	 ___CxxFrameHandler3
text$x	ENDS
??0Block@@QAE@HHPAVImage@sf@@@Z ENDP			; Block::Block
; Function compile flags: /Odtp /RTCsu
;	COMDAT ??_GSprite@sf@@UAEPAXI@Z
_TEXT	SEGMENT
_this$ = -4						; size = 4
___flags$ = 8						; size = 4
??_GSprite@sf@@UAEPAXI@Z PROC				; sf::Sprite::`scalar deleting destructor', COMDAT
; _this$ = ecx
  00000	55		 push	 ebp
  00001	8b ec		 mov	 ebp, esp
  00003	51		 push	 ecx
  00004	56		 push	 esi
  00005	c7 45 fc cc cc
	cc cc		 mov	 DWORD PTR [ebp-4], -858993460 ; ccccccccH
  0000c	89 4d fc	 mov	 DWORD PTR _this$[ebp], ecx
  0000f	8b f4		 mov	 esi, esp
  00011	8b 4d fc	 mov	 ecx, DWORD PTR _this$[ebp]
  00014	ff 15 00 00 00
	00		 call	 DWORD PTR __imp_??1Sprite@sf@@UAE@XZ
  0001a	3b f4		 cmp	 esi, esp
  0001c	e8 00 00 00 00	 call	 __RTC_CheckEsp
  00021	8b 45 08	 mov	 eax, DWORD PTR ___flags$[ebp]
  00024	83 e0 01	 and	 eax, 1
  00027	74 11		 je	 SHORT $LN2@scalar
  00029	68 10 01 00 00	 push	 272			; 00000110H
  0002e	8b 4d fc	 mov	 ecx, DWORD PTR _this$[ebp]
  00031	51		 push	 ecx
  00032	e8 00 00 00 00	 call	 ??3@YAXPAXI@Z		; operator delete
  00037	83 c4 08	 add	 esp, 8
$LN2@scalar:
  0003a	8b 45 fc	 mov	 eax, DWORD PTR _this$[ebp]
  0003d	5e		 pop	 esi
  0003e	83 c4 04	 add	 esp, 4
  00041	3b ec		 cmp	 ebp, esp
  00043	e8 00 00 00 00	 call	 __RTC_CheckEsp
  00048	8b e5		 mov	 esp, ebp
  0004a	5d		 pop	 ebp
  0004b	c2 04 00	 ret	 4
??_GSprite@sf@@UAEPAXI@Z ENDP				; sf::Sprite::`scalar deleting destructor'
_TEXT	ENDS
; Function compile flags: /Odtp /RTCsu
;	COMDAT ??_GTexture@sf@@QAEPAXI@Z
_TEXT	SEGMENT
_this$ = -4						; size = 4
___flags$ = 8						; size = 4
??_GTexture@sf@@QAEPAXI@Z PROC				; sf::Texture::`scalar deleting destructor', COMDAT
; _this$ = ecx
  00000	55		 push	 ebp
  00001	8b ec		 mov	 ebp, esp
  00003	51		 push	 ecx
  00004	56		 push	 esi
  00005	c7 45 fc cc cc
	cc cc		 mov	 DWORD PTR [ebp-4], -858993460 ; ccccccccH
  0000c	89 4d fc	 mov	 DWORD PTR _this$[ebp], ecx
  0000f	8b f4		 mov	 esi, esp
  00011	8b 4d fc	 mov	 ecx, DWORD PTR _this$[ebp]
  00014	ff 15 00 00 00
	00		 call	 DWORD PTR __imp_??1Texture@sf@@QAE@XZ
  0001a	3b f4		 cmp	 esi, esp
  0001c	e8 00 00 00 00	 call	 __RTC_CheckEsp
  00021	8b 45 08	 mov	 eax, DWORD PTR ___flags$[ebp]
  00024	83 e0 01	 and	 eax, 1
  00027	74 0e		 je	 SHORT $LN2@scalar
  00029	6a 28		 push	 40			; 00000028H
  0002b	8b 4d fc	 mov	 ecx, DWORD PTR _this$[ebp]
  0002e	51		 push	 ecx
  0002f	e8 00 00 00 00	 call	 ??3@YAXPAXI@Z		; operator delete
  00034	83 c4 08	 add	 esp, 8
$LN2@scalar:
  00037	8b 45 fc	 mov	 eax, DWORD PTR _this$[ebp]
  0003a	5e		 pop	 esi
  0003b	83 c4 04	 add	 esp, 4
  0003e	3b ec		 cmp	 ebp, esp
  00040	e8 00 00 00 00	 call	 __RTC_CheckEsp
  00045	8b e5		 mov	 esp, ebp
  00047	5d		 pop	 ebp
  00048	c2 04 00	 ret	 4
??_GTexture@sf@@QAEPAXI@Z ENDP				; sf::Texture::`scalar deleting destructor'
_TEXT	ENDS
; Function compile flags: /Odtp /RTCsu
; File C:\Users\theob\Documents\GitHub\as-pts1\travail\ProjetTutore1\vcpkg_installed\x86-windows\x86-windows\include\SFML\Graphics\Rect.inl
;	COMDAT ?intersects@?$Rect@H@sf@@QBE_NABV12@AAV12@@Z
_TEXT	SEGMENT
$T1 = -184						; size = 16
$T2 = -168						; size = 16
$T3 = -152						; size = 4
$T4 = -148						; size = 4
$T5 = -144						; size = 4
$T6 = -140						; size = 4
$T7 = -136						; size = 4
$T8 = -132						; size = 4
$T9 = -128						; size = 4
$T10 = -124						; size = 4
_interBottom$ = -120					; size = 4
_interRight$ = -116					; size = 4
_interTop$ = -112					; size = 4
_interLeft$ = -108					; size = 4
_r2MaxY$ = -100						; size = 4
_r2MinY$ = -88						; size = 4
_r2MaxX$ = -76						; size = 4
_r2MinX$ = -64						; size = 4
_r1MaxY$ = -52						; size = 4
_r1MinY$ = -40						; size = 4
_r1MaxX$ = -28						; size = 4
_r1MinX$ = -16						; size = 4
_this$ = -8						; size = 4
__$ArrayPad$ = -4					; size = 4
_rectangle$ = 8						; size = 4
_intersection$ = 12					; size = 4
?intersects@?$Rect@H@sf@@QBE_NABV12@AAV12@@Z PROC	; sf::Rect<int>::intersects, COMDAT
; _this$ = ecx

; 110  : {

  00000	55		 push	 ebp
  00001	8b ec		 mov	 ebp, esp
  00003	81 ec b8 00 00
	00		 sub	 esp, 184		; 000000b8H
  00009	57		 push	 edi
  0000a	51		 push	 ecx
  0000b	8d bd 48 ff ff
	ff		 lea	 edi, DWORD PTR [ebp-184]
  00011	b9 2e 00 00 00	 mov	 ecx, 46			; 0000002eH
  00016	b8 cc cc cc cc	 mov	 eax, -858993460		; ccccccccH
  0001b	f3 ab		 rep stosd
  0001d	59		 pop	 ecx
  0001e	a1 00 00 00 00	 mov	 eax, DWORD PTR ___security_cookie
  00023	33 c5		 xor	 eax, ebp
  00025	89 45 fc	 mov	 DWORD PTR __$ArrayPad$[ebp], eax
  00028	89 4d f8	 mov	 DWORD PTR _this$[ebp], ecx
  0002b	b9 00 00 00 00	 mov	 ecx, OFFSET __6AE60262_Rect@inl
  00030	e8 00 00 00 00	 call	 @__CheckForDebuggerJustMyCode@4

; 111  :     // Rectangles with negative dimensions are allowed, so we must handle them correctly
; 112  : 
; 113  :     // Compute the min and max of the first rectangle on both axes
; 114  :     T r1MinX = std::min(left, static_cast<T>(left + width));

  00035	8b 45 f8	 mov	 eax, DWORD PTR _this$[ebp]
  00038	8b 08		 mov	 ecx, DWORD PTR [eax]
  0003a	8b 55 f8	 mov	 edx, DWORD PTR _this$[ebp]
  0003d	03 4a 08	 add	 ecx, DWORD PTR [edx+8]
  00040	89 4d 84	 mov	 DWORD PTR $T10[ebp], ecx
  00043	8d 45 84	 lea	 eax, DWORD PTR $T10[ebp]
  00046	50		 push	 eax
  00047	8b 4d f8	 mov	 ecx, DWORD PTR _this$[ebp]
  0004a	51		 push	 ecx
  0004b	e8 00 00 00 00	 call	 ??$min@H@std@@YAABHABH0@Z ; std::min<int>
  00050	83 c4 08	 add	 esp, 8
  00053	8b 10		 mov	 edx, DWORD PTR [eax]
  00055	89 55 f0	 mov	 DWORD PTR _r1MinX$[ebp], edx

; 115  :     T r1MaxX = std::max(left, static_cast<T>(left + width));

  00058	8b 45 f8	 mov	 eax, DWORD PTR _this$[ebp]
  0005b	8b 08		 mov	 ecx, DWORD PTR [eax]
  0005d	8b 55 f8	 mov	 edx, DWORD PTR _this$[ebp]
  00060	03 4a 08	 add	 ecx, DWORD PTR [edx+8]
  00063	89 4d 80	 mov	 DWORD PTR $T9[ebp], ecx
  00066	8d 45 80	 lea	 eax, DWORD PTR $T9[ebp]
  00069	50		 push	 eax
  0006a	8b 4d f8	 mov	 ecx, DWORD PTR _this$[ebp]
  0006d	51		 push	 ecx
  0006e	e8 00 00 00 00	 call	 ??$max@H@std@@YAABHABH0@Z ; std::max<int>
  00073	83 c4 08	 add	 esp, 8
  00076	8b 10		 mov	 edx, DWORD PTR [eax]
  00078	89 55 e4	 mov	 DWORD PTR _r1MaxX$[ebp], edx

; 116  :     T r1MinY = std::min(top, static_cast<T>(top + height));

  0007b	8b 45 f8	 mov	 eax, DWORD PTR _this$[ebp]
  0007e	8b 48 04	 mov	 ecx, DWORD PTR [eax+4]
  00081	8b 55 f8	 mov	 edx, DWORD PTR _this$[ebp]
  00084	03 4a 0c	 add	 ecx, DWORD PTR [edx+12]
  00087	89 8d 7c ff ff
	ff		 mov	 DWORD PTR $T8[ebp], ecx
  0008d	8d 85 7c ff ff
	ff		 lea	 eax, DWORD PTR $T8[ebp]
  00093	50		 push	 eax
  00094	8b 4d f8	 mov	 ecx, DWORD PTR _this$[ebp]
  00097	83 c1 04	 add	 ecx, 4
  0009a	51		 push	 ecx
  0009b	e8 00 00 00 00	 call	 ??$min@H@std@@YAABHABH0@Z ; std::min<int>
  000a0	83 c4 08	 add	 esp, 8
  000a3	8b 10		 mov	 edx, DWORD PTR [eax]
  000a5	89 55 d8	 mov	 DWORD PTR _r1MinY$[ebp], edx

; 117  :     T r1MaxY = std::max(top, static_cast<T>(top + height));

  000a8	8b 45 f8	 mov	 eax, DWORD PTR _this$[ebp]
  000ab	8b 48 04	 mov	 ecx, DWORD PTR [eax+4]
  000ae	8b 55 f8	 mov	 edx, DWORD PTR _this$[ebp]
  000b1	03 4a 0c	 add	 ecx, DWORD PTR [edx+12]
  000b4	89 8d 78 ff ff
	ff		 mov	 DWORD PTR $T7[ebp], ecx
  000ba	8d 85 78 ff ff
	ff		 lea	 eax, DWORD PTR $T7[ebp]
  000c0	50		 push	 eax
  000c1	8b 4d f8	 mov	 ecx, DWORD PTR _this$[ebp]
  000c4	83 c1 04	 add	 ecx, 4
  000c7	51		 push	 ecx
  000c8	e8 00 00 00 00	 call	 ??$max@H@std@@YAABHABH0@Z ; std::max<int>
  000cd	83 c4 08	 add	 esp, 8
  000d0	8b 10		 mov	 edx, DWORD PTR [eax]
  000d2	89 55 cc	 mov	 DWORD PTR _r1MaxY$[ebp], edx

; 118  : 
; 119  :     // Compute the min and max of the second rectangle on both axes
; 120  :     T r2MinX = std::min(rectangle.left, static_cast<T>(rectangle.left + rectangle.width));

  000d5	8b 45 08	 mov	 eax, DWORD PTR _rectangle$[ebp]
  000d8	8b 08		 mov	 ecx, DWORD PTR [eax]
  000da	8b 55 08	 mov	 edx, DWORD PTR _rectangle$[ebp]
  000dd	03 4a 08	 add	 ecx, DWORD PTR [edx+8]
  000e0	89 8d 74 ff ff
	ff		 mov	 DWORD PTR $T6[ebp], ecx
  000e6	8d 85 74 ff ff
	ff		 lea	 eax, DWORD PTR $T6[ebp]
  000ec	50		 push	 eax
  000ed	8b 4d 08	 mov	 ecx, DWORD PTR _rectangle$[ebp]
  000f0	51		 push	 ecx
  000f1	e8 00 00 00 00	 call	 ??$min@H@std@@YAABHABH0@Z ; std::min<int>
  000f6	83 c4 08	 add	 esp, 8
  000f9	8b 10		 mov	 edx, DWORD PTR [eax]
  000fb	89 55 c0	 mov	 DWORD PTR _r2MinX$[ebp], edx

; 121  :     T r2MaxX = std::max(rectangle.left, static_cast<T>(rectangle.left + rectangle.width));

  000fe	8b 45 08	 mov	 eax, DWORD PTR _rectangle$[ebp]
  00101	8b 08		 mov	 ecx, DWORD PTR [eax]
  00103	8b 55 08	 mov	 edx, DWORD PTR _rectangle$[ebp]
  00106	03 4a 08	 add	 ecx, DWORD PTR [edx+8]
  00109	89 8d 70 ff ff
	ff		 mov	 DWORD PTR $T5[ebp], ecx
  0010f	8d 85 70 ff ff
	ff		 lea	 eax, DWORD PTR $T5[ebp]
  00115	50		 push	 eax
  00116	8b 4d 08	 mov	 ecx, DWORD PTR _rectangle$[ebp]
  00119	51		 push	 ecx
  0011a	e8 00 00 00 00	 call	 ??$max@H@std@@YAABHABH0@Z ; std::max<int>
  0011f	83 c4 08	 add	 esp, 8
  00122	8b 10		 mov	 edx, DWORD PTR [eax]
  00124	89 55 b4	 mov	 DWORD PTR _r2MaxX$[ebp], edx

; 122  :     T r2MinY = std::min(rectangle.top, static_cast<T>(rectangle.top + rectangle.height));

  00127	8b 45 08	 mov	 eax, DWORD PTR _rectangle$[ebp]
  0012a	8b 48 04	 mov	 ecx, DWORD PTR [eax+4]
  0012d	8b 55 08	 mov	 edx, DWORD PTR _rectangle$[ebp]
  00130	03 4a 0c	 add	 ecx, DWORD PTR [edx+12]
  00133	89 8d 6c ff ff
	ff		 mov	 DWORD PTR $T4[ebp], ecx
  00139	8d 85 6c ff ff
	ff		 lea	 eax, DWORD PTR $T4[ebp]
  0013f	50		 push	 eax
  00140	8b 4d 08	 mov	 ecx, DWORD PTR _rectangle$[ebp]
  00143	83 c1 04	 add	 ecx, 4
  00146	51		 push	 ecx
  00147	e8 00 00 00 00	 call	 ??$min@H@std@@YAABHABH0@Z ; std::min<int>
  0014c	83 c4 08	 add	 esp, 8
  0014f	8b 10		 mov	 edx, DWORD PTR [eax]
  00151	89 55 a8	 mov	 DWORD PTR _r2MinY$[ebp], edx

; 123  :     T r2MaxY = std::max(rectangle.top, static_cast<T>(rectangle.top + rectangle.height));

  00154	8b 45 08	 mov	 eax, DWORD PTR _rectangle$[ebp]
  00157	8b 48 04	 mov	 ecx, DWORD PTR [eax+4]
  0015a	8b 55 08	 mov	 edx, DWORD PTR _rectangle$[ebp]
  0015d	03 4a 0c	 add	 ecx, DWORD PTR [edx+12]
  00160	89 8d 68 ff ff
	ff		 mov	 DWORD PTR $T3[ebp], ecx
  00166	8d 85 68 ff ff
	ff		 lea	 eax, DWORD PTR $T3[ebp]
  0016c	50		 push	 eax
  0016d	8b 4d 08	 mov	 ecx, DWORD PTR _rectangle$[ebp]
  00170	83 c1 04	 add	 ecx, 4
  00173	51		 push	 ecx
  00174	e8 00 00 00 00	 call	 ??$max@H@std@@YAABHABH0@Z ; std::max<int>
  00179	83 c4 08	 add	 esp, 8
  0017c	8b 10		 mov	 edx, DWORD PTR [eax]
  0017e	89 55 9c	 mov	 DWORD PTR _r2MaxY$[ebp], edx

; 124  : 
; 125  :     // Compute the intersection boundaries
; 126  :     T interLeft   = std::max(r1MinX, r2MinX);

  00181	8d 45 c0	 lea	 eax, DWORD PTR _r2MinX$[ebp]
  00184	50		 push	 eax
  00185	8d 4d f0	 lea	 ecx, DWORD PTR _r1MinX$[ebp]
  00188	51		 push	 ecx
  00189	e8 00 00 00 00	 call	 ??$max@H@std@@YAABHABH0@Z ; std::max<int>
  0018e	83 c4 08	 add	 esp, 8
  00191	8b 10		 mov	 edx, DWORD PTR [eax]
  00193	89 55 94	 mov	 DWORD PTR _interLeft$[ebp], edx

; 127  :     T interTop    = std::max(r1MinY, r2MinY);

  00196	8d 45 a8	 lea	 eax, DWORD PTR _r2MinY$[ebp]
  00199	50		 push	 eax
  0019a	8d 4d d8	 lea	 ecx, DWORD PTR _r1MinY$[ebp]
  0019d	51		 push	 ecx
  0019e	e8 00 00 00 00	 call	 ??$max@H@std@@YAABHABH0@Z ; std::max<int>
  001a3	83 c4 08	 add	 esp, 8
  001a6	8b 10		 mov	 edx, DWORD PTR [eax]
  001a8	89 55 90	 mov	 DWORD PTR _interTop$[ebp], edx

; 128  :     T interRight  = std::min(r1MaxX, r2MaxX);

  001ab	8d 45 b4	 lea	 eax, DWORD PTR _r2MaxX$[ebp]
  001ae	50		 push	 eax
  001af	8d 4d e4	 lea	 ecx, DWORD PTR _r1MaxX$[ebp]
  001b2	51		 push	 ecx
  001b3	e8 00 00 00 00	 call	 ??$min@H@std@@YAABHABH0@Z ; std::min<int>
  001b8	83 c4 08	 add	 esp, 8
  001bb	8b 10		 mov	 edx, DWORD PTR [eax]
  001bd	89 55 8c	 mov	 DWORD PTR _interRight$[ebp], edx

; 129  :     T interBottom = std::min(r1MaxY, r2MaxY);

  001c0	8d 45 9c	 lea	 eax, DWORD PTR _r2MaxY$[ebp]
  001c3	50		 push	 eax
  001c4	8d 4d cc	 lea	 ecx, DWORD PTR _r1MaxY$[ebp]
  001c7	51		 push	 ecx
  001c8	e8 00 00 00 00	 call	 ??$min@H@std@@YAABHABH0@Z ; std::min<int>
  001cd	83 c4 08	 add	 esp, 8
  001d0	8b 10		 mov	 edx, DWORD PTR [eax]
  001d2	89 55 88	 mov	 DWORD PTR _interBottom$[ebp], edx

; 130  : 
; 131  :     // If the intersection is valid (positive non zero area), then there is an intersection
; 132  :     if ((interLeft < interRight) && (interTop < interBottom))

  001d5	8b 45 94	 mov	 eax, DWORD PTR _interLeft$[ebp]
  001d8	3b 45 8c	 cmp	 eax, DWORD PTR _interRight$[ebp]
  001db	7d 48		 jge	 SHORT $LN2@intersects
  001dd	8b 4d 90	 mov	 ecx, DWORD PTR _interTop$[ebp]
  001e0	3b 4d 88	 cmp	 ecx, DWORD PTR _interBottom$[ebp]
  001e3	7d 40		 jge	 SHORT $LN2@intersects

; 133  :     {
; 134  :         intersection = Rect<T>(interLeft, interTop, interRight - interLeft, interBottom - interTop);

  001e5	8b 55 88	 mov	 edx, DWORD PTR _interBottom$[ebp]
  001e8	2b 55 90	 sub	 edx, DWORD PTR _interTop$[ebp]
  001eb	52		 push	 edx
  001ec	8b 45 8c	 mov	 eax, DWORD PTR _interRight$[ebp]
  001ef	2b 45 94	 sub	 eax, DWORD PTR _interLeft$[ebp]
  001f2	50		 push	 eax
  001f3	8b 4d 90	 mov	 ecx, DWORD PTR _interTop$[ebp]
  001f6	51		 push	 ecx
  001f7	8b 55 94	 mov	 edx, DWORD PTR _interLeft$[ebp]
  001fa	52		 push	 edx
  001fb	8d 8d 58 ff ff
	ff		 lea	 ecx, DWORD PTR $T2[ebp]
  00201	e8 00 00 00 00	 call	 ??0?$Rect@H@sf@@QAE@HHHH@Z ; sf::Rect<int>::Rect<int>
  00206	8b 4d 0c	 mov	 ecx, DWORD PTR _intersection$[ebp]
  00209	8b 10		 mov	 edx, DWORD PTR [eax]
  0020b	89 11		 mov	 DWORD PTR [ecx], edx
  0020d	8b 50 04	 mov	 edx, DWORD PTR [eax+4]
  00210	89 51 04	 mov	 DWORD PTR [ecx+4], edx
  00213	8b 50 08	 mov	 edx, DWORD PTR [eax+8]
  00216	89 51 08	 mov	 DWORD PTR [ecx+8], edx
  00219	8b 40 0c	 mov	 eax, DWORD PTR [eax+12]
  0021c	89 41 0c	 mov	 DWORD PTR [ecx+12], eax

; 135  :         return true;

  0021f	b0 01		 mov	 al, 1
  00221	eb 30		 jmp	 SHORT $LN1@intersects

; 136  :     }

  00223	eb 2e		 jmp	 SHORT $LN1@intersects
$LN2@intersects:

; 137  :     else
; 138  :     {
; 139  :         intersection = Rect<T>(0, 0, 0, 0);

  00225	6a 00		 push	 0
  00227	6a 00		 push	 0
  00229	6a 00		 push	 0
  0022b	6a 00		 push	 0
  0022d	8d 8d 48 ff ff
	ff		 lea	 ecx, DWORD PTR $T1[ebp]
  00233	e8 00 00 00 00	 call	 ??0?$Rect@H@sf@@QAE@HHHH@Z ; sf::Rect<int>::Rect<int>
  00238	8b 4d 0c	 mov	 ecx, DWORD PTR _intersection$[ebp]
  0023b	8b 10		 mov	 edx, DWORD PTR [eax]
  0023d	89 11		 mov	 DWORD PTR [ecx], edx
  0023f	8b 50 04	 mov	 edx, DWORD PTR [eax+4]
  00242	89 51 04	 mov	 DWORD PTR [ecx+4], edx
  00245	8b 50 08	 mov	 edx, DWORD PTR [eax+8]
  00248	89 51 08	 mov	 DWORD PTR [ecx+8], edx
  0024b	8b 40 0c	 mov	 eax, DWORD PTR [eax+12]
  0024e	89 41 0c	 mov	 DWORD PTR [ecx+12], eax

; 140  :         return false;

  00251	32 c0		 xor	 al, al
$LN1@intersects:

; 141  :     }
; 142  : }

  00253	52		 push	 edx
  00254	8b cd		 mov	 ecx, ebp
  00256	50		 push	 eax
  00257	8d 15 00 00 00
	00		 lea	 edx, DWORD PTR $LN14@intersects
  0025d	e8 00 00 00 00	 call	 @_RTC_CheckStackVars@8
  00262	58		 pop	 eax
  00263	5a		 pop	 edx
  00264	5f		 pop	 edi
  00265	8b 4d fc	 mov	 ecx, DWORD PTR __$ArrayPad$[ebp]
  00268	33 cd		 xor	 ecx, ebp
  0026a	e8 00 00 00 00	 call	 @__security_check_cookie@4
  0026f	81 c4 b8 00 00
	00		 add	 esp, 184		; 000000b8H
  00275	3b ec		 cmp	 ebp, esp
  00277	e8 00 00 00 00	 call	 __RTC_CheckEsp
  0027c	8b e5		 mov	 esp, ebp
  0027e	5d		 pop	 ebp
  0027f	c2 08 00	 ret	 8
  00282	66 90		 npad	 2
$LN14@intersects:
  00284	08 00 00 00	 DD	 8
  00288	00 00 00 00	 DD	 $LN13@intersects
$LN13@intersects:
  0028c	f0 ff ff ff	 DD	 -16			; fffffff0H
  00290	04 00 00 00	 DD	 4
  00294	00 00 00 00	 DD	 $LN5@intersects
  00298	e4 ff ff ff	 DD	 -28			; ffffffe4H
  0029c	04 00 00 00	 DD	 4
  002a0	00 00 00 00	 DD	 $LN6@intersects
  002a4	d8 ff ff ff	 DD	 -40			; ffffffd8H
  002a8	04 00 00 00	 DD	 4
  002ac	00 00 00 00	 DD	 $LN7@intersects
  002b0	cc ff ff ff	 DD	 -52			; ffffffccH
  002b4	04 00 00 00	 DD	 4
  002b8	00 00 00 00	 DD	 $LN8@intersects
  002bc	c0 ff ff ff	 DD	 -64			; ffffffc0H
  002c0	04 00 00 00	 DD	 4
  002c4	00 00 00 00	 DD	 $LN9@intersects
  002c8	b4 ff ff ff	 DD	 -76			; ffffffb4H
  002cc	04 00 00 00	 DD	 4
  002d0	00 00 00 00	 DD	 $LN10@intersects
  002d4	a8 ff ff ff	 DD	 -88			; ffffffa8H
  002d8	04 00 00 00	 DD	 4
  002dc	00 00 00 00	 DD	 $LN11@intersects
  002e0	9c ff ff ff	 DD	 -100			; ffffff9cH
  002e4	04 00 00 00	 DD	 4
  002e8	00 00 00 00	 DD	 $LN12@intersects
$LN12@intersects:
  002ec	72		 DB	 114			; 00000072H
  002ed	32		 DB	 50			; 00000032H
  002ee	4d		 DB	 77			; 0000004dH
  002ef	61		 DB	 97			; 00000061H
  002f0	78		 DB	 120			; 00000078H
  002f1	59		 DB	 89			; 00000059H
  002f2	00		 DB	 0
$LN11@intersects:
  002f3	72		 DB	 114			; 00000072H
  002f4	32		 DB	 50			; 00000032H
  002f5	4d		 DB	 77			; 0000004dH
  002f6	69		 DB	 105			; 00000069H
  002f7	6e		 DB	 110			; 0000006eH
  002f8	59		 DB	 89			; 00000059H
  002f9	00		 DB	 0
$LN10@intersects:
  002fa	72		 DB	 114			; 00000072H
  002fb	32		 DB	 50			; 00000032H
  002fc	4d		 DB	 77			; 0000004dH
  002fd	61		 DB	 97			; 00000061H
  002fe	78		 DB	 120			; 00000078H
  002ff	58		 DB	 88			; 00000058H
  00300	00		 DB	 0
$LN9@intersects:
  00301	72		 DB	 114			; 00000072H
  00302	32		 DB	 50			; 00000032H
  00303	4d		 DB	 77			; 0000004dH
  00304	69		 DB	 105			; 00000069H
  00305	6e		 DB	 110			; 0000006eH
  00306	58		 DB	 88			; 00000058H
  00307	00		 DB	 0
$LN8@intersects:
  00308	72		 DB	 114			; 00000072H
  00309	31		 DB	 49			; 00000031H
  0030a	4d		 DB	 77			; 0000004dH
  0030b	61		 DB	 97			; 00000061H
  0030c	78		 DB	 120			; 00000078H
  0030d	59		 DB	 89			; 00000059H
  0030e	00		 DB	 0
$LN7@intersects:
  0030f	72		 DB	 114			; 00000072H
  00310	31		 DB	 49			; 00000031H
  00311	4d		 DB	 77			; 0000004dH
  00312	69		 DB	 105			; 00000069H
  00313	6e		 DB	 110			; 0000006eH
  00314	59		 DB	 89			; 00000059H
  00315	00		 DB	 0
$LN6@intersects:
  00316	72		 DB	 114			; 00000072H
  00317	31		 DB	 49			; 00000031H
  00318	4d		 DB	 77			; 0000004dH
  00319	61		 DB	 97			; 00000061H
  0031a	78		 DB	 120			; 00000078H
  0031b	58		 DB	 88			; 00000058H
  0031c	00		 DB	 0
$LN5@intersects:
  0031d	72		 DB	 114			; 00000072H
  0031e	31		 DB	 49			; 00000031H
  0031f	4d		 DB	 77			; 0000004dH
  00320	69		 DB	 105			; 00000069H
  00321	6e		 DB	 110			; 0000006eH
  00322	58		 DB	 88			; 00000058H
  00323	00		 DB	 0
?intersects@?$Rect@H@sf@@QBE_NABV12@AAV12@@Z ENDP	; sf::Rect<int>::intersects
_TEXT	ENDS
; Function compile flags: /Odtp /RTCsu
; File C:\Users\theob\Documents\GitHub\as-pts1\travail\ProjetTutore1\vcpkg_installed\x86-windows\x86-windows\include\SFML\Graphics\Rect.inl
;	COMDAT ?intersects@?$Rect@H@sf@@QBE_NABV12@@Z
_TEXT	SEGMENT
_intersection$ = -28					; size = 16
_this$ = -8						; size = 4
__$ArrayPad$ = -4					; size = 4
_rectangle$ = 8						; size = 4
?intersects@?$Rect@H@sf@@QBE_NABV12@@Z PROC		; sf::Rect<int>::intersects, COMDAT
; _this$ = ecx

; 101  : {

  00000	55		 push	 ebp
  00001	8b ec		 mov	 ebp, esp
  00003	83 ec 20	 sub	 esp, 32			; 00000020H
  00006	b8 cc cc cc cc	 mov	 eax, -858993460		; ccccccccH
  0000b	89 45 e0	 mov	 DWORD PTR [ebp-32], eax
  0000e	89 45 e4	 mov	 DWORD PTR [ebp-28], eax
  00011	89 45 e8	 mov	 DWORD PTR [ebp-24], eax
  00014	89 45 ec	 mov	 DWORD PTR [ebp-20], eax
  00017	89 45 f0	 mov	 DWORD PTR [ebp-16], eax
  0001a	89 45 f4	 mov	 DWORD PTR [ebp-12], eax
  0001d	89 45 f8	 mov	 DWORD PTR [ebp-8], eax
  00020	89 45 fc	 mov	 DWORD PTR [ebp-4], eax
  00023	a1 00 00 00 00	 mov	 eax, DWORD PTR ___security_cookie
  00028	33 c5		 xor	 eax, ebp
  0002a	89 45 fc	 mov	 DWORD PTR __$ArrayPad$[ebp], eax
  0002d	89 4d f8	 mov	 DWORD PTR _this$[ebp], ecx
  00030	b9 00 00 00 00	 mov	 ecx, OFFSET __6AE60262_Rect@inl
  00035	e8 00 00 00 00	 call	 @__CheckForDebuggerJustMyCode@4

; 102  :     Rect<T> intersection;

  0003a	8d 4d e4	 lea	 ecx, DWORD PTR _intersection$[ebp]
  0003d	e8 00 00 00 00	 call	 ??0?$Rect@H@sf@@QAE@XZ	; sf::Rect<int>::Rect<int>

; 103  :     return intersects(rectangle, intersection);

  00042	8d 45 e4	 lea	 eax, DWORD PTR _intersection$[ebp]
  00045	50		 push	 eax
  00046	8b 4d 08	 mov	 ecx, DWORD PTR _rectangle$[ebp]
  00049	51		 push	 ecx
  0004a	8b 4d f8	 mov	 ecx, DWORD PTR _this$[ebp]
  0004d	e8 00 00 00 00	 call	 ?intersects@?$Rect@H@sf@@QBE_NABV12@AAV12@@Z ; sf::Rect<int>::intersects

; 104  : }

  00052	52		 push	 edx
  00053	8b cd		 mov	 ecx, ebp
  00055	50		 push	 eax
  00056	8d 15 00 00 00
	00		 lea	 edx, DWORD PTR $LN5@intersects
  0005c	e8 00 00 00 00	 call	 @_RTC_CheckStackVars@8
  00061	58		 pop	 eax
  00062	5a		 pop	 edx
  00063	8b 4d fc	 mov	 ecx, DWORD PTR __$ArrayPad$[ebp]
  00066	33 cd		 xor	 ecx, ebp
  00068	e8 00 00 00 00	 call	 @__security_check_cookie@4
  0006d	83 c4 20	 add	 esp, 32			; 00000020H
  00070	3b ec		 cmp	 ebp, esp
  00072	e8 00 00 00 00	 call	 __RTC_CheckEsp
  00077	8b e5		 mov	 esp, ebp
  00079	5d		 pop	 ebp
  0007a	c2 04 00	 ret	 4
  0007d	0f 1f 00	 npad	 3
$LN5@intersects:
  00080	01 00 00 00	 DD	 1
  00084	00 00 00 00	 DD	 $LN4@intersects
$LN4@intersects:
  00088	e4 ff ff ff	 DD	 -28			; ffffffe4H
  0008c	10 00 00 00	 DD	 16			; 00000010H
  00090	00 00 00 00	 DD	 $LN3@intersects
$LN3@intersects:
  00094	69		 DB	 105			; 00000069H
  00095	6e		 DB	 110			; 0000006eH
  00096	74		 DB	 116			; 00000074H
  00097	65		 DB	 101			; 00000065H
  00098	72		 DB	 114			; 00000072H
  00099	73		 DB	 115			; 00000073H
  0009a	65		 DB	 101			; 00000065H
  0009b	63		 DB	 99			; 00000063H
  0009c	74		 DB	 116			; 00000074H
  0009d	69		 DB	 105			; 00000069H
  0009e	6f		 DB	 111			; 0000006fH
  0009f	6e		 DB	 110			; 0000006eH
  000a0	00		 DB	 0
?intersects@?$Rect@H@sf@@QBE_NABV12@@Z ENDP		; sf::Rect<int>::intersects
_TEXT	ENDS
; Function compile flags: /Odtp /RTCsu
; File C:\Users\theob\Documents\GitHub\as-pts1\travail\ProjetTutore1\vcpkg_installed\x86-windows\x86-windows\include\SFML\Graphics\Rect.inl
;	COMDAT ??0?$Rect@H@sf@@QAE@HHHH@Z
_TEXT	SEGMENT
_this$ = -4						; size = 4
_rectLeft$ = 8						; size = 4
_rectTop$ = 12						; size = 4
_rectWidth$ = 16					; size = 4
_rectHeight$ = 20					; size = 4
??0?$Rect@H@sf@@QAE@HHHH@Z PROC				; sf::Rect<int>::Rect<int>, COMDAT
; _this$ = ecx

; 45   : {

  00000	55		 push	 ebp
  00001	8b ec		 mov	 ebp, esp
  00003	51		 push	 ecx
  00004	c7 45 fc cc cc
	cc cc		 mov	 DWORD PTR [ebp-4], -858993460 ; ccccccccH
  0000b	89 4d fc	 mov	 DWORD PTR _this$[ebp], ecx
  0000e	b9 00 00 00 00	 mov	 ecx, OFFSET __6AE60262_Rect@inl
  00013	e8 00 00 00 00	 call	 @__CheckForDebuggerJustMyCode@4

; 41   : left  (rectLeft),

  00018	8b 45 fc	 mov	 eax, DWORD PTR _this$[ebp]
  0001b	8b 4d 08	 mov	 ecx, DWORD PTR _rectLeft$[ebp]
  0001e	89 08		 mov	 DWORD PTR [eax], ecx

; 42   : top   (rectTop),

  00020	8b 55 fc	 mov	 edx, DWORD PTR _this$[ebp]
  00023	8b 45 0c	 mov	 eax, DWORD PTR _rectTop$[ebp]
  00026	89 42 04	 mov	 DWORD PTR [edx+4], eax

; 43   : width (rectWidth),

  00029	8b 4d fc	 mov	 ecx, DWORD PTR _this$[ebp]
  0002c	8b 55 10	 mov	 edx, DWORD PTR _rectWidth$[ebp]
  0002f	89 51 08	 mov	 DWORD PTR [ecx+8], edx

; 44   : height(rectHeight)

  00032	8b 45 fc	 mov	 eax, DWORD PTR _this$[ebp]
  00035	8b 4d 14	 mov	 ecx, DWORD PTR _rectHeight$[ebp]
  00038	89 48 0c	 mov	 DWORD PTR [eax+12], ecx

; 46   : 
; 47   : }

  0003b	8b 45 fc	 mov	 eax, DWORD PTR _this$[ebp]
  0003e	83 c4 04	 add	 esp, 4
  00041	3b ec		 cmp	 ebp, esp
  00043	e8 00 00 00 00	 call	 __RTC_CheckEsp
  00048	8b e5		 mov	 esp, ebp
  0004a	5d		 pop	 ebp
  0004b	c2 10 00	 ret	 16			; 00000010H
??0?$Rect@H@sf@@QAE@HHHH@Z ENDP				; sf::Rect<int>::Rect<int>
_TEXT	ENDS
; Function compile flags: /Odtp /RTCsu
; File C:\Users\theob\Documents\GitHub\as-pts1\travail\ProjetTutore1\vcpkg_installed\x86-windows\x86-windows\include\SFML\Graphics\Rect.inl
;	COMDAT ??0?$Rect@H@sf@@QAE@XZ
_TEXT	SEGMENT
_this$ = -4						; size = 4
??0?$Rect@H@sf@@QAE@XZ PROC				; sf::Rect<int>::Rect<int>, COMDAT
; _this$ = ecx

; 33   : {

  00000	55		 push	 ebp
  00001	8b ec		 mov	 ebp, esp
  00003	51		 push	 ecx
  00004	c7 45 fc cc cc
	cc cc		 mov	 DWORD PTR [ebp-4], -858993460 ; ccccccccH
  0000b	89 4d fc	 mov	 DWORD PTR _this$[ebp], ecx
  0000e	b9 00 00 00 00	 mov	 ecx, OFFSET __6AE60262_Rect@inl
  00013	e8 00 00 00 00	 call	 @__CheckForDebuggerJustMyCode@4

; 29   : left  (0),

  00018	8b 45 fc	 mov	 eax, DWORD PTR _this$[ebp]
  0001b	c7 00 00 00 00
	00		 mov	 DWORD PTR [eax], 0

; 30   : top   (0),

  00021	8b 4d fc	 mov	 ecx, DWORD PTR _this$[ebp]
  00024	c7 41 04 00 00
	00 00		 mov	 DWORD PTR [ecx+4], 0

; 31   : width (0),

  0002b	8b 55 fc	 mov	 edx, DWORD PTR _this$[ebp]
  0002e	c7 42 08 00 00
	00 00		 mov	 DWORD PTR [edx+8], 0

; 32   : height(0)

  00035	8b 45 fc	 mov	 eax, DWORD PTR _this$[ebp]
  00038	c7 40 0c 00 00
	00 00		 mov	 DWORD PTR [eax+12], 0

; 34   : 
; 35   : }

  0003f	8b 45 fc	 mov	 eax, DWORD PTR _this$[ebp]
  00042	83 c4 04	 add	 esp, 4
  00045	3b ec		 cmp	 ebp, esp
  00047	e8 00 00 00 00	 call	 __RTC_CheckEsp
  0004c	8b e5		 mov	 esp, ebp
  0004e	5d		 pop	 ebp
  0004f	c3		 ret	 0
??0?$Rect@H@sf@@QAE@XZ ENDP				; sf::Rect<int>::Rect<int>
_TEXT	ENDS
; Function compile flags: /Odtp /RTCsu
; File C:\Program Files (x86)\Microsoft Visual Studio\2019\Community\VC\Tools\MSVC\14.29.30133\include\xloctime
;	COMDAT ??$_Getvals@_W@?$time_get@_WV?$istreambuf_iterator@_WU?$char_traits@_W@std@@@std@@@std@@IAEX_WABV_Locinfo@1@@Z
_TEXT	SEGMENT
$T1 = -48						; size = 44
_this$ = -4						; size = 4
___formal$ = 8						; size = 2
__Lobj$ = 12						; size = 4
??$_Getvals@_W@?$time_get@_WV?$istreambuf_iterator@_WU?$char_traits@_W@std@@@std@@@std@@IAEX_WABV_Locinfo@1@@Z PROC ; std::time_get<wchar_t,std::istreambuf_iterator<wchar_t,std::char_traits<wchar_t> > >::_Getvals<wchar_t>, COMDAT
; _this$ = ecx

; 173  :     void __CLR_OR_THIS_CALL _Getvals(_Elem2, const _Locinfo& _Lobj) { // get values

  00000	55		 push	 ebp
  00001	8b ec		 mov	 ebp, esp
  00003	83 ec 30	 sub	 esp, 48			; 00000030H
  00006	56		 push	 esi
  00007	57		 push	 edi
  00008	51		 push	 ecx
  00009	8d 7d d0	 lea	 edi, DWORD PTR [ebp-48]
  0000c	b9 0c 00 00 00	 mov	 ecx, 12			; 0000000cH
  00011	b8 cc cc cc cc	 mov	 eax, -858993460		; ccccccccH
  00016	f3 ab		 rep stosd
  00018	59		 pop	 ecx
  00019	89 4d fc	 mov	 DWORD PTR _this$[ebp], ecx
  0001c	b9 00 00 00 00	 mov	 ecx, OFFSET __D96D2425_xloctime
  00021	e8 00 00 00 00	 call	 @__CheckForDebuggerJustMyCode@4

; 174  :         _Cvt = _Lobj._Getcvt();

  00026	8b f4		 mov	 esi, esp
  00028	8d 45 d0	 lea	 eax, DWORD PTR $T1[ebp]
  0002b	50		 push	 eax
  0002c	8b 4d 0c	 mov	 ecx, DWORD PTR __Lobj$[ebp]
  0002f	ff 15 00 00 00
	00		 call	 DWORD PTR __imp_?_Getcvt@_Locinfo@std@@QBE?AU_Cvtvec@@XZ
  00035	3b f4		 cmp	 esi, esp
  00037	e8 00 00 00 00	 call	 __RTC_CheckEsp
  0003c	8b 7d fc	 mov	 edi, DWORD PTR _this$[ebp]
  0003f	83 c7 18	 add	 edi, 24			; 00000018H
  00042	b9 0b 00 00 00	 mov	 ecx, 11			; 0000000bH
  00047	8b f0		 mov	 esi, eax
  00049	f3 a5		 rep movsd

; 175  : 
; 176  :         if (is_same_v<_Elem2, wchar_t>) {

  0004b	b9 01 00 00 00	 mov	 ecx, 1
  00050	85 c9		 test	 ecx, ecx
  00052	74 57		 je	 SHORT $LN2@Getvals

; 177  :             _Days = reinterpret_cast<const _Elem*>(_Maklocwcs(reinterpret_cast<const wchar_t*>(_Lobj._W_Getdays())));

  00054	8b f4		 mov	 esi, esp
  00056	8b 4d 0c	 mov	 ecx, DWORD PTR __Lobj$[ebp]
  00059	ff 15 00 00 00
	00		 call	 DWORD PTR __imp_?_W_Getdays@_Locinfo@std@@QBEPBGXZ
  0005f	3b f4		 cmp	 esi, esp
  00061	e8 00 00 00 00	 call	 __RTC_CheckEsp
  00066	50		 push	 eax
  00067	e8 00 00 00 00	 call	 ?_Maklocwcs@std@@YAPA_WPB_W@Z ; std::_Maklocwcs
  0006c	83 c4 04	 add	 esp, 4
  0006f	8b 55 fc	 mov	 edx, DWORD PTR _this$[ebp]
  00072	89 42 08	 mov	 DWORD PTR [edx+8], eax

; 178  :             _Months =

  00075	8b f4		 mov	 esi, esp
  00077	8b 4d 0c	 mov	 ecx, DWORD PTR __Lobj$[ebp]
  0007a	ff 15 00 00 00
	00		 call	 DWORD PTR __imp_?_W_Getmonths@_Locinfo@std@@QBEPBGXZ
  00080	3b f4		 cmp	 esi, esp
  00082	e8 00 00 00 00	 call	 __RTC_CheckEsp
  00087	50		 push	 eax
  00088	e8 00 00 00 00	 call	 ?_Maklocwcs@std@@YAPA_WPB_W@Z ; std::_Maklocwcs
  0008d	83 c4 04	 add	 esp, 4
  00090	8b 4d fc	 mov	 ecx, DWORD PTR _this$[ebp]
  00093	89 41 0c	 mov	 DWORD PTR [ecx+12], eax

; 179  :                 reinterpret_cast<const _Elem*>(_Maklocwcs(reinterpret_cast<const wchar_t*>(_Lobj._W_Getmonths())));
; 180  :             _Ampm = reinterpret_cast<const _Elem*>(_Maklocwcs(L":AM:am:PM:pm"));

  00096	68 00 00 00 00	 push	 OFFSET ??_C@_1BK@MHIKGOKE@?$AA?3?$AAA?$AAM?$AA?3?$AAa?$AAm?$AA?3?$AAP?$AAM?$AA?3?$AAp?$AAm@
  0009b	e8 00 00 00 00	 call	 ?_Maklocwcs@std@@YAPA_WPB_W@Z ; std::_Maklocwcs
  000a0	83 c4 04	 add	 esp, 4
  000a3	8b 55 fc	 mov	 edx, DWORD PTR _this$[ebp]
  000a6	89 42 10	 mov	 DWORD PTR [edx+16], eax

; 181  :         } else {

  000a9	eb 70		 jmp	 SHORT $LN1@Getvals
$LN2@Getvals:

; 182  :             _Days   = _Maklocstr(_Lobj._Getdays(), static_cast<_Elem*>(nullptr), _Cvt);

  000ab	8b 45 fc	 mov	 eax, DWORD PTR _this$[ebp]
  000ae	83 c0 18	 add	 eax, 24			; 00000018H
  000b1	50		 push	 eax
  000b2	6a 00		 push	 0
  000b4	8b f4		 mov	 esi, esp
  000b6	8b 4d 0c	 mov	 ecx, DWORD PTR __Lobj$[ebp]
  000b9	ff 15 00 00 00
	00		 call	 DWORD PTR __imp_?_Getdays@_Locinfo@std@@QBEPBDXZ
  000bf	3b f4		 cmp	 esi, esp
  000c1	e8 00 00 00 00	 call	 __RTC_CheckEsp
  000c6	50		 push	 eax
  000c7	e8 00 00 00 00	 call	 ??$_Maklocstr@_W@std@@YAPA_WPBDPA_WABU_Cvtvec@@@Z ; std::_Maklocstr<wchar_t>
  000cc	83 c4 0c	 add	 esp, 12			; 0000000cH
  000cf	8b 4d fc	 mov	 ecx, DWORD PTR _this$[ebp]
  000d2	89 41 08	 mov	 DWORD PTR [ecx+8], eax

; 183  :             _Months = _Maklocstr(_Lobj._Getmonths(), static_cast<_Elem*>(nullptr), _Cvt);

  000d5	8b 55 fc	 mov	 edx, DWORD PTR _this$[ebp]
  000d8	83 c2 18	 add	 edx, 24			; 00000018H
  000db	52		 push	 edx
  000dc	6a 00		 push	 0
  000de	8b f4		 mov	 esi, esp
  000e0	8b 4d 0c	 mov	 ecx, DWORD PTR __Lobj$[ebp]
  000e3	ff 15 00 00 00
	00		 call	 DWORD PTR __imp_?_Getmonths@_Locinfo@std@@QBEPBDXZ
  000e9	3b f4		 cmp	 esi, esp
  000eb	e8 00 00 00 00	 call	 __RTC_CheckEsp
  000f0	50		 push	 eax
  000f1	e8 00 00 00 00	 call	 ??$_Maklocstr@_W@std@@YAPA_WPBDPA_WABU_Cvtvec@@@Z ; std::_Maklocstr<wchar_t>
  000f6	83 c4 0c	 add	 esp, 12			; 0000000cH
  000f9	8b 4d fc	 mov	 ecx, DWORD PTR _this$[ebp]
  000fc	89 41 0c	 mov	 DWORD PTR [ecx+12], eax

; 184  :             _Ampm   = _Maklocstr(":AM:am:PM:pm", static_cast<_Elem*>(nullptr), _Cvt);

  000ff	8b 55 fc	 mov	 edx, DWORD PTR _this$[ebp]
  00102	83 c2 18	 add	 edx, 24			; 00000018H
  00105	52		 push	 edx
  00106	6a 00		 push	 0
  00108	68 00 00 00 00	 push	 OFFSET ??_C@_0N@LPFKKEBD@?3AM?3am?3PM?3pm@
  0010d	e8 00 00 00 00	 call	 ??$_Maklocstr@_W@std@@YAPA_WPBDPA_WABU_Cvtvec@@@Z ; std::_Maklocstr<wchar_t>
  00112	83 c4 0c	 add	 esp, 12			; 0000000cH
  00115	8b 4d fc	 mov	 ecx, DWORD PTR _this$[ebp]
  00118	89 41 10	 mov	 DWORD PTR [ecx+16], eax
$LN1@Getvals:

; 185  :         }
; 186  :     }

  0011b	5f		 pop	 edi
  0011c	5e		 pop	 esi
  0011d	83 c4 30	 add	 esp, 48			; 00000030H
  00120	3b ec		 cmp	 ebp, esp
  00122	e8 00 00 00 00	 call	 __RTC_CheckEsp
  00127	8b e5		 mov	 esp, ebp
  00129	5d		 pop	 ebp
  0012a	c2 08 00	 ret	 8
??$_Getvals@_W@?$time_get@_WV?$istreambuf_iterator@_WU?$char_traits@_W@std@@@std@@@std@@IAEX_WABV_Locinfo@1@@Z ENDP ; std::time_get<wchar_t,std::istreambuf_iterator<wchar_t,std::char_traits<wchar_t> > >::_Getvals<wchar_t>
_TEXT	ENDS
; Function compile flags: /Odtp /RTCsu
; File C:\Program Files (x86)\Microsoft Visual Studio\2019\Community\VC\Tools\MSVC\14.29.30133\include\xloctime
;	COMDAT ??$_Getvals@_W@?$time_get@DV?$istreambuf_iterator@DU?$char_traits@D@std@@@std@@@std@@IAEX_WABV_Locinfo@1@@Z
_TEXT	SEGMENT
$T1 = -48						; size = 44
_this$ = -4						; size = 4
___formal$ = 8						; size = 2
__Lobj$ = 12						; size = 4
??$_Getvals@_W@?$time_get@DV?$istreambuf_iterator@DU?$char_traits@D@std@@@std@@@std@@IAEX_WABV_Locinfo@1@@Z PROC ; std::time_get<char,std::istreambuf_iterator<char,std::char_traits<char> > >::_Getvals<wchar_t>, COMDAT
; _this$ = ecx

; 173  :     void __CLR_OR_THIS_CALL _Getvals(_Elem2, const _Locinfo& _Lobj) { // get values

  00000	55		 push	 ebp
  00001	8b ec		 mov	 ebp, esp
  00003	83 ec 30	 sub	 esp, 48			; 00000030H
  00006	56		 push	 esi
  00007	57		 push	 edi
  00008	51		 push	 ecx
  00009	8d 7d d0	 lea	 edi, DWORD PTR [ebp-48]
  0000c	b9 0c 00 00 00	 mov	 ecx, 12			; 0000000cH
  00011	b8 cc cc cc cc	 mov	 eax, -858993460		; ccccccccH
  00016	f3 ab		 rep stosd
  00018	59		 pop	 ecx
  00019	89 4d fc	 mov	 DWORD PTR _this$[ebp], ecx
  0001c	b9 00 00 00 00	 mov	 ecx, OFFSET __D96D2425_xloctime
  00021	e8 00 00 00 00	 call	 @__CheckForDebuggerJustMyCode@4

; 174  :         _Cvt = _Lobj._Getcvt();

  00026	8b f4		 mov	 esi, esp
  00028	8d 45 d0	 lea	 eax, DWORD PTR $T1[ebp]
  0002b	50		 push	 eax
  0002c	8b 4d 0c	 mov	 ecx, DWORD PTR __Lobj$[ebp]
  0002f	ff 15 00 00 00
	00		 call	 DWORD PTR __imp_?_Getcvt@_Locinfo@std@@QBE?AU_Cvtvec@@XZ
  00035	3b f4		 cmp	 esi, esp
  00037	e8 00 00 00 00	 call	 __RTC_CheckEsp
  0003c	8b 7d fc	 mov	 edi, DWORD PTR _this$[ebp]
  0003f	83 c7 18	 add	 edi, 24			; 00000018H
  00042	b9 0b 00 00 00	 mov	 ecx, 11			; 0000000bH
  00047	8b f0		 mov	 esi, eax
  00049	f3 a5		 rep movsd

; 175  : 
; 176  :         if (is_same_v<_Elem2, wchar_t>) {

  0004b	b9 01 00 00 00	 mov	 ecx, 1
  00050	85 c9		 test	 ecx, ecx
  00052	74 57		 je	 SHORT $LN2@Getvals

; 177  :             _Days = reinterpret_cast<const _Elem*>(_Maklocwcs(reinterpret_cast<const wchar_t*>(_Lobj._W_Getdays())));

  00054	8b f4		 mov	 esi, esp
  00056	8b 4d 0c	 mov	 ecx, DWORD PTR __Lobj$[ebp]
  00059	ff 15 00 00 00
	00		 call	 DWORD PTR __imp_?_W_Getdays@_Locinfo@std@@QBEPBGXZ
  0005f	3b f4		 cmp	 esi, esp
  00061	e8 00 00 00 00	 call	 __RTC_CheckEsp
  00066	50		 push	 eax
  00067	e8 00 00 00 00	 call	 ?_Maklocwcs@std@@YAPA_WPB_W@Z ; std::_Maklocwcs
  0006c	83 c4 04	 add	 esp, 4
  0006f	8b 55 fc	 mov	 edx, DWORD PTR _this$[ebp]
  00072	89 42 08	 mov	 DWORD PTR [edx+8], eax

; 178  :             _Months =

  00075	8b f4		 mov	 esi, esp
  00077	8b 4d 0c	 mov	 ecx, DWORD PTR __Lobj$[ebp]
  0007a	ff 15 00 00 00
	00		 call	 DWORD PTR __imp_?_W_Getmonths@_Locinfo@std@@QBEPBGXZ
  00080	3b f4		 cmp	 esi, esp
  00082	e8 00 00 00 00	 call	 __RTC_CheckEsp
  00087	50		 push	 eax
  00088	e8 00 00 00 00	 call	 ?_Maklocwcs@std@@YAPA_WPB_W@Z ; std::_Maklocwcs
  0008d	83 c4 04	 add	 esp, 4
  00090	8b 4d fc	 mov	 ecx, DWORD PTR _this$[ebp]
  00093	89 41 0c	 mov	 DWORD PTR [ecx+12], eax

; 179  :                 reinterpret_cast<const _Elem*>(_Maklocwcs(reinterpret_cast<const wchar_t*>(_Lobj._W_Getmonths())));
; 180  :             _Ampm = reinterpret_cast<const _Elem*>(_Maklocwcs(L":AM:am:PM:pm"));

  00096	68 00 00 00 00	 push	 OFFSET ??_C@_1BK@MHIKGOKE@?$AA?3?$AAA?$AAM?$AA?3?$AAa?$AAm?$AA?3?$AAP?$AAM?$AA?3?$AAp?$AAm@
  0009b	e8 00 00 00 00	 call	 ?_Maklocwcs@std@@YAPA_WPB_W@Z ; std::_Maklocwcs
  000a0	83 c4 04	 add	 esp, 4
  000a3	8b 55 fc	 mov	 edx, DWORD PTR _this$[ebp]
  000a6	89 42 10	 mov	 DWORD PTR [edx+16], eax

; 181  :         } else {

  000a9	eb 70		 jmp	 SHORT $LN1@Getvals
$LN2@Getvals:

; 182  :             _Days   = _Maklocstr(_Lobj._Getdays(), static_cast<_Elem*>(nullptr), _Cvt);

  000ab	8b 45 fc	 mov	 eax, DWORD PTR _this$[ebp]
  000ae	83 c0 18	 add	 eax, 24			; 00000018H
  000b1	50		 push	 eax
  000b2	6a 00		 push	 0
  000b4	8b f4		 mov	 esi, esp
  000b6	8b 4d 0c	 mov	 ecx, DWORD PTR __Lobj$[ebp]
  000b9	ff 15 00 00 00
	00		 call	 DWORD PTR __imp_?_Getdays@_Locinfo@std@@QBEPBDXZ
  000bf	3b f4		 cmp	 esi, esp
  000c1	e8 00 00 00 00	 call	 __RTC_CheckEsp
  000c6	50		 push	 eax
  000c7	e8 00 00 00 00	 call	 ??$_Maklocstr@D@std@@YAPADPBDPADABU_Cvtvec@@@Z ; std::_Maklocstr<char>
  000cc	83 c4 0c	 add	 esp, 12			; 0000000cH
  000cf	8b 4d fc	 mov	 ecx, DWORD PTR _this$[ebp]
  000d2	89 41 08	 mov	 DWORD PTR [ecx+8], eax

; 183  :             _Months = _Maklocstr(_Lobj._Getmonths(), static_cast<_Elem*>(nullptr), _Cvt);

  000d5	8b 55 fc	 mov	 edx, DWORD PTR _this$[ebp]
  000d8	83 c2 18	 add	 edx, 24			; 00000018H
  000db	52		 push	 edx
  000dc	6a 00		 push	 0
  000de	8b f4		 mov	 esi, esp
  000e0	8b 4d 0c	 mov	 ecx, DWORD PTR __Lobj$[ebp]
  000e3	ff 15 00 00 00
	00		 call	 DWORD PTR __imp_?_Getmonths@_Locinfo@std@@QBEPBDXZ
  000e9	3b f4		 cmp	 esi, esp
  000eb	e8 00 00 00 00	 call	 __RTC_CheckEsp
  000f0	50		 push	 eax
  000f1	e8 00 00 00 00	 call	 ??$_Maklocstr@D@std@@YAPADPBDPADABU_Cvtvec@@@Z ; std::_Maklocstr<char>
  000f6	83 c4 0c	 add	 esp, 12			; 0000000cH
  000f9	8b 4d fc	 mov	 ecx, DWORD PTR _this$[ebp]
  000fc	89 41 0c	 mov	 DWORD PTR [ecx+12], eax

; 184  :             _Ampm   = _Maklocstr(":AM:am:PM:pm", static_cast<_Elem*>(nullptr), _Cvt);

  000ff	8b 55 fc	 mov	 edx, DWORD PTR _this$[ebp]
  00102	83 c2 18	 add	 edx, 24			; 00000018H
  00105	52		 push	 edx
  00106	6a 00		 push	 0
  00108	68 00 00 00 00	 push	 OFFSET ??_C@_0N@LPFKKEBD@?3AM?3am?3PM?3pm@
  0010d	e8 00 00 00 00	 call	 ??$_Maklocstr@D@std@@YAPADPBDPADABU_Cvtvec@@@Z ; std::_Maklocstr<char>
  00112	83 c4 0c	 add	 esp, 12			; 0000000cH
  00115	8b 4d fc	 mov	 ecx, DWORD PTR _this$[ebp]
  00118	89 41 10	 mov	 DWORD PTR [ecx+16], eax
$LN1@Getvals:

; 185  :         }
; 186  :     }

  0011b	5f		 pop	 edi
  0011c	5e		 pop	 esi
  0011d	83 c4 30	 add	 esp, 48			; 00000030H
  00120	3b ec		 cmp	 ebp, esp
  00122	e8 00 00 00 00	 call	 __RTC_CheckEsp
  00127	8b e5		 mov	 esp, ebp
  00129	5d		 pop	 ebp
  0012a	c2 08 00	 ret	 8
??$_Getvals@_W@?$time_get@DV?$istreambuf_iterator@DU?$char_traits@D@std@@@std@@@std@@IAEX_WABV_Locinfo@1@@Z ENDP ; std::time_get<char,std::istreambuf_iterator<char,std::char_traits<char> > >::_Getvals<wchar_t>
_TEXT	ENDS
; Function compile flags: /Odtp /RTCsu
; File C:\Program Files (x86)\Microsoft Visual Studio\2019\Community\VC\Tools\MSVC\14.29.30133\include\xlocale
;	COMDAT ??$_Maklocstr@D@std@@YAPADPBDPADABU_Cvtvec@@@Z
_TEXT	SEGMENT
__Ptrnext$1 = -12					; size = 4
__Ptrdest$ = -8						; size = 4
__Count$ = -4						; size = 4
__Ptr$ = 8						; size = 4
___formal$ = 12						; size = 4
___formal$ = 16						; size = 4
??$_Maklocstr@D@std@@YAPADPBDPADABU_Cvtvec@@@Z PROC	; std::_Maklocstr<char>, COMDAT

; 522  : _Elem* __CRTDECL _Maklocstr(const char* _Ptr, _Elem*, const _Locinfo::_Cvtvec&) {

  00000	55		 push	 ebp
  00001	8b ec		 mov	 ebp, esp
  00003	83 ec 0c	 sub	 esp, 12			; 0000000cH
  00006	56		 push	 esi
  00007	c7 45 f4 cc cc
	cc cc		 mov	 DWORD PTR [ebp-12], -858993460 ; ccccccccH
  0000e	c7 45 f8 cc cc
	cc cc		 mov	 DWORD PTR [ebp-8], -858993460 ; ccccccccH
  00015	c7 45 fc cc cc
	cc cc		 mov	 DWORD PTR [ebp-4], -858993460 ; ccccccccH
  0001c	b9 00 00 00 00	 mov	 ecx, OFFSET __D23FE460_xlocale
  00021	e8 00 00 00 00	 call	 @__CheckForDebuggerJustMyCode@4

; 523  :     // convert C string to _Elem sequence using _Cvtvec
; 524  :     size_t _Count = _CSTD strlen(_Ptr) + 1;

  00026	8b 45 08	 mov	 eax, DWORD PTR __Ptr$[ebp]
  00029	50		 push	 eax
  0002a	e8 00 00 00 00	 call	 _strlen
  0002f	83 c4 04	 add	 esp, 4
  00032	83 c0 01	 add	 eax, 1
  00035	89 45 fc	 mov	 DWORD PTR __Count$[ebp], eax

; 525  : 
; 526  :     _Elem* _Ptrdest = static_cast<_Elem*>(_calloc_dbg(_Count, sizeof(_Elem), _CRT_BLOCK, __FILE__, __LINE__));

  00038	8b f4		 mov	 esi, esp
  0003a	68 0e 02 00 00	 push	 526			; 0000020eH
  0003f	68 00 00 00 00	 push	 OFFSET $SG85598
  00044	6a 02		 push	 2
  00046	6a 01		 push	 1
  00048	8b 4d fc	 mov	 ecx, DWORD PTR __Count$[ebp]
  0004b	51		 push	 ecx
  0004c	ff 15 00 00 00
	00		 call	 DWORD PTR __imp___calloc_dbg
  00052	83 c4 14	 add	 esp, 20			; 00000014H
  00055	3b f4		 cmp	 esi, esp
  00057	e8 00 00 00 00	 call	 __RTC_CheckEsp
  0005c	89 45 f8	 mov	 DWORD PTR __Ptrdest$[ebp], eax

; 527  : 
; 528  :     if (!_Ptrdest) {

  0005f	83 7d f8 00	 cmp	 DWORD PTR __Ptrdest$[ebp], 0
  00063	75 05		 jne	 SHORT $LN5@Maklocstr

; 529  :         _Xbad_alloc();

  00065	e8 00 00 00 00	 call	 ?_Xbad_alloc@std@@YAXXZ	; std::_Xbad_alloc
$LN5@Maklocstr:

; 530  :     }
; 531  : 
; 532  :     for (_Elem* _Ptrnext = _Ptrdest; 0 < _Count; --_Count, ++_Ptrnext, ++_Ptr) {

  0006a	8b 55 f8	 mov	 edx, DWORD PTR __Ptrdest$[ebp]
  0006d	89 55 f4	 mov	 DWORD PTR __Ptrnext$1[ebp], edx
  00070	eb 1b		 jmp	 SHORT $LN4@Maklocstr
$LN2@Maklocstr:
  00072	8b 45 fc	 mov	 eax, DWORD PTR __Count$[ebp]
  00075	83 e8 01	 sub	 eax, 1
  00078	89 45 fc	 mov	 DWORD PTR __Count$[ebp], eax
  0007b	8b 4d f4	 mov	 ecx, DWORD PTR __Ptrnext$1[ebp]
  0007e	83 c1 01	 add	 ecx, 1
  00081	89 4d f4	 mov	 DWORD PTR __Ptrnext$1[ebp], ecx
  00084	8b 55 08	 mov	 edx, DWORD PTR __Ptr$[ebp]
  00087	83 c2 01	 add	 edx, 1
  0008a	89 55 08	 mov	 DWORD PTR __Ptr$[ebp], edx
$LN4@Maklocstr:
  0008d	83 7d fc 00	 cmp	 DWORD PTR __Count$[ebp], 0
  00091	76 0c		 jbe	 SHORT $LN3@Maklocstr

; 533  :         *_Ptrnext = static_cast<_Elem>(static_cast<unsigned char>(*_Ptr));

  00093	8b 45 f4	 mov	 eax, DWORD PTR __Ptrnext$1[ebp]
  00096	8b 4d 08	 mov	 ecx, DWORD PTR __Ptr$[ebp]
  00099	8a 11		 mov	 dl, BYTE PTR [ecx]
  0009b	88 10		 mov	 BYTE PTR [eax], dl

; 534  :     }

  0009d	eb d3		 jmp	 SHORT $LN2@Maklocstr
$LN3@Maklocstr:

; 535  : 
; 536  :     return _Ptrdest;

  0009f	8b 45 f8	 mov	 eax, DWORD PTR __Ptrdest$[ebp]
$LN6@Maklocstr:

; 537  : }

  000a2	5e		 pop	 esi
  000a3	83 c4 0c	 add	 esp, 12			; 0000000cH
  000a6	3b ec		 cmp	 ebp, esp
  000a8	e8 00 00 00 00	 call	 __RTC_CheckEsp
  000ad	8b e5		 mov	 esp, ebp
  000af	5d		 pop	 ebp
  000b0	c3		 ret	 0
??$_Maklocstr@D@std@@YAPADPBDPADABU_Cvtvec@@@Z ENDP	; std::_Maklocstr<char>
_TEXT	ENDS
; Function compile flags: /Odtp /RTCsu
; File C:\Program Files (x86)\Microsoft Visual Studio\2019\Community\VC\Tools\MSVC\14.29.30133\include\xlocnum
;	COMDAT ?_Maklocwcs@std@@YAPA_WPB_W@Z
_TEXT	SEGMENT
__Ptrdest$ = -8						; size = 4
__Count$ = -4						; size = 4
__Ptr$ = 8						; size = 4
?_Maklocwcs@std@@YAPA_WPB_W@Z PROC			; std::_Maklocwcs, COMDAT

; 90   : inline wchar_t* _Maklocwcs(const wchar_t* _Ptr) { // copy NTWCS to allocated storage

  00000	55		 push	 ebp
  00001	8b ec		 mov	 ebp, esp
  00003	83 ec 08	 sub	 esp, 8
  00006	56		 push	 esi
  00007	c7 45 f8 cc cc
	cc cc		 mov	 DWORD PTR [ebp-8], -858993460 ; ccccccccH
  0000e	c7 45 fc cc cc
	cc cc		 mov	 DWORD PTR [ebp-4], -858993460 ; ccccccccH
  00015	b9 00 00 00 00	 mov	 ecx, OFFSET __4CB88277_xlocnum
  0001a	e8 00 00 00 00	 call	 @__CheckForDebuggerJustMyCode@4

; 91   :     const size_t _Count = _CSTD wcslen(_Ptr) + 1;

  0001f	8b f4		 mov	 esi, esp
  00021	8b 45 08	 mov	 eax, DWORD PTR __Ptr$[ebp]
  00024	50		 push	 eax
  00025	ff 15 00 00 00
	00		 call	 DWORD PTR __imp__wcslen
  0002b	83 c4 04	 add	 esp, 4
  0002e	3b f4		 cmp	 esi, esp
  00030	e8 00 00 00 00	 call	 __RTC_CheckEsp
  00035	83 c0 01	 add	 eax, 1
  00038	89 45 fc	 mov	 DWORD PTR __Count$[ebp], eax

; 92   : 
; 93   :     wchar_t* _Ptrdest = static_cast<wchar_t*>(_calloc_dbg(_Count, sizeof(wchar_t), _CRT_BLOCK, __FILE__, __LINE__));

  0003b	8b f4		 mov	 esi, esp
  0003d	6a 5d		 push	 93			; 0000005dH
  0003f	68 00 00 00 00	 push	 OFFSET ??_C@_0GI@OGMNKBMN@C?3?2Program?5Files?5?$CIx86?$CJ?2Microsof@
  00044	6a 02		 push	 2
  00046	6a 02		 push	 2
  00048	8b 4d fc	 mov	 ecx, DWORD PTR __Count$[ebp]
  0004b	51		 push	 ecx
  0004c	ff 15 00 00 00
	00		 call	 DWORD PTR __imp___calloc_dbg
  00052	83 c4 14	 add	 esp, 20			; 00000014H
  00055	3b f4		 cmp	 esi, esp
  00057	e8 00 00 00 00	 call	 __RTC_CheckEsp
  0005c	89 45 f8	 mov	 DWORD PTR __Ptrdest$[ebp], eax

; 94   : 
; 95   :     if (!_Ptrdest) {

  0005f	83 7d f8 00	 cmp	 DWORD PTR __Ptrdest$[ebp], 0
  00063	75 05		 jne	 SHORT $LN2@Maklocwcs

; 96   :         _Xbad_alloc();

  00065	e8 00 00 00 00	 call	 ?_Xbad_alloc@std@@YAXXZ	; std::_Xbad_alloc
$LN2@Maklocwcs:

; 97   :     }
; 98   : 
; 99   :     _CSTD wmemcpy(_Ptrdest, _Ptr, _Count);

  0006a	8b 55 fc	 mov	 edx, DWORD PTR __Count$[ebp]
  0006d	52		 push	 edx
  0006e	8b 45 08	 mov	 eax, DWORD PTR __Ptr$[ebp]
  00071	50		 push	 eax
  00072	8b 4d f8	 mov	 ecx, DWORD PTR __Ptrdest$[ebp]
  00075	51		 push	 ecx
  00076	e8 00 00 00 00	 call	 _wmemcpy
  0007b	83 c4 0c	 add	 esp, 12			; 0000000cH

; 100  :     return _Ptrdest;

  0007e	8b 45 f8	 mov	 eax, DWORD PTR __Ptrdest$[ebp]
$LN3@Maklocwcs:

; 101  : }

  00081	5e		 pop	 esi
  00082	83 c4 08	 add	 esp, 8
  00085	3b ec		 cmp	 ebp, esp
  00087	e8 00 00 00 00	 call	 __RTC_CheckEsp
  0008c	8b e5		 mov	 esp, ebp
  0008e	5d		 pop	 ebp
  0008f	c3		 ret	 0
?_Maklocwcs@std@@YAPA_WPB_W@Z ENDP			; std::_Maklocwcs
_TEXT	ENDS
; Function compile flags: /Odtp /RTCsu
; File C:\Program Files (x86)\Microsoft Visual Studio\2019\Community\VC\Tools\MSVC\14.29.30133\include\utility
;	COMDAT ??$min@H@std@@YAABHABH0@Z
_TEXT	SEGMENT
tv65 = -8						; size = 4
$T1 = -4						; size = 4
__Left$ = 8						; size = 4
__Right$ = 12						; size = 4
??$min@H@std@@YAABHABH0@Z PROC				; std::min<int>, COMDAT

; 66   :     const _Ty& _Left, const _Ty& _Right) noexcept(noexcept(_Right < _Left)) /* strengthened */ {

  00000	55		 push	 ebp
  00001	8b ec		 mov	 ebp, esp
  00003	83 ec 08	 sub	 esp, 8
  00006	c7 45 f8 cc cc
	cc cc		 mov	 DWORD PTR [ebp-8], -858993460 ; ccccccccH
  0000d	c7 45 fc cc cc
	cc cc		 mov	 DWORD PTR [ebp-4], -858993460 ; ccccccccH
  00014	b9 00 00 00 00	 mov	 ecx, OFFSET __1347750E_utility
  00019	e8 00 00 00 00	 call	 @__CheckForDebuggerJustMyCode@4

; 67   :     // return smaller of _Left and _Right
; 68   :     return _Right < _Left ? _Right : _Left;

  0001e	8b 45 0c	 mov	 eax, DWORD PTR __Right$[ebp]
  00021	8b 4d 08	 mov	 ecx, DWORD PTR __Left$[ebp]
  00024	8b 10		 mov	 edx, DWORD PTR [eax]
  00026	3b 11		 cmp	 edx, DWORD PTR [ecx]
  00028	7d 08		 jge	 SHORT $LN3@min
  0002a	8b 45 0c	 mov	 eax, DWORD PTR __Right$[ebp]
  0002d	89 45 f8	 mov	 DWORD PTR tv65[ebp], eax
  00030	eb 06		 jmp	 SHORT $LN4@min
$LN3@min:
  00032	8b 4d 08	 mov	 ecx, DWORD PTR __Left$[ebp]
  00035	89 4d f8	 mov	 DWORD PTR tv65[ebp], ecx
$LN4@min:
  00038	8b 55 f8	 mov	 edx, DWORD PTR tv65[ebp]
  0003b	89 55 fc	 mov	 DWORD PTR $T1[ebp], edx
  0003e	8b 45 fc	 mov	 eax, DWORD PTR $T1[ebp]

; 69   : }

  00041	83 c4 08	 add	 esp, 8
  00044	3b ec		 cmp	 ebp, esp
  00046	e8 00 00 00 00	 call	 __RTC_CheckEsp
  0004b	8b e5		 mov	 esp, ebp
  0004d	5d		 pop	 ebp
  0004e	c3		 ret	 0
??$min@H@std@@YAABHABH0@Z ENDP				; std::min<int>
_TEXT	ENDS
; Function compile flags: /Odtp /RTCsu
; File C:\Program Files (x86)\Microsoft Visual Studio\2019\Community\VC\Tools\MSVC\14.29.30133\include\xlocale
;	COMDAT ??$_Maklocstr@_W@std@@YAPA_WPBDPA_WABU_Cvtvec@@@Z
_TEXT	SEGMENT
__Mbst2$ = -72						; size = 8
__Ptrnext$ = -60					; size = 4
__Ptrdest$ = -56					; size = 4
__Mbst1$ = -48						; size = 8
__Wc$ = -32						; size = 2
__Bytes$ = -24						; size = 4
__Ptr1$ = -20						; size = 4
__Wchars$ = -16						; size = 4
__Count1$ = -12						; size = 4
__Count$ = -8						; size = 4
__$ArrayPad$ = -4					; size = 4
__Ptr$ = 8						; size = 4
___formal$ = 12						; size = 4
__Cvt$ = 16						; size = 4
??$_Maklocstr@_W@std@@YAPA_WPBDPA_WABU_Cvtvec@@@Z PROC	; std::_Maklocstr<wchar_t>, COMDAT

; 540  : inline wchar_t* __CRTDECL _Maklocstr(const char* _Ptr, wchar_t*, const _Locinfo::_Cvtvec& _Cvt) {

  00000	55		 push	 ebp
  00001	8b ec		 mov	 ebp, esp
  00003	83 ec 4c	 sub	 esp, 76			; 0000004cH
  00006	56		 push	 esi
  00007	57		 push	 edi
  00008	8d 7d b4	 lea	 edi, DWORD PTR [ebp-76]
  0000b	b9 13 00 00 00	 mov	 ecx, 19			; 00000013H
  00010	b8 cc cc cc cc	 mov	 eax, -858993460		; ccccccccH
  00015	f3 ab		 rep stosd
  00017	a1 00 00 00 00	 mov	 eax, DWORD PTR ___security_cookie
  0001c	33 c5		 xor	 eax, ebp
  0001e	89 45 fc	 mov	 DWORD PTR __$ArrayPad$[ebp], eax
  00021	b9 00 00 00 00	 mov	 ecx, OFFSET __D23FE460_xlocale
  00026	e8 00 00 00 00	 call	 @__CheckForDebuggerJustMyCode@4

; 541  :     // convert C string to wchar_t sequence using _Cvtvec
; 542  :     size_t _Count;
; 543  :     size_t _Count1;
; 544  :     size_t _Wchars;
; 545  :     const char* _Ptr1;
; 546  :     int _Bytes;
; 547  :     wchar_t _Wc;
; 548  :     mbstate_t _Mbst1 = {};

  0002b	33 c0		 xor	 eax, eax
  0002d	89 45 d0	 mov	 DWORD PTR __Mbst1$[ebp], eax
  00030	89 45 d4	 mov	 DWORD PTR __Mbst1$[ebp+4], eax

; 549  : 
; 550  :     _Count1 = _CSTD strlen(_Ptr) + 1;

  00033	8b 4d 08	 mov	 ecx, DWORD PTR __Ptr$[ebp]
  00036	51		 push	 ecx
  00037	e8 00 00 00 00	 call	 _strlen
  0003c	83 c4 04	 add	 esp, 4
  0003f	83 c0 01	 add	 eax, 1
  00042	89 45 f4	 mov	 DWORD PTR __Count1$[ebp], eax

; 551  :     for (_Count = _Count1, _Wchars = 0, _Ptr1 = _Ptr; 0 < _Count; _Count -= _Bytes, _Ptr1 += _Bytes, ++_Wchars) {

  00045	8b 55 f4	 mov	 edx, DWORD PTR __Count1$[ebp]
  00048	89 55 f8	 mov	 DWORD PTR __Count$[ebp], edx
  0004b	c7 45 f0 00 00
	00 00		 mov	 DWORD PTR __Wchars$[ebp], 0
  00052	8b 45 08	 mov	 eax, DWORD PTR __Ptr$[ebp]
  00055	89 45 ec	 mov	 DWORD PTR __Ptr1$[ebp], eax
  00058	eb 1b		 jmp	 SHORT $LN4@Maklocstr
$LN2@Maklocstr:
  0005a	8b 4d f8	 mov	 ecx, DWORD PTR __Count$[ebp]
  0005d	2b 4d e8	 sub	 ecx, DWORD PTR __Bytes$[ebp]
  00060	89 4d f8	 mov	 DWORD PTR __Count$[ebp], ecx
  00063	8b 55 ec	 mov	 edx, DWORD PTR __Ptr1$[ebp]
  00066	03 55 e8	 add	 edx, DWORD PTR __Bytes$[ebp]
  00069	89 55 ec	 mov	 DWORD PTR __Ptr1$[ebp], edx
  0006c	8b 45 f0	 mov	 eax, DWORD PTR __Wchars$[ebp]
  0006f	83 c0 01	 add	 eax, 1
  00072	89 45 f0	 mov	 DWORD PTR __Wchars$[ebp], eax
$LN4@Maklocstr:
  00075	83 7d f8 00	 cmp	 DWORD PTR __Count$[ebp], 0
  00079	76 29		 jbe	 SHORT $LN3@Maklocstr

; 552  :         if ((_Bytes = _Mbrtowc(&_Wc, _Ptr1, _Count, &_Mbst1, &_Cvt)) <= 0) {

  0007b	8b 4d 10	 mov	 ecx, DWORD PTR __Cvt$[ebp]
  0007e	51		 push	 ecx
  0007f	8d 55 d0	 lea	 edx, DWORD PTR __Mbst1$[ebp]
  00082	52		 push	 edx
  00083	8b 45 f8	 mov	 eax, DWORD PTR __Count$[ebp]
  00086	50		 push	 eax
  00087	8b 4d ec	 mov	 ecx, DWORD PTR __Ptr1$[ebp]
  0008a	51		 push	 ecx
  0008b	8d 55 e0	 lea	 edx, DWORD PTR __Wc$[ebp]
  0008e	52		 push	 edx
  0008f	e8 00 00 00 00	 call	 __Mbrtowc
  00094	83 c4 14	 add	 esp, 20			; 00000014H
  00097	89 45 e8	 mov	 DWORD PTR __Bytes$[ebp], eax
  0009a	83 7d e8 00	 cmp	 DWORD PTR __Bytes$[ebp], 0
  0009e	7f 02		 jg	 SHORT $LN8@Maklocstr

; 553  :             break;

  000a0	eb 02		 jmp	 SHORT $LN3@Maklocstr
$LN8@Maklocstr:

; 554  :         }
; 555  :     }

  000a2	eb b6		 jmp	 SHORT $LN2@Maklocstr
$LN3@Maklocstr:

; 556  : 
; 557  :     ++_Wchars; // count terminating nul

  000a4	8b 45 f0	 mov	 eax, DWORD PTR __Wchars$[ebp]
  000a7	83 c0 01	 add	 eax, 1
  000aa	89 45 f0	 mov	 DWORD PTR __Wchars$[ebp], eax

; 558  : 
; 559  :     wchar_t* _Ptrdest = static_cast<wchar_t*>(_calloc_dbg(_Wchars, sizeof(wchar_t), _CRT_BLOCK, __FILE__, __LINE__));

  000ad	8b f4		 mov	 esi, esp
  000af	68 2f 02 00 00	 push	 559			; 0000022fH
  000b4	68 00 00 00 00	 push	 OFFSET ??_C@_0GI@GFIAKDGM@C?3?2Program?5Files?5?$CIx86?$CJ?2Microsof@
  000b9	6a 02		 push	 2
  000bb	6a 02		 push	 2
  000bd	8b 4d f0	 mov	 ecx, DWORD PTR __Wchars$[ebp]
  000c0	51		 push	 ecx
  000c1	ff 15 00 00 00
	00		 call	 DWORD PTR __imp___calloc_dbg
  000c7	83 c4 14	 add	 esp, 20			; 00000014H
  000ca	3b f4		 cmp	 esi, esp
  000cc	e8 00 00 00 00	 call	 __RTC_CheckEsp
  000d1	89 45 c8	 mov	 DWORD PTR __Ptrdest$[ebp], eax

; 560  : 
; 561  :     if (!_Ptrdest) {

  000d4	83 7d c8 00	 cmp	 DWORD PTR __Ptrdest$[ebp], 0
  000d8	75 05		 jne	 SHORT $LN9@Maklocstr

; 562  :         _Xbad_alloc();

  000da	e8 00 00 00 00	 call	 ?_Xbad_alloc@std@@YAXXZ	; std::_Xbad_alloc
$LN9@Maklocstr:

; 563  :     }
; 564  : 
; 565  :     wchar_t* _Ptrnext = _Ptrdest;

  000df	8b 55 c8	 mov	 edx, DWORD PTR __Ptrdest$[ebp]
  000e2	89 55 c4	 mov	 DWORD PTR __Ptrnext$[ebp], edx

; 566  :     mbstate_t _Mbst2  = {};

  000e5	33 c0		 xor	 eax, eax
  000e7	89 45 b8	 mov	 DWORD PTR __Mbst2$[ebp], eax
  000ea	89 45 bc	 mov	 DWORD PTR __Mbst2$[ebp+4], eax

; 567  : 
; 568  :     for (; 0 < _Wchars; _Count -= _Bytes, _Ptr += _Bytes, --_Wchars, ++_Ptrnext) {

  000ed	eb 24		 jmp	 SHORT $LN7@Maklocstr
$LN5@Maklocstr:
  000ef	8b 4d f8	 mov	 ecx, DWORD PTR __Count$[ebp]
  000f2	2b 4d e8	 sub	 ecx, DWORD PTR __Bytes$[ebp]
  000f5	89 4d f8	 mov	 DWORD PTR __Count$[ebp], ecx
  000f8	8b 55 08	 mov	 edx, DWORD PTR __Ptr$[ebp]
  000fb	03 55 e8	 add	 edx, DWORD PTR __Bytes$[ebp]
  000fe	89 55 08	 mov	 DWORD PTR __Ptr$[ebp], edx
  00101	8b 45 f0	 mov	 eax, DWORD PTR __Wchars$[ebp]
  00104	83 e8 01	 sub	 eax, 1
  00107	89 45 f0	 mov	 DWORD PTR __Wchars$[ebp], eax
  0010a	8b 4d c4	 mov	 ecx, DWORD PTR __Ptrnext$[ebp]
  0010d	83 c1 02	 add	 ecx, 2
  00110	89 4d c4	 mov	 DWORD PTR __Ptrnext$[ebp], ecx
$LN7@Maklocstr:
  00113	83 7d f0 00	 cmp	 DWORD PTR __Wchars$[ebp], 0
  00117	76 29		 jbe	 SHORT $LN6@Maklocstr

; 569  :         if ((_Bytes = _Mbrtowc(_Ptrnext, _Ptr, _Count1, &_Mbst2, &_Cvt)) <= 0) {

  00119	8b 55 10	 mov	 edx, DWORD PTR __Cvt$[ebp]
  0011c	52		 push	 edx
  0011d	8d 45 b8	 lea	 eax, DWORD PTR __Mbst2$[ebp]
  00120	50		 push	 eax
  00121	8b 4d f4	 mov	 ecx, DWORD PTR __Count1$[ebp]
  00124	51		 push	 ecx
  00125	8b 55 08	 mov	 edx, DWORD PTR __Ptr$[ebp]
  00128	52		 push	 edx
  00129	8b 45 c4	 mov	 eax, DWORD PTR __Ptrnext$[ebp]
  0012c	50		 push	 eax
  0012d	e8 00 00 00 00	 call	 __Mbrtowc
  00132	83 c4 14	 add	 esp, 20			; 00000014H
  00135	89 45 e8	 mov	 DWORD PTR __Bytes$[ebp], eax
  00138	83 7d e8 00	 cmp	 DWORD PTR __Bytes$[ebp], 0
  0013c	7f 02		 jg	 SHORT $LN10@Maklocstr

; 570  :             break;

  0013e	eb 02		 jmp	 SHORT $LN6@Maklocstr
$LN10@Maklocstr:

; 571  :         }
; 572  :     }

  00140	eb ad		 jmp	 SHORT $LN5@Maklocstr
$LN6@Maklocstr:

; 573  : 
; 574  :     *_Ptrnext = L'\0';

  00142	33 c9		 xor	 ecx, ecx
  00144	8b 55 c4	 mov	 edx, DWORD PTR __Ptrnext$[ebp]
  00147	66 89 0a	 mov	 WORD PTR [edx], cx

; 575  : 
; 576  :     return _Ptrdest;

  0014a	8b 45 c8	 mov	 eax, DWORD PTR __Ptrdest$[ebp]
$LN11@Maklocstr:

; 577  : }

  0014d	52		 push	 edx
  0014e	8b cd		 mov	 ecx, ebp
  00150	50		 push	 eax
  00151	8d 15 00 00 00
	00		 lea	 edx, DWORD PTR $LN16@Maklocstr
  00157	e8 00 00 00 00	 call	 @_RTC_CheckStackVars@8
  0015c	58		 pop	 eax
  0015d	5a		 pop	 edx
  0015e	5f		 pop	 edi
  0015f	5e		 pop	 esi
  00160	8b 4d fc	 mov	 ecx, DWORD PTR __$ArrayPad$[ebp]
  00163	33 cd		 xor	 ecx, ebp
  00165	e8 00 00 00 00	 call	 @__security_check_cookie@4
  0016a	83 c4 4c	 add	 esp, 76			; 0000004cH
  0016d	3b ec		 cmp	 ebp, esp
  0016f	e8 00 00 00 00	 call	 __RTC_CheckEsp
  00174	8b e5		 mov	 esp, ebp
  00176	5d		 pop	 ebp
  00177	c3		 ret	 0
$LN16@Maklocstr:
  00178	03 00 00 00	 DD	 3
  0017c	00 00 00 00	 DD	 $LN15@Maklocstr
$LN15@Maklocstr:
  00180	e0 ff ff ff	 DD	 -32			; ffffffe0H
  00184	02 00 00 00	 DD	 2
  00188	00 00 00 00	 DD	 $LN12@Maklocstr
  0018c	d0 ff ff ff	 DD	 -48			; ffffffd0H
  00190	08 00 00 00	 DD	 8
  00194	00 00 00 00	 DD	 $LN13@Maklocstr
  00198	b8 ff ff ff	 DD	 -72			; ffffffb8H
  0019c	08 00 00 00	 DD	 8
  001a0	00 00 00 00	 DD	 $LN14@Maklocstr
$LN14@Maklocstr:
  001a4	5f		 DB	 95			; 0000005fH
  001a5	4d		 DB	 77			; 0000004dH
  001a6	62		 DB	 98			; 00000062H
  001a7	73		 DB	 115			; 00000073H
  001a8	74		 DB	 116			; 00000074H
  001a9	32		 DB	 50			; 00000032H
  001aa	00		 DB	 0
$LN13@Maklocstr:
  001ab	5f		 DB	 95			; 0000005fH
  001ac	4d		 DB	 77			; 0000004dH
  001ad	62		 DB	 98			; 00000062H
  001ae	73		 DB	 115			; 00000073H
  001af	74		 DB	 116			; 00000074H
  001b0	31		 DB	 49			; 00000031H
  001b1	00		 DB	 0
$LN12@Maklocstr:
  001b2	5f		 DB	 95			; 0000005fH
  001b3	57		 DB	 87			; 00000057H
  001b4	63		 DB	 99			; 00000063H
  001b5	00		 DB	 0
??$_Maklocstr@_W@std@@YAPA_WPBDPA_WABU_Cvtvec@@@Z ENDP	; std::_Maklocstr<wchar_t>
_TEXT	ENDS
; Function compile flags: /Odtp /RTCsu
; File C:\Program Files (x86)\Windows Kits\10\Include\10.0.19041.0\ucrt\wchar.h
;	COMDAT _wmemcpy
_TEXT	SEGMENT
__S1$ = 8						; size = 4
__S2$ = 12						; size = 4
__N$ = 16						; size = 4
_wmemcpy PROC						; COMDAT

; 234  :     {

  00000	55		 push	 ebp
  00001	8b ec		 mov	 ebp, esp
  00003	b9 00 00 00 00	 mov	 ecx, OFFSET __93DC0B45_wchar@h
  00008	e8 00 00 00 00	 call	 @__CheckForDebuggerJustMyCode@4

; 235  :         #pragma warning(suppress: 6386) // Buffer overrun
; 236  :         return (wchar_t*)memcpy(_S1, _S2, _N*sizeof(wchar_t));

  0000d	8b 45 10	 mov	 eax, DWORD PTR __N$[ebp]
  00010	d1 e0		 shl	 eax, 1
  00012	50		 push	 eax
  00013	8b 4d 0c	 mov	 ecx, DWORD PTR __S2$[ebp]
  00016	51		 push	 ecx
  00017	8b 55 08	 mov	 edx, DWORD PTR __S1$[ebp]
  0001a	52		 push	 edx
  0001b	e8 00 00 00 00	 call	 _memcpy
  00020	83 c4 0c	 add	 esp, 12			; 0000000cH

; 237  :     }

  00023	3b ec		 cmp	 ebp, esp
  00025	e8 00 00 00 00	 call	 __RTC_CheckEsp
  0002a	5d		 pop	 ebp
  0002b	c3		 ret	 0
_wmemcpy ENDP
_TEXT	ENDS
; Function compile flags: /Odtp /RTCsu
; File C:\Users\theob\Documents\GitHub\as-pts1\travail\ProjetTutore1\Block.cpp
;	COMDAT ?__empty_global_delete@@YAXPAXIW4align_val_t@std@@@Z
_TEXT	SEGMENT
___formal$ = 8						; size = 4
___formal$ = 12						; size = 4
___formal$ = 16						; size = 4
?__empty_global_delete@@YAXPAXIW4align_val_t@std@@@Z PROC ; __empty_global_delete, COMDAT

  00000	55		 push	 ebp
  00001	8b ec		 mov	 ebp, esp
  00003	b9 00 00 00 00	 mov	 ecx, OFFSET __605F967F_Block@cpp
  00008	e8 00 00 00 00	 call	 @__CheckForDebuggerJustMyCode@4
  0000d	3b ec		 cmp	 ebp, esp
  0000f	e8 00 00 00 00	 call	 __RTC_CheckEsp
  00014	5d		 pop	 ebp
  00015	c3		 ret	 0
?__empty_global_delete@@YAXPAXIW4align_val_t@std@@@Z ENDP ; __empty_global_delete
_TEXT	ENDS
; Function compile flags: /Odtp /RTCsu
; File C:\Users\theob\Documents\GitHub\as-pts1\travail\ProjetTutore1\Block.cpp
;	COMDAT ?__empty_global_delete@@YAXPAXW4align_val_t@std@@@Z
_TEXT	SEGMENT
___formal$ = 8						; size = 4
___formal$ = 12						; size = 4
?__empty_global_delete@@YAXPAXW4align_val_t@std@@@Z PROC ; __empty_global_delete, COMDAT

  00000	55		 push	 ebp
  00001	8b ec		 mov	 ebp, esp
  00003	b9 00 00 00 00	 mov	 ecx, OFFSET __605F967F_Block@cpp
  00008	e8 00 00 00 00	 call	 @__CheckForDebuggerJustMyCode@4
  0000d	3b ec		 cmp	 ebp, esp
  0000f	e8 00 00 00 00	 call	 __RTC_CheckEsp
  00014	5d		 pop	 ebp
  00015	c3		 ret	 0
?__empty_global_delete@@YAXPAXW4align_val_t@std@@@Z ENDP ; __empty_global_delete
_TEXT	ENDS
; Function compile flags: /Odtp /RTCsu
; File C:\Users\theob\Documents\GitHub\as-pts1\travail\ProjetTutore1\Block.cpp
;	COMDAT ?__empty_global_delete@@YAXPAXI@Z
_TEXT	SEGMENT
___formal$ = 8						; size = 4
___formal$ = 12						; size = 4
?__empty_global_delete@@YAXPAXI@Z PROC			; __empty_global_delete, COMDAT

  00000	55		 push	 ebp
  00001	8b ec		 mov	 ebp, esp
  00003	b9 00 00 00 00	 mov	 ecx, OFFSET __605F967F_Block@cpp
  00008	e8 00 00 00 00	 call	 @__CheckForDebuggerJustMyCode@4
  0000d	3b ec		 cmp	 ebp, esp
  0000f	e8 00 00 00 00	 call	 __RTC_CheckEsp
  00014	5d		 pop	 ebp
  00015	c3		 ret	 0
?__empty_global_delete@@YAXPAXI@Z ENDP			; __empty_global_delete
_TEXT	ENDS
; Function compile flags: /Odtp /RTCsu
; File C:\Users\theob\Documents\GitHub\as-pts1\travail\ProjetTutore1\Block.cpp
;	COMDAT ?__empty_global_delete@@YAXPAX@Z
_TEXT	SEGMENT
___formal$ = 8						; size = 4
?__empty_global_delete@@YAXPAX@Z PROC			; __empty_global_delete, COMDAT

  00000	55		 push	 ebp
  00001	8b ec		 mov	 ebp, esp
  00003	b9 00 00 00 00	 mov	 ecx, OFFSET __605F967F_Block@cpp
  00008	e8 00 00 00 00	 call	 @__CheckForDebuggerJustMyCode@4
  0000d	3b ec		 cmp	 ebp, esp
  0000f	e8 00 00 00 00	 call	 __RTC_CheckEsp
  00014	5d		 pop	 ebp
  00015	c3		 ret	 0
?__empty_global_delete@@YAXPAX@Z ENDP			; __empty_global_delete
_TEXT	ENDS
END
