; Listing generated by Microsoft (R) Optimizing Compiler Version 19.29.30137.0 

	TITLE	C:\Users\theob\Documents\GitHub\as-pts1\travail\ProjetTutore1\Debug\Element.obj
	.686P
	.XMM
	include listing.inc
	.model	flat

INCLUDELIB MSVCRTD
INCLUDELIB OLDNAMES

msvcjmc	SEGMENT
__97D3638F_vcruntime_new@h DB 01H
__741AE07E_corecrt_math@h DB 01H
__B49664B7_stdlib@h DB 01H
__244AF085_cstdlib DB 01H
__47F37C5A_xtr1common DB 01H
__1FEB9909_corecrt_memcpy_s@h DB 01H
__A751F051_corecrt_memory@h DB 01H
__9200769A_corecrt_wstring@h DB 01H
__32E5F013_string@h DB 01H
__81812A28_cstddef DB 01H
__589FA321_type_traits DB 01H
__A2143F22_corecrt_stdio_config@h DB 01H
__829E1958_corecrt_wstdio@h DB 01H
__6DFAE8B8_stdio@h DB 01H
__C6E16F6F_corecrt_wconio@h DB 01H
__6D390390_corecrt_wio@h DB 01H
__1157D6BA_corecrt_wtime@h DB 01H
__1DC1E279_stat@h DB 01H
__93DC0B45_wchar@h DB 01H
__7FE5F402_limits DB 01H
__DD5FCA34_compare DB 01H
__12269DE6_xutility DB 01H
__60BC708E_cmath DB 01H
__20BB4341_malloc@h DB 01H
__B0A13A33_vcruntime_exception@h DB 01H
__FF458F76_exception DB 01H
__C69F69CF_tuple DB 01H
__79D216CD_xmemory DB 01H
__374A57BA_xpolymorphic_allocator@h DB 01H
__0D019051_xstring DB 01H
__760BB52B_stdexcept DB 01H
__A4685E82_xcall_once@h DB 01H
__A0B61CF9_time@h DB 01H
__DDB379A0_xthreads@h DB 01H
__14D0A8C0_atomic DB 01H
__1B354CA2_system_error DB 01H
__65ADBEC9_vcruntime_typeinfo@h DB 01H
__62F96EFF_typeinfo DB 01H
__C34BF88C_memory DB 01H
__EF0EAF83_xfacet DB 01H
__B2D2BA86_ctype@h DB 01H
__7D708D37_xlocinfo DB 01H
__D23FE460_xlocale DB 01H
__4495FA24_xiosbase DB 01H
__4CB88277_xlocnum DB 01H
__845859A3_ios DB 01H
__98EE5594_InputStream@hpp DB 01H
__489ACE24_NonCopyable@hpp DB 01H
__B7987E10_string DB 01H
__1589CDA2_algorithm DB 01H
__FE33131C_xlocmes DB 01H
__67DA974F_xlocmon DB 01H
__D96D2425_xloctime DB 01H
__54960FDB_Thread@inl DB 01H
__7A0EAAD2_ContextSettings@hpp DB 01H
__A5094FF8_Drawable@hpp DB 01H
__617EE64B_Glyph@hpp DB 01H
__69958C8C_xtree DB 01H
__4B7B7884_Font@hpp DB 01H
__783660BD_TerrainElement@h DB 01H
__742542D9_Tile@h DB 01H
__905D7EAD_Element@h DB 01H
__8D8A9CEF_Sprite@hpp DB 01H
__DF7BE9E9_Element@cpp DB 01H
__68A60A21_locale DB 01H
__C12F3EA4_ostream DB 01H
__74AB0D97_streambuf DB 01H
__038A2AA6_iterator DB 01H
__B30C2184_iosfwd DB 01H
__1347750E_utility DB 01H
__E458E21C_xstddef DB 01H
__6AE60262_Rect@inl DB 01H
__AB640BC5_Rect@hpp DB 01H
__F54903A0_xatomic@h DB 01H
msvcjmc	ENDS
CONST	SEGMENT
$SG74540 DB	'Element', 00H
$SG85647 DB	'C:\Program Files (x86)\Microsoft Visual Studio\2019\Comm'
	DB	'unity\VC\Tools\MSVC\14.29.30133\include\xlocale', 00H
$SG88287 DB	'invalid argument', 00H
	ORG $+3
$SG88288 DB	'%s', 00H
	ORG $+1
$SG88289 DB	'C:\Program Files (x86)\Microsoft Visual Studio\2019\Comm'
	DB	'unity\VC\Tools\MSVC\14.29.30133\include\xmemory', 00H
$SG88290 DB	'C', 00H, ':', 00H, '\', 00H, 'P', 00H, 'r', 00H, 'o', 00H
	DB	'g', 00H, 'r', 00H, 'a', 00H, 'm', 00H, ' ', 00H, 'F', 00H, 'i'
	DB	00H, 'l', 00H, 'e', 00H, 's', 00H, ' ', 00H, '(', 00H, 'x', 00H
	DB	'8', 00H, '6', 00H, ')', 00H, '\', 00H, 'M', 00H, 'i', 00H, 'c'
	DB	00H, 'r', 00H, 'o', 00H, 's', 00H, 'o', 00H, 'f', 00H, 't', 00H
	DB	' ', 00H, 'V', 00H, 'i', 00H, 's', 00H, 'u', 00H, 'a', 00H, 'l'
	DB	00H, ' ', 00H, 'S', 00H, 't', 00H, 'u', 00H, 'd', 00H, 'i', 00H
	DB	'o', 00H, '\', 00H, '2', 00H, '0', 00H, '1', 00H, '9', 00H, '\'
	DB	00H, 'C', 00H, 'o', 00H, 'm', 00H, 'm', 00H, 'u', 00H, 'n', 00H
	DB	'i', 00H, 't', 00H, 'y', 00H, '\', 00H, 'V', 00H, 'C', 00H, '\'
	DB	00H, 'T', 00H, 'o', 00H, 'o', 00H, 'l', 00H, 's', 00H, '\', 00H
	DB	'M', 00H, 'S', 00H, 'V', 00H, 'C', 00H, '\', 00H, '1', 00H, '4'
	DB	00H, '.', 00H, '2', 00H, '9', 00H, '.', 00H, '3', 00H, '0', 00H
	DB	'1', 00H, '3', 00H, '3', 00H, '\', 00H, 'i', 00H, 'n', 00H, 'c'
	DB	00H, 'l', 00H, 'u', 00H, 'd', 00H, 'e', 00H, '\', 00H, 'x', 00H
	DB	'm', 00H, 'e', 00H, 'm', 00H, 'o', 00H, 'r', 00H, 'y', 00H, 00H
	DB	00H
$SG88291 DB	's', 00H, 't', 00H, 'd', 00H, ':', 00H, ':', 00H, '_', 00H
	DB	'A', 00H, 'l', 00H, 'l', 00H, 'o', 00H, 'c', 00H, 'a', 00H, 't'
	DB	00H, 'e', 00H, '_', 00H, 'm', 00H, 'a', 00H, 'n', 00H, 'u', 00H
	DB	'a', 00H, 'l', 00H, 'l', 00H, 'y', 00H, '_', 00H, 'v', 00H, 'e'
	DB	00H, 'c', 00H, 't', 00H, 'o', 00H, 'r', 00H, '_', 00H, 'a', 00H
	DB	'l', 00H, 'i', 00H, 'g', 00H, 'n', 00H, 'e', 00H, 'd', 00H, 00H
	DB	00H
	ORG $+2
$SG88292 DB	'"', 00H, 'i', 00H, 'n', 00H, 'v', 00H, 'a', 00H, 'l', 00H
	DB	'i', 00H, 'd', 00H, ' ', 00H, 'a', 00H, 'r', 00H, 'g', 00H, 'u'
	DB	00H, 'm', 00H, 'e', 00H, 'n', 00H, 't', 00H, '"', 00H, 00H, 00H
CONST	ENDS
PUBLIC	?__empty_global_delete@@YAXPAX@Z		; __empty_global_delete
PUBLIC	?__empty_global_delete@@YAXPAXI@Z		; __empty_global_delete
PUBLIC	?__empty_global_delete@@YAXPAXW4align_val_t@std@@@Z ; __empty_global_delete
PUBLIC	?__empty_global_delete@@YAXPAXIW4align_val_t@std@@@Z ; __empty_global_delete
PUBLIC	??2@YAPAXIPAX@Z					; operator new
PUBLIC	?is_constant_evaluated@std@@YA_NXZ		; std::is_constant_evaluated
PUBLIC	_wmemcpy
PUBLIC	?max@?$numeric_limits@H@std@@SAHXZ		; std::numeric_limits<int>::max
PUBLIC	??0exception@std@@QAE@QBDH@Z			; std::exception::exception
PUBLIC	??0exception@std@@QAE@ABV01@@Z			; std::exception::exception
PUBLIC	??1exception@std@@UAE@XZ			; std::exception::~exception
PUBLIC	?what@exception@std@@UBEPBDXZ			; std::exception::what
PUBLIC	??_Gexception@std@@UAEPAXI@Z			; std::exception::`scalar deleting destructor'
PUBLIC	??0bad_alloc@std@@AAE@QBD@Z			; std::bad_alloc::bad_alloc
PUBLIC	??1bad_alloc@std@@UAE@XZ			; std::bad_alloc::~bad_alloc
PUBLIC	??0bad_alloc@std@@QAE@ABV01@@Z			; std::bad_alloc::bad_alloc
PUBLIC	??_Gbad_alloc@std@@UAEPAXI@Z			; std::bad_alloc::`scalar deleting destructor'
PUBLIC	??0bad_array_new_length@std@@QAE@XZ		; std::bad_array_new_length::bad_array_new_length
PUBLIC	??1bad_array_new_length@std@@UAE@XZ		; std::bad_array_new_length::~bad_array_new_length
PUBLIC	??0bad_array_new_length@std@@QAE@ABV01@@Z	; std::bad_array_new_length::bad_array_new_length
PUBLIC	??_Gbad_array_new_length@std@@UAEPAXI@Z		; std::bad_array_new_length::`scalar deleting destructor'
PUBLIC	?_Throw_bad_array_new_length@std@@YAXXZ		; std::_Throw_bad_array_new_length
PUBLIC	?_Allocate@_Default_allocate_traits@std@@SAPAXI@Z ; std::_Default_allocate_traits::_Allocate
PUBLIC	?_Adjust_manually_vector_aligned@std@@YAXAAPAXAAI@Z ; std::_Adjust_manually_vector_aligned
PUBLIC	??$_Convert_size@I@std@@YAII@Z			; std::_Convert_size<unsigned int>
PUBLIC	??0_Container_proxy@std@@QAE@PAU_Container_base12@1@@Z ; std::_Container_proxy::_Container_proxy
PUBLIC	??0_Container_base12@std@@QAE@XZ		; std::_Container_base12::_Container_base12
PUBLIC	?_Orphan_all@_Container_base12@std@@QAEXXZ	; std::_Container_base12::_Orphan_all
PUBLIC	?_Orphan_all_unlocked_v3@_Container_base12@std@@AAEXXZ ; std::_Container_base12::_Orphan_all_unlocked_v3
PUBLIC	?_Orphan_all_locked_v3@_Container_base12@std@@AAEXXZ ; std::_Container_base12::_Orphan_all_locked_v3
PUBLIC	?_Release@_Basic_container_proxy_ptr12@std@@QAEXXZ ; std::_Basic_container_proxy_ptr12::_Release
PUBLIC	??0_Basic_container_proxy_ptr12@std@@IAE@XZ	; std::_Basic_container_proxy_ptr12::_Basic_container_proxy_ptr12
PUBLIC	??$addressof@U_Container_base12@std@@@std@@YAPAU_Container_base12@0@AAU10@@Z ; std::addressof<std::_Container_base12>
PUBLIC	??$_Construct_in_place@U_Container_proxy@std@@PAU_Container_base12@2@@std@@YAXAAU_Container_proxy@0@$$QAPAU_Container_base12@0@@Z ; std::_Construct_in_place<std::_Container_proxy,std::_Container_base12 *>
PUBLIC	?copy@?$_Char_traits@DH@std@@SAPADQADQBDI@Z	; std::_Char_traits<char,int>::copy
PUBLIC	?move@?$_Char_traits@DH@std@@SAPADQADQBDI@Z	; std::_Char_traits<char,int>::move
PUBLIC	?assign@?$_Char_traits@DH@std@@SAPADQADID@Z	; std::_Char_traits<char,int>::assign
PUBLIC	?length@?$_Narrow_char_traits@DH@std@@SAIQBD@Z	; std::_Narrow_char_traits<char,int>::length
PUBLIC	?assign@?$_Narrow_char_traits@DH@std@@SAPADQADID@Z ; std::_Narrow_char_traits<char,int>::assign
PUBLIC	?assign@?$_Narrow_char_traits@DH@std@@SAXAADABD@Z ; std::_Narrow_char_traits<char,int>::assign
PUBLIC	?_Xlen_string@std@@YAXXZ			; std::_Xlen_string
PUBLIC	??0?$allocator@D@std@@QAE@XZ			; std::allocator<char>::allocator<char>
PUBLIC	?deallocate@?$allocator@D@std@@QAEXQADI@Z	; std::allocator<char>::deallocate
PUBLIC	?allocate@?$allocator@D@std@@QAEPADI@Z		; std::allocator<char>::allocate
PUBLIC	?max_size@?$_Default_allocator_traits@V?$allocator@D@std@@@std@@SAIABV?$allocator@D@2@@Z ; std::_Default_allocator_traits<std::allocator<char> >::max_size
PUBLIC	??0?$_String_val@U?$_Simple_types@D@std@@@std@@QAE@XZ ; std::_String_val<std::_Simple_types<char> >::_String_val<std::_Simple_types<char> >
PUBLIC	?_Myptr@?$_String_val@U?$_Simple_types@D@std@@@std@@QAEPADXZ ; std::_String_val<std::_Simple_types<char> >::_Myptr
PUBLIC	?_Large_string_engaged@?$_String_val@U?$_Simple_types@D@std@@@std@@QBE_NXZ ; std::_String_val<std::_Simple_types<char> >::_Large_string_engaged
PUBLIC	??0_Bxty@?$_String_val@U?$_Simple_types@D@std@@@std@@QAE@XZ ; std::_String_val<std::_Simple_types<char> >::_Bxty::_Bxty
PUBLIC	??1_Bxty@?$_String_val@U?$_Simple_types@D@std@@@std@@QAE@XZ ; std::_String_val<std::_Simple_types<char> >::_Bxty::~_Bxty
PUBLIC	??1?$_String_val@U?$_Simple_types@D@std@@@std@@QAE@XZ ; std::_String_val<std::_Simple_types<char> >::~_String_val<std::_Simple_types<char> >
PUBLIC	??0?$basic_string@DU?$char_traits@D@std@@V?$allocator@D@2@@std@@QAE@QBD@Z ; std::basic_string<char,std::char_traits<char>,std::allocator<char> >::basic_string<char,std::char_traits<char>,std::allocator<char> >
PUBLIC	??1?$basic_string@DU?$char_traits@D@std@@V?$allocator@D@2@@std@@QAE@XZ ; std::basic_string<char,std::char_traits<char>,std::allocator<char> >::~basic_string<char,std::char_traits<char>,std::allocator<char> >
PUBLIC	?assign@?$basic_string@DU?$char_traits@D@std@@V?$allocator@D@2@@std@@QAEAAV12@QBDI@Z ; std::basic_string<char,std::char_traits<char>,std::allocator<char> >::assign
PUBLIC	?assign@?$basic_string@DU?$char_traits@D@std@@V?$allocator@D@2@@std@@QAEAAV12@QBD@Z ; std::basic_string<char,std::char_traits<char>,std::allocator<char> >::assign
PUBLIC	?max_size@?$basic_string@DU?$char_traits@D@std@@V?$allocator@D@2@@std@@QBEIXZ ; std::basic_string<char,std::char_traits<char>,std::allocator<char> >::max_size
PUBLIC	?_Calculate_growth@?$basic_string@DU?$char_traits@D@std@@V?$allocator@D@2@@std@@CAIIII@Z ; std::basic_string<char,std::char_traits<char>,std::allocator<char> >::_Calculate_growth
PUBLIC	?_Calculate_growth@?$basic_string@DU?$char_traits@D@std@@V?$allocator@D@2@@std@@ABEII@Z ; std::basic_string<char,std::char_traits<char>,std::allocator<char> >::_Calculate_growth
PUBLIC	?_Tidy_init@?$basic_string@DU?$char_traits@D@std@@V?$allocator@D@2@@std@@AAEXXZ ; std::basic_string<char,std::char_traits<char>,std::allocator<char> >::_Tidy_init
PUBLIC	?_Tidy_deallocate@?$basic_string@DU?$char_traits@D@std@@V?$allocator@D@2@@std@@AAEXXZ ; std::basic_string<char,std::char_traits<char>,std::allocator<char> >::_Tidy_deallocate
PUBLIC	?_Getal@?$basic_string@DU?$char_traits@D@std@@V?$allocator@D@2@@std@@AAEAAV?$allocator@D@2@XZ ; std::basic_string<char,std::char_traits<char>,std::allocator<char> >::_Getal
PUBLIC	?_Getal@?$basic_string@DU?$char_traits@D@std@@V?$allocator@D@2@@std@@ABEABV?$allocator@D@2@XZ ; std::basic_string<char,std::char_traits<char>,std::allocator<char> >::_Getal
PUBLIC	?_Get_first@?$_Compressed_pair@V?$allocator@D@std@@V?$_String_val@U?$_Simple_types@D@std@@@2@$00@std@@QAEAAV?$allocator@D@2@XZ ; std::_Compressed_pair<std::allocator<char>,std::_String_val<std::_Simple_types<char> >,1>::_Get_first
PUBLIC	?_Get_first@?$_Compressed_pair@V?$allocator@D@std@@V?$_String_val@U?$_Simple_types@D@std@@@2@$00@std@@QBEABV?$allocator@D@2@XZ ; std::_Compressed_pair<std::allocator<char>,std::_String_val<std::_Simple_types<char> >,1>::_Get_first
PUBLIC	??1?$_Compressed_pair@V?$allocator@D@std@@V?$_String_val@U?$_Simple_types@D@std@@@2@$00@std@@QAE@XZ ; std::_Compressed_pair<std::allocator<char>,std::_String_val<std::_Simple_types<char> >,1>::~_Compressed_pair<std::allocator<char>,std::_String_val<std::_Simple_types<char> >,1>
PUBLIC	??$_Maklocstr@_W@std@@YAPA_WPBDPA_WABU_Cvtvec@@@Z ; std::_Maklocstr<wchar_t>
PUBLIC	??$min@H@std@@YAABHABH0@Z			; std::min<int>
PUBLIC	?_Maklocwcs@std@@YAPA_WPB_W@Z			; std::_Maklocwcs
PUBLIC	??$_Maklocstr@D@std@@YAPADPBDPADABU_Cvtvec@@@Z	; std::_Maklocstr<char>
PUBLIC	??$_Getvals@_W@?$time_get@DV?$istreambuf_iterator@DU?$char_traits@D@std@@@std@@@std@@IAEX_WABV_Locinfo@1@@Z ; std::time_get<char,std::istreambuf_iterator<char,std::char_traits<char> > >::_Getvals<wchar_t>
PUBLIC	??$_Getvals@_W@?$time_get@_WV?$istreambuf_iterator@_WU?$char_traits@_W@std@@@std@@@std@@IAEX_WABV_Locinfo@1@@Z ; std::time_get<wchar_t,std::istreambuf_iterator<wchar_t,std::char_traits<wchar_t> > >::_Getvals<wchar_t>
PUBLIC	??0?$Rect@H@sf@@QAE@XZ				; sf::Rect<int>::Rect<int>
PUBLIC	??0?$Rect@H@sf@@QAE@HHHH@Z			; sf::Rect<int>::Rect<int>
PUBLIC	?intersects@?$Rect@H@sf@@QBE_NABV12@AAV12@@Z	; sf::Rect<int>::intersects
PUBLIC	??_GSprite@sf@@UAEPAXI@Z			; sf::Sprite::`scalar deleting destructor'
PUBLIC	??0Block@@QAE@HHV?$Rect@H@sf@@ABVImage@2@@Z	; Block::Block
PUBLIC	??1Block@@QAE@XZ				; Block::~Block
PUBLIC	?show@Block@@QAEXAAVRenderWindow@sf@@@Z		; Block::show
PUBLIC	?collide@Block@@QAE_NV?$Rect@H@sf@@@Z		; Block::collide
PUBLIC	??$min@I@std@@YAABIABI0@Z			; std::min<unsigned int>
PUBLIC	?deallocate@?$allocator@U_Container_proxy@std@@@std@@QAEXQAU_Container_proxy@2@I@Z ; std::allocator<std::_Container_proxy>::deallocate
PUBLIC	?allocate@?$allocator@U_Container_proxy@std@@@std@@QAEPAU_Container_proxy@2@I@Z ; std::allocator<std::_Container_proxy>::allocate
PUBLIC	??$_Delete_plain_internal@V?$allocator@U_Container_proxy@std@@@std@@@std@@YAXAAV?$allocator@U_Container_proxy@std@@@0@QAU_Container_proxy@0@@Z ; std::_Delete_plain_internal<std::allocator<std::_Container_proxy> >
PUBLIC	??0?$_Container_proxy_ptr12@V?$allocator@U_Container_proxy@std@@@std@@@std@@QAE@AAV?$allocator@U_Container_proxy@std@@@1@AAU_Container_base12@1@@Z ; std::_Container_proxy_ptr12<std::allocator<std::_Container_proxy> >::_Container_proxy_ptr12<std::allocator<std::_Container_proxy> >
PUBLIC	??1?$_Container_proxy_ptr12@V?$allocator@U_Container_proxy@std@@@std@@@std@@QAE@XZ ; std::_Container_proxy_ptr12<std::allocator<std::_Container_proxy> >::~_Container_proxy_ptr12<std::allocator<std::_Container_proxy> >
PUBLIC	??$?0D@?$allocator@U_Container_proxy@std@@@std@@QAE@ABV?$allocator@D@1@@Z ; std::allocator<std::_Container_proxy>::allocator<std::_Container_proxy><char>
PUBLIC	??$?0$$V@?$_Compressed_pair@V?$allocator@D@std@@V?$_String_val@U?$_Simple_types@D@std@@@2@$00@std@@QAE@U_Zero_then_variadic_args_t@1@@Z ; std::_Compressed_pair<std::allocator<char>,std::_String_val<std::_Simple_types<char> >,1>::_Compressed_pair<std::allocator<char>,std::_String_val<std::_Simple_types<char> >,1><>
PUBLIC	??$_Unfancy@U_Container_proxy@std@@@std@@YAPAU_Container_proxy@0@PAU10@@Z ; std::_Unfancy<std::_Container_proxy>
PUBLIC	??$_Destroy_in_place@PAD@std@@YAXAAPAD@Z	; std::_Destroy_in_place<char *>
PUBLIC	??$_Unfancy@D@std@@YAPADPAD@Z			; std::_Unfancy<char>
PUBLIC	??R<lambda_1>@?1??assign@?$basic_string@DU?$char_traits@D@std@@V?$allocator@D@2@@std@@QAEAAV23@QBDI@Z@QBE@QADI0@Z ; `std::basic_string<char,std::char_traits<char>,std::allocator<char> >::assign'::`2'::<lambda_1>::operator()
PUBLIC	??$_Reallocate_for@V<lambda_1>@?1??assign@?$basic_string@DU?$char_traits@D@std@@V?$allocator@D@2@@std@@QAEAAV34@QBDI@Z@PBD@?$basic_string@DU?$char_traits@D@std@@V?$allocator@D@2@@std@@AAEAAV01@IV<lambda_1>@?1??assign@01@QAEAAV01@QBDI@Z@PBD@Z ; std::basic_string<char,std::char_traits<char>,std::allocator<char> >::_Reallocate_for<`std::basic_string<char,std::char_traits<char>,std::allocator<char> >::assign'::`2'::<lambda_1>,char const *>
PUBLIC	??$_Construct_in_place@PADABQAD@std@@YAXAAPADABQAD@Z ; std::_Construct_in_place<char *,char * const &>
PUBLIC	??$max@I@std@@YAABIABI0@Z			; std::max<unsigned int>
PUBLIC	??$_Get_size_of_n@$07@std@@YAII@Z		; std::_Get_size_of_n<8>
PUBLIC	??$_Allocate@$07U_Default_allocate_traits@std@@$0A@@std@@YAPAXI@Z ; std::_Allocate<8,std::_Default_allocate_traits,0>
PUBLIC	??$_Deallocate@$07$0A@@std@@YAXPAXI@Z		; std::_Deallocate<8,0>
PUBLIC	??$_Get_size_of_n@$00@std@@YAII@Z		; std::_Get_size_of_n<1>
PUBLIC	??$construct_at@DABDX@std@@YAPADQADABD@Z	; std::construct_at<char,char const &,void>
PUBLIC	??$_Voidify_iter@PAD@std@@YAPAXPAD@Z		; std::_Voidify_iter<char *>
PUBLIC	??$forward@ABD@std@@YAABDABD@Z			; std::forward<char const &>
PUBLIC	??$addressof@U_Container_proxy@std@@@std@@YAPAU_Container_proxy@0@AAU10@@Z ; std::addressof<std::_Container_proxy>
PUBLIC	??$forward@PAU_Container_base12@std@@@std@@YA$$QAPAU_Container_base12@0@AAPAU10@@Z ; std::forward<std::_Container_base12 *>
PUBLIC	??$construct_at@U_Container_proxy@std@@PAU_Container_base12@2@X@std@@YAPAU_Container_proxy@0@QAU10@$$QAPAU_Container_base12@0@@Z ; std::construct_at<std::_Container_proxy,std::_Container_base12 *,void>
PUBLIC	??$_Voidify_iter@PAU_Container_proxy@std@@@std@@YAPAXPAU_Container_proxy@0@@Z ; std::_Voidify_iter<std::_Container_proxy *>
PUBLIC	??$max@H@std@@YAABHABH0@Z			; std::max<int>
PUBLIC	??$_Deallocate_plain@V?$allocator@U_Container_proxy@std@@@std@@@std@@YAXAAV?$allocator@U_Container_proxy@std@@@0@QAU_Container_proxy@0@@Z ; std::_Deallocate_plain<std::allocator<std::_Container_proxy> >
PUBLIC	??$addressof@PAD@std@@YAPAPADAAPAD@Z		; std::addressof<char *>
PUBLIC	??$forward@ABQAD@std@@YAABQADABQAD@Z		; std::forward<char * const &>
PUBLIC	??$construct_at@PADABQADX@std@@YAPAPADQAPADABQAD@Z ; std::construct_at<char *,char * const &,void>
PUBLIC	??$_Voidify_iter@PAPAD@std@@YAPAXPAPAD@Z	; std::_Voidify_iter<char * *>
PUBLIC	??$_Allocate_manually_vector_aligned@U_Default_allocate_traits@std@@@std@@YAPAXI@Z ; std::_Allocate_manually_vector_aligned<std::_Default_allocate_traits>
PUBLIC	?deallocate@?$_Default_allocator_traits@V?$allocator@U_Container_proxy@std@@@std@@@std@@SAXAAV?$allocator@U_Container_proxy@std@@@2@QAU_Container_proxy@2@I@Z ; std::_Default_allocator_traits<std::allocator<std::_Container_proxy> >::deallocate
PUBLIC	??_ESprite@sf@@W3AEPAXI@Z			; [thunk]:sf::Sprite::`vector deleting destructor'
PUBLIC	__JustMyCode_Default
PUBLIC	??_7exception@std@@6B@				; std::exception::`vftable'
PUBLIC	??_C@_0BC@EOODALEL@Unknown?5exception@		; `string'
PUBLIC	??_7bad_alloc@std@@6B@				; std::bad_alloc::`vftable'
PUBLIC	??_7bad_array_new_length@std@@6B@		; std::bad_array_new_length::`vftable'
PUBLIC	??_C@_0BF@KINCDENJ@bad?5array?5new?5length@	; `string'
PUBLIC	__TI3?AVbad_array_new_length@std@@
PUBLIC	__CTA3?AVbad_array_new_length@std@@
PUBLIC	??_R0?AVbad_array_new_length@std@@@8		; std::bad_array_new_length `RTTI Type Descriptor'
PUBLIC	__CT??_R0?AVbad_array_new_length@std@@@8??0bad_array_new_length@std@@QAE@ABV01@@Z12
PUBLIC	??_R0?AVbad_alloc@std@@@8			; std::bad_alloc `RTTI Type Descriptor'
PUBLIC	__CT??_R0?AVbad_alloc@std@@@8??0bad_alloc@std@@QAE@ABV01@@Z12
PUBLIC	??_R0?AVexception@std@@@8			; std::exception `RTTI Type Descriptor'
PUBLIC	__CT??_R0?AVexception@std@@@8??0exception@std@@QAE@ABV01@@Z12
PUBLIC	??_C@_0BB@FCMFBGOM@invalid?5argument@		; `string'
PUBLIC	??_C@_02DKCKIIND@?$CFs@				; `string'
PUBLIC	??_C@_0GI@MNEMJBML@C?3?2Program?5Files?5?$CIx86?$CJ?2Microsof@ ; `string'
PUBLIC	??_C@_1NA@MJBOBEJL@?$AAC?$AA?3?$AA?2?$AAP?$AAr?$AAo?$AAg?$AAr?$AAa?$AAm?$AA?5?$AAF?$AAi?$AAl?$AAe@ ; `string'
PUBLIC	??_C@_1EK@NIFDJFDG@?$AAs?$AAt?$AAd?$AA?3?$AA?3?$AA_?$AAA?$AAd?$AAj?$AAu?$AAs?$AAt?$AA_?$AAm?$AAa@ ; `string'
PUBLIC	??_C@_1CG@JNLFBNGN@?$AA?$CC?$AAi?$AAn?$AAv?$AAa?$AAl?$AAi?$AAd?$AA?5?$AAa?$AAr?$AAg?$AAu?$AAm?$AAe@ ; `string'
PUBLIC	??_C@_0BA@JFNIOLAK@string?5too?5long@		; `string'
PUBLIC	??_C@_0GI@GFIAKDGM@C?3?2Program?5Files?5?$CIx86?$CJ?2Microsof@ ; `string'
PUBLIC	??_C@_0GI@OGMNKBMN@C?3?2Program?5Files?5?$CIx86?$CJ?2Microsof@ ; `string'
PUBLIC	??_SSprite@sf@@6BDrawable@1@@			; sf::Sprite::`local vftable'
PUBLIC	??_SSprite@sf@@6BTransformable@1@@		; sf::Sprite::`local vftable'
PUBLIC	??_C@_0N@LPFKKEBD@?3AM?3am?3PM?3pm@		; `string'
PUBLIC	??_C@_1BK@MHIKGOKE@?$AA?3?$AAA?$AAM?$AA?3?$AAa?$AAm?$AA?3?$AAP?$AAM?$AA?3?$AAp?$AAm@ ; `string'
PUBLIC	??_R4exception@std@@6B@				; std::exception::`RTTI Complete Object Locator'
PUBLIC	??_R3exception@std@@8				; std::exception::`RTTI Class Hierarchy Descriptor'
PUBLIC	??_R2exception@std@@8				; std::exception::`RTTI Base Class Array'
PUBLIC	??_R1A@?0A@EA@exception@std@@8			; std::exception::`RTTI Base Class Descriptor at (0,-1,0,64)'
PUBLIC	??_R4bad_alloc@std@@6B@				; std::bad_alloc::`RTTI Complete Object Locator'
PUBLIC	??_R3bad_alloc@std@@8				; std::bad_alloc::`RTTI Class Hierarchy Descriptor'
PUBLIC	??_R2bad_alloc@std@@8				; std::bad_alloc::`RTTI Base Class Array'
PUBLIC	??_R1A@?0A@EA@bad_alloc@std@@8			; std::bad_alloc::`RTTI Base Class Descriptor at (0,-1,0,64)'
PUBLIC	??_R4bad_array_new_length@std@@6B@		; std::bad_array_new_length::`RTTI Complete Object Locator'
PUBLIC	??_R3bad_array_new_length@std@@8		; std::bad_array_new_length::`RTTI Class Hierarchy Descriptor'
PUBLIC	??_R2bad_array_new_length@std@@8		; std::bad_array_new_length::`RTTI Base Class Array'
PUBLIC	??_R1A@?0A@EA@bad_array_new_length@std@@8	; std::bad_array_new_length::`RTTI Base Class Descriptor at (0,-1,0,64)'
PUBLIC	??_R4Sprite@sf@@6BDrawable@1@@			; sf::Sprite::`RTTI Complete Object Locator'
PUBLIC	??_R0?AVSprite@sf@@@8				; sf::Sprite `RTTI Type Descriptor'
PUBLIC	??_R3Sprite@sf@@8				; sf::Sprite::`RTTI Class Hierarchy Descriptor'
PUBLIC	??_R2Sprite@sf@@8				; sf::Sprite::`RTTI Base Class Array'
PUBLIC	??_R1A@?0A@EA@Sprite@sf@@8			; sf::Sprite::`RTTI Base Class Descriptor at (0,-1,0,64)'
PUBLIC	??_R1A@?0A@EA@Drawable@sf@@8			; sf::Drawable::`RTTI Base Class Descriptor at (0,-1,0,64)'
PUBLIC	??_R0?AVDrawable@sf@@@8				; sf::Drawable `RTTI Type Descriptor'
PUBLIC	??_R3Drawable@sf@@8				; sf::Drawable::`RTTI Class Hierarchy Descriptor'
PUBLIC	??_R2Drawable@sf@@8				; sf::Drawable::`RTTI Base Class Array'
PUBLIC	??_R13?0A@EA@Transformable@sf@@8		; sf::Transformable::`RTTI Base Class Descriptor at (4,-1,0,64)'
PUBLIC	??_R0?AVTransformable@sf@@@8			; sf::Transformable `RTTI Type Descriptor'
PUBLIC	??_R3Transformable@sf@@8			; sf::Transformable::`RTTI Class Hierarchy Descriptor'
PUBLIC	??_R2Transformable@sf@@8			; sf::Transformable::`RTTI Base Class Array'
PUBLIC	??_R1A@?0A@EA@Transformable@sf@@8		; sf::Transformable::`RTTI Base Class Descriptor at (0,-1,0,64)'
PUBLIC	??_R4Sprite@sf@@6BTransformable@1@@		; sf::Sprite::`RTTI Complete Object Locator'
EXTRN	??2@YAPAXI@Z:PROC				; operator new
EXTRN	??3@YAXPAX@Z:PROC				; operator delete
EXTRN	??3@YAXPAXI@Z:PROC				; operator delete
EXTRN	__imp___invalid_parameter:PROC
EXTRN	__imp___calloc_dbg:PROC
EXTRN	__imp___CrtDbgReport:PROC
EXTRN	__imp_??0_Lockit@std@@QAE@H@Z:PROC
EXTRN	__imp_??1_Lockit@std@@QAE@XZ:PROC
EXTRN	_memcpy:PROC
EXTRN	_memmove:PROC
EXTRN	_memset:PROC
EXTRN	__imp__wcslen:PROC
EXTRN	_strlen:PROC
EXTRN	?_Xbad_alloc@std@@YAXXZ:PROC			; std::_Xbad_alloc
EXTRN	?_Xlength_error@std@@YAXPBD@Z:PROC		; std::_Xlength_error
EXTRN	___std_exception_copy:PROC
EXTRN	___std_exception_destroy:PROC
EXTRN	??_Eexception@std@@UAEPAXI@Z:PROC		; std::exception::`vector deleting destructor'
EXTRN	??_Ebad_alloc@std@@UAEPAXI@Z:PROC		; std::bad_alloc::`vector deleting destructor'
EXTRN	??_Ebad_array_new_length@std@@UAEPAXI@Z:PROC	; std::bad_array_new_length::`vector deleting destructor'
EXTRN	__Mbrtowc:PROC
EXTRN	__imp_?_Getcvt@_Locinfo@std@@QBE?AU_Cvtvec@@XZ:PROC
EXTRN	__imp_?_Getdays@_Locinfo@std@@QBEPBDXZ:PROC
EXTRN	__imp_?_Getmonths@_Locinfo@std@@QBEPBDXZ:PROC
EXTRN	__imp_?_W_Getdays@_Locinfo@std@@QBEPBGXZ:PROC
EXTRN	__imp_?_W_Getmonths@_Locinfo@std@@QBEPBGXZ:PROC
EXTRN	__imp_?setPosition@Transformable@sf@@QAEXMM@Z:PROC
EXTRN	__imp_??0Texture@sf@@QAE@XZ:PROC
EXTRN	__imp_?loadFromImage@Texture@sf@@QAE_NABVImage@2@ABV?$Rect@H@2@@Z:PROC
EXTRN	__imp_?draw@RenderTarget@sf@@QAEXABVDrawable@2@ABVRenderStates@2@@Z:PROC
EXTRN	__imp_??0Sprite@sf@@QAE@ABVTexture@1@ABV?$Rect@H@1@@Z:PROC
EXTRN	__imp_??1Sprite@sf@@UAE@XZ:PROC
EXTRN	??_ESprite@sf@@UAEPAXI@Z:PROC			; sf::Sprite::`vector deleting destructor'
EXTRN	??0Tile@@QAE@XZ:PROC				; Tile::Tile
EXTRN	?draw@Sprite@sf@@EBEXAAVRenderTarget@2@VRenderStates@2@@Z:PROC ; sf::Sprite::draw
EXTRN	@_RTC_CheckStackVars@8:PROC
EXTRN	@__CheckForDebuggerJustMyCode@4:PROC
EXTRN	@__security_check_cookie@4:PROC
EXTRN	__CxxThrowException@8:PROC
EXTRN	__RTC_CheckEsp:PROC
EXTRN	__RTC_InitBase:PROC
EXTRN	__RTC_Shutdown:PROC
EXTRN	___CxxFrameHandler3:PROC
EXTRN	??_7type_info@@6B@:QWORD			; type_info::`vftable'
EXTRN	__imp_?Default@RenderStates@sf@@2V12@B:BYTE
EXTRN	___security_cookie:DWORD
EXTRN	__fltused:DWORD
;	COMDAT rtc$TMZ
rtc$TMZ	SEGMENT
__RTC_Shutdown.rtc$TMZ DD FLAT:__RTC_Shutdown
rtc$TMZ	ENDS
;	COMDAT rtc$IMZ
rtc$IMZ	SEGMENT
__RTC_InitBase.rtc$IMZ DD FLAT:__RTC_InitBase
rtc$IMZ	ENDS
;	COMDAT ??_R4Sprite@sf@@6BTransformable@1@@
rdata$r	SEGMENT
??_R4Sprite@sf@@6BTransformable@1@@ DD 00H		; sf::Sprite::`RTTI Complete Object Locator'
	DD	04H
	DD	00H
	DD	FLAT:??_R0?AVSprite@sf@@@8
	DD	FLAT:??_R3Sprite@sf@@8
rdata$r	ENDS
;	COMDAT ??_R1A@?0A@EA@Transformable@sf@@8
rdata$r	SEGMENT
??_R1A@?0A@EA@Transformable@sf@@8 DD FLAT:??_R0?AVTransformable@sf@@@8 ; sf::Transformable::`RTTI Base Class Descriptor at (0,-1,0,64)'
	DD	00H
	DD	00H
	DD	0ffffffffH
	DD	00H
	DD	040H
	DD	FLAT:??_R3Transformable@sf@@8
rdata$r	ENDS
;	COMDAT ??_R2Transformable@sf@@8
rdata$r	SEGMENT
??_R2Transformable@sf@@8 DD FLAT:??_R1A@?0A@EA@Transformable@sf@@8 ; sf::Transformable::`RTTI Base Class Array'
rdata$r	ENDS
;	COMDAT ??_R3Transformable@sf@@8
rdata$r	SEGMENT
??_R3Transformable@sf@@8 DD 00H				; sf::Transformable::`RTTI Class Hierarchy Descriptor'
	DD	00H
	DD	01H
	DD	FLAT:??_R2Transformable@sf@@8
rdata$r	ENDS
;	COMDAT ??_R0?AVTransformable@sf@@@8
data$rs	SEGMENT
??_R0?AVTransformable@sf@@@8 DD FLAT:??_7type_info@@6B@	; sf::Transformable `RTTI Type Descriptor'
	DD	00H
	DB	'.?AVTransformable@sf@@', 00H
data$rs	ENDS
;	COMDAT ??_R13?0A@EA@Transformable@sf@@8
rdata$r	SEGMENT
??_R13?0A@EA@Transformable@sf@@8 DD FLAT:??_R0?AVTransformable@sf@@@8 ; sf::Transformable::`RTTI Base Class Descriptor at (4,-1,0,64)'
	DD	00H
	DD	04H
	DD	0ffffffffH
	DD	00H
	DD	040H
	DD	FLAT:??_R3Transformable@sf@@8
rdata$r	ENDS
;	COMDAT ??_R2Drawable@sf@@8
rdata$r	SEGMENT
??_R2Drawable@sf@@8 DD FLAT:??_R1A@?0A@EA@Drawable@sf@@8 ; sf::Drawable::`RTTI Base Class Array'
rdata$r	ENDS
;	COMDAT ??_R3Drawable@sf@@8
rdata$r	SEGMENT
??_R3Drawable@sf@@8 DD 00H				; sf::Drawable::`RTTI Class Hierarchy Descriptor'
	DD	00H
	DD	01H
	DD	FLAT:??_R2Drawable@sf@@8
rdata$r	ENDS
;	COMDAT ??_R0?AVDrawable@sf@@@8
data$rs	SEGMENT
??_R0?AVDrawable@sf@@@8 DD FLAT:??_7type_info@@6B@	; sf::Drawable `RTTI Type Descriptor'
	DD	00H
	DB	'.?AVDrawable@sf@@', 00H
data$rs	ENDS
;	COMDAT ??_R1A@?0A@EA@Drawable@sf@@8
rdata$r	SEGMENT
??_R1A@?0A@EA@Drawable@sf@@8 DD FLAT:??_R0?AVDrawable@sf@@@8 ; sf::Drawable::`RTTI Base Class Descriptor at (0,-1,0,64)'
	DD	00H
	DD	00H
	DD	0ffffffffH
	DD	00H
	DD	040H
	DD	FLAT:??_R3Drawable@sf@@8
rdata$r	ENDS
;	COMDAT ??_R1A@?0A@EA@Sprite@sf@@8
rdata$r	SEGMENT
??_R1A@?0A@EA@Sprite@sf@@8 DD FLAT:??_R0?AVSprite@sf@@@8 ; sf::Sprite::`RTTI Base Class Descriptor at (0,-1,0,64)'
	DD	02H
	DD	00H
	DD	0ffffffffH
	DD	00H
	DD	040H
	DD	FLAT:??_R3Sprite@sf@@8
rdata$r	ENDS
;	COMDAT ??_R2Sprite@sf@@8
rdata$r	SEGMENT
??_R2Sprite@sf@@8 DD FLAT:??_R1A@?0A@EA@Sprite@sf@@8	; sf::Sprite::`RTTI Base Class Array'
	DD	FLAT:??_R1A@?0A@EA@Drawable@sf@@8
	DD	FLAT:??_R13?0A@EA@Transformable@sf@@8
rdata$r	ENDS
;	COMDAT ??_R3Sprite@sf@@8
rdata$r	SEGMENT
??_R3Sprite@sf@@8 DD 00H				; sf::Sprite::`RTTI Class Hierarchy Descriptor'
	DD	01H
	DD	03H
	DD	FLAT:??_R2Sprite@sf@@8
rdata$r	ENDS
;	COMDAT ??_R0?AVSprite@sf@@@8
data$rs	SEGMENT
??_R0?AVSprite@sf@@@8 DD FLAT:??_7type_info@@6B@	; sf::Sprite `RTTI Type Descriptor'
	DD	00H
	DB	'.?AVSprite@sf@@', 00H
data$rs	ENDS
;	COMDAT ??_R4Sprite@sf@@6BDrawable@1@@
rdata$r	SEGMENT
??_R4Sprite@sf@@6BDrawable@1@@ DD 00H			; sf::Sprite::`RTTI Complete Object Locator'
	DD	00H
	DD	00H
	DD	FLAT:??_R0?AVSprite@sf@@@8
	DD	FLAT:??_R3Sprite@sf@@8
rdata$r	ENDS
;	COMDAT ??_R1A@?0A@EA@bad_array_new_length@std@@8
rdata$r	SEGMENT
??_R1A@?0A@EA@bad_array_new_length@std@@8 DD FLAT:??_R0?AVbad_array_new_length@std@@@8 ; std::bad_array_new_length::`RTTI Base Class Descriptor at (0,-1,0,64)'
	DD	02H
	DD	00H
	DD	0ffffffffH
	DD	00H
	DD	040H
	DD	FLAT:??_R3bad_array_new_length@std@@8
rdata$r	ENDS
;	COMDAT ??_R2bad_array_new_length@std@@8
rdata$r	SEGMENT
??_R2bad_array_new_length@std@@8 DD FLAT:??_R1A@?0A@EA@bad_array_new_length@std@@8 ; std::bad_array_new_length::`RTTI Base Class Array'
	DD	FLAT:??_R1A@?0A@EA@bad_alloc@std@@8
	DD	FLAT:??_R1A@?0A@EA@exception@std@@8
rdata$r	ENDS
;	COMDAT ??_R3bad_array_new_length@std@@8
rdata$r	SEGMENT
??_R3bad_array_new_length@std@@8 DD 00H			; std::bad_array_new_length::`RTTI Class Hierarchy Descriptor'
	DD	00H
	DD	03H
	DD	FLAT:??_R2bad_array_new_length@std@@8
rdata$r	ENDS
;	COMDAT ??_R4bad_array_new_length@std@@6B@
rdata$r	SEGMENT
??_R4bad_array_new_length@std@@6B@ DD 00H		; std::bad_array_new_length::`RTTI Complete Object Locator'
	DD	00H
	DD	00H
	DD	FLAT:??_R0?AVbad_array_new_length@std@@@8
	DD	FLAT:??_R3bad_array_new_length@std@@8
rdata$r	ENDS
;	COMDAT ??_R1A@?0A@EA@bad_alloc@std@@8
rdata$r	SEGMENT
??_R1A@?0A@EA@bad_alloc@std@@8 DD FLAT:??_R0?AVbad_alloc@std@@@8 ; std::bad_alloc::`RTTI Base Class Descriptor at (0,-1,0,64)'
	DD	01H
	DD	00H
	DD	0ffffffffH
	DD	00H
	DD	040H
	DD	FLAT:??_R3bad_alloc@std@@8
rdata$r	ENDS
;	COMDAT ??_R2bad_alloc@std@@8
rdata$r	SEGMENT
??_R2bad_alloc@std@@8 DD FLAT:??_R1A@?0A@EA@bad_alloc@std@@8 ; std::bad_alloc::`RTTI Base Class Array'
	DD	FLAT:??_R1A@?0A@EA@exception@std@@8
rdata$r	ENDS
;	COMDAT ??_R3bad_alloc@std@@8
rdata$r	SEGMENT
??_R3bad_alloc@std@@8 DD 00H				; std::bad_alloc::`RTTI Class Hierarchy Descriptor'
	DD	00H
	DD	02H
	DD	FLAT:??_R2bad_alloc@std@@8
rdata$r	ENDS
;	COMDAT ??_R4bad_alloc@std@@6B@
rdata$r	SEGMENT
??_R4bad_alloc@std@@6B@ DD 00H				; std::bad_alloc::`RTTI Complete Object Locator'
	DD	00H
	DD	00H
	DD	FLAT:??_R0?AVbad_alloc@std@@@8
	DD	FLAT:??_R3bad_alloc@std@@8
rdata$r	ENDS
;	COMDAT ??_R1A@?0A@EA@exception@std@@8
rdata$r	SEGMENT
??_R1A@?0A@EA@exception@std@@8 DD FLAT:??_R0?AVexception@std@@@8 ; std::exception::`RTTI Base Class Descriptor at (0,-1,0,64)'
	DD	00H
	DD	00H
	DD	0ffffffffH
	DD	00H
	DD	040H
	DD	FLAT:??_R3exception@std@@8
rdata$r	ENDS
;	COMDAT ??_R2exception@std@@8
rdata$r	SEGMENT
??_R2exception@std@@8 DD FLAT:??_R1A@?0A@EA@exception@std@@8 ; std::exception::`RTTI Base Class Array'
rdata$r	ENDS
;	COMDAT ??_R3exception@std@@8
rdata$r	SEGMENT
??_R3exception@std@@8 DD 00H				; std::exception::`RTTI Class Hierarchy Descriptor'
	DD	00H
	DD	01H
	DD	FLAT:??_R2exception@std@@8
rdata$r	ENDS
;	COMDAT ??_R4exception@std@@6B@
rdata$r	SEGMENT
??_R4exception@std@@6B@ DD 00H				; std::exception::`RTTI Complete Object Locator'
	DD	00H
	DD	00H
	DD	FLAT:??_R0?AVexception@std@@@8
	DD	FLAT:??_R3exception@std@@8
rdata$r	ENDS
;	COMDAT ??_C@_1BK@MHIKGOKE@?$AA?3?$AAA?$AAM?$AA?3?$AAa?$AAm?$AA?3?$AAP?$AAM?$AA?3?$AAp?$AAm@
CONST	SEGMENT
??_C@_1BK@MHIKGOKE@?$AA?3?$AAA?$AAM?$AA?3?$AAa?$AAm?$AA?3?$AAP?$AAM?$AA?3?$AAp?$AAm@ DB ':'
	DB	00H, 'A', 00H, 'M', 00H, ':', 00H, 'a', 00H, 'm', 00H, ':', 00H
	DB	'P', 00H, 'M', 00H, ':', 00H, 'p', 00H, 'm', 00H, 00H, 00H ; `string'
CONST	ENDS
;	COMDAT ??_C@_0N@LPFKKEBD@?3AM?3am?3PM?3pm@
CONST	SEGMENT
??_C@_0N@LPFKKEBD@?3AM?3am?3PM?3pm@ DB ':AM:am:PM:pm', 00H ; `string'
CONST	ENDS
;	COMDAT ??_SSprite@sf@@6BTransformable@1@@
CONST	SEGMENT
??_SSprite@sf@@6BTransformable@1@@ DD FLAT:??_R4Sprite@sf@@6BTransformable@1@@ ; sf::Sprite::`local vftable'
	DD	FLAT:??_ESprite@sf@@W3AEPAXI@Z
CONST	ENDS
;	COMDAT ??_SSprite@sf@@6BDrawable@1@@
CONST	SEGMENT
??_SSprite@sf@@6BDrawable@1@@ DD FLAT:??_R4Sprite@sf@@6BDrawable@1@@ ; sf::Sprite::`local vftable'
	DD	FLAT:??_ESprite@sf@@UAEPAXI@Z
	DD	FLAT:?draw@Sprite@sf@@EBEXAAVRenderTarget@2@VRenderStates@2@@Z
CONST	ENDS
;	COMDAT ??_C@_0GI@OGMNKBMN@C?3?2Program?5Files?5?$CIx86?$CJ?2Microsof@
CONST	SEGMENT
??_C@_0GI@OGMNKBMN@C?3?2Program?5Files?5?$CIx86?$CJ?2Microsof@ DB 'C:\Pro'
	DB	'gram Files (x86)\Microsoft Visual Studio\2019\Community\VC\To'
	DB	'ols\MSVC\14.29.30133\include\xlocnum', 00H	; `string'
CONST	ENDS
;	COMDAT ??_C@_0GI@GFIAKDGM@C?3?2Program?5Files?5?$CIx86?$CJ?2Microsof@
CONST	SEGMENT
??_C@_0GI@GFIAKDGM@C?3?2Program?5Files?5?$CIx86?$CJ?2Microsof@ DB 'C:\Pro'
	DB	'gram Files (x86)\Microsoft Visual Studio\2019\Community\VC\To'
	DB	'ols\MSVC\14.29.30133\include\xlocale', 00H	; `string'
CONST	ENDS
;	COMDAT ??_C@_0BA@JFNIOLAK@string?5too?5long@
CONST	SEGMENT
??_C@_0BA@JFNIOLAK@string?5too?5long@ DB 'string too long', 00H ; `string'
CONST	ENDS
;	COMDAT ??_C@_1CG@JNLFBNGN@?$AA?$CC?$AAi?$AAn?$AAv?$AAa?$AAl?$AAi?$AAd?$AA?5?$AAa?$AAr?$AAg?$AAu?$AAm?$AAe@
CONST	SEGMENT
??_C@_1CG@JNLFBNGN@?$AA?$CC?$AAi?$AAn?$AAv?$AAa?$AAl?$AAi?$AAd?$AA?5?$AAa?$AAr?$AAg?$AAu?$AAm?$AAe@ DB '"'
	DB	00H, 'i', 00H, 'n', 00H, 'v', 00H, 'a', 00H, 'l', 00H, 'i', 00H
	DB	'd', 00H, ' ', 00H, 'a', 00H, 'r', 00H, 'g', 00H, 'u', 00H, 'm'
	DB	00H, 'e', 00H, 'n', 00H, 't', 00H, '"', 00H, 00H, 00H ; `string'
CONST	ENDS
;	COMDAT ??_C@_1EK@NIFDJFDG@?$AAs?$AAt?$AAd?$AA?3?$AA?3?$AA_?$AAA?$AAd?$AAj?$AAu?$AAs?$AAt?$AA_?$AAm?$AAa@
CONST	SEGMENT
??_C@_1EK@NIFDJFDG@?$AAs?$AAt?$AAd?$AA?3?$AA?3?$AA_?$AAA?$AAd?$AAj?$AAu?$AAs?$AAt?$AA_?$AAm?$AAa@ DB 's'
	DB	00H, 't', 00H, 'd', 00H, ':', 00H, ':', 00H, '_', 00H, 'A', 00H
	DB	'd', 00H, 'j', 00H, 'u', 00H, 's', 00H, 't', 00H, '_', 00H, 'm'
	DB	00H, 'a', 00H, 'n', 00H, 'u', 00H, 'a', 00H, 'l', 00H, 'l', 00H
	DB	'y', 00H, '_', 00H, 'v', 00H, 'e', 00H, 'c', 00H, 't', 00H, 'o'
	DB	00H, 'r', 00H, '_', 00H, 'a', 00H, 'l', 00H, 'i', 00H, 'g', 00H
	DB	'n', 00H, 'e', 00H, 'd', 00H, 00H, 00H	; `string'
CONST	ENDS
;	COMDAT ??_C@_1NA@MJBOBEJL@?$AAC?$AA?3?$AA?2?$AAP?$AAr?$AAo?$AAg?$AAr?$AAa?$AAm?$AA?5?$AAF?$AAi?$AAl?$AAe@
CONST	SEGMENT
??_C@_1NA@MJBOBEJL@?$AAC?$AA?3?$AA?2?$AAP?$AAr?$AAo?$AAg?$AAr?$AAa?$AAm?$AA?5?$AAF?$AAi?$AAl?$AAe@ DB 'C'
	DB	00H, ':', 00H, '\', 00H, 'P', 00H, 'r', 00H, 'o', 00H, 'g', 00H
	DB	'r', 00H, 'a', 00H, 'm', 00H, ' ', 00H, 'F', 00H, 'i', 00H, 'l'
	DB	00H, 'e', 00H, 's', 00H, ' ', 00H, '(', 00H, 'x', 00H, '8', 00H
	DB	'6', 00H, ')', 00H, '\', 00H, 'M', 00H, 'i', 00H, 'c', 00H, 'r'
	DB	00H, 'o', 00H, 's', 00H, 'o', 00H, 'f', 00H, 't', 00H, ' ', 00H
	DB	'V', 00H, 'i', 00H, 's', 00H, 'u', 00H, 'a', 00H, 'l', 00H, ' '
	DB	00H, 'S', 00H, 't', 00H, 'u', 00H, 'd', 00H, 'i', 00H, 'o', 00H
	DB	'\', 00H, '2', 00H, '0', 00H, '1', 00H, '9', 00H, '\', 00H, 'C'
	DB	00H, 'o', 00H, 'm', 00H, 'm', 00H, 'u', 00H, 'n', 00H, 'i', 00H
	DB	't', 00H, 'y', 00H, '\', 00H, 'V', 00H, 'C', 00H, '\', 00H, 'T'
	DB	00H, 'o', 00H, 'o', 00H, 'l', 00H, 's', 00H, '\', 00H, 'M', 00H
	DB	'S', 00H, 'V', 00H, 'C', 00H, '\', 00H, '1', 00H, '4', 00H, '.'
	DB	00H, '2', 00H, '9', 00H, '.', 00H, '3', 00H, '0', 00H, '1', 00H
	DB	'3', 00H, '3', 00H, '\', 00H, 'i', 00H, 'n', 00H, 'c', 00H, 'l'
	DB	00H, 'u', 00H, 'd', 00H, 'e', 00H, '\', 00H, 'x', 00H, 'm', 00H
	DB	'e', 00H, 'm', 00H, 'o', 00H, 'r', 00H, 'y', 00H, 00H, 00H ; `string'
CONST	ENDS
;	COMDAT ??_C@_0GI@MNEMJBML@C?3?2Program?5Files?5?$CIx86?$CJ?2Microsof@
CONST	SEGMENT
??_C@_0GI@MNEMJBML@C?3?2Program?5Files?5?$CIx86?$CJ?2Microsof@ DB 'C:\Pro'
	DB	'gram Files (x86)\Microsoft Visual Studio\2019\Community\VC\To'
	DB	'ols\MSVC\14.29.30133\include\xmemory', 00H	; `string'
CONST	ENDS
;	COMDAT ??_C@_02DKCKIIND@?$CFs@
CONST	SEGMENT
??_C@_02DKCKIIND@?$CFs@ DB '%s', 00H			; `string'
CONST	ENDS
;	COMDAT ??_C@_0BB@FCMFBGOM@invalid?5argument@
CONST	SEGMENT
??_C@_0BB@FCMFBGOM@invalid?5argument@ DB 'invalid argument', 00H ; `string'
CONST	ENDS
;	COMDAT __CT??_R0?AVexception@std@@@8??0exception@std@@QAE@ABV01@@Z12
xdata$x	SEGMENT
__CT??_R0?AVexception@std@@@8??0exception@std@@QAE@ABV01@@Z12 DD 00H
	DD	FLAT:??_R0?AVexception@std@@@8
	DD	00H
	DD	0ffffffffH
	ORG $+4
	DD	0cH
	DD	FLAT:??0exception@std@@QAE@ABV01@@Z
xdata$x	ENDS
;	COMDAT ??_R0?AVexception@std@@@8
data$r	SEGMENT
??_R0?AVexception@std@@@8 DD FLAT:??_7type_info@@6B@	; std::exception `RTTI Type Descriptor'
	DD	00H
	DB	'.?AVexception@std@@', 00H
data$r	ENDS
;	COMDAT __CT??_R0?AVbad_alloc@std@@@8??0bad_alloc@std@@QAE@ABV01@@Z12
xdata$x	SEGMENT
__CT??_R0?AVbad_alloc@std@@@8??0bad_alloc@std@@QAE@ABV01@@Z12 DD 010H
	DD	FLAT:??_R0?AVbad_alloc@std@@@8
	DD	00H
	DD	0ffffffffH
	ORG $+4
	DD	0cH
	DD	FLAT:??0bad_alloc@std@@QAE@ABV01@@Z
xdata$x	ENDS
;	COMDAT ??_R0?AVbad_alloc@std@@@8
data$r	SEGMENT
??_R0?AVbad_alloc@std@@@8 DD FLAT:??_7type_info@@6B@	; std::bad_alloc `RTTI Type Descriptor'
	DD	00H
	DB	'.?AVbad_alloc@std@@', 00H
data$r	ENDS
;	COMDAT __CT??_R0?AVbad_array_new_length@std@@@8??0bad_array_new_length@std@@QAE@ABV01@@Z12
xdata$x	SEGMENT
__CT??_R0?AVbad_array_new_length@std@@@8??0bad_array_new_length@std@@QAE@ABV01@@Z12 DD 00H
	DD	FLAT:??_R0?AVbad_array_new_length@std@@@8
	DD	00H
	DD	0ffffffffH
	ORG $+4
	DD	0cH
	DD	FLAT:??0bad_array_new_length@std@@QAE@ABV01@@Z
xdata$x	ENDS
;	COMDAT ??_R0?AVbad_array_new_length@std@@@8
data$r	SEGMENT
??_R0?AVbad_array_new_length@std@@@8 DD FLAT:??_7type_info@@6B@ ; std::bad_array_new_length `RTTI Type Descriptor'
	DD	00H
	DB	'.?AVbad_array_new_length@std@@', 00H
data$r	ENDS
;	COMDAT __CTA3?AVbad_array_new_length@std@@
xdata$x	SEGMENT
__CTA3?AVbad_array_new_length@std@@ DD 03H
	DD	FLAT:__CT??_R0?AVbad_array_new_length@std@@@8??0bad_array_new_length@std@@QAE@ABV01@@Z12
	DD	FLAT:__CT??_R0?AVbad_alloc@std@@@8??0bad_alloc@std@@QAE@ABV01@@Z12
	DD	FLAT:__CT??_R0?AVexception@std@@@8??0exception@std@@QAE@ABV01@@Z12
xdata$x	ENDS
;	COMDAT __TI3?AVbad_array_new_length@std@@
xdata$x	SEGMENT
__TI3?AVbad_array_new_length@std@@ DD 00H
	DD	FLAT:??1bad_array_new_length@std@@UAE@XZ
	DD	00H
	DD	FLAT:__CTA3?AVbad_array_new_length@std@@
xdata$x	ENDS
;	COMDAT ??_C@_0BF@KINCDENJ@bad?5array?5new?5length@
CONST	SEGMENT
??_C@_0BF@KINCDENJ@bad?5array?5new?5length@ DB 'bad array new length', 00H ; `string'
CONST	ENDS
;	COMDAT ??_7bad_array_new_length@std@@6B@
CONST	SEGMENT
??_7bad_array_new_length@std@@6B@ DD FLAT:??_R4bad_array_new_length@std@@6B@ ; std::bad_array_new_length::`vftable'
	DD	FLAT:??_Ebad_array_new_length@std@@UAEPAXI@Z
	DD	FLAT:?what@exception@std@@UBEPBDXZ
CONST	ENDS
;	COMDAT ??_7bad_alloc@std@@6B@
CONST	SEGMENT
??_7bad_alloc@std@@6B@ DD FLAT:??_R4bad_alloc@std@@6B@	; std::bad_alloc::`vftable'
	DD	FLAT:??_Ebad_alloc@std@@UAEPAXI@Z
	DD	FLAT:?what@exception@std@@UBEPBDXZ
CONST	ENDS
;	COMDAT ??_C@_0BC@EOODALEL@Unknown?5exception@
CONST	SEGMENT
??_C@_0BC@EOODALEL@Unknown?5exception@ DB 'Unknown exception', 00H ; `string'
CONST	ENDS
;	COMDAT ??_7exception@std@@6B@
CONST	SEGMENT
??_7exception@std@@6B@ DD FLAT:??_R4exception@std@@6B@	; std::exception::`vftable'
	DD	FLAT:??_Eexception@std@@UAEPAXI@Z
	DD	FLAT:?what@exception@std@@UBEPBDXZ
CONST	ENDS
;	COMDAT voltbl
voltbl	SEGMENT
_volmd	DB	09H
voltbl	ENDS
;	COMDAT xdata$x
xdata$x	SEGMENT
__ehfuncinfo$??$_Deallocate_plain@V?$allocator@U_Container_proxy@std@@@std@@@std@@YAXAAV?$allocator@U_Container_proxy@std@@@0@QAU_Container_proxy@0@@Z DD 019930522H
	DD	00H
	DD	00H
	DD	2 DUP(00H)
	DD	2 DUP(00H)
	DD	00H
	DD	05H
xdata$x	ENDS
;	COMDAT voltbl
voltbl	SEGMENT
_volmd	DB	09H
voltbl	ENDS
;	COMDAT xdata$x
xdata$x	SEGMENT
__ehfuncinfo$??$_Deallocate@$07$0A@@std@@YAXPAXI@Z DD 019930522H
	DD	00H
	DD	00H
	DD	2 DUP(00H)
	DD	2 DUP(00H)
	DD	00H
	DD	05H
xdata$x	ENDS
;	COMDAT voltbl
voltbl	SEGMENT
_volmd	DW	02aH
	DW	0139H
voltbl	ENDS
voltbl	SEGMENT
_volmd	DD	0ffffffffH
	DDSymXIndex: 	FLAT:__unwindfunclet$??0Block@@QAE@HHV?$Rect@H@sf@@ABVImage@2@@Z$0
	DD	03aH
_volmd	DD	0ffffffffH
	DDSymXIndex: 	FLAT:?collide@Block@@QAE_NV?$Rect@H@sf@@@Z
	DD	02aH
	DD	066H
voltbl	ENDS
xdata$x	SEGMENT
__unwindtable$??0Block@@QAE@HHV?$Rect@H@sf@@ABVImage@2@@Z DD 0ffffffffH
	DD	FLAT:__unwindfunclet$??0Block@@QAE@HHV?$Rect@H@sf@@ABVImage@2@@Z$0
	DD	00H
	DD	FLAT:__unwindfunclet$??0Block@@QAE@HHV?$Rect@H@sf@@ABVImage@2@@Z$1
	DD	00H
	DD	FLAT:__unwindfunclet$??0Block@@QAE@HHV?$Rect@H@sf@@ABVImage@2@@Z$2
__ehfuncinfo$??0Block@@QAE@HHV?$Rect@H@sf@@ABVImage@2@@Z DD 019930522H
	DD	03H
	DD	FLAT:__unwindtable$??0Block@@QAE@HHV?$Rect@H@sf@@ABVImage@2@@Z
	DD	2 DUP(00H)
	DD	2 DUP(00H)
	DD	00H
	DD	01H
xdata$x	ENDS
;	COMDAT voltbl
voltbl	SEGMENT
_volmd	DW	025H
	DW	0265H
voltbl	ENDS
;	COMDAT voltbl
voltbl	SEGMENT
_volmd	DW	01eH
	DW	0160H
voltbl	ENDS
;	COMDAT voltbl
voltbl	SEGMENT
_volmd	DB	09H
voltbl	ENDS
;	COMDAT xdata$x
xdata$x	SEGMENT
__ehfuncinfo$?_Tidy_deallocate@?$basic_string@DU?$char_traits@D@std@@V?$allocator@D@2@@std@@AAEXXZ DD 019930522H
	DD	00H
	DD	00H
	DD	2 DUP(00H)
	DD	2 DUP(00H)
	DD	00H
	DD	05H
xdata$x	ENDS
;	COMDAT voltbl
voltbl	SEGMENT
_volmd	DB	09H
voltbl	ENDS
;	COMDAT xdata$x
xdata$x	SEGMENT
__ehfuncinfo$?_Tidy_init@?$basic_string@DU?$char_traits@D@std@@V?$allocator@D@2@@std@@AAEXXZ DD 019930522H
	DD	00H
	DD	00H
	DD	2 DUP(00H)
	DD	2 DUP(00H)
	DD	00H
	DD	05H
xdata$x	ENDS
;	COMDAT voltbl
voltbl	SEGMENT
_volmd	DB	021H
	DB	086H
voltbl	ENDS
;	COMDAT voltbl
voltbl	SEGMENT
_volmd	DB	02dH
	DB	0a1H
voltbl	ENDS
;	COMDAT voltbl
voltbl	SEGMENT
_volmd	DB	027H
	DB	090H
voltbl	ENDS
;	COMDAT voltbl
voltbl	SEGMENT
_volmd	DB	01eH
	DB	028H
voltbl	ENDS
;	COMDAT voltbl
voltbl	SEGMENT
_volmd	DB	02dH
	DB	0dbH
voltbl	ENDS
;	COMDAT xdata$x
xdata$x	SEGMENT
__unwindtable$??0?$basic_string@DU?$char_traits@D@std@@V?$allocator@D@2@@std@@QAE@QBD@Z DD 0ffffffffH
	DD	FLAT:__unwindfunclet$??0?$basic_string@DU?$char_traits@D@std@@V?$allocator@D@2@@std@@QAE@QBD@Z$0
	DD	00H
	DD	FLAT:__unwindfunclet$??0?$basic_string@DU?$char_traits@D@std@@V?$allocator@D@2@@std@@QAE@QBD@Z$1
__ehfuncinfo$??0?$basic_string@DU?$char_traits@D@std@@V?$allocator@D@2@@std@@QAE@QBD@Z DD 019930522H
	DD	02H
	DD	FLAT:__unwindtable$??0?$basic_string@DU?$char_traits@D@std@@V?$allocator@D@2@@std@@QAE@QBD@Z
	DD	2 DUP(00H)
	DD	2 DUP(00H)
	DD	00H
	DD	01H
xdata$x	ENDS
;	COMDAT voltbl
voltbl	SEGMENT
_volmd	DB	022H
	DB	072H
voltbl	ENDS
; Function compile flags: /Odt
;	COMDAT __JustMyCode_Default
_TEXT	SEGMENT
__JustMyCode_Default PROC				; COMDAT
  00000	55		 push	 ebp
  00001	8b ec		 mov	 ebp, esp
  00003	5d		 pop	 ebp
  00004	c3		 ret	 0
__JustMyCode_Default ENDP
_TEXT	ENDS
; Function compile flags: /Odsp /RTCsu
;	COMDAT ??_ESprite@sf@@W3AEPAXI@Z
_TEXT	SEGMENT
??_ESprite@sf@@W3AEPAXI@Z PROC				; [thunk]:sf::Sprite::`vector deleting destructor', COMDAT
  00000	83 e9 04	 sub	 ecx, 4
  00003	e9 00 00 00 00	 jmp	 ??_ESprite@sf@@UAEPAXI@Z
??_ESprite@sf@@W3AEPAXI@Z ENDP				; [thunk]:sf::Sprite::`vector deleting destructor'
_TEXT	ENDS
; Function compile flags: /Odtp /RTCsu
; File C:\Program Files (x86)\Microsoft Visual Studio\2019\Community\VC\Tools\MSVC\14.29.30133\include\xmemory
;	COMDAT ?deallocate@?$_Default_allocator_traits@V?$allocator@U_Container_proxy@std@@@std@@@std@@SAXAAV?$allocator@U_Container_proxy@std@@@2@QAU_Container_proxy@2@I@Z
_TEXT	SEGMENT
__Al$ = 8						; size = 4
__Ptr$ = 12						; size = 4
__Count$ = 16						; size = 4
?deallocate@?$_Default_allocator_traits@V?$allocator@U_Container_proxy@std@@@std@@@std@@SAXAAV?$allocator@U_Container_proxy@std@@@2@QAU_Container_proxy@2@I@Z PROC ; std::_Default_allocator_traits<std::allocator<std::_Container_proxy> >::deallocate, COMDAT

; 693  :     static _CONSTEXPR20_DYNALLOC void deallocate(_Alloc& _Al, const pointer _Ptr, const size_type _Count) {

  00000	55		 push	 ebp
  00001	8b ec		 mov	 ebp, esp
  00003	b9 00 00 00 00	 mov	 ecx, OFFSET __79D216CD_xmemory
  00008	e8 00 00 00 00	 call	 @__CheckForDebuggerJustMyCode@4

; 694  :         // no overflow check on the following multiply; we assume _Allocate did that check
; 695  : #ifdef __cpp_lib_constexpr_dynamic_alloc // TRANSITION, GH-1532
; 696  :         if (_STD is_constant_evaluated()) {

  0000d	e8 00 00 00 00	 call	 ?is_constant_evaluated@std@@YA_NXZ ; std::is_constant_evaluated
  00012	0f b6 c0	 movzx	 eax, al
  00015	85 c0		 test	 eax, eax
  00017	74 12		 je	 SHORT $LN2@deallocate

; 697  :             _Al.deallocate(_Ptr, _Count);

  00019	8b 4d 10	 mov	 ecx, DWORD PTR __Count$[ebp]
  0001c	51		 push	 ecx
  0001d	8b 55 0c	 mov	 edx, DWORD PTR __Ptr$[ebp]
  00020	52		 push	 edx
  00021	8b 4d 08	 mov	 ecx, DWORD PTR __Al$[ebp]
  00024	e8 00 00 00 00	 call	 ?deallocate@?$allocator@U_Container_proxy@std@@@std@@QAEXQAU_Container_proxy@2@I@Z ; std::allocator<std::_Container_proxy>::deallocate

; 698  :         } else

  00029	eb 13		 jmp	 SHORT $LN1@deallocate
$LN2@deallocate:

; 699  : #endif // __cpp_lib_constexpr_dynamic_alloc
; 700  :         {
; 701  :             (void) _Al;
; 702  :             _Deallocate<_New_alignof<value_type>>(_Ptr, sizeof(value_type) * _Count);

  0002b	8b 45 10	 mov	 eax, DWORD PTR __Count$[ebp]
  0002e	c1 e0 03	 shl	 eax, 3
  00031	50		 push	 eax
  00032	8b 4d 0c	 mov	 ecx, DWORD PTR __Ptr$[ebp]
  00035	51		 push	 ecx
  00036	e8 00 00 00 00	 call	 ??$_Deallocate@$07$0A@@std@@YAXPAXI@Z ; std::_Deallocate<8,0>
  0003b	83 c4 08	 add	 esp, 8
$LN1@deallocate:

; 703  :         }
; 704  :     }

  0003e	3b ec		 cmp	 ebp, esp
  00040	e8 00 00 00 00	 call	 __RTC_CheckEsp
  00045	5d		 pop	 ebp
  00046	c3		 ret	 0
?deallocate@?$_Default_allocator_traits@V?$allocator@U_Container_proxy@std@@@std@@@std@@SAXAAV?$allocator@U_Container_proxy@std@@@2@QAU_Container_proxy@2@I@Z ENDP ; std::_Default_allocator_traits<std::allocator<std::_Container_proxy> >::deallocate
_TEXT	ENDS
; Function compile flags: /Odtp /RTCsu
; File C:\Program Files (x86)\Microsoft Visual Studio\2019\Community\VC\Tools\MSVC\14.29.30133\include\xmemory
;	COMDAT ??$_Allocate_manually_vector_aligned@U_Default_allocate_traits@std@@@std@@YAPAXI@Z
_TEXT	SEGMENT
__Ptr$ = -12						; size = 4
__Ptr_container$ = -8					; size = 4
__Block_size$ = -4					; size = 4
__Bytes$ = 8						; size = 4
??$_Allocate_manually_vector_aligned@U_Default_allocate_traits@std@@@std@@YAPAXI@Z PROC ; std::_Allocate_manually_vector_aligned<std::_Default_allocate_traits>, COMDAT

; 134  : __declspec(allocator) void* _Allocate_manually_vector_aligned(const size_t _Bytes) {

  00000	55		 push	 ebp
  00001	8b ec		 mov	 ebp, esp
  00003	83 ec 0c	 sub	 esp, 12			; 0000000cH
  00006	56		 push	 esi
  00007	c7 45 f4 cc cc
	cc cc		 mov	 DWORD PTR [ebp-12], -858993460 ; ccccccccH
  0000e	c7 45 f8 cc cc
	cc cc		 mov	 DWORD PTR [ebp-8], -858993460 ; ccccccccH
  00015	c7 45 fc cc cc
	cc cc		 mov	 DWORD PTR [ebp-4], -858993460 ; ccccccccH
  0001c	b9 00 00 00 00	 mov	 ecx, OFFSET __79D216CD_xmemory
  00021	e8 00 00 00 00	 call	 @__CheckForDebuggerJustMyCode@4

; 135  :     // allocate _Bytes manually aligned to at least _Big_allocation_alignment
; 136  :     const size_t _Block_size = _Non_user_size + _Bytes;

  00026	8b 45 08	 mov	 eax, DWORD PTR __Bytes$[ebp]
  00029	83 c0 27	 add	 eax, 39			; 00000027H
  0002c	89 45 fc	 mov	 DWORD PTR __Block_size$[ebp], eax

; 137  :     if (_Block_size <= _Bytes) {

  0002f	8b 4d fc	 mov	 ecx, DWORD PTR __Block_size$[ebp]
  00032	3b 4d 08	 cmp	 ecx, DWORD PTR __Bytes$[ebp]
  00035	77 05		 ja	 SHORT $LN8@Allocate_m

; 138  :         _Throw_bad_array_new_length(); // add overflow

  00037	e8 00 00 00 00	 call	 ?_Throw_bad_array_new_length@std@@YAXXZ ; std::_Throw_bad_array_new_length
$LN8@Allocate_m:

; 139  :     }
; 140  : 
; 141  :     const uintptr_t _Ptr_container = reinterpret_cast<uintptr_t>(_Traits::_Allocate(_Block_size));

  0003c	8b 55 fc	 mov	 edx, DWORD PTR __Block_size$[ebp]
  0003f	52		 push	 edx
  00040	e8 00 00 00 00	 call	 ?_Allocate@_Default_allocate_traits@std@@SAPAXI@Z ; std::_Default_allocate_traits::_Allocate
  00045	83 c4 04	 add	 esp, 4
  00048	89 45 f8	 mov	 DWORD PTR __Ptr_container$[ebp], eax
$LN4@Allocate_m:

; 142  :     _STL_VERIFY(_Ptr_container != 0, "invalid argument"); // validate even in release since we're doing p[-1]

  0004b	83 7d f8 00	 cmp	 DWORD PTR __Ptr_container$[ebp], 0
  0004f	74 02		 je	 SHORT $LN7@Allocate_m
  00051	eb 5c		 jmp	 SHORT $LN2@Allocate_m
$LN7@Allocate_m:
  00053	8b f4		 mov	 esi, esp
  00055	68 00 00 00 00	 push	 OFFSET $SG88287
  0005a	68 00 00 00 00	 push	 OFFSET $SG88288
  0005f	6a 00		 push	 0
  00061	68 8e 00 00 00	 push	 142			; 0000008eH
  00066	68 00 00 00 00	 push	 OFFSET $SG88289
  0006b	6a 02		 push	 2
  0006d	ff 15 00 00 00
	00		 call	 DWORD PTR __imp___CrtDbgReport
  00073	83 c4 18	 add	 esp, 24			; 00000018H
  00076	3b f4		 cmp	 esi, esp
  00078	e8 00 00 00 00	 call	 __RTC_CheckEsp
  0007d	83 f8 01	 cmp	 eax, 1
  00080	75 01		 jne	 SHORT $LN12@Allocate_m
  00082	cc		 int	 3
$LN12@Allocate_m:
  00083	8b f4		 mov	 esi, esp
  00085	6a 00		 push	 0
  00087	68 8e 00 00 00	 push	 142			; 0000008eH
  0008c	68 00 00 00 00	 push	 OFFSET $SG88290
  00091	68 00 00 00 00	 push	 OFFSET $SG88291
  00096	68 00 00 00 00	 push	 OFFSET $SG88292
  0009b	ff 15 00 00 00
	00		 call	 DWORD PTR __imp___invalid_parameter
  000a1	83 c4 14	 add	 esp, 20			; 00000014H
  000a4	3b f4		 cmp	 esi, esp
  000a6	e8 00 00 00 00	 call	 __RTC_CheckEsp
  000ab	33 c9		 xor	 ecx, ecx
  000ad	75 a4		 jne	 SHORT $LN7@Allocate_m
$LN2@Allocate_m:
  000af	33 d2		 xor	 edx, edx
  000b1	75 98		 jne	 SHORT $LN4@Allocate_m

; 143  :     void* const _Ptr = reinterpret_cast<void*>((_Ptr_container + _Non_user_size) & ~(_Big_allocation_alignment - 1));

  000b3	8b 45 f8	 mov	 eax, DWORD PTR __Ptr_container$[ebp]
  000b6	83 c0 27	 add	 eax, 39			; 00000027H
  000b9	83 e0 e0	 and	 eax, -32		; ffffffe0H
  000bc	89 45 f4	 mov	 DWORD PTR __Ptr$[ebp], eax

; 144  :     static_cast<uintptr_t*>(_Ptr)[-1] = _Ptr_container;

  000bf	b9 04 00 00 00	 mov	 ecx, 4
  000c4	6b d1 ff	 imul	 edx, ecx, -1
  000c7	8b 45 f4	 mov	 eax, DWORD PTR __Ptr$[ebp]
  000ca	8b 4d f8	 mov	 ecx, DWORD PTR __Ptr_container$[ebp]
  000cd	89 0c 10	 mov	 DWORD PTR [eax+edx], ecx

; 145  : 
; 146  : #ifdef _DEBUG
; 147  :     static_cast<uintptr_t*>(_Ptr)[-2] = _Big_allocation_sentinel;

  000d0	ba 04 00 00 00	 mov	 edx, 4
  000d5	6b c2 fe	 imul	 eax, edx, -2
  000d8	8b 4d f4	 mov	 ecx, DWORD PTR __Ptr$[ebp]
  000db	c7 04 01 fa fa
	fa fa		 mov	 DWORD PTR [ecx+eax], -84215046 ; fafafafaH

; 148  : #endif // _DEBUG
; 149  :     return _Ptr;

  000e2	8b 45 f4	 mov	 eax, DWORD PTR __Ptr$[ebp]
$LN11@Allocate_m:

; 150  : }

  000e5	5e		 pop	 esi
  000e6	83 c4 0c	 add	 esp, 12			; 0000000cH
  000e9	3b ec		 cmp	 ebp, esp
  000eb	e8 00 00 00 00	 call	 __RTC_CheckEsp
  000f0	8b e5		 mov	 esp, ebp
  000f2	5d		 pop	 ebp
  000f3	c3		 ret	 0
??$_Allocate_manually_vector_aligned@U_Default_allocate_traits@std@@@std@@YAPAXI@Z ENDP ; std::_Allocate_manually_vector_aligned<std::_Default_allocate_traits>
_TEXT	ENDS
; Function compile flags: /Odtp /RTCsu
; File C:\Program Files (x86)\Microsoft Visual Studio\2019\Community\VC\Tools\MSVC\14.29.30133\include\xutility
;	COMDAT ??$_Voidify_iter@PAPAD@std@@YAPAXPAPAD@Z
_TEXT	SEGMENT
__It$ = 8						; size = 4
??$_Voidify_iter@PAPAD@std@@YAPAXPAPAD@Z PROC		; std::_Voidify_iter<char * *>, COMDAT

; 130  : _NODISCARD constexpr void* _Voidify_iter(_Iter _It) noexcept {

  00000	55		 push	 ebp
  00001	8b ec		 mov	 ebp, esp
  00003	b9 00 00 00 00	 mov	 ecx, OFFSET __12269DE6_xutility
  00008	e8 00 00 00 00	 call	 @__CheckForDebuggerJustMyCode@4

; 131  :     if constexpr (is_pointer_v<_Iter>) {
; 132  :         return const_cast<void*>(static_cast<const volatile void*>(_It));

  0000d	8b 45 08	 mov	 eax, DWORD PTR __It$[ebp]

; 133  :     } else {
; 134  :         return const_cast<void*>(static_cast<const volatile void*>(_STD addressof(*_It)));
; 135  :     }
; 136  : }

  00010	3b ec		 cmp	 ebp, esp
  00012	e8 00 00 00 00	 call	 __RTC_CheckEsp
  00017	5d		 pop	 ebp
  00018	c3		 ret	 0
??$_Voidify_iter@PAPAD@std@@YAPAXPAPAD@Z ENDP		; std::_Voidify_iter<char * *>
_TEXT	ENDS
; Function compile flags: /Odtp /RTCsu
; File C:\Program Files (x86)\Microsoft Visual Studio\2019\Community\VC\Tools\MSVC\14.29.30133\include\xutility
;	COMDAT ??$construct_at@PADABQADX@std@@YAPAPADQAPADABQAD@Z
_TEXT	SEGMENT
$T1 = -4						; size = 4
__Location$ = 8						; size = 4
_<_Args_0>$ = 12					; size = 4
??$construct_at@PADABQADX@std@@YAPAPADQAPADABQAD@Z PROC	; std::construct_at<char *,char * const &,void>, COMDAT

; 143  :     noexcept(::new (_Voidify_iter(_Location)) _Ty(_STD forward<_Types>(_Args)...))) /* strengthened */ {

  00000	55		 push	 ebp
  00001	8b ec		 mov	 ebp, esp
  00003	51		 push	 ecx
  00004	c7 45 fc cc cc
	cc cc		 mov	 DWORD PTR [ebp-4], -858993460 ; ccccccccH
  0000b	b9 00 00 00 00	 mov	 ecx, OFFSET __12269DE6_xutility
  00010	e8 00 00 00 00	 call	 @__CheckForDebuggerJustMyCode@4

; 144  :     return ::new (_Voidify_iter(_Location)) _Ty(_STD forward<_Types>(_Args)...);

  00015	8b 45 08	 mov	 eax, DWORD PTR __Location$[ebp]
  00018	50		 push	 eax
  00019	e8 00 00 00 00	 call	 ??$_Voidify_iter@PAPAD@std@@YAPAXPAPAD@Z ; std::_Voidify_iter<char * *>
  0001e	83 c4 04	 add	 esp, 4
  00021	50		 push	 eax
  00022	6a 04		 push	 4
  00024	e8 00 00 00 00	 call	 ??2@YAPAXIPAX@Z		; operator new
  00029	83 c4 08	 add	 esp, 8
  0002c	89 45 fc	 mov	 DWORD PTR $T1[ebp], eax
  0002f	8b 4d 0c	 mov	 ecx, DWORD PTR _<_Args_0>$[ebp]
  00032	51		 push	 ecx
  00033	e8 00 00 00 00	 call	 ??$forward@ABQAD@std@@YAABQADABQAD@Z ; std::forward<char * const &>
  00038	83 c4 04	 add	 esp, 4
  0003b	8b 55 fc	 mov	 edx, DWORD PTR $T1[ebp]
  0003e	8b 00		 mov	 eax, DWORD PTR [eax]
  00040	89 02		 mov	 DWORD PTR [edx], eax
  00042	8b 45 fc	 mov	 eax, DWORD PTR $T1[ebp]

; 145  : }

  00045	83 c4 04	 add	 esp, 4
  00048	3b ec		 cmp	 ebp, esp
  0004a	e8 00 00 00 00	 call	 __RTC_CheckEsp
  0004f	8b e5		 mov	 esp, ebp
  00051	5d		 pop	 ebp
  00052	c3		 ret	 0
??$construct_at@PADABQADX@std@@YAPAPADQAPADABQAD@Z ENDP	; std::construct_at<char *,char * const &,void>
_TEXT	ENDS
; Function compile flags: /Odtp /RTCsu
; File C:\Program Files (x86)\Microsoft Visual Studio\2019\Community\VC\Tools\MSVC\14.29.30133\include\type_traits
;	COMDAT ??$forward@ABQAD@std@@YAABQADABQAD@Z
_TEXT	SEGMENT
__Arg$ = 8						; size = 4
??$forward@ABQAD@std@@YAABQADABQAD@Z PROC		; std::forward<char * const &>, COMDAT

; 1443 :     remove_reference_t<_Ty>& _Arg) noexcept { // forward an lvalue as either an lvalue or an rvalue

  00000	55		 push	 ebp
  00001	8b ec		 mov	 ebp, esp
  00003	b9 00 00 00 00	 mov	 ecx, OFFSET __589FA321_type_traits
  00008	e8 00 00 00 00	 call	 @__CheckForDebuggerJustMyCode@4

; 1444 :     return static_cast<_Ty&&>(_Arg);

  0000d	8b 45 08	 mov	 eax, DWORD PTR __Arg$[ebp]

; 1445 : }

  00010	3b ec		 cmp	 ebp, esp
  00012	e8 00 00 00 00	 call	 __RTC_CheckEsp
  00017	5d		 pop	 ebp
  00018	c3		 ret	 0
??$forward@ABQAD@std@@YAABQADABQAD@Z ENDP		; std::forward<char * const &>
_TEXT	ENDS
; Function compile flags: /Odtp /RTCsu
; File C:\Program Files (x86)\Microsoft Visual Studio\2019\Community\VC\Tools\MSVC\14.29.30133\include\xstddef
;	COMDAT ??$addressof@PAD@std@@YAPAPADAAPAD@Z
_TEXT	SEGMENT
__Val$ = 8						; size = 4
??$addressof@PAD@std@@YAPAPADAAPAD@Z PROC		; std::addressof<char *>, COMDAT

; 274  : _NODISCARD constexpr _Ty* addressof(_Ty& _Val) noexcept {

  00000	55		 push	 ebp
  00001	8b ec		 mov	 ebp, esp
  00003	b9 00 00 00 00	 mov	 ecx, OFFSET __E458E21C_xstddef
  00008	e8 00 00 00 00	 call	 @__CheckForDebuggerJustMyCode@4

; 275  :     return __builtin_addressof(_Val);

  0000d	8b 45 08	 mov	 eax, DWORD PTR __Val$[ebp]

; 276  : }

  00010	3b ec		 cmp	 ebp, esp
  00012	e8 00 00 00 00	 call	 __RTC_CheckEsp
  00017	5d		 pop	 ebp
  00018	c3		 ret	 0
??$addressof@PAD@std@@YAPAPADAAPAD@Z ENDP		; std::addressof<char *>
_TEXT	ENDS
; Function compile flags: /Odtp /RTCsu
; File C:\Program Files (x86)\Microsoft Visual Studio\2019\Community\VC\Tools\MSVC\14.29.30133\include\xmemory
;	COMDAT ??$_Deallocate_plain@V?$allocator@U_Container_proxy@std@@@std@@@std@@YAXAAV?$allocator@U_Container_proxy@std@@@0@QAU_Container_proxy@0@@Z
_TEXT	SEGMENT
__$EHRec$ = -12						; size = 12
__Al$ = 8						; size = 4
__Ptr$ = 12						; size = 4
??$_Deallocate_plain@V?$allocator@U_Container_proxy@std@@@std@@@std@@YAXAAV?$allocator@U_Container_proxy@std@@@0@QAU_Container_proxy@0@@Z PROC ; std::_Deallocate_plain<std::allocator<std::_Container_proxy> >, COMDAT

; 985  : _CONSTEXPR20_DYNALLOC void _Deallocate_plain(_Alloc& _Al, typename _Alloc::value_type* const _Ptr) noexcept {

  00000	55		 push	 ebp
  00001	8b ec		 mov	 ebp, esp
  00003	6a ff		 push	 -1
  00005	68 00 00 00 00	 push	 __ehhandler$??$_Deallocate_plain@V?$allocator@U_Container_proxy@std@@@std@@@std@@YAXAAV?$allocator@U_Container_proxy@std@@@0@QAU_Container_proxy@0@@Z
  0000a	64 a1 00 00 00
	00		 mov	 eax, DWORD PTR fs:0
  00010	50		 push	 eax
  00011	a1 00 00 00 00	 mov	 eax, DWORD PTR ___security_cookie
  00016	33 c5		 xor	 eax, ebp
  00018	50		 push	 eax
  00019	8d 45 f4	 lea	 eax, DWORD PTR __$EHRec$[ebp]
  0001c	64 a3 00 00 00
	00		 mov	 DWORD PTR fs:0, eax
  00022	b9 00 00 00 00	 mov	 ecx, OFFSET __79D216CD_xmemory
  00027	e8 00 00 00 00	 call	 @__CheckForDebuggerJustMyCode@4

; 986  :     // deallocate a plain pointer using an allocator
; 987  :     using _Alloc_traits = allocator_traits<_Alloc>;
; 988  :     if constexpr (is_same_v<_Alloc_ptr_t<_Alloc>, typename _Alloc::value_type*>) {
; 989  :         _Alloc_traits::deallocate(_Al, _Ptr, 1);

  0002c	6a 01		 push	 1
  0002e	8b 45 0c	 mov	 eax, DWORD PTR __Ptr$[ebp]
  00031	50		 push	 eax
  00032	8b 4d 08	 mov	 ecx, DWORD PTR __Al$[ebp]
  00035	51		 push	 ecx
  00036	e8 00 00 00 00	 call	 ?deallocate@?$_Default_allocator_traits@V?$allocator@U_Container_proxy@std@@@std@@@std@@SAXAAV?$allocator@U_Container_proxy@std@@@2@QAU_Container_proxy@2@I@Z ; std::_Default_allocator_traits<std::allocator<std::_Container_proxy> >::deallocate
  0003b	83 c4 0c	 add	 esp, 12			; 0000000cH

; 990  :     } else {
; 991  :         using _Ptr_traits = pointer_traits<_Alloc_ptr_t<_Alloc>>;
; 992  :         _Alloc_traits::deallocate(_Al, _Ptr_traits::pointer_to(*_Ptr), 1);
; 993  :     }
; 994  : }

  0003e	8b 4d f4	 mov	 ecx, DWORD PTR __$EHRec$[ebp]
  00041	64 89 0d 00 00
	00 00		 mov	 DWORD PTR fs:0, ecx
  00048	59		 pop	 ecx
  00049	83 c4 0c	 add	 esp, 12			; 0000000cH
  0004c	3b ec		 cmp	 ebp, esp
  0004e	e8 00 00 00 00	 call	 __RTC_CheckEsp
  00053	8b e5		 mov	 esp, ebp
  00055	5d		 pop	 ebp
  00056	c3		 ret	 0
  00057	cc		 int	 3
  00058	cc		 int	 3
  00059	cc		 int	 3
  0005a	cc		 int	 3
  0005b	cc		 int	 3
_TEXT	ENDS
;	COMDAT text$x
text$x	SEGMENT
__ehhandler$??$_Deallocate_plain@V?$allocator@U_Container_proxy@std@@@std@@@std@@YAXAAV?$allocator@U_Container_proxy@std@@@0@QAU_Container_proxy@0@@Z:
  00000	90		 npad	 1
  00001	90		 npad	 1
  00002	8b 54 24 08	 mov	 edx, DWORD PTR [esp+8]
  00006	8d 42 0c	 lea	 eax, DWORD PTR [edx+12]
  00009	8b 4a fc	 mov	 ecx, DWORD PTR [edx-4]
  0000c	33 c8		 xor	 ecx, eax
  0000e	e8 00 00 00 00	 call	 @__security_check_cookie@4
  00013	b8 00 00 00 00	 mov	 eax, OFFSET __ehfuncinfo$??$_Deallocate_plain@V?$allocator@U_Container_proxy@std@@@std@@@std@@YAXAAV?$allocator@U_Container_proxy@std@@@0@QAU_Container_proxy@0@@Z
  00018	e9 00 00 00 00	 jmp	 ___CxxFrameHandler3
text$x	ENDS
??$_Deallocate_plain@V?$allocator@U_Container_proxy@std@@@std@@@std@@YAXAAV?$allocator@U_Container_proxy@std@@@0@QAU_Container_proxy@0@@Z ENDP ; std::_Deallocate_plain<std::allocator<std::_Container_proxy> >
; Function compile flags: /Odtp /RTCsu
; File C:\Program Files (x86)\Microsoft Visual Studio\2019\Community\VC\Tools\MSVC\14.29.30133\include\utility
;	COMDAT ??$max@H@std@@YAABHABH0@Z
_TEXT	SEGMENT
tv65 = -8						; size = 4
$T1 = -4						; size = 4
__Left$ = 8						; size = 4
__Right$ = 12						; size = 4
??$max@H@std@@YAABHABH0@Z PROC				; std::max<int>, COMDAT

; 42   :     const _Ty& _Left, const _Ty& _Right) noexcept(noexcept(_Left < _Right)) /* strengthened */ {

  00000	55		 push	 ebp
  00001	8b ec		 mov	 ebp, esp
  00003	83 ec 08	 sub	 esp, 8
  00006	c7 45 f8 cc cc
	cc cc		 mov	 DWORD PTR [ebp-8], -858993460 ; ccccccccH
  0000d	c7 45 fc cc cc
	cc cc		 mov	 DWORD PTR [ebp-4], -858993460 ; ccccccccH
  00014	b9 00 00 00 00	 mov	 ecx, OFFSET __1347750E_utility
  00019	e8 00 00 00 00	 call	 @__CheckForDebuggerJustMyCode@4

; 43   :     // return larger of _Left and _Right
; 44   :     return _Left < _Right ? _Right : _Left;

  0001e	8b 45 08	 mov	 eax, DWORD PTR __Left$[ebp]
  00021	8b 4d 0c	 mov	 ecx, DWORD PTR __Right$[ebp]
  00024	8b 10		 mov	 edx, DWORD PTR [eax]
  00026	3b 11		 cmp	 edx, DWORD PTR [ecx]
  00028	7d 08		 jge	 SHORT $LN3@max
  0002a	8b 45 0c	 mov	 eax, DWORD PTR __Right$[ebp]
  0002d	89 45 f8	 mov	 DWORD PTR tv65[ebp], eax
  00030	eb 06		 jmp	 SHORT $LN4@max
$LN3@max:
  00032	8b 4d 08	 mov	 ecx, DWORD PTR __Left$[ebp]
  00035	89 4d f8	 mov	 DWORD PTR tv65[ebp], ecx
$LN4@max:
  00038	8b 55 f8	 mov	 edx, DWORD PTR tv65[ebp]
  0003b	89 55 fc	 mov	 DWORD PTR $T1[ebp], edx
  0003e	8b 45 fc	 mov	 eax, DWORD PTR $T1[ebp]

; 45   : }

  00041	83 c4 08	 add	 esp, 8
  00044	3b ec		 cmp	 ebp, esp
  00046	e8 00 00 00 00	 call	 __RTC_CheckEsp
  0004b	8b e5		 mov	 esp, ebp
  0004d	5d		 pop	 ebp
  0004e	c3		 ret	 0
??$max@H@std@@YAABHABH0@Z ENDP				; std::max<int>
_TEXT	ENDS
; Function compile flags: /Odtp /RTCsu
; File C:\Program Files (x86)\Microsoft Visual Studio\2019\Community\VC\Tools\MSVC\14.29.30133\include\xutility
;	COMDAT ??$_Voidify_iter@PAU_Container_proxy@std@@@std@@YAPAXPAU_Container_proxy@0@@Z
_TEXT	SEGMENT
__It$ = 8						; size = 4
??$_Voidify_iter@PAU_Container_proxy@std@@@std@@YAPAXPAU_Container_proxy@0@@Z PROC ; std::_Voidify_iter<std::_Container_proxy *>, COMDAT

; 130  : _NODISCARD constexpr void* _Voidify_iter(_Iter _It) noexcept {

  00000	55		 push	 ebp
  00001	8b ec		 mov	 ebp, esp
  00003	b9 00 00 00 00	 mov	 ecx, OFFSET __12269DE6_xutility
  00008	e8 00 00 00 00	 call	 @__CheckForDebuggerJustMyCode@4

; 131  :     if constexpr (is_pointer_v<_Iter>) {
; 132  :         return const_cast<void*>(static_cast<const volatile void*>(_It));

  0000d	8b 45 08	 mov	 eax, DWORD PTR __It$[ebp]

; 133  :     } else {
; 134  :         return const_cast<void*>(static_cast<const volatile void*>(_STD addressof(*_It)));
; 135  :     }
; 136  : }

  00010	3b ec		 cmp	 ebp, esp
  00012	e8 00 00 00 00	 call	 __RTC_CheckEsp
  00017	5d		 pop	 ebp
  00018	c3		 ret	 0
??$_Voidify_iter@PAU_Container_proxy@std@@@std@@YAPAXPAU_Container_proxy@0@@Z ENDP ; std::_Voidify_iter<std::_Container_proxy *>
_TEXT	ENDS
; Function compile flags: /Odtp /RTCsu
; File C:\Program Files (x86)\Microsoft Visual Studio\2019\Community\VC\Tools\MSVC\14.29.30133\include\xutility
;	COMDAT ??$construct_at@U_Container_proxy@std@@PAU_Container_base12@2@X@std@@YAPAU_Container_proxy@0@QAU10@$$QAPAU_Container_base12@0@@Z
_TEXT	SEGMENT
tv78 = -8						; size = 4
$T1 = -4						; size = 4
__Location$ = 8						; size = 4
_<_Args_0>$ = 12					; size = 4
??$construct_at@U_Container_proxy@std@@PAU_Container_base12@2@X@std@@YAPAU_Container_proxy@0@QAU10@$$QAPAU_Container_base12@0@@Z PROC ; std::construct_at<std::_Container_proxy,std::_Container_base12 *,void>, COMDAT

; 143  :     noexcept(::new (_Voidify_iter(_Location)) _Ty(_STD forward<_Types>(_Args)...))) /* strengthened */ {

  00000	55		 push	 ebp
  00001	8b ec		 mov	 ebp, esp
  00003	83 ec 08	 sub	 esp, 8
  00006	c7 45 f8 cc cc
	cc cc		 mov	 DWORD PTR [ebp-8], -858993460 ; ccccccccH
  0000d	c7 45 fc cc cc
	cc cc		 mov	 DWORD PTR [ebp-4], -858993460 ; ccccccccH
  00014	b9 00 00 00 00	 mov	 ecx, OFFSET __12269DE6_xutility
  00019	e8 00 00 00 00	 call	 @__CheckForDebuggerJustMyCode@4

; 144  :     return ::new (_Voidify_iter(_Location)) _Ty(_STD forward<_Types>(_Args)...);

  0001e	8b 45 08	 mov	 eax, DWORD PTR __Location$[ebp]
  00021	50		 push	 eax
  00022	e8 00 00 00 00	 call	 ??$_Voidify_iter@PAU_Container_proxy@std@@@std@@YAPAXPAU_Container_proxy@0@@Z ; std::_Voidify_iter<std::_Container_proxy *>
  00027	83 c4 04	 add	 esp, 4
  0002a	50		 push	 eax
  0002b	6a 08		 push	 8
  0002d	e8 00 00 00 00	 call	 ??2@YAPAXIPAX@Z		; operator new
  00032	83 c4 08	 add	 esp, 8
  00035	89 45 fc	 mov	 DWORD PTR $T1[ebp], eax
  00038	8b 4d 0c	 mov	 ecx, DWORD PTR _<_Args_0>$[ebp]
  0003b	51		 push	 ecx
  0003c	e8 00 00 00 00	 call	 ??$forward@PAU_Container_base12@std@@@std@@YA$$QAPAU_Container_base12@0@AAPAU10@@Z ; std::forward<std::_Container_base12 *>
  00041	83 c4 04	 add	 esp, 4
  00044	8b 10		 mov	 edx, DWORD PTR [eax]
  00046	89 55 f8	 mov	 DWORD PTR tv78[ebp], edx
  00049	8b 45 f8	 mov	 eax, DWORD PTR tv78[ebp]
  0004c	50		 push	 eax
  0004d	8b 4d fc	 mov	 ecx, DWORD PTR $T1[ebp]
  00050	e8 00 00 00 00	 call	 ??0_Container_proxy@std@@QAE@PAU_Container_base12@1@@Z ; std::_Container_proxy::_Container_proxy

; 145  : }

  00055	83 c4 08	 add	 esp, 8
  00058	3b ec		 cmp	 ebp, esp
  0005a	e8 00 00 00 00	 call	 __RTC_CheckEsp
  0005f	8b e5		 mov	 esp, ebp
  00061	5d		 pop	 ebp
  00062	c3		 ret	 0
??$construct_at@U_Container_proxy@std@@PAU_Container_base12@2@X@std@@YAPAU_Container_proxy@0@QAU10@$$QAPAU_Container_base12@0@@Z ENDP ; std::construct_at<std::_Container_proxy,std::_Container_base12 *,void>
_TEXT	ENDS
; Function compile flags: /Odtp /RTCsu
; File C:\Program Files (x86)\Microsoft Visual Studio\2019\Community\VC\Tools\MSVC\14.29.30133\include\type_traits
;	COMDAT ??$forward@PAU_Container_base12@std@@@std@@YA$$QAPAU_Container_base12@0@AAPAU10@@Z
_TEXT	SEGMENT
__Arg$ = 8						; size = 4
??$forward@PAU_Container_base12@std@@@std@@YA$$QAPAU_Container_base12@0@AAPAU10@@Z PROC ; std::forward<std::_Container_base12 *>, COMDAT

; 1443 :     remove_reference_t<_Ty>& _Arg) noexcept { // forward an lvalue as either an lvalue or an rvalue

  00000	55		 push	 ebp
  00001	8b ec		 mov	 ebp, esp
  00003	b9 00 00 00 00	 mov	 ecx, OFFSET __589FA321_type_traits
  00008	e8 00 00 00 00	 call	 @__CheckForDebuggerJustMyCode@4

; 1444 :     return static_cast<_Ty&&>(_Arg);

  0000d	8b 45 08	 mov	 eax, DWORD PTR __Arg$[ebp]

; 1445 : }

  00010	3b ec		 cmp	 ebp, esp
  00012	e8 00 00 00 00	 call	 __RTC_CheckEsp
  00017	5d		 pop	 ebp
  00018	c3		 ret	 0
??$forward@PAU_Container_base12@std@@@std@@YA$$QAPAU_Container_base12@0@AAPAU10@@Z ENDP ; std::forward<std::_Container_base12 *>
_TEXT	ENDS
; Function compile flags: /Odtp /RTCsu
; File C:\Program Files (x86)\Microsoft Visual Studio\2019\Community\VC\Tools\MSVC\14.29.30133\include\xstddef
;	COMDAT ??$addressof@U_Container_proxy@std@@@std@@YAPAU_Container_proxy@0@AAU10@@Z
_TEXT	SEGMENT
__Val$ = 8						; size = 4
??$addressof@U_Container_proxy@std@@@std@@YAPAU_Container_proxy@0@AAU10@@Z PROC ; std::addressof<std::_Container_proxy>, COMDAT

; 274  : _NODISCARD constexpr _Ty* addressof(_Ty& _Val) noexcept {

  00000	55		 push	 ebp
  00001	8b ec		 mov	 ebp, esp
  00003	b9 00 00 00 00	 mov	 ecx, OFFSET __E458E21C_xstddef
  00008	e8 00 00 00 00	 call	 @__CheckForDebuggerJustMyCode@4

; 275  :     return __builtin_addressof(_Val);

  0000d	8b 45 08	 mov	 eax, DWORD PTR __Val$[ebp]

; 276  : }

  00010	3b ec		 cmp	 ebp, esp
  00012	e8 00 00 00 00	 call	 __RTC_CheckEsp
  00017	5d		 pop	 ebp
  00018	c3		 ret	 0
??$addressof@U_Container_proxy@std@@@std@@YAPAU_Container_proxy@0@AAU10@@Z ENDP ; std::addressof<std::_Container_proxy>
_TEXT	ENDS
; Function compile flags: /Odtp /RTCsu
; File C:\Program Files (x86)\Microsoft Visual Studio\2019\Community\VC\Tools\MSVC\14.29.30133\include\type_traits
;	COMDAT ??$forward@ABD@std@@YAABDABD@Z
_TEXT	SEGMENT
__Arg$ = 8						; size = 4
??$forward@ABD@std@@YAABDABD@Z PROC			; std::forward<char const &>, COMDAT

; 1443 :     remove_reference_t<_Ty>& _Arg) noexcept { // forward an lvalue as either an lvalue or an rvalue

  00000	55		 push	 ebp
  00001	8b ec		 mov	 ebp, esp
  00003	b9 00 00 00 00	 mov	 ecx, OFFSET __589FA321_type_traits
  00008	e8 00 00 00 00	 call	 @__CheckForDebuggerJustMyCode@4

; 1444 :     return static_cast<_Ty&&>(_Arg);

  0000d	8b 45 08	 mov	 eax, DWORD PTR __Arg$[ebp]

; 1445 : }

  00010	3b ec		 cmp	 ebp, esp
  00012	e8 00 00 00 00	 call	 __RTC_CheckEsp
  00017	5d		 pop	 ebp
  00018	c3		 ret	 0
??$forward@ABD@std@@YAABDABD@Z ENDP			; std::forward<char const &>
_TEXT	ENDS
; Function compile flags: /Odtp /RTCsu
; File C:\Program Files (x86)\Microsoft Visual Studio\2019\Community\VC\Tools\MSVC\14.29.30133\include\xutility
;	COMDAT ??$_Voidify_iter@PAD@std@@YAPAXPAD@Z
_TEXT	SEGMENT
__It$ = 8						; size = 4
??$_Voidify_iter@PAD@std@@YAPAXPAD@Z PROC		; std::_Voidify_iter<char *>, COMDAT

; 130  : _NODISCARD constexpr void* _Voidify_iter(_Iter _It) noexcept {

  00000	55		 push	 ebp
  00001	8b ec		 mov	 ebp, esp
  00003	b9 00 00 00 00	 mov	 ecx, OFFSET __12269DE6_xutility
  00008	e8 00 00 00 00	 call	 @__CheckForDebuggerJustMyCode@4

; 131  :     if constexpr (is_pointer_v<_Iter>) {
; 132  :         return const_cast<void*>(static_cast<const volatile void*>(_It));

  0000d	8b 45 08	 mov	 eax, DWORD PTR __It$[ebp]

; 133  :     } else {
; 134  :         return const_cast<void*>(static_cast<const volatile void*>(_STD addressof(*_It)));
; 135  :     }
; 136  : }

  00010	3b ec		 cmp	 ebp, esp
  00012	e8 00 00 00 00	 call	 __RTC_CheckEsp
  00017	5d		 pop	 ebp
  00018	c3		 ret	 0
??$_Voidify_iter@PAD@std@@YAPAXPAD@Z ENDP		; std::_Voidify_iter<char *>
_TEXT	ENDS
; Function compile flags: /Odtp /RTCsu
; File C:\Program Files (x86)\Microsoft Visual Studio\2019\Community\VC\Tools\MSVC\14.29.30133\include\xutility
;	COMDAT ??$construct_at@DABDX@std@@YAPADQADABD@Z
_TEXT	SEGMENT
$T1 = -4						; size = 4
__Location$ = 8						; size = 4
_<_Args_0>$ = 12					; size = 4
??$construct_at@DABDX@std@@YAPADQADABD@Z PROC		; std::construct_at<char,char const &,void>, COMDAT

; 143  :     noexcept(::new (_Voidify_iter(_Location)) _Ty(_STD forward<_Types>(_Args)...))) /* strengthened */ {

  00000	55		 push	 ebp
  00001	8b ec		 mov	 ebp, esp
  00003	51		 push	 ecx
  00004	c7 45 fc cc cc
	cc cc		 mov	 DWORD PTR [ebp-4], -858993460 ; ccccccccH
  0000b	b9 00 00 00 00	 mov	 ecx, OFFSET __12269DE6_xutility
  00010	e8 00 00 00 00	 call	 @__CheckForDebuggerJustMyCode@4

; 144  :     return ::new (_Voidify_iter(_Location)) _Ty(_STD forward<_Types>(_Args)...);

  00015	8b 45 08	 mov	 eax, DWORD PTR __Location$[ebp]
  00018	50		 push	 eax
  00019	e8 00 00 00 00	 call	 ??$_Voidify_iter@PAD@std@@YAPAXPAD@Z ; std::_Voidify_iter<char *>
  0001e	83 c4 04	 add	 esp, 4
  00021	50		 push	 eax
  00022	6a 01		 push	 1
  00024	e8 00 00 00 00	 call	 ??2@YAPAXIPAX@Z		; operator new
  00029	83 c4 08	 add	 esp, 8
  0002c	89 45 fc	 mov	 DWORD PTR $T1[ebp], eax
  0002f	8b 4d 0c	 mov	 ecx, DWORD PTR _<_Args_0>$[ebp]
  00032	51		 push	 ecx
  00033	e8 00 00 00 00	 call	 ??$forward@ABD@std@@YAABDABD@Z ; std::forward<char const &>
  00038	83 c4 04	 add	 esp, 4
  0003b	8b 55 fc	 mov	 edx, DWORD PTR $T1[ebp]
  0003e	8a 00		 mov	 al, BYTE PTR [eax]
  00040	88 02		 mov	 BYTE PTR [edx], al
  00042	8b 45 fc	 mov	 eax, DWORD PTR $T1[ebp]

; 145  : }

  00045	83 c4 04	 add	 esp, 4
  00048	3b ec		 cmp	 ebp, esp
  0004a	e8 00 00 00 00	 call	 __RTC_CheckEsp
  0004f	8b e5		 mov	 esp, ebp
  00051	5d		 pop	 ebp
  00052	c3		 ret	 0
??$construct_at@DABDX@std@@YAPADQADABD@Z ENDP		; std::construct_at<char,char const &,void>
_TEXT	ENDS
; Function compile flags: /Odtp /RTCsu
; File C:\Program Files (x86)\Microsoft Visual Studio\2019\Community\VC\Tools\MSVC\14.29.30133\include\xmemory
;	COMDAT ??$_Get_size_of_n@$00@std@@YAII@Z
_TEXT	SEGMENT
__Overflow_is_possible$ = -1				; size = 1
__Count$ = 8						; size = 4
??$_Get_size_of_n@$00@std@@YAII@Z PROC			; std::_Get_size_of_n<1>, COMDAT

; 59   : _NODISCARD constexpr size_t _Get_size_of_n(const size_t _Count) {

  00000	55		 push	 ebp
  00001	8b ec		 mov	 ebp, esp
  00003	51		 push	 ecx
  00004	c7 45 fc cc cc
	cc cc		 mov	 DWORD PTR [ebp-4], -858993460 ; ccccccccH
  0000b	b9 00 00 00 00	 mov	 ecx, OFFSET __79D216CD_xmemory
  00010	e8 00 00 00 00	 call	 @__CheckForDebuggerJustMyCode@4

; 60   :     constexpr bool _Overflow_is_possible = _Ty_size > 1;

  00015	c6 45 ff 00	 mov	 BYTE PTR __Overflow_is_possible$[ebp], 0

; 61   : 
; 62   :     if constexpr (_Overflow_is_possible) {
; 63   :         constexpr size_t _Max_possible = static_cast<size_t>(-1) / _Ty_size;
; 64   :         if (_Count > _Max_possible) {
; 65   :             _Throw_bad_array_new_length(); // multiply overflow
; 66   :         }
; 67   :     }
; 68   : 
; 69   :     return _Count * _Ty_size;

  00019	8b 45 08	 mov	 eax, DWORD PTR __Count$[ebp]

; 70   : }

  0001c	83 c4 04	 add	 esp, 4
  0001f	3b ec		 cmp	 ebp, esp
  00021	e8 00 00 00 00	 call	 __RTC_CheckEsp
  00026	8b e5		 mov	 esp, ebp
  00028	5d		 pop	 ebp
  00029	c3		 ret	 0
??$_Get_size_of_n@$00@std@@YAII@Z ENDP			; std::_Get_size_of_n<1>
_TEXT	ENDS
; Function compile flags: /Odtp /RTCsu
; File C:\Program Files (x86)\Microsoft Visual Studio\2019\Community\VC\Tools\MSVC\14.29.30133\include\xmemory
;	COMDAT ??$_Deallocate@$07$0A@@std@@YAXPAXI@Z
_TEXT	SEGMENT
__$EHRec$ = -12						; size = 12
__Ptr$ = 8						; size = 4
__Bytes$ = 12						; size = 4
??$_Deallocate@$07$0A@@std@@YAXPAXI@Z PROC		; std::_Deallocate<8,0>, COMDAT

; 251  : _CONSTEXPR20_DYNALLOC void _Deallocate(void* _Ptr, size_t _Bytes) noexcept {

  00000	55		 push	 ebp
  00001	8b ec		 mov	 ebp, esp
  00003	6a ff		 push	 -1
  00005	68 00 00 00 00	 push	 __ehhandler$??$_Deallocate@$07$0A@@std@@YAXPAXI@Z
  0000a	64 a1 00 00 00
	00		 mov	 eax, DWORD PTR fs:0
  00010	50		 push	 eax
  00011	a1 00 00 00 00	 mov	 eax, DWORD PTR ___security_cookie
  00016	33 c5		 xor	 eax, ebp
  00018	50		 push	 eax
  00019	8d 45 f4	 lea	 eax, DWORD PTR __$EHRec$[ebp]
  0001c	64 a3 00 00 00
	00		 mov	 DWORD PTR fs:0, eax
  00022	b9 00 00 00 00	 mov	 ecx, OFFSET __79D216CD_xmemory
  00027	e8 00 00 00 00	 call	 @__CheckForDebuggerJustMyCode@4

; 252  :     // deallocate storage allocated by _Allocate when !_HAS_ALIGNED_NEW || _Align <= __STDCPP_DEFAULT_NEW_ALIGNMENT__
; 253  : #ifdef __cpp_lib_constexpr_dynamic_alloc // TRANSITION, GH-1532
; 254  :     if (_STD is_constant_evaluated()) {

  0002c	e8 00 00 00 00	 call	 ?is_constant_evaluated@std@@YA_NXZ ; std::is_constant_evaluated
  00031	0f b6 c0	 movzx	 eax, al
  00034	85 c0		 test	 eax, eax
  00036	74 0e		 je	 SHORT $LN2@Deallocate

; 255  :         ::operator delete(_Ptr);

  00038	8b 4d 08	 mov	 ecx, DWORD PTR __Ptr$[ebp]
  0003b	51		 push	 ecx
  0003c	e8 00 00 00 00	 call	 ??3@YAXPAX@Z		; operator delete
  00041	83 c4 04	 add	 esp, 4

; 256  :     } else

  00044	eb 29		 jmp	 SHORT $LN5@Deallocate
$LN2@Deallocate:

; 257  : #endif // __cpp_lib_constexpr_dynamic_alloc
; 258  :     {
; 259  : #if defined(_M_IX86) || defined(_M_X64)
; 260  :         if (_Bytes >= _Big_allocation_threshold) { // boost the alignment of big allocations to help autovectorization

  00046	81 7d 0c 00 10
	00 00		 cmp	 DWORD PTR __Bytes$[ebp], 4096 ; 00001000H
  0004d	72 10		 jb	 SHORT $LN4@Deallocate

; 261  :             _Adjust_manually_vector_aligned(_Ptr, _Bytes);

  0004f	8d 55 0c	 lea	 edx, DWORD PTR __Bytes$[ebp]
  00052	52		 push	 edx
  00053	8d 45 08	 lea	 eax, DWORD PTR __Ptr$[ebp]
  00056	50		 push	 eax
  00057	e8 00 00 00 00	 call	 ?_Adjust_manually_vector_aligned@std@@YAXAAPAXAAI@Z ; std::_Adjust_manually_vector_aligned
  0005c	83 c4 08	 add	 esp, 8
$LN4@Deallocate:

; 262  :         }
; 263  : #endif // defined(_M_IX86) || defined(_M_X64)
; 264  :         ::operator delete(_Ptr, _Bytes);

  0005f	8b 4d 0c	 mov	 ecx, DWORD PTR __Bytes$[ebp]
  00062	51		 push	 ecx
  00063	8b 55 08	 mov	 edx, DWORD PTR __Ptr$[ebp]
  00066	52		 push	 edx
  00067	e8 00 00 00 00	 call	 ??3@YAXPAXI@Z		; operator delete
  0006c	83 c4 08	 add	 esp, 8
$LN5@Deallocate:

; 265  :     }
; 266  : }

  0006f	8b 4d f4	 mov	 ecx, DWORD PTR __$EHRec$[ebp]
  00072	64 89 0d 00 00
	00 00		 mov	 DWORD PTR fs:0, ecx
  00079	59		 pop	 ecx
  0007a	83 c4 0c	 add	 esp, 12			; 0000000cH
  0007d	3b ec		 cmp	 ebp, esp
  0007f	e8 00 00 00 00	 call	 __RTC_CheckEsp
  00084	8b e5		 mov	 esp, ebp
  00086	5d		 pop	 ebp
  00087	c3		 ret	 0
  00088	cc		 int	 3
  00089	cc		 int	 3
  0008a	cc		 int	 3
  0008b	cc		 int	 3
  0008c	cc		 int	 3
_TEXT	ENDS
;	COMDAT text$x
text$x	SEGMENT
__ehhandler$??$_Deallocate@$07$0A@@std@@YAXPAXI@Z:
  00000	90		 npad	 1
  00001	90		 npad	 1
  00002	8b 54 24 08	 mov	 edx, DWORD PTR [esp+8]
  00006	8d 42 0c	 lea	 eax, DWORD PTR [edx+12]
  00009	8b 4a fc	 mov	 ecx, DWORD PTR [edx-4]
  0000c	33 c8		 xor	 ecx, eax
  0000e	e8 00 00 00 00	 call	 @__security_check_cookie@4
  00013	b8 00 00 00 00	 mov	 eax, OFFSET __ehfuncinfo$??$_Deallocate@$07$0A@@std@@YAXPAXI@Z
  00018	e9 00 00 00 00	 jmp	 ___CxxFrameHandler3
text$x	ENDS
??$_Deallocate@$07$0A@@std@@YAXPAXI@Z ENDP		; std::_Deallocate<8,0>
; Function compile flags: /Odtp /RTCsu
; File C:\Program Files (x86)\Microsoft Visual Studio\2019\Community\VC\Tools\MSVC\14.29.30133\include\xmemory
;	COMDAT ??$_Allocate@$07U_Default_allocate_traits@std@@$0A@@std@@YAPAXI@Z
_TEXT	SEGMENT
__Bytes$ = 8						; size = 4
??$_Allocate@$07U_Default_allocate_traits@std@@$0A@@std@@YAPAXI@Z PROC ; std::_Allocate<8,std::_Default_allocate_traits,0>, COMDAT

; 230  : __declspec(allocator) _CONSTEXPR20_DYNALLOC void* _Allocate(const size_t _Bytes) {

  00000	55		 push	 ebp
  00001	8b ec		 mov	 ebp, esp
  00003	b9 00 00 00 00	 mov	 ecx, OFFSET __79D216CD_xmemory
  00008	e8 00 00 00 00	 call	 @__CheckForDebuggerJustMyCode@4

; 231  :     // allocate _Bytes when !_HAS_ALIGNED_NEW || _Align <= __STDCPP_DEFAULT_NEW_ALIGNMENT__
; 232  : #if defined(_M_IX86) || defined(_M_X64)
; 233  : #ifdef __cpp_lib_constexpr_dynamic_alloc // TRANSITION, GH-1532
; 234  :     if (!_STD is_constant_evaluated())

  0000d	e8 00 00 00 00	 call	 ?is_constant_evaluated@std@@YA_NXZ ; std::is_constant_evaluated
  00012	0f b6 c0	 movzx	 eax, al
  00015	85 c0		 test	 eax, eax
  00017	75 17		 jne	 SHORT $LN2@Allocate

; 235  : #endif // __cpp_lib_constexpr_dynamic_alloc
; 236  :     {
; 237  :         if (_Bytes >= _Big_allocation_threshold) { // boost the alignment of big allocations to help autovectorization

  00019	81 7d 08 00 10
	00 00		 cmp	 DWORD PTR __Bytes$[ebp], 4096 ; 00001000H
  00020	72 0e		 jb	 SHORT $LN2@Allocate

; 238  :             return _Allocate_manually_vector_aligned<_Traits>(_Bytes);

  00022	8b 4d 08	 mov	 ecx, DWORD PTR __Bytes$[ebp]
  00025	51		 push	 ecx
  00026	e8 00 00 00 00	 call	 ??$_Allocate_manually_vector_aligned@U_Default_allocate_traits@std@@@std@@YAPAXI@Z ; std::_Allocate_manually_vector_aligned<std::_Default_allocate_traits>
  0002b	83 c4 04	 add	 esp, 4
  0002e	eb 16		 jmp	 SHORT $LN1@Allocate
$LN2@Allocate:

; 239  :         }
; 240  :     }
; 241  : #endif // defined(_M_IX86) || defined(_M_X64)
; 242  : 
; 243  :     if (_Bytes != 0) {

  00030	83 7d 08 00	 cmp	 DWORD PTR __Bytes$[ebp], 0
  00034	74 0e		 je	 SHORT $LN4@Allocate

; 244  :         return _Traits::_Allocate(_Bytes);

  00036	8b 55 08	 mov	 edx, DWORD PTR __Bytes$[ebp]
  00039	52		 push	 edx
  0003a	e8 00 00 00 00	 call	 ?_Allocate@_Default_allocate_traits@std@@SAPAXI@Z ; std::_Default_allocate_traits::_Allocate
  0003f	83 c4 04	 add	 esp, 4
  00042	eb 02		 jmp	 SHORT $LN1@Allocate
$LN4@Allocate:

; 245  :     }
; 246  : 
; 247  :     return nullptr;

  00044	33 c0		 xor	 eax, eax
$LN1@Allocate:

; 248  : }

  00046	3b ec		 cmp	 ebp, esp
  00048	e8 00 00 00 00	 call	 __RTC_CheckEsp
  0004d	5d		 pop	 ebp
  0004e	c3		 ret	 0
??$_Allocate@$07U_Default_allocate_traits@std@@$0A@@std@@YAPAXI@Z ENDP ; std::_Allocate<8,std::_Default_allocate_traits,0>
_TEXT	ENDS
; Function compile flags: /Odtp /RTCsu
; File C:\Program Files (x86)\Microsoft Visual Studio\2019\Community\VC\Tools\MSVC\14.29.30133\include\xmemory
;	COMDAT ??$_Get_size_of_n@$07@std@@YAII@Z
_TEXT	SEGMENT
__Max_possible$1 = -8					; size = 4
__Overflow_is_possible$ = -1				; size = 1
__Count$ = 8						; size = 4
??$_Get_size_of_n@$07@std@@YAII@Z PROC			; std::_Get_size_of_n<8>, COMDAT

; 59   : _NODISCARD constexpr size_t _Get_size_of_n(const size_t _Count) {

  00000	55		 push	 ebp
  00001	8b ec		 mov	 ebp, esp
  00003	83 ec 08	 sub	 esp, 8
  00006	c7 45 f8 cc cc
	cc cc		 mov	 DWORD PTR [ebp-8], -858993460 ; ccccccccH
  0000d	c7 45 fc cc cc
	cc cc		 mov	 DWORD PTR [ebp-4], -858993460 ; ccccccccH
  00014	b9 00 00 00 00	 mov	 ecx, OFFSET __79D216CD_xmemory
  00019	e8 00 00 00 00	 call	 @__CheckForDebuggerJustMyCode@4

; 60   :     constexpr bool _Overflow_is_possible = _Ty_size > 1;

  0001e	c6 45 ff 01	 mov	 BYTE PTR __Overflow_is_possible$[ebp], 1

; 61   : 
; 62   :     if constexpr (_Overflow_is_possible) {
; 63   :         constexpr size_t _Max_possible = static_cast<size_t>(-1) / _Ty_size;

  00022	c7 45 f8 ff ff
	ff 1f		 mov	 DWORD PTR __Max_possible$1[ebp], 536870911 ; 1fffffffH

; 64   :         if (_Count > _Max_possible) {

  00029	81 7d 08 ff ff
	ff 1f		 cmp	 DWORD PTR __Count$[ebp], 536870911 ; 1fffffffH
  00030	76 05		 jbe	 SHORT $LN2@Get_size_o

; 65   :             _Throw_bad_array_new_length(); // multiply overflow

  00032	e8 00 00 00 00	 call	 ?_Throw_bad_array_new_length@std@@YAXXZ ; std::_Throw_bad_array_new_length
$LN2@Get_size_o:

; 66   :         }
; 67   :     }
; 68   : 
; 69   :     return _Count * _Ty_size;

  00037	8b 45 08	 mov	 eax, DWORD PTR __Count$[ebp]
  0003a	c1 e0 03	 shl	 eax, 3
$LN3@Get_size_o:

; 70   : }

  0003d	83 c4 08	 add	 esp, 8
  00040	3b ec		 cmp	 ebp, esp
  00042	e8 00 00 00 00	 call	 __RTC_CheckEsp
  00047	8b e5		 mov	 esp, ebp
  00049	5d		 pop	 ebp
  0004a	c3		 ret	 0
??$_Get_size_of_n@$07@std@@YAII@Z ENDP			; std::_Get_size_of_n<8>
_TEXT	ENDS
; Function compile flags: /Odtp /RTCsu
; File C:\Program Files (x86)\Microsoft Visual Studio\2019\Community\VC\Tools\MSVC\14.29.30133\include\utility
;	COMDAT ??$max@I@std@@YAABIABI0@Z
_TEXT	SEGMENT
tv65 = -8						; size = 4
$T1 = -4						; size = 4
__Left$ = 8						; size = 4
__Right$ = 12						; size = 4
??$max@I@std@@YAABIABI0@Z PROC				; std::max<unsigned int>, COMDAT

; 42   :     const _Ty& _Left, const _Ty& _Right) noexcept(noexcept(_Left < _Right)) /* strengthened */ {

  00000	55		 push	 ebp
  00001	8b ec		 mov	 ebp, esp
  00003	83 ec 08	 sub	 esp, 8
  00006	c7 45 f8 cc cc
	cc cc		 mov	 DWORD PTR [ebp-8], -858993460 ; ccccccccH
  0000d	c7 45 fc cc cc
	cc cc		 mov	 DWORD PTR [ebp-4], -858993460 ; ccccccccH
  00014	b9 00 00 00 00	 mov	 ecx, OFFSET __1347750E_utility
  00019	e8 00 00 00 00	 call	 @__CheckForDebuggerJustMyCode@4

; 43   :     // return larger of _Left and _Right
; 44   :     return _Left < _Right ? _Right : _Left;

  0001e	8b 45 08	 mov	 eax, DWORD PTR __Left$[ebp]
  00021	8b 4d 0c	 mov	 ecx, DWORD PTR __Right$[ebp]
  00024	8b 10		 mov	 edx, DWORD PTR [eax]
  00026	3b 11		 cmp	 edx, DWORD PTR [ecx]
  00028	73 08		 jae	 SHORT $LN3@max
  0002a	8b 45 0c	 mov	 eax, DWORD PTR __Right$[ebp]
  0002d	89 45 f8	 mov	 DWORD PTR tv65[ebp], eax
  00030	eb 06		 jmp	 SHORT $LN4@max
$LN3@max:
  00032	8b 4d 08	 mov	 ecx, DWORD PTR __Left$[ebp]
  00035	89 4d f8	 mov	 DWORD PTR tv65[ebp], ecx
$LN4@max:
  00038	8b 55 f8	 mov	 edx, DWORD PTR tv65[ebp]
  0003b	89 55 fc	 mov	 DWORD PTR $T1[ebp], edx
  0003e	8b 45 fc	 mov	 eax, DWORD PTR $T1[ebp]

; 45   : }

  00041	83 c4 08	 add	 esp, 8
  00044	3b ec		 cmp	 ebp, esp
  00046	e8 00 00 00 00	 call	 __RTC_CheckEsp
  0004b	8b e5		 mov	 esp, ebp
  0004d	5d		 pop	 ebp
  0004e	c3		 ret	 0
??$max@I@std@@YAABIABI0@Z ENDP				; std::max<unsigned int>
_TEXT	ENDS
; Function compile flags: /Odtp /RTCsu
; File C:\Program Files (x86)\Microsoft Visual Studio\2019\Community\VC\Tools\MSVC\14.29.30133\include\xutility
;	COMDAT ??$_Construct_in_place@PADABQAD@std@@YAXAAPADABQAD@Z
_TEXT	SEGMENT
tv75 = -12						; size = 4
tv77 = -8						; size = 4
$T1 = -4						; size = 4
__Obj$ = 8						; size = 4
_<_Args_0>$ = 12					; size = 4
??$_Construct_in_place@PADABQAD@std@@YAXAAPADABQAD@Z PROC ; std::_Construct_in_place<char *,char * const &>, COMDAT

; 151  :     is_nothrow_constructible_v<_Ty, _Types...>) {

  00000	55		 push	 ebp
  00001	8b ec		 mov	 ebp, esp
  00003	83 ec 0c	 sub	 esp, 12			; 0000000cH
  00006	c7 45 f4 cc cc
	cc cc		 mov	 DWORD PTR [ebp-12], -858993460 ; ccccccccH
  0000d	c7 45 f8 cc cc
	cc cc		 mov	 DWORD PTR [ebp-8], -858993460 ; ccccccccH
  00014	c7 45 fc cc cc
	cc cc		 mov	 DWORD PTR [ebp-4], -858993460 ; ccccccccH
  0001b	b9 00 00 00 00	 mov	 ecx, OFFSET __12269DE6_xutility
  00020	e8 00 00 00 00	 call	 @__CheckForDebuggerJustMyCode@4

; 152  : #ifdef __cpp_lib_constexpr_dynamic_alloc
; 153  :     if (_STD is_constant_evaluated()) {

  00025	e8 00 00 00 00	 call	 ?is_constant_evaluated@std@@YA_NXZ ; std::is_constant_evaluated
  0002a	0f b6 c0	 movzx	 eax, al
  0002d	85 c0		 test	 eax, eax
  0002f	74 30		 je	 SHORT $LN2@Construct_

; 154  :         _STD construct_at(_STD addressof(_Obj), _STD forward<_Types>(_Args)...);

  00031	8b 4d 0c	 mov	 ecx, DWORD PTR _<_Args_0>$[ebp]
  00034	51		 push	 ecx
  00035	e8 00 00 00 00	 call	 ??$forward@ABQAD@std@@YAABQADABQAD@Z ; std::forward<char * const &>
  0003a	83 c4 04	 add	 esp, 4
  0003d	89 45 f8	 mov	 DWORD PTR tv77[ebp], eax
  00040	8b 55 08	 mov	 edx, DWORD PTR __Obj$[ebp]
  00043	52		 push	 edx
  00044	e8 00 00 00 00	 call	 ??$addressof@PAD@std@@YAPAPADAAPAD@Z ; std::addressof<char *>
  00049	83 c4 04	 add	 esp, 4
  0004c	89 45 f4	 mov	 DWORD PTR tv75[ebp], eax
  0004f	8b 45 f8	 mov	 eax, DWORD PTR tv77[ebp]
  00052	50		 push	 eax
  00053	8b 4d f4	 mov	 ecx, DWORD PTR tv75[ebp]
  00056	51		 push	 ecx
  00057	e8 00 00 00 00	 call	 ??$construct_at@PADABQADX@std@@YAPAPADQAPADABQAD@Z ; std::construct_at<char *,char * const &,void>
  0005c	83 c4 08	 add	 esp, 8

; 155  :     } else

  0005f	eb 36		 jmp	 SHORT $LN4@Construct_
$LN2@Construct_:

; 151  :     is_nothrow_constructible_v<_Ty, _Types...>) {

  00061	8b 55 08	 mov	 edx, DWORD PTR __Obj$[ebp]
  00064	52		 push	 edx
  00065	e8 00 00 00 00	 call	 ??$addressof@PAD@std@@YAPAPADAAPAD@Z ; std::addressof<char *>
  0006a	83 c4 04	 add	 esp, 4
  0006d	50		 push	 eax
  0006e	e8 00 00 00 00	 call	 ??$_Voidify_iter@PAPAD@std@@YAPAXPAPAD@Z ; std::_Voidify_iter<char * *>
  00073	83 c4 04	 add	 esp, 4
  00076	50		 push	 eax
  00077	6a 04		 push	 4
  00079	e8 00 00 00 00	 call	 ??2@YAPAXIPAX@Z		; operator new
  0007e	83 c4 08	 add	 esp, 8
  00081	89 45 fc	 mov	 DWORD PTR $T1[ebp], eax
  00084	8b 45 0c	 mov	 eax, DWORD PTR _<_Args_0>$[ebp]
  00087	50		 push	 eax
  00088	e8 00 00 00 00	 call	 ??$forward@ABQAD@std@@YAABQADABQAD@Z ; std::forward<char * const &>
  0008d	83 c4 04	 add	 esp, 4
  00090	8b 4d fc	 mov	 ecx, DWORD PTR $T1[ebp]
  00093	8b 10		 mov	 edx, DWORD PTR [eax]
  00095	89 11		 mov	 DWORD PTR [ecx], edx
$LN4@Construct_:

; 156  : #endif // __cpp_lib_constexpr_dynamic_alloc
; 157  :     {
; 158  :         ::new (_Voidify_iter(_STD addressof(_Obj))) _Ty(_STD forward<_Types>(_Args)...);
; 159  :     }
; 160  : }

  00097	83 c4 0c	 add	 esp, 12			; 0000000cH
  0009a	3b ec		 cmp	 ebp, esp
  0009c	e8 00 00 00 00	 call	 __RTC_CheckEsp
  000a1	8b e5		 mov	 esp, ebp
  000a3	5d		 pop	 ebp
  000a4	c3		 ret	 0
??$_Construct_in_place@PADABQAD@std@@YAXAAPADABQAD@Z ENDP ; std::_Construct_in_place<char *,char * const &>
_TEXT	ENDS
; Function compile flags: /Odtp /RTCsu
; File C:\Program Files (x86)\Microsoft Visual Studio\2019\Community\VC\Tools\MSVC\14.29.30133\include\xstring
;	COMDAT ??$_Reallocate_for@V<lambda_1>@?1??assign@?$basic_string@DU?$char_traits@D@std@@V?$allocator@D@2@@std@@QAEAAV34@QBDI@Z@PBD@?$basic_string@DU?$char_traits@D@std@@V?$allocator@D@2@@std@@AAEAAV01@IV<lambda_1>@?1??assign@01@QAEAAV01@QBDI@Z@PBD@Z
_TEXT	SEGMENT
__New_ptr$ = -28					; size = 4
__Al$ = -20						; size = 4
__New_capacity$ = -16					; size = 4
__Old_capacity$ = -12					; size = 4
_this$ = -8						; size = 4
__$ArrayPad$ = -4					; size = 4
__New_size$ = 8						; size = 4
__Fn$ = 12						; size = 1
_<_Args_0>$ = 16					; size = 4
??$_Reallocate_for@V<lambda_1>@?1??assign@?$basic_string@DU?$char_traits@D@std@@V?$allocator@D@2@@std@@QAEAAV34@QBDI@Z@PBD@?$basic_string@DU?$char_traits@D@std@@V?$allocator@D@2@@std@@AAEAAV01@IV<lambda_1>@?1??assign@01@QAEAAV01@QBDI@Z@PBD@Z PROC ; std::basic_string<char,std::char_traits<char>,std::allocator<char> >::_Reallocate_for<`std::basic_string<char,std::char_traits<char>,std::allocator<char> >::assign'::`2'::<lambda_1>,char const *>, COMDAT
; _this$ = ecx

; 4505 :     _CONSTEXPR20_CONTAINER basic_string& _Reallocate_for(const size_type _New_size, _Fty _Fn, _ArgTys... _Args) {

  00000	55		 push	 ebp
  00001	8b ec		 mov	 ebp, esp
  00003	83 ec 20	 sub	 esp, 32			; 00000020H
  00006	b8 cc cc cc cc	 mov	 eax, -858993460		; ccccccccH
  0000b	89 45 e0	 mov	 DWORD PTR [ebp-32], eax
  0000e	89 45 e4	 mov	 DWORD PTR [ebp-28], eax
  00011	89 45 e8	 mov	 DWORD PTR [ebp-24], eax
  00014	89 45 ec	 mov	 DWORD PTR [ebp-20], eax
  00017	89 45 f0	 mov	 DWORD PTR [ebp-16], eax
  0001a	89 45 f4	 mov	 DWORD PTR [ebp-12], eax
  0001d	89 45 f8	 mov	 DWORD PTR [ebp-8], eax
  00020	89 45 fc	 mov	 DWORD PTR [ebp-4], eax
  00023	a1 00 00 00 00	 mov	 eax, DWORD PTR ___security_cookie
  00028	33 c5		 xor	 eax, ebp
  0002a	89 45 fc	 mov	 DWORD PTR __$ArrayPad$[ebp], eax
  0002d	89 4d f8	 mov	 DWORD PTR _this$[ebp], ecx
  00030	b9 00 00 00 00	 mov	 ecx, OFFSET __0D019051_xstring
  00035	e8 00 00 00 00	 call	 @__CheckForDebuggerJustMyCode@4

; 4506 :         // reallocate to store exactly _New_size elements, new buffer prepared by
; 4507 :         // _Fn(_New_ptr, _New_size, _Args...)
; 4508 :         if (_New_size > max_size()) {

  0003a	8b 4d f8	 mov	 ecx, DWORD PTR _this$[ebp]
  0003d	e8 00 00 00 00	 call	 ?max_size@?$basic_string@DU?$char_traits@D@std@@V?$allocator@D@2@@std@@QBEIXZ ; std::basic_string<char,std::char_traits<char>,std::allocator<char> >::max_size
  00042	39 45 08	 cmp	 DWORD PTR __New_size$[ebp], eax
  00045	76 05		 jbe	 SHORT $LN2@Reallocate

; 4509 :             _Xlen_string(); // result too long

  00047	e8 00 00 00 00	 call	 ?_Xlen_string@std@@YAXXZ ; std::_Xlen_string
$LN2@Reallocate:

; 4510 :         }
; 4511 : 
; 4512 :         const size_type _Old_capacity = _Mypair._Myval2._Myres;

  0004c	8b 45 f8	 mov	 eax, DWORD PTR _this$[ebp]
  0004f	8b 48 18	 mov	 ecx, DWORD PTR [eax+24]
  00052	89 4d f4	 mov	 DWORD PTR __Old_capacity$[ebp], ecx

; 4513 :         const size_type _New_capacity = _Calculate_growth(_New_size);

  00055	8b 55 08	 mov	 edx, DWORD PTR __New_size$[ebp]
  00058	52		 push	 edx
  00059	8b 4d f8	 mov	 ecx, DWORD PTR _this$[ebp]
  0005c	e8 00 00 00 00	 call	 ?_Calculate_growth@?$basic_string@DU?$char_traits@D@std@@V?$allocator@D@2@@std@@ABEII@Z ; std::basic_string<char,std::char_traits<char>,std::allocator<char> >::_Calculate_growth
  00061	89 45 f0	 mov	 DWORD PTR __New_capacity$[ebp], eax

; 4514 :         auto& _Al                     = _Getal();

  00064	8b 4d f8	 mov	 ecx, DWORD PTR _this$[ebp]
  00067	e8 00 00 00 00	 call	 ?_Getal@?$basic_string@DU?$char_traits@D@std@@V?$allocator@D@2@@std@@AAEAAV?$allocator@D@2@XZ ; std::basic_string<char,std::char_traits<char>,std::allocator<char> >::_Getal
  0006c	89 45 ec	 mov	 DWORD PTR __Al$[ebp], eax

; 4515 :         const pointer _New_ptr        = _Al.allocate(_New_capacity + 1); // throws

  0006f	33 c0		 xor	 eax, eax
  00071	8b 4d f0	 mov	 ecx, DWORD PTR __New_capacity$[ebp]
  00074	83 c1 01	 add	 ecx, 1
  00077	0f 92 c0	 setb	 al
  0007a	f7 d8		 neg	 eax
  0007c	0b c1		 or	 eax, ecx
  0007e	50		 push	 eax
  0007f	8b 4d ec	 mov	 ecx, DWORD PTR __Al$[ebp]
  00082	e8 00 00 00 00	 call	 ?allocate@?$allocator@D@std@@QAEPADI@Z ; std::allocator<char>::allocate
  00087	89 45 e4	 mov	 DWORD PTR __New_ptr$[ebp], eax

; 4516 : 
; 4517 : #ifdef __cpp_lib_constexpr_string
; 4518 :         if (_STD is_constant_evaluated()) { // Begin the lifetimes of the objects before copying to avoid UB

  0008a	e8 00 00 00 00	 call	 ?is_constant_evaluated@std@@YA_NXZ ; std::is_constant_evaluated
  0008f	0f b6 d0	 movzx	 edx, al
  00092	85 d2		 test	 edx, edx
  00094	74 1e		 je	 SHORT $LN3@Reallocate

; 4519 :             _Traits::assign(_Unfancy(_New_ptr), _New_capacity + 1, _Elem());

  00096	6a 00		 push	 0
  00098	8b 45 f0	 mov	 eax, DWORD PTR __New_capacity$[ebp]
  0009b	83 c0 01	 add	 eax, 1
  0009e	50		 push	 eax
  0009f	8b 4d e4	 mov	 ecx, DWORD PTR __New_ptr$[ebp]
  000a2	51		 push	 ecx
  000a3	e8 00 00 00 00	 call	 ??$_Unfancy@D@std@@YAPADPAD@Z ; std::_Unfancy<char>
  000a8	83 c4 04	 add	 esp, 4
  000ab	50		 push	 eax
  000ac	e8 00 00 00 00	 call	 ?assign@?$_Narrow_char_traits@DH@std@@SAPADQADID@Z ; std::_Narrow_char_traits<char,int>::assign
  000b1	83 c4 0c	 add	 esp, 12			; 0000000cH
$LN3@Reallocate:

; 4520 :         }
; 4521 : #endif // __cpp_lib_constexpr_string
; 4522 :         _Mypair._Myval2._Orphan_all();

  000b4	8b 4d f8	 mov	 ecx, DWORD PTR _this$[ebp]
  000b7	e8 00 00 00 00	 call	 ?_Orphan_all@_Container_base12@std@@QAEXXZ ; std::_Container_base12::_Orphan_all

; 4523 :         _Mypair._Myval2._Mysize = _New_size;

  000bc	8b 55 f8	 mov	 edx, DWORD PTR _this$[ebp]
  000bf	8b 45 08	 mov	 eax, DWORD PTR __New_size$[ebp]
  000c2	89 42 14	 mov	 DWORD PTR [edx+20], eax

; 4524 :         _Mypair._Myval2._Myres  = _New_capacity;

  000c5	8b 4d f8	 mov	 ecx, DWORD PTR _this$[ebp]
  000c8	8b 55 f0	 mov	 edx, DWORD PTR __New_capacity$[ebp]
  000cb	89 51 18	 mov	 DWORD PTR [ecx+24], edx

; 4525 :         _Fn(_Unfancy(_New_ptr), _New_size, _Args...);

  000ce	8b 45 10	 mov	 eax, DWORD PTR _<_Args_0>$[ebp]
  000d1	50		 push	 eax
  000d2	8b 4d 08	 mov	 ecx, DWORD PTR __New_size$[ebp]
  000d5	51		 push	 ecx
  000d6	8b 55 e4	 mov	 edx, DWORD PTR __New_ptr$[ebp]
  000d9	52		 push	 edx
  000da	e8 00 00 00 00	 call	 ??$_Unfancy@D@std@@YAPADPAD@Z ; std::_Unfancy<char>
  000df	83 c4 04	 add	 esp, 4
  000e2	50		 push	 eax
  000e3	8d 4d 0c	 lea	 ecx, DWORD PTR __Fn$[ebp]
  000e6	e8 00 00 00 00	 call	 ??R<lambda_1>@?1??assign@?$basic_string@DU?$char_traits@D@std@@V?$allocator@D@2@@std@@QAEAAV23@QBDI@Z@QBE@QADI0@Z ; `std::basic_string<char,std::char_traits<char>,std::allocator<char> >::assign'::`2'::<lambda_1>::operator()

; 4526 :         if (_BUF_SIZE <= _Old_capacity) {

  000eb	83 7d f4 10	 cmp	 DWORD PTR __Old_capacity$[ebp], 16 ; 00000010H
  000ef	72 21		 jb	 SHORT $LN4@Reallocate

; 4527 :             _Al.deallocate(_Mypair._Myval2._Bx._Ptr, _Old_capacity + 1);

  000f1	8b 45 f4	 mov	 eax, DWORD PTR __Old_capacity$[ebp]
  000f4	83 c0 01	 add	 eax, 1
  000f7	50		 push	 eax
  000f8	8b 4d f8	 mov	 ecx, DWORD PTR _this$[ebp]
  000fb	8b 51 04	 mov	 edx, DWORD PTR [ecx+4]
  000fe	52		 push	 edx
  000ff	8b 4d ec	 mov	 ecx, DWORD PTR __Al$[ebp]
  00102	e8 00 00 00 00	 call	 ?deallocate@?$allocator@D@std@@QAEXQADI@Z ; std::allocator<char>::deallocate

; 4528 :             _Mypair._Myval2._Bx._Ptr = _New_ptr;

  00107	8b 45 f8	 mov	 eax, DWORD PTR _this$[ebp]
  0010a	8b 4d e4	 mov	 ecx, DWORD PTR __New_ptr$[ebp]
  0010d	89 48 04	 mov	 DWORD PTR [eax+4], ecx

; 4529 :         } else {

  00110	eb 13		 jmp	 SHORT $LN5@Reallocate
$LN4@Reallocate:

; 4530 :             _Construct_in_place(_Mypair._Myval2._Bx._Ptr, _New_ptr);

  00112	8d 55 e4	 lea	 edx, DWORD PTR __New_ptr$[ebp]
  00115	52		 push	 edx
  00116	8b 45 f8	 mov	 eax, DWORD PTR _this$[ebp]
  00119	83 c0 04	 add	 eax, 4
  0011c	50		 push	 eax
  0011d	e8 00 00 00 00	 call	 ??$_Construct_in_place@PADABQAD@std@@YAXAAPADABQAD@Z ; std::_Construct_in_place<char *,char * const &>
  00122	83 c4 08	 add	 esp, 8
$LN5@Reallocate:

; 4531 :         }
; 4532 : 
; 4533 :         return *this;

  00125	8b 45 f8	 mov	 eax, DWORD PTR _this$[ebp]
$LN6@Reallocate:

; 4534 :     }

  00128	52		 push	 edx
  00129	8b cd		 mov	 ecx, ebp
  0012b	50		 push	 eax
  0012c	8d 15 00 00 00
	00		 lea	 edx, DWORD PTR $LN9@Reallocate
  00132	e8 00 00 00 00	 call	 @_RTC_CheckStackVars@8
  00137	58		 pop	 eax
  00138	5a		 pop	 edx
  00139	8b 4d fc	 mov	 ecx, DWORD PTR __$ArrayPad$[ebp]
  0013c	33 cd		 xor	 ecx, ebp
  0013e	e8 00 00 00 00	 call	 @__security_check_cookie@4
  00143	83 c4 20	 add	 esp, 32			; 00000020H
  00146	3b ec		 cmp	 ebp, esp
  00148	e8 00 00 00 00	 call	 __RTC_CheckEsp
  0014d	8b e5		 mov	 esp, ebp
  0014f	5d		 pop	 ebp
  00150	c2 0c 00	 ret	 12			; 0000000cH
  00153	90		 npad	 1
$LN9@Reallocate:
  00154	01 00 00 00	 DD	 1
  00158	00 00 00 00	 DD	 $LN8@Reallocate
$LN8@Reallocate:
  0015c	e4 ff ff ff	 DD	 -28			; ffffffe4H
  00160	04 00 00 00	 DD	 4
  00164	00 00 00 00	 DD	 $LN7@Reallocate
$LN7@Reallocate:
  00168	5f		 DB	 95			; 0000005fH
  00169	4e		 DB	 78			; 0000004eH
  0016a	65		 DB	 101			; 00000065H
  0016b	77		 DB	 119			; 00000077H
  0016c	5f		 DB	 95			; 0000005fH
  0016d	70		 DB	 112			; 00000070H
  0016e	74		 DB	 116			; 00000074H
  0016f	72		 DB	 114			; 00000072H
  00170	00		 DB	 0
??$_Reallocate_for@V<lambda_1>@?1??assign@?$basic_string@DU?$char_traits@D@std@@V?$allocator@D@2@@std@@QAEAAV34@QBDI@Z@PBD@?$basic_string@DU?$char_traits@D@std@@V?$allocator@D@2@@std@@AAEAAV01@IV<lambda_1>@?1??assign@01@QAEAAV01@QBDI@Z@PBD@Z ENDP ; std::basic_string<char,std::char_traits<char>,std::allocator<char> >::_Reallocate_for<`std::basic_string<char,std::char_traits<char>,std::allocator<char> >::assign'::`2'::<lambda_1>,char const *>
_TEXT	ENDS
; Function compile flags: /Odtp /RTCsu
; File C:\Program Files (x86)\Microsoft Visual Studio\2019\Community\VC\Tools\MSVC\14.29.30133\include\xstring
;	COMDAT ??R<lambda_1>@?1??assign@?$basic_string@DU?$char_traits@D@std@@V?$allocator@D@2@@std@@QAEAAV23@QBDI@Z@QBE@QADI0@Z
_TEXT	SEGMENT
$T1 = -5						; size = 1
_this$ = -4						; size = 4
__New_ptr$ = 8						; size = 4
__Count$ = 12						; size = 4
__Ptr$ = 16						; size = 4
??R<lambda_1>@?1??assign@?$basic_string@DU?$char_traits@D@std@@V?$allocator@D@2@@std@@QAEAAV23@QBDI@Z@QBE@QADI0@Z PROC ; `std::basic_string<char,std::char_traits<char>,std::allocator<char> >::assign'::`2'::<lambda_1>::operator(), COMDAT
; _this$ = ecx

; 3259 :             },

  00000	55		 push	 ebp
  00001	8b ec		 mov	 ebp, esp
  00003	83 ec 08	 sub	 esp, 8
  00006	c7 45 f8 cc cc
	cc cc		 mov	 DWORD PTR [ebp-8], -858993460 ; ccccccccH
  0000d	c7 45 fc cc cc
	cc cc		 mov	 DWORD PTR [ebp-4], -858993460 ; ccccccccH
  00014	89 4d fc	 mov	 DWORD PTR _this$[ebp], ecx
  00017	b9 00 00 00 00	 mov	 ecx, OFFSET __0D019051_xstring
  0001c	e8 00 00 00 00	 call	 @__CheckForDebuggerJustMyCode@4

; 3257 :                 _Traits::copy(_New_ptr, _Ptr, _Count);

  00021	8b 45 0c	 mov	 eax, DWORD PTR __Count$[ebp]
  00024	50		 push	 eax
  00025	8b 4d 10	 mov	 ecx, DWORD PTR __Ptr$[ebp]
  00028	51		 push	 ecx
  00029	8b 55 08	 mov	 edx, DWORD PTR __New_ptr$[ebp]
  0002c	52		 push	 edx
  0002d	e8 00 00 00 00	 call	 ?copy@?$_Char_traits@DH@std@@SAPADQADQBDI@Z ; std::_Char_traits<char,int>::copy
  00032	83 c4 0c	 add	 esp, 12			; 0000000cH

; 3258 :                 _Traits::assign(_New_ptr[_Count], _Elem());

  00035	c6 45 fb 00	 mov	 BYTE PTR $T1[ebp], 0
  00039	8d 45 fb	 lea	 eax, DWORD PTR $T1[ebp]
  0003c	50		 push	 eax
  0003d	8b 4d 08	 mov	 ecx, DWORD PTR __New_ptr$[ebp]
  00040	03 4d 0c	 add	 ecx, DWORD PTR __Count$[ebp]
  00043	51		 push	 ecx
  00044	e8 00 00 00 00	 call	 ?assign@?$_Narrow_char_traits@DH@std@@SAXAADABD@Z ; std::_Narrow_char_traits<char,int>::assign
  00049	83 c4 08	 add	 esp, 8

; 3259 :             },

  0004c	83 c4 08	 add	 esp, 8
  0004f	3b ec		 cmp	 ebp, esp
  00051	e8 00 00 00 00	 call	 __RTC_CheckEsp
  00056	8b e5		 mov	 esp, ebp
  00058	5d		 pop	 ebp
  00059	c2 0c 00	 ret	 12			; 0000000cH
??R<lambda_1>@?1??assign@?$basic_string@DU?$char_traits@D@std@@V?$allocator@D@2@@std@@QAEAAV23@QBDI@Z@QBE@QADI0@Z ENDP ; `std::basic_string<char,std::char_traits<char>,std::allocator<char> >::assign'::`2'::<lambda_1>::operator()
_TEXT	ENDS
; Function compile flags: /Odtp /RTCsu
; File C:\Program Files (x86)\Microsoft Visual Studio\2019\Community\VC\Tools\MSVC\14.29.30133\include\xstddef
;	COMDAT ??$_Unfancy@D@std@@YAPADPAD@Z
_TEXT	SEGMENT
__Ptr$ = 8						; size = 4
??$_Unfancy@D@std@@YAPADPAD@Z PROC			; std::_Unfancy<char>, COMDAT

; 288  : _NODISCARD constexpr _Ty* _Unfancy(_Ty* _Ptr) noexcept { // do nothing for plain pointers

  00000	55		 push	 ebp
  00001	8b ec		 mov	 ebp, esp
  00003	b9 00 00 00 00	 mov	 ecx, OFFSET __E458E21C_xstddef
  00008	e8 00 00 00 00	 call	 @__CheckForDebuggerJustMyCode@4

; 289  :     return _Ptr;

  0000d	8b 45 08	 mov	 eax, DWORD PTR __Ptr$[ebp]

; 290  : }

  00010	3b ec		 cmp	 ebp, esp
  00012	e8 00 00 00 00	 call	 __RTC_CheckEsp
  00017	5d		 pop	 ebp
  00018	c3		 ret	 0
??$_Unfancy@D@std@@YAPADPAD@Z ENDP			; std::_Unfancy<char>
_TEXT	ENDS
; Function compile flags: /Odtp /RTCsu
; File C:\Program Files (x86)\Microsoft Visual Studio\2019\Community\VC\Tools\MSVC\14.29.30133\include\xmemory
;	COMDAT ??$_Destroy_in_place@PAD@std@@YAXAAPAD@Z
_TEXT	SEGMENT
__Obj$ = 8						; size = 4
??$_Destroy_in_place@PAD@std@@YAXAAPAD@Z PROC		; std::_Destroy_in_place<char *>, COMDAT

; 307  : _CONSTEXPR20_DYNALLOC void _Destroy_in_place(_Ty& _Obj) noexcept {

  00000	55		 push	 ebp
  00001	8b ec		 mov	 ebp, esp
  00003	b9 00 00 00 00	 mov	 ecx, OFFSET __79D216CD_xmemory
  00008	e8 00 00 00 00	 call	 @__CheckForDebuggerJustMyCode@4

; 308  :     if constexpr (is_array_v<_Ty>) {
; 309  :         _Destroy_range(_Obj, _Obj + extent_v<_Ty>);
; 310  :     } else {
; 311  :         _Obj.~_Ty();
; 312  :     }
; 313  : }

  0000d	3b ec		 cmp	 ebp, esp
  0000f	e8 00 00 00 00	 call	 __RTC_CheckEsp
  00014	5d		 pop	 ebp
  00015	c3		 ret	 0
??$_Destroy_in_place@PAD@std@@YAXAAPAD@Z ENDP		; std::_Destroy_in_place<char *>
_TEXT	ENDS
; Function compile flags: /Odtp /RTCsu
; File C:\Program Files (x86)\Microsoft Visual Studio\2019\Community\VC\Tools\MSVC\14.29.30133\include\xstddef
;	COMDAT ??$_Unfancy@U_Container_proxy@std@@@std@@YAPAU_Container_proxy@0@PAU10@@Z
_TEXT	SEGMENT
__Ptr$ = 8						; size = 4
??$_Unfancy@U_Container_proxy@std@@@std@@YAPAU_Container_proxy@0@PAU10@@Z PROC ; std::_Unfancy<std::_Container_proxy>, COMDAT

; 288  : _NODISCARD constexpr _Ty* _Unfancy(_Ty* _Ptr) noexcept { // do nothing for plain pointers

  00000	55		 push	 ebp
  00001	8b ec		 mov	 ebp, esp
  00003	b9 00 00 00 00	 mov	 ecx, OFFSET __E458E21C_xstddef
  00008	e8 00 00 00 00	 call	 @__CheckForDebuggerJustMyCode@4

; 289  :     return _Ptr;

  0000d	8b 45 08	 mov	 eax, DWORD PTR __Ptr$[ebp]

; 290  : }

  00010	3b ec		 cmp	 ebp, esp
  00012	e8 00 00 00 00	 call	 __RTC_CheckEsp
  00017	5d		 pop	 ebp
  00018	c3		 ret	 0
??$_Unfancy@U_Container_proxy@std@@@std@@YAPAU_Container_proxy@0@PAU10@@Z ENDP ; std::_Unfancy<std::_Container_proxy>
_TEXT	ENDS
; Function compile flags: /Odtp /RTCsu
; File C:\Program Files (x86)\Microsoft Visual Studio\2019\Community\VC\Tools\MSVC\14.29.30133\include\xmemory
;	COMDAT ??$?0$$V@?$_Compressed_pair@V?$allocator@D@std@@V?$_String_val@U?$_Simple_types@D@std@@@2@$00@std@@QAE@U_Zero_then_variadic_args_t@1@@Z
_TEXT	SEGMENT
_this$ = -4						; size = 4
___formal$ = 8						; size = 1
??$?0$$V@?$_Compressed_pair@V?$allocator@D@std@@V?$_String_val@U?$_Simple_types@D@std@@@2@$00@std@@QAE@U_Zero_then_variadic_args_t@1@@Z PROC ; std::_Compressed_pair<std::allocator<char>,std::_String_val<std::_Simple_types<char> >,1>::_Compressed_pair<std::allocator<char>,std::_String_val<std::_Simple_types<char> >,1><>, COMDAT
; _this$ = ecx

; 1390 :         : _Ty1(), _Myval2(_STD forward<_Other2>(_Val2)...) {}

  00000	55		 push	 ebp
  00001	8b ec		 mov	 ebp, esp
  00003	51		 push	 ecx
  00004	c7 45 fc cc cc
	cc cc		 mov	 DWORD PTR [ebp-4], -858993460 ; ccccccccH
  0000b	89 4d fc	 mov	 DWORD PTR _this$[ebp], ecx
  0000e	b9 00 00 00 00	 mov	 ecx, OFFSET __79D216CD_xmemory
  00013	e8 00 00 00 00	 call	 @__CheckForDebuggerJustMyCode@4
  00018	8b 4d fc	 mov	 ecx, DWORD PTR _this$[ebp]
  0001b	e8 00 00 00 00	 call	 ??0?$allocator@D@std@@QAE@XZ ; std::allocator<char>::allocator<char>
  00020	8b 4d fc	 mov	 ecx, DWORD PTR _this$[ebp]
  00023	e8 00 00 00 00	 call	 ??0?$_String_val@U?$_Simple_types@D@std@@@std@@QAE@XZ ; std::_String_val<std::_Simple_types<char> >::_String_val<std::_Simple_types<char> >
  00028	8b 45 fc	 mov	 eax, DWORD PTR _this$[ebp]
  0002b	83 c4 04	 add	 esp, 4
  0002e	3b ec		 cmp	 ebp, esp
  00030	e8 00 00 00 00	 call	 __RTC_CheckEsp
  00035	8b e5		 mov	 esp, ebp
  00037	5d		 pop	 ebp
  00038	c2 04 00	 ret	 4
??$?0$$V@?$_Compressed_pair@V?$allocator@D@std@@V?$_String_val@U?$_Simple_types@D@std@@@2@$00@std@@QAE@U_Zero_then_variadic_args_t@1@@Z ENDP ; std::_Compressed_pair<std::allocator<char>,std::_String_val<std::_Simple_types<char> >,1>::_Compressed_pair<std::allocator<char>,std::_String_val<std::_Simple_types<char> >,1><>
_TEXT	ENDS
; Function compile flags: /Odtp /RTCsu
; File C:\Program Files (x86)\Microsoft Visual Studio\2019\Community\VC\Tools\MSVC\14.29.30133\include\xmemory
;	COMDAT ??$?0D@?$allocator@U_Container_proxy@std@@@std@@QAE@ABV?$allocator@D@1@@Z
_TEXT	SEGMENT
_this$ = -4						; size = 4
___formal$ = 8						; size = 4
??$?0D@?$allocator@U_Container_proxy@std@@@std@@QAE@ABV?$allocator@D@1@@Z PROC ; std::allocator<std::_Container_proxy>::allocator<std::_Container_proxy><char>, COMDAT
; _this$ = ecx

; 829  :     constexpr allocator(const allocator<_Other>&) noexcept {}

  00000	55		 push	 ebp
  00001	8b ec		 mov	 ebp, esp
  00003	51		 push	 ecx
  00004	c7 45 fc cc cc
	cc cc		 mov	 DWORD PTR [ebp-4], -858993460 ; ccccccccH
  0000b	89 4d fc	 mov	 DWORD PTR _this$[ebp], ecx
  0000e	b9 00 00 00 00	 mov	 ecx, OFFSET __79D216CD_xmemory
  00013	e8 00 00 00 00	 call	 @__CheckForDebuggerJustMyCode@4
  00018	8b 45 fc	 mov	 eax, DWORD PTR _this$[ebp]
  0001b	83 c4 04	 add	 esp, 4
  0001e	3b ec		 cmp	 ebp, esp
  00020	e8 00 00 00 00	 call	 __RTC_CheckEsp
  00025	8b e5		 mov	 esp, ebp
  00027	5d		 pop	 ebp
  00028	c2 04 00	 ret	 4
??$?0D@?$allocator@U_Container_proxy@std@@@std@@QAE@ABV?$allocator@D@1@@Z ENDP ; std::allocator<std::_Container_proxy>::allocator<std::_Container_proxy><char>
_TEXT	ENDS
; Function compile flags: /Odtp /RTCsu
; File C:\Program Files (x86)\Microsoft Visual Studio\2019\Community\VC\Tools\MSVC\14.29.30133\include\xmemory
;	COMDAT ??1?$_Container_proxy_ptr12@V?$allocator@U_Container_proxy@std@@@std@@@std@@QAE@XZ
_TEXT	SEGMENT
_this$ = -4						; size = 4
??1?$_Container_proxy_ptr12@V?$allocator@U_Container_proxy@std@@@std@@@std@@QAE@XZ PROC ; std::_Container_proxy_ptr12<std::allocator<std::_Container_proxy> >::~_Container_proxy_ptr12<std::allocator<std::_Container_proxy> >, COMDAT
; _this$ = ecx

; 1353 :     _CONSTEXPR20_CONTAINER ~_Container_proxy_ptr12() {

  00000	55		 push	 ebp
  00001	8b ec		 mov	 ebp, esp
  00003	51		 push	 ecx
  00004	c7 45 fc cc cc
	cc cc		 mov	 DWORD PTR [ebp-4], -858993460 ; ccccccccH
  0000b	89 4d fc	 mov	 DWORD PTR _this$[ebp], ecx
  0000e	b9 00 00 00 00	 mov	 ecx, OFFSET __79D216CD_xmemory
  00013	e8 00 00 00 00	 call	 @__CheckForDebuggerJustMyCode@4

; 1354 :         if (_Ptr) {

  00018	8b 45 fc	 mov	 eax, DWORD PTR _this$[ebp]
  0001b	83 38 00	 cmp	 DWORD PTR [eax], 0
  0001e	74 15		 je	 SHORT $LN3@Container_

; 1355 :             _Delete_plain_internal(_Al, _Ptr);

  00020	8b 4d fc	 mov	 ecx, DWORD PTR _this$[ebp]
  00023	8b 11		 mov	 edx, DWORD PTR [ecx]
  00025	52		 push	 edx
  00026	8b 45 fc	 mov	 eax, DWORD PTR _this$[ebp]
  00029	8b 48 04	 mov	 ecx, DWORD PTR [eax+4]
  0002c	51		 push	 ecx
  0002d	e8 00 00 00 00	 call	 ??$_Delete_plain_internal@V?$allocator@U_Container_proxy@std@@@std@@@std@@YAXAAV?$allocator@U_Container_proxy@std@@@0@QAU_Container_proxy@0@@Z ; std::_Delete_plain_internal<std::allocator<std::_Container_proxy> >
  00032	83 c4 08	 add	 esp, 8
$LN3@Container_:

; 1356 :         }
; 1357 :     }

  00035	83 c4 04	 add	 esp, 4
  00038	3b ec		 cmp	 ebp, esp
  0003a	e8 00 00 00 00	 call	 __RTC_CheckEsp
  0003f	8b e5		 mov	 esp, ebp
  00041	5d		 pop	 ebp
  00042	c3		 ret	 0
??1?$_Container_proxy_ptr12@V?$allocator@U_Container_proxy@std@@@std@@@std@@QAE@XZ ENDP ; std::_Container_proxy_ptr12<std::allocator<std::_Container_proxy> >::~_Container_proxy_ptr12<std::allocator<std::_Container_proxy> >
_TEXT	ENDS
; Function compile flags: /Odtp /RTCsu
; File C:\Program Files (x86)\Microsoft Visual Studio\2019\Community\VC\Tools\MSVC\14.29.30133\include\xmemory
;	COMDAT ??0?$_Container_proxy_ptr12@V?$allocator@U_Container_proxy@std@@@std@@@std@@QAE@AAV?$allocator@U_Container_proxy@std@@@1@AAU_Container_base12@1@@Z
_TEXT	SEGMENT
$T1 = -8						; size = 4
_this$ = -4						; size = 4
__Al_$ = 8						; size = 4
__Mycont$ = 12						; size = 4
??0?$_Container_proxy_ptr12@V?$allocator@U_Container_proxy@std@@@std@@@std@@QAE@AAV?$allocator@U_Container_proxy@std@@@1@AAU_Container_base12@1@@Z PROC ; std::_Container_proxy_ptr12<std::allocator<std::_Container_proxy> >::_Container_proxy_ptr12<std::allocator<std::_Container_proxy> >, COMDAT
; _this$ = ecx

; 1339 :     _CONSTEXPR20_CONTAINER _Container_proxy_ptr12(_Alloc& _Al_, _Container_base12& _Mycont) : _Al(_Al_) {

  00000	55		 push	 ebp
  00001	8b ec		 mov	 ebp, esp
  00003	83 ec 08	 sub	 esp, 8
  00006	c7 45 f8 cc cc
	cc cc		 mov	 DWORD PTR [ebp-8], -858993460 ; ccccccccH
  0000d	c7 45 fc cc cc
	cc cc		 mov	 DWORD PTR [ebp-4], -858993460 ; ccccccccH
  00014	89 4d fc	 mov	 DWORD PTR _this$[ebp], ecx
  00017	b9 00 00 00 00	 mov	 ecx, OFFSET __79D216CD_xmemory
  0001c	e8 00 00 00 00	 call	 @__CheckForDebuggerJustMyCode@4
  00021	8b 4d fc	 mov	 ecx, DWORD PTR _this$[ebp]
  00024	e8 00 00 00 00	 call	 ??0_Basic_container_proxy_ptr12@std@@IAE@XZ ; std::_Basic_container_proxy_ptr12::_Basic_container_proxy_ptr12
  00029	8b 45 fc	 mov	 eax, DWORD PTR _this$[ebp]
  0002c	8b 4d 08	 mov	 ecx, DWORD PTR __Al_$[ebp]
  0002f	89 48 04	 mov	 DWORD PTR [eax+4], ecx

; 1340 :         // create a new _Container_proxy pointing at _Mycont
; 1341 :         _Ptr = _Unfancy(_Al_.allocate(1));

  00032	6a 01		 push	 1
  00034	8b 4d 08	 mov	 ecx, DWORD PTR __Al_$[ebp]
  00037	e8 00 00 00 00	 call	 ?allocate@?$allocator@U_Container_proxy@std@@@std@@QAEPAU_Container_proxy@2@I@Z ; std::allocator<std::_Container_proxy>::allocate
  0003c	50		 push	 eax
  0003d	e8 00 00 00 00	 call	 ??$_Unfancy@U_Container_proxy@std@@@std@@YAPAU_Container_proxy@0@PAU10@@Z ; std::_Unfancy<std::_Container_proxy>
  00042	83 c4 04	 add	 esp, 4
  00045	8b 55 fc	 mov	 edx, DWORD PTR _this$[ebp]
  00048	89 02		 mov	 DWORD PTR [edx], eax

; 1342 :         _Construct_in_place(*_Ptr, _STD addressof(_Mycont));

  0004a	8b 45 0c	 mov	 eax, DWORD PTR __Mycont$[ebp]
  0004d	50		 push	 eax
  0004e	e8 00 00 00 00	 call	 ??$addressof@U_Container_base12@std@@@std@@YAPAU_Container_base12@0@AAU10@@Z ; std::addressof<std::_Container_base12>
  00053	83 c4 04	 add	 esp, 4
  00056	89 45 f8	 mov	 DWORD PTR $T1[ebp], eax
  00059	8d 4d f8	 lea	 ecx, DWORD PTR $T1[ebp]
  0005c	51		 push	 ecx
  0005d	8b 55 fc	 mov	 edx, DWORD PTR _this$[ebp]
  00060	8b 02		 mov	 eax, DWORD PTR [edx]
  00062	50		 push	 eax
  00063	e8 00 00 00 00	 call	 ??$_Construct_in_place@U_Container_proxy@std@@PAU_Container_base12@2@@std@@YAXAAU_Container_proxy@0@$$QAPAU_Container_base12@0@@Z ; std::_Construct_in_place<std::_Container_proxy,std::_Container_base12 *>
  00068	83 c4 08	 add	 esp, 8

; 1343 :         _Mycont._Myproxy = _Ptr;

  0006b	8b 4d 0c	 mov	 ecx, DWORD PTR __Mycont$[ebp]
  0006e	8b 55 fc	 mov	 edx, DWORD PTR _this$[ebp]
  00071	8b 02		 mov	 eax, DWORD PTR [edx]
  00073	89 01		 mov	 DWORD PTR [ecx], eax

; 1344 :     }

  00075	8b 45 fc	 mov	 eax, DWORD PTR _this$[ebp]
  00078	83 c4 08	 add	 esp, 8
  0007b	3b ec		 cmp	 ebp, esp
  0007d	e8 00 00 00 00	 call	 __RTC_CheckEsp
  00082	8b e5		 mov	 esp, ebp
  00084	5d		 pop	 ebp
  00085	c2 08 00	 ret	 8
??0?$_Container_proxy_ptr12@V?$allocator@U_Container_proxy@std@@@std@@@std@@QAE@AAV?$allocator@U_Container_proxy@std@@@1@AAU_Container_base12@1@@Z ENDP ; std::_Container_proxy_ptr12<std::allocator<std::_Container_proxy> >::_Container_proxy_ptr12<std::allocator<std::_Container_proxy> >
_TEXT	ENDS
; Function compile flags: /Odtp /RTCsu
; File C:\Program Files (x86)\Microsoft Visual Studio\2019\Community\VC\Tools\MSVC\14.29.30133\include\xmemory
;	COMDAT ??$_Delete_plain_internal@V?$allocator@U_Container_proxy@std@@@std@@@std@@YAXAAV?$allocator@U_Container_proxy@std@@@0@QAU_Container_proxy@0@@Z
_TEXT	SEGMENT
__Al$ = 8						; size = 4
__Ptr$ = 12						; size = 4
??$_Delete_plain_internal@V?$allocator@U_Container_proxy@std@@@std@@@std@@YAXAAV?$allocator@U_Container_proxy@std@@@0@QAU_Container_proxy@0@@Z PROC ; std::_Delete_plain_internal<std::allocator<std::_Container_proxy> >, COMDAT

; 998  : _CONSTEXPR20_DYNALLOC void _Delete_plain_internal(_Alloc& _Al, typename _Alloc::value_type* const _Ptr) noexcept {

  00000	55		 push	 ebp
  00001	8b ec		 mov	 ebp, esp
  00003	b9 00 00 00 00	 mov	 ecx, OFFSET __79D216CD_xmemory
  00008	e8 00 00 00 00	 call	 @__CheckForDebuggerJustMyCode@4

; 999  :     // destroy *_Ptr in place, then deallocate _Ptr using _Al; used for internal container types the user didn't name
; 1000 :     using _Ty = typename _Alloc::value_type;
; 1001 :     _Ptr->~_Ty();
; 1002 :     _Deallocate_plain(_Al, _Ptr);

  0000d	8b 45 0c	 mov	 eax, DWORD PTR __Ptr$[ebp]
  00010	50		 push	 eax
  00011	8b 4d 08	 mov	 ecx, DWORD PTR __Al$[ebp]
  00014	51		 push	 ecx
  00015	e8 00 00 00 00	 call	 ??$_Deallocate_plain@V?$allocator@U_Container_proxy@std@@@std@@@std@@YAXAAV?$allocator@U_Container_proxy@std@@@0@QAU_Container_proxy@0@@Z ; std::_Deallocate_plain<std::allocator<std::_Container_proxy> >
  0001a	83 c4 08	 add	 esp, 8

; 1003 : }

  0001d	3b ec		 cmp	 ebp, esp
  0001f	e8 00 00 00 00	 call	 __RTC_CheckEsp
  00024	5d		 pop	 ebp
  00025	c3		 ret	 0
??$_Delete_plain_internal@V?$allocator@U_Container_proxy@std@@@std@@@std@@YAXAAV?$allocator@U_Container_proxy@std@@@0@QAU_Container_proxy@0@@Z ENDP ; std::_Delete_plain_internal<std::allocator<std::_Container_proxy> >
_TEXT	ENDS
; Function compile flags: /Odtp /RTCsu
; File C:\Program Files (x86)\Microsoft Visual Studio\2019\Community\VC\Tools\MSVC\14.29.30133\include\xmemory
;	COMDAT ?allocate@?$allocator@U_Container_proxy@std@@@std@@QAEPAU_Container_proxy@2@I@Z
_TEXT	SEGMENT
_this$ = -4						; size = 4
__Count$ = 8						; size = 4
?allocate@?$allocator@U_Container_proxy@std@@@std@@QAEPAU_Container_proxy@2@I@Z PROC ; std::allocator<std::_Container_proxy>::allocate, COMDAT
; _this$ = ecx

; 838  :     _NODISCARD _CONSTEXPR20_DYNALLOC __declspec(allocator) _Ty* allocate(_CRT_GUARDOVERFLOW const size_t _Count) {

  00000	55		 push	 ebp
  00001	8b ec		 mov	 ebp, esp
  00003	51		 push	 ecx
  00004	c7 45 fc cc cc
	cc cc		 mov	 DWORD PTR [ebp-4], -858993460 ; ccccccccH
  0000b	89 4d fc	 mov	 DWORD PTR _this$[ebp], ecx
  0000e	b9 00 00 00 00	 mov	 ecx, OFFSET __79D216CD_xmemory
  00013	e8 00 00 00 00	 call	 @__CheckForDebuggerJustMyCode@4

; 839  :         return static_cast<_Ty*>(_Allocate<_New_alignof<_Ty>>(_Get_size_of_n<sizeof(_Ty)>(_Count)));

  00018	8b 45 08	 mov	 eax, DWORD PTR __Count$[ebp]
  0001b	50		 push	 eax
  0001c	e8 00 00 00 00	 call	 ??$_Get_size_of_n@$07@std@@YAII@Z ; std::_Get_size_of_n<8>
  00021	83 c4 04	 add	 esp, 4
  00024	50		 push	 eax
  00025	e8 00 00 00 00	 call	 ??$_Allocate@$07U_Default_allocate_traits@std@@$0A@@std@@YAPAXI@Z ; std::_Allocate<8,std::_Default_allocate_traits,0>
  0002a	83 c4 04	 add	 esp, 4

; 840  :     }

  0002d	83 c4 04	 add	 esp, 4
  00030	3b ec		 cmp	 ebp, esp
  00032	e8 00 00 00 00	 call	 __RTC_CheckEsp
  00037	8b e5		 mov	 esp, ebp
  00039	5d		 pop	 ebp
  0003a	c2 04 00	 ret	 4
?allocate@?$allocator@U_Container_proxy@std@@@std@@QAEPAU_Container_proxy@2@I@Z ENDP ; std::allocator<std::_Container_proxy>::allocate
_TEXT	ENDS
; Function compile flags: /Odtp /RTCsu
; File C:\Program Files (x86)\Microsoft Visual Studio\2019\Community\VC\Tools\MSVC\14.29.30133\include\xmemory
;	COMDAT ?deallocate@?$allocator@U_Container_proxy@std@@@std@@QAEXQAU_Container_proxy@2@I@Z
_TEXT	SEGMENT
_this$ = -4						; size = 4
__Ptr$ = 8						; size = 4
__Count$ = 12						; size = 4
?deallocate@?$allocator@U_Container_proxy@std@@@std@@QAEXQAU_Container_proxy@2@I@Z PROC ; std::allocator<std::_Container_proxy>::deallocate, COMDAT
; _this$ = ecx

; 833  :     _CONSTEXPR20_DYNALLOC void deallocate(_Ty* const _Ptr, const size_t _Count) {

  00000	55		 push	 ebp
  00001	8b ec		 mov	 ebp, esp
  00003	51		 push	 ecx
  00004	c7 45 fc cc cc
	cc cc		 mov	 DWORD PTR [ebp-4], -858993460 ; ccccccccH
  0000b	89 4d fc	 mov	 DWORD PTR _this$[ebp], ecx
  0000e	b9 00 00 00 00	 mov	 ecx, OFFSET __79D216CD_xmemory
  00013	e8 00 00 00 00	 call	 @__CheckForDebuggerJustMyCode@4

; 834  :         // no overflow check on the following multiply; we assume _Allocate did that check
; 835  :         _Deallocate<_New_alignof<_Ty>>(_Ptr, sizeof(_Ty) * _Count);

  00018	8b 45 0c	 mov	 eax, DWORD PTR __Count$[ebp]
  0001b	c1 e0 03	 shl	 eax, 3
  0001e	50		 push	 eax
  0001f	8b 4d 08	 mov	 ecx, DWORD PTR __Ptr$[ebp]
  00022	51		 push	 ecx
  00023	e8 00 00 00 00	 call	 ??$_Deallocate@$07$0A@@std@@YAXPAXI@Z ; std::_Deallocate<8,0>
  00028	83 c4 08	 add	 esp, 8

; 836  :     }

  0002b	83 c4 04	 add	 esp, 4
  0002e	3b ec		 cmp	 ebp, esp
  00030	e8 00 00 00 00	 call	 __RTC_CheckEsp
  00035	8b e5		 mov	 esp, ebp
  00037	5d		 pop	 ebp
  00038	c2 08 00	 ret	 8
?deallocate@?$allocator@U_Container_proxy@std@@@std@@QAEXQAU_Container_proxy@2@I@Z ENDP ; std::allocator<std::_Container_proxy>::deallocate
_TEXT	ENDS
; Function compile flags: /Odtp /RTCsu
; File C:\Program Files (x86)\Microsoft Visual Studio\2019\Community\VC\Tools\MSVC\14.29.30133\include\utility
;	COMDAT ??$min@I@std@@YAABIABI0@Z
_TEXT	SEGMENT
tv65 = -8						; size = 4
$T1 = -4						; size = 4
__Left$ = 8						; size = 4
__Right$ = 12						; size = 4
??$min@I@std@@YAABIABI0@Z PROC				; std::min<unsigned int>, COMDAT

; 66   :     const _Ty& _Left, const _Ty& _Right) noexcept(noexcept(_Right < _Left)) /* strengthened */ {

  00000	55		 push	 ebp
  00001	8b ec		 mov	 ebp, esp
  00003	83 ec 08	 sub	 esp, 8
  00006	c7 45 f8 cc cc
	cc cc		 mov	 DWORD PTR [ebp-8], -858993460 ; ccccccccH
  0000d	c7 45 fc cc cc
	cc cc		 mov	 DWORD PTR [ebp-4], -858993460 ; ccccccccH
  00014	b9 00 00 00 00	 mov	 ecx, OFFSET __1347750E_utility
  00019	e8 00 00 00 00	 call	 @__CheckForDebuggerJustMyCode@4

; 67   :     // return smaller of _Left and _Right
; 68   :     return _Right < _Left ? _Right : _Left;

  0001e	8b 45 0c	 mov	 eax, DWORD PTR __Right$[ebp]
  00021	8b 4d 08	 mov	 ecx, DWORD PTR __Left$[ebp]
  00024	8b 10		 mov	 edx, DWORD PTR [eax]
  00026	3b 11		 cmp	 edx, DWORD PTR [ecx]
  00028	73 08		 jae	 SHORT $LN3@min
  0002a	8b 45 0c	 mov	 eax, DWORD PTR __Right$[ebp]
  0002d	89 45 f8	 mov	 DWORD PTR tv65[ebp], eax
  00030	eb 06		 jmp	 SHORT $LN4@min
$LN3@min:
  00032	8b 4d 08	 mov	 ecx, DWORD PTR __Left$[ebp]
  00035	89 4d f8	 mov	 DWORD PTR tv65[ebp], ecx
$LN4@min:
  00038	8b 55 f8	 mov	 edx, DWORD PTR tv65[ebp]
  0003b	89 55 fc	 mov	 DWORD PTR $T1[ebp], edx
  0003e	8b 45 fc	 mov	 eax, DWORD PTR $T1[ebp]

; 69   : }

  00041	83 c4 08	 add	 esp, 8
  00044	3b ec		 cmp	 ebp, esp
  00046	e8 00 00 00 00	 call	 __RTC_CheckEsp
  0004b	8b e5		 mov	 esp, ebp
  0004d	5d		 pop	 ebp
  0004e	c3		 ret	 0
??$min@I@std@@YAABIABI0@Z ENDP				; std::min<unsigned int>
_TEXT	ENDS
; Function compile flags: /Odtp /RTCsu
; File C:\Users\theob\Documents\GitHub\as-pts1\travail\ProjetTutore1\Element.cpp
_TEXT	SEGMENT
_intersec$ = -28					; size = 16
_this$ = -8						; size = 4
__$ArrayPad$ = -4					; size = 4
_e$ = 8							; size = 16
?collide@Block@@QAE_NV?$Rect@H@sf@@@Z PROC		; Block::collide
; _this$ = ecx

; 27   : {

  00000	55		 push	 ebp
  00001	8b ec		 mov	 ebp, esp
  00003	83 ec 20	 sub	 esp, 32			; 00000020H
  00006	b8 cc cc cc cc	 mov	 eax, -858993460		; ccccccccH
  0000b	89 45 e0	 mov	 DWORD PTR [ebp-32], eax
  0000e	89 45 e4	 mov	 DWORD PTR [ebp-28], eax
  00011	89 45 e8	 mov	 DWORD PTR [ebp-24], eax
  00014	89 45 ec	 mov	 DWORD PTR [ebp-20], eax
  00017	89 45 f0	 mov	 DWORD PTR [ebp-16], eax
  0001a	89 45 f4	 mov	 DWORD PTR [ebp-12], eax
  0001d	89 45 f8	 mov	 DWORD PTR [ebp-8], eax
  00020	89 45 fc	 mov	 DWORD PTR [ebp-4], eax
  00023	a1 00 00 00 00	 mov	 eax, DWORD PTR ___security_cookie
  00028	33 c5		 xor	 eax, ebp
  0002a	89 45 fc	 mov	 DWORD PTR __$ArrayPad$[ebp], eax
  0002d	89 4d f8	 mov	 DWORD PTR _this$[ebp], ecx
  00030	b9 00 00 00 00	 mov	 ecx, OFFSET __DF7BE9E9_Element@cpp
  00035	e8 00 00 00 00	 call	 @__CheckForDebuggerJustMyCode@4

; 28   : 	sf::IntRect intersec;

  0003a	8d 4d e4	 lea	 ecx, DWORD PTR _intersec$[ebp]
  0003d	e8 00 00 00 00	 call	 ??0?$Rect@H@sf@@QAE@XZ	; sf::Rect<int>::Rect<int>

; 29   : 	return e.intersects(rect, intersec) ;

  00042	8d 45 e4	 lea	 eax, DWORD PTR _intersec$[ebp]
  00045	50		 push	 eax
  00046	8b 4d f8	 mov	 ecx, DWORD PTR _this$[ebp]
  00049	83 c1 0c	 add	 ecx, 12			; 0000000cH
  0004c	51		 push	 ecx
  0004d	8d 4d 08	 lea	 ecx, DWORD PTR _e$[ebp]
  00050	e8 00 00 00 00	 call	 ?intersects@?$Rect@H@sf@@QBE_NABV12@AAV12@@Z ; sf::Rect<int>::intersects

; 30   : }

  00055	52		 push	 edx
  00056	8b cd		 mov	 ecx, ebp
  00058	50		 push	 eax
  00059	8d 15 00 00 00
	00		 lea	 edx, DWORD PTR $LN5@collide
  0005f	e8 00 00 00 00	 call	 @_RTC_CheckStackVars@8
  00064	58		 pop	 eax
  00065	5a		 pop	 edx
  00066	8b 4d fc	 mov	 ecx, DWORD PTR __$ArrayPad$[ebp]
  00069	33 cd		 xor	 ecx, ebp
  0006b	e8 00 00 00 00	 call	 @__security_check_cookie@4
  00070	83 c4 20	 add	 esp, 32			; 00000020H
  00073	3b ec		 cmp	 ebp, esp
  00075	e8 00 00 00 00	 call	 __RTC_CheckEsp
  0007a	8b e5		 mov	 esp, ebp
  0007c	5d		 pop	 ebp
  0007d	c2 10 00	 ret	 16			; 00000010H
$LN5@collide:
  00080	01 00 00 00	 DD	 1
  00084	00 00 00 00	 DD	 $LN4@collide
$LN4@collide:
  00088	e4 ff ff ff	 DD	 -28			; ffffffe4H
  0008c	10 00 00 00	 DD	 16			; 00000010H
  00090	00 00 00 00	 DD	 $LN3@collide
$LN3@collide:
  00094	69		 DB	 105			; 00000069H
  00095	6e		 DB	 110			; 0000006eH
  00096	74		 DB	 116			; 00000074H
  00097	65		 DB	 101			; 00000065H
  00098	72		 DB	 114			; 00000072H
  00099	73		 DB	 115			; 00000073H
  0009a	65		 DB	 101			; 00000065H
  0009b	63		 DB	 99			; 00000063H
  0009c	00		 DB	 0
?collide@Block@@QAE_NV?$Rect@H@sf@@@Z ENDP		; Block::collide
_TEXT	ENDS
; Function compile flags: /Odtp /RTCsu
; File C:\Users\theob\Documents\GitHub\as-pts1\travail\ProjetTutore1\Element.cpp
_TEXT	SEGMENT
tv77 = -8						; size = 4
_this$ = -4						; size = 4
_window$ = 8						; size = 4
?show@Block@@QAEXAAVRenderWindow@sf@@@Z PROC		; Block::show
; _this$ = ecx

; 16   : {

  00000	55		 push	 ebp
  00001	8b ec		 mov	 ebp, esp
  00003	83 ec 08	 sub	 esp, 8
  00006	56		 push	 esi
  00007	c7 45 f8 cc cc
	cc cc		 mov	 DWORD PTR [ebp-8], -858993460 ; ccccccccH
  0000e	c7 45 fc cc cc
	cc cc		 mov	 DWORD PTR [ebp-4], -858993460 ; ccccccccH
  00015	89 4d fc	 mov	 DWORD PTR _this$[ebp], ecx
  00018	b9 00 00 00 00	 mov	 ecx, OFFSET __DF7BE9E9_Element@cpp
  0001d	e8 00 00 00 00	 call	 @__CheckForDebuggerJustMyCode@4

; 17   : 	window.draw(*sprite);

  00022	8b 45 08	 mov	 eax, DWORD PTR _window$[ebp]
  00025	83 c0 30	 add	 eax, 48			; 00000030H
  00028	89 45 f8	 mov	 DWORD PTR tv77[ebp], eax
  0002b	8b f4		 mov	 esi, esp
  0002d	8b 0d 00 00 00
	00		 mov	 ecx, DWORD PTR __imp_?Default@RenderStates@sf@@2V12@B
  00033	51		 push	 ecx
  00034	8b 55 fc	 mov	 edx, DWORD PTR _this$[ebp]
  00037	8b 42 24	 mov	 eax, DWORD PTR [edx+36]
  0003a	50		 push	 eax
  0003b	8b 4d f8	 mov	 ecx, DWORD PTR tv77[ebp]
  0003e	ff 15 00 00 00
	00		 call	 DWORD PTR __imp_?draw@RenderTarget@sf@@QAEXABVDrawable@2@ABVRenderStates@2@@Z
  00044	3b f4		 cmp	 esi, esp
  00046	e8 00 00 00 00	 call	 __RTC_CheckEsp

; 18   : 
; 19   : }

  0004b	5e		 pop	 esi
  0004c	83 c4 08	 add	 esp, 8
  0004f	3b ec		 cmp	 ebp, esp
  00051	e8 00 00 00 00	 call	 __RTC_CheckEsp
  00056	8b e5		 mov	 esp, ebp
  00058	5d		 pop	 ebp
  00059	c2 04 00	 ret	 4
?show@Block@@QAEXAAVRenderWindow@sf@@@Z ENDP		; Block::show
_TEXT	ENDS
; Function compile flags: /Odtp /RTCsu
; File C:\Users\theob\Documents\GitHub\as-pts1\travail\ProjetTutore1\Element.cpp
_TEXT	SEGMENT
tv79 = -16						; size = 4
tv78 = -12						; size = 4
$T1 = -8						; size = 4
_this$ = -4						; size = 4
??1Block@@QAE@XZ PROC					; Block::~Block
; _this$ = ecx

; 21   : {

  00000	55		 push	 ebp
  00001	8b ec		 mov	 ebp, esp
  00003	83 ec 10	 sub	 esp, 16			; 00000010H
  00006	56		 push	 esi
  00007	b8 cc cc cc cc	 mov	 eax, -858993460		; ccccccccH
  0000c	89 45 f0	 mov	 DWORD PTR [ebp-16], eax
  0000f	89 45 f4	 mov	 DWORD PTR [ebp-12], eax
  00012	89 45 f8	 mov	 DWORD PTR [ebp-8], eax
  00015	89 45 fc	 mov	 DWORD PTR [ebp-4], eax
  00018	89 4d fc	 mov	 DWORD PTR _this$[ebp], ecx
  0001b	b9 00 00 00 00	 mov	 ecx, OFFSET __DF7BE9E9_Element@cpp
  00020	e8 00 00 00 00	 call	 @__CheckForDebuggerJustMyCode@4

; 22   : 	delete(sprite);

  00025	8b 45 fc	 mov	 eax, DWORD PTR _this$[ebp]
  00028	8b 48 24	 mov	 ecx, DWORD PTR [eax+36]
  0002b	89 4d f8	 mov	 DWORD PTR $T1[ebp], ecx
  0002e	83 7d f8 00	 cmp	 DWORD PTR $T1[ebp], 0
  00032	74 20		 je	 SHORT $LN3@Block
  00034	8b 55 f8	 mov	 edx, DWORD PTR $T1[ebp]
  00037	8b 02		 mov	 eax, DWORD PTR [edx]
  00039	8b 08		 mov	 ecx, DWORD PTR [eax]
  0003b	89 4d f4	 mov	 DWORD PTR tv78[ebp], ecx
  0003e	8b f4		 mov	 esi, esp
  00040	6a 01		 push	 1
  00042	8b 4d f8	 mov	 ecx, DWORD PTR $T1[ebp]
  00045	ff 55 f4	 call	 DWORD PTR tv78[ebp]
  00048	3b f4		 cmp	 esi, esp
  0004a	e8 00 00 00 00	 call	 __RTC_CheckEsp
  0004f	89 45 f0	 mov	 DWORD PTR tv79[ebp], eax
  00052	eb 07		 jmp	 SHORT $LN1@Block
$LN3@Block:
  00054	c7 45 f0 00 00
	00 00		 mov	 DWORD PTR tv79[ebp], 0
$LN1@Block:

; 23   : }

  0005b	8b 4d fc	 mov	 ecx, DWORD PTR _this$[ebp]
  0005e	83 c1 2c	 add	 ecx, 44			; 0000002cH
  00061	e8 00 00 00 00	 call	 ??1?$basic_string@DU?$char_traits@D@std@@V?$allocator@D@2@@std@@QAE@XZ ; std::basic_string<char,std::char_traits<char>,std::allocator<char> >::~basic_string<char,std::char_traits<char>,std::allocator<char> >
  00066	5e		 pop	 esi
  00067	83 c4 10	 add	 esp, 16			; 00000010H
  0006a	3b ec		 cmp	 ebp, esp
  0006c	e8 00 00 00 00	 call	 __RTC_CheckEsp
  00071	8b e5		 mov	 esp, ebp
  00073	5d		 pop	 ebp
  00074	c3		 ret	 0
??1Block@@QAE@XZ ENDP					; Block::~Block
_TEXT	ENDS
; Function compile flags: /Odtp /RTCsu
; File C:\Users\theob\Documents\GitHub\as-pts1\travail\ProjetTutore1\Element.cpp
; File C:\Users\theob\Documents\GitHub\as-pts1\travail\ProjetTutore1\Element.h
; File C:\Users\theob\Documents\GitHub\as-pts1\travail\ProjetTutore1\Element.cpp
_TEXT	SEGMENT
tv187 = -68						; size = 4
tv157 = -64						; size = 4
tv141 = -60						; size = 4
tv75 = -56						; size = 4
$T2 = -52						; size = 4
$T3 = -48						; size = 4
$T4 = -44						; size = 16
$T5 = -28						; size = 4
$T6 = -24						; size = 4
_tex$ = -20						; size = 4
_this$ = -16						; size = 4
__$EHRec$ = -12						; size = 12
_ye$ = 8						; size = 4
_xe$ = 12						; size = 4
_recte$ = 16						; size = 16
_imge$ = 32						; size = 4
??0Block@@QAE@HHV?$Rect@H@sf@@ABVImage@2@@Z PROC	; Block::Block
; _this$ = ecx

; 4    : Block::Block(int ye, int xe, sf::IntRect recte, const sf::Image & imge) {

  00000	55		 push	 ebp
  00001	8b ec		 mov	 ebp, esp
  00003	6a ff		 push	 -1
  00005	68 00 00 00 00	 push	 __ehhandler$??0Block@@QAE@HHV?$Rect@H@sf@@ABVImage@2@@Z
  0000a	64 a1 00 00 00
	00		 mov	 eax, DWORD PTR fs:0
  00010	50		 push	 eax
  00011	83 ec 38	 sub	 esp, 56			; 00000038H
  00014	56		 push	 esi
  00015	57		 push	 edi
  00016	51		 push	 ecx
  00017	8d 7d bc	 lea	 edi, DWORD PTR [ebp-68]
  0001a	b9 0e 00 00 00	 mov	 ecx, 14			; 0000000eH
  0001f	b8 cc cc cc cc	 mov	 eax, -858993460		; ccccccccH
  00024	f3 ab		 rep stosd
  00026	59		 pop	 ecx
  00027	a1 00 00 00 00	 mov	 eax, DWORD PTR ___security_cookie
  0002c	33 c5		 xor	 eax, ebp
  0002e	50		 push	 eax
  0002f	8d 45 f4	 lea	 eax, DWORD PTR __$EHRec$[ebp]
  00032	64 a3 00 00 00
	00		 mov	 DWORD PTR fs:0, eax
  00038	89 4d f0	 mov	 DWORD PTR _this$[ebp], ecx
  0003b	b9 00 00 00 00	 mov	 ecx, OFFSET __DF7BE9E9_Element@cpp
  00040	e8 00 00 00 00	 call	 @__CheckForDebuggerJustMyCode@4
  00045	8b 4d f0	 mov	 ecx, DWORD PTR _this$[ebp]
  00048	e8 00 00 00 00	 call	 ??0Tile@@QAE@XZ		; Tile::Tile
; File C:\Users\theob\Documents\GitHub\as-pts1\travail\ProjetTutore1\Element.h

; 8    : 	bool isPhy = true;

  0004d	8b 45 f0	 mov	 eax, DWORD PTR _this$[ebp]
  00050	c6 40 28 01	 mov	 BYTE PTR [eax+40], 1

; 9    : public:
; 10   : 		std::string className = "Element";

  00054	8b 4d f0	 mov	 ecx, DWORD PTR _this$[ebp]
  00057	83 c1 2c	 add	 ecx, 44			; 0000002cH
  0005a	89 4d c8	 mov	 DWORD PTR tv75[ebp], ecx
  0005d	68 00 00 00 00	 push	 OFFSET $SG74540
  00062	8b 4d c8	 mov	 ecx, DWORD PTR tv75[ebp]
  00065	e8 00 00 00 00	 call	 ??0?$basic_string@DU?$char_traits@D@std@@V?$allocator@D@2@@std@@QAE@QBD@Z ; std::basic_string<char,std::char_traits<char>,std::allocator<char> >::basic_string<char,std::char_traits<char>,std::allocator<char> >
  0006a	c7 45 fc 00 00
	00 00		 mov	 DWORD PTR __$EHRec$[ebp+8], 0
; File C:\Users\theob\Documents\GitHub\as-pts1\travail\ProjetTutore1\Element.cpp

; 5    : 	type = TerrainElement::Element;

  00071	8b 55 f0	 mov	 edx, DWORD PTR _this$[ebp]
  00074	c7 02 02 00 00
	00		 mov	 DWORD PTR [edx], 2

; 6    : 	rect = recte;

  0007a	8b 45 f0	 mov	 eax, DWORD PTR _this$[ebp]
  0007d	83 c0 0c	 add	 eax, 12			; 0000000cH
  00080	8b 4d 10	 mov	 ecx, DWORD PTR _recte$[ebp]
  00083	89 08		 mov	 DWORD PTR [eax], ecx
  00085	8b 55 14	 mov	 edx, DWORD PTR _recte$[ebp+4]
  00088	89 50 04	 mov	 DWORD PTR [eax+4], edx
  0008b	8b 4d 18	 mov	 ecx, DWORD PTR _recte$[ebp+8]
  0008e	89 48 08	 mov	 DWORD PTR [eax+8], ecx
  00091	8b 55 1c	 mov	 edx, DWORD PTR _recte$[ebp+12]
  00094	89 50 0c	 mov	 DWORD PTR [eax+12], edx

; 7    : 	x = xe;

  00097	8b 45 f0	 mov	 eax, DWORD PTR _this$[ebp]
  0009a	8b 4d 0c	 mov	 ecx, DWORD PTR _xe$[ebp]
  0009d	89 48 04	 mov	 DWORD PTR [eax+4], ecx

; 8    : 	y = ye;

  000a0	8b 55 f0	 mov	 edx, DWORD PTR _this$[ebp]
  000a3	8b 45 08	 mov	 eax, DWORD PTR _ye$[ebp]
  000a6	89 42 08	 mov	 DWORD PTR [edx+8], eax

; 9    : 	sf::Texture *tex =  new sf::Texture();//Attention  l'allocation random

  000a9	6a 28		 push	 40			; 00000028H
  000ab	e8 00 00 00 00	 call	 ??2@YAPAXI@Z		; operator new
  000b0	83 c4 04	 add	 esp, 4
  000b3	89 45 e4	 mov	 DWORD PTR $T5[ebp], eax
  000b6	c6 45 fc 01	 mov	 BYTE PTR __$EHRec$[ebp+8], 1
  000ba	83 7d e4 00	 cmp	 DWORD PTR $T5[ebp], 0
  000be	74 17		 je	 SHORT $LN3@Block
  000c0	8b f4		 mov	 esi, esp
  000c2	8b 4d e4	 mov	 ecx, DWORD PTR $T5[ebp]
  000c5	ff 15 00 00 00
	00		 call	 DWORD PTR __imp_??0Texture@sf@@QAE@XZ
  000cb	3b f4		 cmp	 esi, esp
  000cd	e8 00 00 00 00	 call	 __RTC_CheckEsp
  000d2	89 45 c4	 mov	 DWORD PTR tv141[ebp], eax
  000d5	eb 07		 jmp	 SHORT $LN4@Block
$LN3@Block:
  000d7	c7 45 c4 00 00
	00 00		 mov	 DWORD PTR tv141[ebp], 0
$LN4@Block:
  000de	8b 4d c4	 mov	 ecx, DWORD PTR tv141[ebp]
  000e1	89 4d e8	 mov	 DWORD PTR $T6[ebp], ecx
  000e4	c6 45 fc 00	 mov	 BYTE PTR __$EHRec$[ebp+8], 0
  000e8	8b 55 e8	 mov	 edx, DWORD PTR $T6[ebp]
  000eb	89 55 ec	 mov	 DWORD PTR _tex$[ebp], edx

; 10   : 	tex->loadFromImage(imge);

  000ee	8d 4d d4	 lea	 ecx, DWORD PTR $T4[ebp]
  000f1	e8 00 00 00 00	 call	 ??0?$Rect@H@sf@@QAE@XZ	; sf::Rect<int>::Rect<int>
  000f6	8b f4		 mov	 esi, esp
  000f8	50		 push	 eax
  000f9	8b 45 20	 mov	 eax, DWORD PTR _imge$[ebp]
  000fc	50		 push	 eax
  000fd	8b 4d ec	 mov	 ecx, DWORD PTR _tex$[ebp]
  00100	ff 15 00 00 00
	00		 call	 DWORD PTR __imp_?loadFromImage@Texture@sf@@QAE_NABVImage@2@ABV?$Rect@H@2@@Z
  00106	3b f4		 cmp	 esi, esp
  00108	e8 00 00 00 00	 call	 __RTC_CheckEsp

; 11   : 	sprite = new sf::Sprite(*tex,rect);

  0010d	68 10 01 00 00	 push	 272			; 00000110H
  00112	e8 00 00 00 00	 call	 ??2@YAPAXI@Z		; operator new
  00117	83 c4 04	 add	 esp, 4
  0011a	89 45 cc	 mov	 DWORD PTR $T2[ebp], eax
  0011d	c6 45 fc 02	 mov	 BYTE PTR __$EHRec$[ebp+8], 2
  00121	83 7d cc 00	 cmp	 DWORD PTR $T2[ebp], 0
  00125	74 38		 je	 SHORT $LN5@Block
  00127	8b 4d f0	 mov	 ecx, DWORD PTR _this$[ebp]
  0012a	83 c1 0c	 add	 ecx, 12			; 0000000cH
  0012d	8b f4		 mov	 esi, esp
  0012f	51		 push	 ecx
  00130	8b 55 ec	 mov	 edx, DWORD PTR _tex$[ebp]
  00133	52		 push	 edx
  00134	8b 4d cc	 mov	 ecx, DWORD PTR $T2[ebp]
  00137	ff 15 00 00 00
	00		 call	 DWORD PTR __imp_??0Sprite@sf@@QAE@ABVTexture@1@ABV?$Rect@H@1@@Z
  0013d	3b f4		 cmp	 esi, esp
  0013f	e8 00 00 00 00	 call	 __RTC_CheckEsp
  00144	8b 45 cc	 mov	 eax, DWORD PTR $T2[ebp]
  00147	c7 00 00 00 00
	00		 mov	 DWORD PTR [eax], OFFSET ??_SSprite@sf@@6BDrawable@1@@
  0014d	8b 4d cc	 mov	 ecx, DWORD PTR $T2[ebp]
  00150	c7 41 04 00 00
	00 00		 mov	 DWORD PTR [ecx+4], OFFSET ??_SSprite@sf@@6BTransformable@1@@
  00157	8b 55 cc	 mov	 edx, DWORD PTR $T2[ebp]
  0015a	89 55 c0	 mov	 DWORD PTR tv157[ebp], edx
  0015d	eb 07		 jmp	 SHORT $LN6@Block
$LN5@Block:
  0015f	c7 45 c0 00 00
	00 00		 mov	 DWORD PTR tv157[ebp], 0
$LN6@Block:
  00166	8b 45 c0	 mov	 eax, DWORD PTR tv157[ebp]
  00169	89 45 d0	 mov	 DWORD PTR $T3[ebp], eax
  0016c	c6 45 fc 00	 mov	 BYTE PTR __$EHRec$[ebp+8], 0
  00170	8b 4d f0	 mov	 ecx, DWORD PTR _this$[ebp]
  00173	8b 55 d0	 mov	 edx, DWORD PTR $T3[ebp]
  00176	89 51 24	 mov	 DWORD PTR [ecx+36], edx

; 12   : 	sprite->setPosition(x, y);

  00179	8b 45 f0	 mov	 eax, DWORD PTR _this$[ebp]
  0017c	8b 48 24	 mov	 ecx, DWORD PTR [eax+36]
  0017f	83 c1 04	 add	 ecx, 4
  00182	89 4d bc	 mov	 DWORD PTR tv187[ebp], ecx
  00185	8b 55 f0	 mov	 edx, DWORD PTR _this$[ebp]
  00188	f3 0f 2a 42 08	 cvtsi2ss xmm0, DWORD PTR [edx+8]
  0018d	8b f4		 mov	 esi, esp
  0018f	51		 push	 ecx
  00190	f3 0f 11 04 24	 movss	 DWORD PTR [esp], xmm0
  00195	8b 45 f0	 mov	 eax, DWORD PTR _this$[ebp]
  00198	f3 0f 2a 40 04	 cvtsi2ss xmm0, DWORD PTR [eax+4]
  0019d	51		 push	 ecx
  0019e	f3 0f 11 04 24	 movss	 DWORD PTR [esp], xmm0
  001a3	8b 4d bc	 mov	 ecx, DWORD PTR tv187[ebp]
  001a6	ff 15 00 00 00
	00		 call	 DWORD PTR __imp_?setPosition@Transformable@sf@@QAEXMM@Z
  001ac	3b f4		 cmp	 esi, esp
  001ae	e8 00 00 00 00	 call	 __RTC_CheckEsp

; 13   : }

  001b3	c7 45 fc ff ff
	ff ff		 mov	 DWORD PTR __$EHRec$[ebp+8], -1
  001ba	8b 45 f0	 mov	 eax, DWORD PTR _this$[ebp]
  001bd	8b 4d f4	 mov	 ecx, DWORD PTR __$EHRec$[ebp]
  001c0	64 89 0d 00 00
	00 00		 mov	 DWORD PTR fs:0, ecx
  001c7	59		 pop	 ecx
  001c8	5f		 pop	 edi
  001c9	5e		 pop	 esi
  001ca	83 c4 44	 add	 esp, 68			; 00000044H
  001cd	3b ec		 cmp	 ebp, esp
  001cf	e8 00 00 00 00	 call	 __RTC_CheckEsp
  001d4	8b e5		 mov	 esp, ebp
  001d6	5d		 pop	 ebp
  001d7	c2 1c 00	 ret	 28			; 0000001cH
_TEXT	ENDS
text$x	SEGMENT
__unwindfunclet$??0Block@@QAE@HHV?$Rect@H@sf@@ABVImage@2@@Z$0:
  00000	8b 4d f0	 mov	 ecx, DWORD PTR _this$[ebp]
  00003	83 c1 2c	 add	 ecx, 44			; 0000002cH
  00006	e9 00 00 00 00	 jmp	 ??1?$basic_string@DU?$char_traits@D@std@@V?$allocator@D@2@@std@@QAE@XZ ; std::basic_string<char,std::char_traits<char>,std::allocator<char> >::~basic_string<char,std::char_traits<char>,std::allocator<char> >
__unwindfunclet$??0Block@@QAE@HHV?$Rect@H@sf@@ABVImage@2@@Z$1:
  0000b	6a 28		 push	 40			; 00000028H
  0000d	8b 45 e4	 mov	 eax, DWORD PTR $T5[ebp]
  00010	50		 push	 eax
  00011	e8 00 00 00 00	 call	 ??3@YAXPAXI@Z		; operator delete
  00016	83 c4 08	 add	 esp, 8
  00019	c3		 ret	 0
__unwindfunclet$??0Block@@QAE@HHV?$Rect@H@sf@@ABVImage@2@@Z$2:
  0001a	68 10 01 00 00	 push	 272			; 00000110H
  0001f	8b 45 cc	 mov	 eax, DWORD PTR $T2[ebp]
  00022	50		 push	 eax
  00023	e8 00 00 00 00	 call	 ??3@YAXPAXI@Z		; operator delete
  00028	83 c4 08	 add	 esp, 8
  0002b	c3		 ret	 0
  0002c	cc		 int	 3
  0002d	cc		 int	 3
  0002e	cc		 int	 3
  0002f	cc		 int	 3
  00030	cc		 int	 3
__ehhandler$??0Block@@QAE@HHV?$Rect@H@sf@@ABVImage@2@@Z:
  00031	90		 npad	 1
  00032	90		 npad	 1
  00033	8b 54 24 08	 mov	 edx, DWORD PTR [esp+8]
  00037	8d 42 0c	 lea	 eax, DWORD PTR [edx+12]
  0003a	8b 4a bc	 mov	 ecx, DWORD PTR [edx-68]
  0003d	33 c8		 xor	 ecx, eax
  0003f	e8 00 00 00 00	 call	 @__security_check_cookie@4
  00044	b8 00 00 00 00	 mov	 eax, OFFSET __ehfuncinfo$??0Block@@QAE@HHV?$Rect@H@sf@@ABVImage@2@@Z
  00049	e9 00 00 00 00	 jmp	 ___CxxFrameHandler3
text$x	ENDS
??0Block@@QAE@HHV?$Rect@H@sf@@ABVImage@2@@Z ENDP	; Block::Block
; Function compile flags: /Odtp /RTCsu
;	COMDAT ??_GSprite@sf@@UAEPAXI@Z
_TEXT	SEGMENT
_this$ = -4						; size = 4
___flags$ = 8						; size = 4
??_GSprite@sf@@UAEPAXI@Z PROC				; sf::Sprite::`scalar deleting destructor', COMDAT
; _this$ = ecx
  00000	55		 push	 ebp
  00001	8b ec		 mov	 ebp, esp
  00003	51		 push	 ecx
  00004	56		 push	 esi
  00005	c7 45 fc cc cc
	cc cc		 mov	 DWORD PTR [ebp-4], -858993460 ; ccccccccH
  0000c	89 4d fc	 mov	 DWORD PTR _this$[ebp], ecx
  0000f	8b f4		 mov	 esi, esp
  00011	8b 4d fc	 mov	 ecx, DWORD PTR _this$[ebp]
  00014	ff 15 00 00 00
	00		 call	 DWORD PTR __imp_??1Sprite@sf@@UAE@XZ
  0001a	3b f4		 cmp	 esi, esp
  0001c	e8 00 00 00 00	 call	 __RTC_CheckEsp
  00021	8b 45 08	 mov	 eax, DWORD PTR ___flags$[ebp]
  00024	83 e0 01	 and	 eax, 1
  00027	74 11		 je	 SHORT $LN2@scalar
  00029	68 10 01 00 00	 push	 272			; 00000110H
  0002e	8b 4d fc	 mov	 ecx, DWORD PTR _this$[ebp]
  00031	51		 push	 ecx
  00032	e8 00 00 00 00	 call	 ??3@YAXPAXI@Z		; operator delete
  00037	83 c4 08	 add	 esp, 8
$LN2@scalar:
  0003a	8b 45 fc	 mov	 eax, DWORD PTR _this$[ebp]
  0003d	5e		 pop	 esi
  0003e	83 c4 04	 add	 esp, 4
  00041	3b ec		 cmp	 ebp, esp
  00043	e8 00 00 00 00	 call	 __RTC_CheckEsp
  00048	8b e5		 mov	 esp, ebp
  0004a	5d		 pop	 ebp
  0004b	c2 04 00	 ret	 4
??_GSprite@sf@@UAEPAXI@Z ENDP				; sf::Sprite::`scalar deleting destructor'
_TEXT	ENDS
; Function compile flags: /Odtp /RTCsu
; File C:\Users\theob\Documents\GitHub\as-pts1\travail\ProjetTutore1\vcpkg_installed\x86-windows\x86-windows\include\SFML\Graphics\Rect.inl
;	COMDAT ?intersects@?$Rect@H@sf@@QBE_NABV12@AAV12@@Z
_TEXT	SEGMENT
$T1 = -184						; size = 16
$T2 = -168						; size = 16
$T3 = -152						; size = 4
$T4 = -148						; size = 4
$T5 = -144						; size = 4
$T6 = -140						; size = 4
$T7 = -136						; size = 4
$T8 = -132						; size = 4
$T9 = -128						; size = 4
$T10 = -124						; size = 4
_interBottom$ = -120					; size = 4
_interRight$ = -116					; size = 4
_interTop$ = -112					; size = 4
_interLeft$ = -108					; size = 4
_r2MaxY$ = -100						; size = 4
_r2MinY$ = -88						; size = 4
_r2MaxX$ = -76						; size = 4
_r2MinX$ = -64						; size = 4
_r1MaxY$ = -52						; size = 4
_r1MinY$ = -40						; size = 4
_r1MaxX$ = -28						; size = 4
_r1MinX$ = -16						; size = 4
_this$ = -8						; size = 4
__$ArrayPad$ = -4					; size = 4
_rectangle$ = 8						; size = 4
_intersection$ = 12					; size = 4
?intersects@?$Rect@H@sf@@QBE_NABV12@AAV12@@Z PROC	; sf::Rect<int>::intersects, COMDAT
; _this$ = ecx

; 110  : {

  00000	55		 push	 ebp
  00001	8b ec		 mov	 ebp, esp
  00003	81 ec b8 00 00
	00		 sub	 esp, 184		; 000000b8H
  00009	57		 push	 edi
  0000a	51		 push	 ecx
  0000b	8d bd 48 ff ff
	ff		 lea	 edi, DWORD PTR [ebp-184]
  00011	b9 2e 00 00 00	 mov	 ecx, 46			; 0000002eH
  00016	b8 cc cc cc cc	 mov	 eax, -858993460		; ccccccccH
  0001b	f3 ab		 rep stosd
  0001d	59		 pop	 ecx
  0001e	a1 00 00 00 00	 mov	 eax, DWORD PTR ___security_cookie
  00023	33 c5		 xor	 eax, ebp
  00025	89 45 fc	 mov	 DWORD PTR __$ArrayPad$[ebp], eax
  00028	89 4d f8	 mov	 DWORD PTR _this$[ebp], ecx
  0002b	b9 00 00 00 00	 mov	 ecx, OFFSET __6AE60262_Rect@inl
  00030	e8 00 00 00 00	 call	 @__CheckForDebuggerJustMyCode@4

; 111  :     // Rectangles with negative dimensions are allowed, so we must handle them correctly
; 112  : 
; 113  :     // Compute the min and max of the first rectangle on both axes
; 114  :     T r1MinX = std::min(left, static_cast<T>(left + width));

  00035	8b 45 f8	 mov	 eax, DWORD PTR _this$[ebp]
  00038	8b 08		 mov	 ecx, DWORD PTR [eax]
  0003a	8b 55 f8	 mov	 edx, DWORD PTR _this$[ebp]
  0003d	03 4a 08	 add	 ecx, DWORD PTR [edx+8]
  00040	89 4d 84	 mov	 DWORD PTR $T10[ebp], ecx
  00043	8d 45 84	 lea	 eax, DWORD PTR $T10[ebp]
  00046	50		 push	 eax
  00047	8b 4d f8	 mov	 ecx, DWORD PTR _this$[ebp]
  0004a	51		 push	 ecx
  0004b	e8 00 00 00 00	 call	 ??$min@H@std@@YAABHABH0@Z ; std::min<int>
  00050	83 c4 08	 add	 esp, 8
  00053	8b 10		 mov	 edx, DWORD PTR [eax]
  00055	89 55 f0	 mov	 DWORD PTR _r1MinX$[ebp], edx

; 115  :     T r1MaxX = std::max(left, static_cast<T>(left + width));

  00058	8b 45 f8	 mov	 eax, DWORD PTR _this$[ebp]
  0005b	8b 08		 mov	 ecx, DWORD PTR [eax]
  0005d	8b 55 f8	 mov	 edx, DWORD PTR _this$[ebp]
  00060	03 4a 08	 add	 ecx, DWORD PTR [edx+8]
  00063	89 4d 80	 mov	 DWORD PTR $T9[ebp], ecx
  00066	8d 45 80	 lea	 eax, DWORD PTR $T9[ebp]
  00069	50		 push	 eax
  0006a	8b 4d f8	 mov	 ecx, DWORD PTR _this$[ebp]
  0006d	51		 push	 ecx
  0006e	e8 00 00 00 00	 call	 ??$max@H@std@@YAABHABH0@Z ; std::max<int>
  00073	83 c4 08	 add	 esp, 8
  00076	8b 10		 mov	 edx, DWORD PTR [eax]
  00078	89 55 e4	 mov	 DWORD PTR _r1MaxX$[ebp], edx

; 116  :     T r1MinY = std::min(top, static_cast<T>(top + height));

  0007b	8b 45 f8	 mov	 eax, DWORD PTR _this$[ebp]
  0007e	8b 48 04	 mov	 ecx, DWORD PTR [eax+4]
  00081	8b 55 f8	 mov	 edx, DWORD PTR _this$[ebp]
  00084	03 4a 0c	 add	 ecx, DWORD PTR [edx+12]
  00087	89 8d 7c ff ff
	ff		 mov	 DWORD PTR $T8[ebp], ecx
  0008d	8d 85 7c ff ff
	ff		 lea	 eax, DWORD PTR $T8[ebp]
  00093	50		 push	 eax
  00094	8b 4d f8	 mov	 ecx, DWORD PTR _this$[ebp]
  00097	83 c1 04	 add	 ecx, 4
  0009a	51		 push	 ecx
  0009b	e8 00 00 00 00	 call	 ??$min@H@std@@YAABHABH0@Z ; std::min<int>
  000a0	83 c4 08	 add	 esp, 8
  000a3	8b 10		 mov	 edx, DWORD PTR [eax]
  000a5	89 55 d8	 mov	 DWORD PTR _r1MinY$[ebp], edx

; 117  :     T r1MaxY = std::max(top, static_cast<T>(top + height));

  000a8	8b 45 f8	 mov	 eax, DWORD PTR _this$[ebp]
  000ab	8b 48 04	 mov	 ecx, DWORD PTR [eax+4]
  000ae	8b 55 f8	 mov	 edx, DWORD PTR _this$[ebp]
  000b1	03 4a 0c	 add	 ecx, DWORD PTR [edx+12]
  000b4	89 8d 78 ff ff
	ff		 mov	 DWORD PTR $T7[ebp], ecx
  000ba	8d 85 78 ff ff
	ff		 lea	 eax, DWORD PTR $T7[ebp]
  000c0	50		 push	 eax
  000c1	8b 4d f8	 mov	 ecx, DWORD PTR _this$[ebp]
  000c4	83 c1 04	 add	 ecx, 4
  000c7	51		 push	 ecx
  000c8	e8 00 00 00 00	 call	 ??$max@H@std@@YAABHABH0@Z ; std::max<int>
  000cd	83 c4 08	 add	 esp, 8
  000d0	8b 10		 mov	 edx, DWORD PTR [eax]
  000d2	89 55 cc	 mov	 DWORD PTR _r1MaxY$[ebp], edx

; 118  : 
; 119  :     // Compute the min and max of the second rectangle on both axes
; 120  :     T r2MinX = std::min(rectangle.left, static_cast<T>(rectangle.left + rectangle.width));

  000d5	8b 45 08	 mov	 eax, DWORD PTR _rectangle$[ebp]
  000d8	8b 08		 mov	 ecx, DWORD PTR [eax]
  000da	8b 55 08	 mov	 edx, DWORD PTR _rectangle$[ebp]
  000dd	03 4a 08	 add	 ecx, DWORD PTR [edx+8]
  000e0	89 8d 74 ff ff
	ff		 mov	 DWORD PTR $T6[ebp], ecx
  000e6	8d 85 74 ff ff
	ff		 lea	 eax, DWORD PTR $T6[ebp]
  000ec	50		 push	 eax
  000ed	8b 4d 08	 mov	 ecx, DWORD PTR _rectangle$[ebp]
  000f0	51		 push	 ecx
  000f1	e8 00 00 00 00	 call	 ??$min@H@std@@YAABHABH0@Z ; std::min<int>
  000f6	83 c4 08	 add	 esp, 8
  000f9	8b 10		 mov	 edx, DWORD PTR [eax]
  000fb	89 55 c0	 mov	 DWORD PTR _r2MinX$[ebp], edx

; 121  :     T r2MaxX = std::max(rectangle.left, static_cast<T>(rectangle.left + rectangle.width));

  000fe	8b 45 08	 mov	 eax, DWORD PTR _rectangle$[ebp]
  00101	8b 08		 mov	 ecx, DWORD PTR [eax]
  00103	8b 55 08	 mov	 edx, DWORD PTR _rectangle$[ebp]
  00106	03 4a 08	 add	 ecx, DWORD PTR [edx+8]
  00109	89 8d 70 ff ff
	ff		 mov	 DWORD PTR $T5[ebp], ecx
  0010f	8d 85 70 ff ff
	ff		 lea	 eax, DWORD PTR $T5[ebp]
  00115	50		 push	 eax
  00116	8b 4d 08	 mov	 ecx, DWORD PTR _rectangle$[ebp]
  00119	51		 push	 ecx
  0011a	e8 00 00 00 00	 call	 ??$max@H@std@@YAABHABH0@Z ; std::max<int>
  0011f	83 c4 08	 add	 esp, 8
  00122	8b 10		 mov	 edx, DWORD PTR [eax]
  00124	89 55 b4	 mov	 DWORD PTR _r2MaxX$[ebp], edx

; 122  :     T r2MinY = std::min(rectangle.top, static_cast<T>(rectangle.top + rectangle.height));

  00127	8b 45 08	 mov	 eax, DWORD PTR _rectangle$[ebp]
  0012a	8b 48 04	 mov	 ecx, DWORD PTR [eax+4]
  0012d	8b 55 08	 mov	 edx, DWORD PTR _rectangle$[ebp]
  00130	03 4a 0c	 add	 ecx, DWORD PTR [edx+12]
  00133	89 8d 6c ff ff
	ff		 mov	 DWORD PTR $T4[ebp], ecx
  00139	8d 85 6c ff ff
	ff		 lea	 eax, DWORD PTR $T4[ebp]
  0013f	50		 push	 eax
  00140	8b 4d 08	 mov	 ecx, DWORD PTR _rectangle$[ebp]
  00143	83 c1 04	 add	 ecx, 4
  00146	51		 push	 ecx
  00147	e8 00 00 00 00	 call	 ??$min@H@std@@YAABHABH0@Z ; std::min<int>
  0014c	83 c4 08	 add	 esp, 8
  0014f	8b 10		 mov	 edx, DWORD PTR [eax]
  00151	89 55 a8	 mov	 DWORD PTR _r2MinY$[ebp], edx

; 123  :     T r2MaxY = std::max(rectangle.top, static_cast<T>(rectangle.top + rectangle.height));

  00154	8b 45 08	 mov	 eax, DWORD PTR _rectangle$[ebp]
  00157	8b 48 04	 mov	 ecx, DWORD PTR [eax+4]
  0015a	8b 55 08	 mov	 edx, DWORD PTR _rectangle$[ebp]
  0015d	03 4a 0c	 add	 ecx, DWORD PTR [edx+12]
  00160	89 8d 68 ff ff
	ff		 mov	 DWORD PTR $T3[ebp], ecx
  00166	8d 85 68 ff ff
	ff		 lea	 eax, DWORD PTR $T3[ebp]
  0016c	50		 push	 eax
  0016d	8b 4d 08	 mov	 ecx, DWORD PTR _rectangle$[ebp]
  00170	83 c1 04	 add	 ecx, 4
  00173	51		 push	 ecx
  00174	e8 00 00 00 00	 call	 ??$max@H@std@@YAABHABH0@Z ; std::max<int>
  00179	83 c4 08	 add	 esp, 8
  0017c	8b 10		 mov	 edx, DWORD PTR [eax]
  0017e	89 55 9c	 mov	 DWORD PTR _r2MaxY$[ebp], edx

; 124  : 
; 125  :     // Compute the intersection boundaries
; 126  :     T interLeft   = std::max(r1MinX, r2MinX);

  00181	8d 45 c0	 lea	 eax, DWORD PTR _r2MinX$[ebp]
  00184	50		 push	 eax
  00185	8d 4d f0	 lea	 ecx, DWORD PTR _r1MinX$[ebp]
  00188	51		 push	 ecx
  00189	e8 00 00 00 00	 call	 ??$max@H@std@@YAABHABH0@Z ; std::max<int>
  0018e	83 c4 08	 add	 esp, 8
  00191	8b 10		 mov	 edx, DWORD PTR [eax]
  00193	89 55 94	 mov	 DWORD PTR _interLeft$[ebp], edx

; 127  :     T interTop    = std::max(r1MinY, r2MinY);

  00196	8d 45 a8	 lea	 eax, DWORD PTR _r2MinY$[ebp]
  00199	50		 push	 eax
  0019a	8d 4d d8	 lea	 ecx, DWORD PTR _r1MinY$[ebp]
  0019d	51		 push	 ecx
  0019e	e8 00 00 00 00	 call	 ??$max@H@std@@YAABHABH0@Z ; std::max<int>
  001a3	83 c4 08	 add	 esp, 8
  001a6	8b 10		 mov	 edx, DWORD PTR [eax]
  001a8	89 55 90	 mov	 DWORD PTR _interTop$[ebp], edx

; 128  :     T interRight  = std::min(r1MaxX, r2MaxX);

  001ab	8d 45 b4	 lea	 eax, DWORD PTR _r2MaxX$[ebp]
  001ae	50		 push	 eax
  001af	8d 4d e4	 lea	 ecx, DWORD PTR _r1MaxX$[ebp]
  001b2	51		 push	 ecx
  001b3	e8 00 00 00 00	 call	 ??$min@H@std@@YAABHABH0@Z ; std::min<int>
  001b8	83 c4 08	 add	 esp, 8
  001bb	8b 10		 mov	 edx, DWORD PTR [eax]
  001bd	89 55 8c	 mov	 DWORD PTR _interRight$[ebp], edx

; 129  :     T interBottom = std::min(r1MaxY, r2MaxY);

  001c0	8d 45 9c	 lea	 eax, DWORD PTR _r2MaxY$[ebp]
  001c3	50		 push	 eax
  001c4	8d 4d cc	 lea	 ecx, DWORD PTR _r1MaxY$[ebp]
  001c7	51		 push	 ecx
  001c8	e8 00 00 00 00	 call	 ??$min@H@std@@YAABHABH0@Z ; std::min<int>
  001cd	83 c4 08	 add	 esp, 8
  001d0	8b 10		 mov	 edx, DWORD PTR [eax]
  001d2	89 55 88	 mov	 DWORD PTR _interBottom$[ebp], edx

; 130  : 
; 131  :     // If the intersection is valid (positive non zero area), then there is an intersection
; 132  :     if ((interLeft < interRight) && (interTop < interBottom))

  001d5	8b 45 94	 mov	 eax, DWORD PTR _interLeft$[ebp]
  001d8	3b 45 8c	 cmp	 eax, DWORD PTR _interRight$[ebp]
  001db	7d 48		 jge	 SHORT $LN2@intersects
  001dd	8b 4d 90	 mov	 ecx, DWORD PTR _interTop$[ebp]
  001e0	3b 4d 88	 cmp	 ecx, DWORD PTR _interBottom$[ebp]
  001e3	7d 40		 jge	 SHORT $LN2@intersects

; 133  :     {
; 134  :         intersection = Rect<T>(interLeft, interTop, interRight - interLeft, interBottom - interTop);

  001e5	8b 55 88	 mov	 edx, DWORD PTR _interBottom$[ebp]
  001e8	2b 55 90	 sub	 edx, DWORD PTR _interTop$[ebp]
  001eb	52		 push	 edx
  001ec	8b 45 8c	 mov	 eax, DWORD PTR _interRight$[ebp]
  001ef	2b 45 94	 sub	 eax, DWORD PTR _interLeft$[ebp]
  001f2	50		 push	 eax
  001f3	8b 4d 90	 mov	 ecx, DWORD PTR _interTop$[ebp]
  001f6	51		 push	 ecx
  001f7	8b 55 94	 mov	 edx, DWORD PTR _interLeft$[ebp]
  001fa	52		 push	 edx
  001fb	8d 8d 58 ff ff
	ff		 lea	 ecx, DWORD PTR $T2[ebp]
  00201	e8 00 00 00 00	 call	 ??0?$Rect@H@sf@@QAE@HHHH@Z ; sf::Rect<int>::Rect<int>
  00206	8b 4d 0c	 mov	 ecx, DWORD PTR _intersection$[ebp]
  00209	8b 10		 mov	 edx, DWORD PTR [eax]
  0020b	89 11		 mov	 DWORD PTR [ecx], edx
  0020d	8b 50 04	 mov	 edx, DWORD PTR [eax+4]
  00210	89 51 04	 mov	 DWORD PTR [ecx+4], edx
  00213	8b 50 08	 mov	 edx, DWORD PTR [eax+8]
  00216	89 51 08	 mov	 DWORD PTR [ecx+8], edx
  00219	8b 40 0c	 mov	 eax, DWORD PTR [eax+12]
  0021c	89 41 0c	 mov	 DWORD PTR [ecx+12], eax

; 135  :         return true;

  0021f	b0 01		 mov	 al, 1
  00221	eb 30		 jmp	 SHORT $LN1@intersects

; 136  :     }

  00223	eb 2e		 jmp	 SHORT $LN1@intersects
$LN2@intersects:

; 137  :     else
; 138  :     {
; 139  :         intersection = Rect<T>(0, 0, 0, 0);

  00225	6a 00		 push	 0
  00227	6a 00		 push	 0
  00229	6a 00		 push	 0
  0022b	6a 00		 push	 0
  0022d	8d 8d 48 ff ff
	ff		 lea	 ecx, DWORD PTR $T1[ebp]
  00233	e8 00 00 00 00	 call	 ??0?$Rect@H@sf@@QAE@HHHH@Z ; sf::Rect<int>::Rect<int>
  00238	8b 4d 0c	 mov	 ecx, DWORD PTR _intersection$[ebp]
  0023b	8b 10		 mov	 edx, DWORD PTR [eax]
  0023d	89 11		 mov	 DWORD PTR [ecx], edx
  0023f	8b 50 04	 mov	 edx, DWORD PTR [eax+4]
  00242	89 51 04	 mov	 DWORD PTR [ecx+4], edx
  00245	8b 50 08	 mov	 edx, DWORD PTR [eax+8]
  00248	89 51 08	 mov	 DWORD PTR [ecx+8], edx
  0024b	8b 40 0c	 mov	 eax, DWORD PTR [eax+12]
  0024e	89 41 0c	 mov	 DWORD PTR [ecx+12], eax

; 140  :         return false;

  00251	32 c0		 xor	 al, al
$LN1@intersects:

; 141  :     }
; 142  : }

  00253	52		 push	 edx
  00254	8b cd		 mov	 ecx, ebp
  00256	50		 push	 eax
  00257	8d 15 00 00 00
	00		 lea	 edx, DWORD PTR $LN14@intersects
  0025d	e8 00 00 00 00	 call	 @_RTC_CheckStackVars@8
  00262	58		 pop	 eax
  00263	5a		 pop	 edx
  00264	5f		 pop	 edi
  00265	8b 4d fc	 mov	 ecx, DWORD PTR __$ArrayPad$[ebp]
  00268	33 cd		 xor	 ecx, ebp
  0026a	e8 00 00 00 00	 call	 @__security_check_cookie@4
  0026f	81 c4 b8 00 00
	00		 add	 esp, 184		; 000000b8H
  00275	3b ec		 cmp	 ebp, esp
  00277	e8 00 00 00 00	 call	 __RTC_CheckEsp
  0027c	8b e5		 mov	 esp, ebp
  0027e	5d		 pop	 ebp
  0027f	c2 08 00	 ret	 8
  00282	66 90		 npad	 2
$LN14@intersects:
  00284	08 00 00 00	 DD	 8
  00288	00 00 00 00	 DD	 $LN13@intersects
$LN13@intersects:
  0028c	f0 ff ff ff	 DD	 -16			; fffffff0H
  00290	04 00 00 00	 DD	 4
  00294	00 00 00 00	 DD	 $LN5@intersects
  00298	e4 ff ff ff	 DD	 -28			; ffffffe4H
  0029c	04 00 00 00	 DD	 4
  002a0	00 00 00 00	 DD	 $LN6@intersects
  002a4	d8 ff ff ff	 DD	 -40			; ffffffd8H
  002a8	04 00 00 00	 DD	 4
  002ac	00 00 00 00	 DD	 $LN7@intersects
  002b0	cc ff ff ff	 DD	 -52			; ffffffccH
  002b4	04 00 00 00	 DD	 4
  002b8	00 00 00 00	 DD	 $LN8@intersects
  002bc	c0 ff ff ff	 DD	 -64			; ffffffc0H
  002c0	04 00 00 00	 DD	 4
  002c4	00 00 00 00	 DD	 $LN9@intersects
  002c8	b4 ff ff ff	 DD	 -76			; ffffffb4H
  002cc	04 00 00 00	 DD	 4
  002d0	00 00 00 00	 DD	 $LN10@intersects
  002d4	a8 ff ff ff	 DD	 -88			; ffffffa8H
  002d8	04 00 00 00	 DD	 4
  002dc	00 00 00 00	 DD	 $LN11@intersects
  002e0	9c ff ff ff	 DD	 -100			; ffffff9cH
  002e4	04 00 00 00	 DD	 4
  002e8	00 00 00 00	 DD	 $LN12@intersects
$LN12@intersects:
  002ec	72		 DB	 114			; 00000072H
  002ed	32		 DB	 50			; 00000032H
  002ee	4d		 DB	 77			; 0000004dH
  002ef	61		 DB	 97			; 00000061H
  002f0	78		 DB	 120			; 00000078H
  002f1	59		 DB	 89			; 00000059H
  002f2	00		 DB	 0
$LN11@intersects:
  002f3	72		 DB	 114			; 00000072H
  002f4	32		 DB	 50			; 00000032H
  002f5	4d		 DB	 77			; 0000004dH
  002f6	69		 DB	 105			; 00000069H
  002f7	6e		 DB	 110			; 0000006eH
  002f8	59		 DB	 89			; 00000059H
  002f9	00		 DB	 0
$LN10@intersects:
  002fa	72		 DB	 114			; 00000072H
  002fb	32		 DB	 50			; 00000032H
  002fc	4d		 DB	 77			; 0000004dH
  002fd	61		 DB	 97			; 00000061H
  002fe	78		 DB	 120			; 00000078H
  002ff	58		 DB	 88			; 00000058H
  00300	00		 DB	 0
$LN9@intersects:
  00301	72		 DB	 114			; 00000072H
  00302	32		 DB	 50			; 00000032H
  00303	4d		 DB	 77			; 0000004dH
  00304	69		 DB	 105			; 00000069H
  00305	6e		 DB	 110			; 0000006eH
  00306	58		 DB	 88			; 00000058H
  00307	00		 DB	 0
$LN8@intersects:
  00308	72		 DB	 114			; 00000072H
  00309	31		 DB	 49			; 00000031H
  0030a	4d		 DB	 77			; 0000004dH
  0030b	61		 DB	 97			; 00000061H
  0030c	78		 DB	 120			; 00000078H
  0030d	59		 DB	 89			; 00000059H
  0030e	00		 DB	 0
$LN7@intersects:
  0030f	72		 DB	 114			; 00000072H
  00310	31		 DB	 49			; 00000031H
  00311	4d		 DB	 77			; 0000004dH
  00312	69		 DB	 105			; 00000069H
  00313	6e		 DB	 110			; 0000006eH
  00314	59		 DB	 89			; 00000059H
  00315	00		 DB	 0
$LN6@intersects:
  00316	72		 DB	 114			; 00000072H
  00317	31		 DB	 49			; 00000031H
  00318	4d		 DB	 77			; 0000004dH
  00319	61		 DB	 97			; 00000061H
  0031a	78		 DB	 120			; 00000078H
  0031b	58		 DB	 88			; 00000058H
  0031c	00		 DB	 0
$LN5@intersects:
  0031d	72		 DB	 114			; 00000072H
  0031e	31		 DB	 49			; 00000031H
  0031f	4d		 DB	 77			; 0000004dH
  00320	69		 DB	 105			; 00000069H
  00321	6e		 DB	 110			; 0000006eH
  00322	58		 DB	 88			; 00000058H
  00323	00		 DB	 0
?intersects@?$Rect@H@sf@@QBE_NABV12@AAV12@@Z ENDP	; sf::Rect<int>::intersects
_TEXT	ENDS
; Function compile flags: /Odtp /RTCsu
; File C:\Users\theob\Documents\GitHub\as-pts1\travail\ProjetTutore1\vcpkg_installed\x86-windows\x86-windows\include\SFML\Graphics\Rect.inl
;	COMDAT ??0?$Rect@H@sf@@QAE@HHHH@Z
_TEXT	SEGMENT
_this$ = -4						; size = 4
_rectLeft$ = 8						; size = 4
_rectTop$ = 12						; size = 4
_rectWidth$ = 16					; size = 4
_rectHeight$ = 20					; size = 4
??0?$Rect@H@sf@@QAE@HHHH@Z PROC				; sf::Rect<int>::Rect<int>, COMDAT
; _this$ = ecx

; 45   : {

  00000	55		 push	 ebp
  00001	8b ec		 mov	 ebp, esp
  00003	51		 push	 ecx
  00004	c7 45 fc cc cc
	cc cc		 mov	 DWORD PTR [ebp-4], -858993460 ; ccccccccH
  0000b	89 4d fc	 mov	 DWORD PTR _this$[ebp], ecx
  0000e	b9 00 00 00 00	 mov	 ecx, OFFSET __6AE60262_Rect@inl
  00013	e8 00 00 00 00	 call	 @__CheckForDebuggerJustMyCode@4

; 41   : left  (rectLeft),

  00018	8b 45 fc	 mov	 eax, DWORD PTR _this$[ebp]
  0001b	8b 4d 08	 mov	 ecx, DWORD PTR _rectLeft$[ebp]
  0001e	89 08		 mov	 DWORD PTR [eax], ecx

; 42   : top   (rectTop),

  00020	8b 55 fc	 mov	 edx, DWORD PTR _this$[ebp]
  00023	8b 45 0c	 mov	 eax, DWORD PTR _rectTop$[ebp]
  00026	89 42 04	 mov	 DWORD PTR [edx+4], eax

; 43   : width (rectWidth),

  00029	8b 4d fc	 mov	 ecx, DWORD PTR _this$[ebp]
  0002c	8b 55 10	 mov	 edx, DWORD PTR _rectWidth$[ebp]
  0002f	89 51 08	 mov	 DWORD PTR [ecx+8], edx

; 44   : height(rectHeight)

  00032	8b 45 fc	 mov	 eax, DWORD PTR _this$[ebp]
  00035	8b 4d 14	 mov	 ecx, DWORD PTR _rectHeight$[ebp]
  00038	89 48 0c	 mov	 DWORD PTR [eax+12], ecx

; 46   : 
; 47   : }

  0003b	8b 45 fc	 mov	 eax, DWORD PTR _this$[ebp]
  0003e	83 c4 04	 add	 esp, 4
  00041	3b ec		 cmp	 ebp, esp
  00043	e8 00 00 00 00	 call	 __RTC_CheckEsp
  00048	8b e5		 mov	 esp, ebp
  0004a	5d		 pop	 ebp
  0004b	c2 10 00	 ret	 16			; 00000010H
??0?$Rect@H@sf@@QAE@HHHH@Z ENDP				; sf::Rect<int>::Rect<int>
_TEXT	ENDS
; Function compile flags: /Odtp /RTCsu
; File C:\Users\theob\Documents\GitHub\as-pts1\travail\ProjetTutore1\vcpkg_installed\x86-windows\x86-windows\include\SFML\Graphics\Rect.inl
;	COMDAT ??0?$Rect@H@sf@@QAE@XZ
_TEXT	SEGMENT
_this$ = -4						; size = 4
??0?$Rect@H@sf@@QAE@XZ PROC				; sf::Rect<int>::Rect<int>, COMDAT
; _this$ = ecx

; 33   : {

  00000	55		 push	 ebp
  00001	8b ec		 mov	 ebp, esp
  00003	51		 push	 ecx
  00004	c7 45 fc cc cc
	cc cc		 mov	 DWORD PTR [ebp-4], -858993460 ; ccccccccH
  0000b	89 4d fc	 mov	 DWORD PTR _this$[ebp], ecx
  0000e	b9 00 00 00 00	 mov	 ecx, OFFSET __6AE60262_Rect@inl
  00013	e8 00 00 00 00	 call	 @__CheckForDebuggerJustMyCode@4

; 29   : left  (0),

  00018	8b 45 fc	 mov	 eax, DWORD PTR _this$[ebp]
  0001b	c7 00 00 00 00
	00		 mov	 DWORD PTR [eax], 0

; 30   : top   (0),

  00021	8b 4d fc	 mov	 ecx, DWORD PTR _this$[ebp]
  00024	c7 41 04 00 00
	00 00		 mov	 DWORD PTR [ecx+4], 0

; 31   : width (0),

  0002b	8b 55 fc	 mov	 edx, DWORD PTR _this$[ebp]
  0002e	c7 42 08 00 00
	00 00		 mov	 DWORD PTR [edx+8], 0

; 32   : height(0)

  00035	8b 45 fc	 mov	 eax, DWORD PTR _this$[ebp]
  00038	c7 40 0c 00 00
	00 00		 mov	 DWORD PTR [eax+12], 0

; 34   : 
; 35   : }

  0003f	8b 45 fc	 mov	 eax, DWORD PTR _this$[ebp]
  00042	83 c4 04	 add	 esp, 4
  00045	3b ec		 cmp	 ebp, esp
  00047	e8 00 00 00 00	 call	 __RTC_CheckEsp
  0004c	8b e5		 mov	 esp, ebp
  0004e	5d		 pop	 ebp
  0004f	c3		 ret	 0
??0?$Rect@H@sf@@QAE@XZ ENDP				; sf::Rect<int>::Rect<int>
_TEXT	ENDS
; Function compile flags: /Odtp /RTCsu
; File C:\Program Files (x86)\Microsoft Visual Studio\2019\Community\VC\Tools\MSVC\14.29.30133\include\xloctime
;	COMDAT ??$_Getvals@_W@?$time_get@_WV?$istreambuf_iterator@_WU?$char_traits@_W@std@@@std@@@std@@IAEX_WABV_Locinfo@1@@Z
_TEXT	SEGMENT
$T1 = -48						; size = 44
_this$ = -4						; size = 4
___formal$ = 8						; size = 2
__Lobj$ = 12						; size = 4
??$_Getvals@_W@?$time_get@_WV?$istreambuf_iterator@_WU?$char_traits@_W@std@@@std@@@std@@IAEX_WABV_Locinfo@1@@Z PROC ; std::time_get<wchar_t,std::istreambuf_iterator<wchar_t,std::char_traits<wchar_t> > >::_Getvals<wchar_t>, COMDAT
; _this$ = ecx

; 173  :     void __CLR_OR_THIS_CALL _Getvals(_Elem2, const _Locinfo& _Lobj) { // get values

  00000	55		 push	 ebp
  00001	8b ec		 mov	 ebp, esp
  00003	83 ec 30	 sub	 esp, 48			; 00000030H
  00006	56		 push	 esi
  00007	57		 push	 edi
  00008	51		 push	 ecx
  00009	8d 7d d0	 lea	 edi, DWORD PTR [ebp-48]
  0000c	b9 0c 00 00 00	 mov	 ecx, 12			; 0000000cH
  00011	b8 cc cc cc cc	 mov	 eax, -858993460		; ccccccccH
  00016	f3 ab		 rep stosd
  00018	59		 pop	 ecx
  00019	89 4d fc	 mov	 DWORD PTR _this$[ebp], ecx
  0001c	b9 00 00 00 00	 mov	 ecx, OFFSET __D96D2425_xloctime
  00021	e8 00 00 00 00	 call	 @__CheckForDebuggerJustMyCode@4

; 174  :         _Cvt = _Lobj._Getcvt();

  00026	8b f4		 mov	 esi, esp
  00028	8d 45 d0	 lea	 eax, DWORD PTR $T1[ebp]
  0002b	50		 push	 eax
  0002c	8b 4d 0c	 mov	 ecx, DWORD PTR __Lobj$[ebp]
  0002f	ff 15 00 00 00
	00		 call	 DWORD PTR __imp_?_Getcvt@_Locinfo@std@@QBE?AU_Cvtvec@@XZ
  00035	3b f4		 cmp	 esi, esp
  00037	e8 00 00 00 00	 call	 __RTC_CheckEsp
  0003c	8b 7d fc	 mov	 edi, DWORD PTR _this$[ebp]
  0003f	83 c7 18	 add	 edi, 24			; 00000018H
  00042	b9 0b 00 00 00	 mov	 ecx, 11			; 0000000bH
  00047	8b f0		 mov	 esi, eax
  00049	f3 a5		 rep movsd

; 175  : 
; 176  :         if (is_same_v<_Elem2, wchar_t>) {

  0004b	b9 01 00 00 00	 mov	 ecx, 1
  00050	85 c9		 test	 ecx, ecx
  00052	74 57		 je	 SHORT $LN2@Getvals

; 177  :             _Days = reinterpret_cast<const _Elem*>(_Maklocwcs(reinterpret_cast<const wchar_t*>(_Lobj._W_Getdays())));

  00054	8b f4		 mov	 esi, esp
  00056	8b 4d 0c	 mov	 ecx, DWORD PTR __Lobj$[ebp]
  00059	ff 15 00 00 00
	00		 call	 DWORD PTR __imp_?_W_Getdays@_Locinfo@std@@QBEPBGXZ
  0005f	3b f4		 cmp	 esi, esp
  00061	e8 00 00 00 00	 call	 __RTC_CheckEsp
  00066	50		 push	 eax
  00067	e8 00 00 00 00	 call	 ?_Maklocwcs@std@@YAPA_WPB_W@Z ; std::_Maklocwcs
  0006c	83 c4 04	 add	 esp, 4
  0006f	8b 55 fc	 mov	 edx, DWORD PTR _this$[ebp]
  00072	89 42 08	 mov	 DWORD PTR [edx+8], eax

; 178  :             _Months =

  00075	8b f4		 mov	 esi, esp
  00077	8b 4d 0c	 mov	 ecx, DWORD PTR __Lobj$[ebp]
  0007a	ff 15 00 00 00
	00		 call	 DWORD PTR __imp_?_W_Getmonths@_Locinfo@std@@QBEPBGXZ
  00080	3b f4		 cmp	 esi, esp
  00082	e8 00 00 00 00	 call	 __RTC_CheckEsp
  00087	50		 push	 eax
  00088	e8 00 00 00 00	 call	 ?_Maklocwcs@std@@YAPA_WPB_W@Z ; std::_Maklocwcs
  0008d	83 c4 04	 add	 esp, 4
  00090	8b 4d fc	 mov	 ecx, DWORD PTR _this$[ebp]
  00093	89 41 0c	 mov	 DWORD PTR [ecx+12], eax

; 179  :                 reinterpret_cast<const _Elem*>(_Maklocwcs(reinterpret_cast<const wchar_t*>(_Lobj._W_Getmonths())));
; 180  :             _Ampm = reinterpret_cast<const _Elem*>(_Maklocwcs(L":AM:am:PM:pm"));

  00096	68 00 00 00 00	 push	 OFFSET ??_C@_1BK@MHIKGOKE@?$AA?3?$AAA?$AAM?$AA?3?$AAa?$AAm?$AA?3?$AAP?$AAM?$AA?3?$AAp?$AAm@
  0009b	e8 00 00 00 00	 call	 ?_Maklocwcs@std@@YAPA_WPB_W@Z ; std::_Maklocwcs
  000a0	83 c4 04	 add	 esp, 4
  000a3	8b 55 fc	 mov	 edx, DWORD PTR _this$[ebp]
  000a6	89 42 10	 mov	 DWORD PTR [edx+16], eax

; 181  :         } else {

  000a9	eb 70		 jmp	 SHORT $LN1@Getvals
$LN2@Getvals:

; 182  :             _Days   = _Maklocstr(_Lobj._Getdays(), static_cast<_Elem*>(nullptr), _Cvt);

  000ab	8b 45 fc	 mov	 eax, DWORD PTR _this$[ebp]
  000ae	83 c0 18	 add	 eax, 24			; 00000018H
  000b1	50		 push	 eax
  000b2	6a 00		 push	 0
  000b4	8b f4		 mov	 esi, esp
  000b6	8b 4d 0c	 mov	 ecx, DWORD PTR __Lobj$[ebp]
  000b9	ff 15 00 00 00
	00		 call	 DWORD PTR __imp_?_Getdays@_Locinfo@std@@QBEPBDXZ
  000bf	3b f4		 cmp	 esi, esp
  000c1	e8 00 00 00 00	 call	 __RTC_CheckEsp
  000c6	50		 push	 eax
  000c7	e8 00 00 00 00	 call	 ??$_Maklocstr@_W@std@@YAPA_WPBDPA_WABU_Cvtvec@@@Z ; std::_Maklocstr<wchar_t>
  000cc	83 c4 0c	 add	 esp, 12			; 0000000cH
  000cf	8b 4d fc	 mov	 ecx, DWORD PTR _this$[ebp]
  000d2	89 41 08	 mov	 DWORD PTR [ecx+8], eax

; 183  :             _Months = _Maklocstr(_Lobj._Getmonths(), static_cast<_Elem*>(nullptr), _Cvt);

  000d5	8b 55 fc	 mov	 edx, DWORD PTR _this$[ebp]
  000d8	83 c2 18	 add	 edx, 24			; 00000018H
  000db	52		 push	 edx
  000dc	6a 00		 push	 0
  000de	8b f4		 mov	 esi, esp
  000e0	8b 4d 0c	 mov	 ecx, DWORD PTR __Lobj$[ebp]
  000e3	ff 15 00 00 00
	00		 call	 DWORD PTR __imp_?_Getmonths@_Locinfo@std@@QBEPBDXZ
  000e9	3b f4		 cmp	 esi, esp
  000eb	e8 00 00 00 00	 call	 __RTC_CheckEsp
  000f0	50		 push	 eax
  000f1	e8 00 00 00 00	 call	 ??$_Maklocstr@_W@std@@YAPA_WPBDPA_WABU_Cvtvec@@@Z ; std::_Maklocstr<wchar_t>
  000f6	83 c4 0c	 add	 esp, 12			; 0000000cH
  000f9	8b 4d fc	 mov	 ecx, DWORD PTR _this$[ebp]
  000fc	89 41 0c	 mov	 DWORD PTR [ecx+12], eax

; 184  :             _Ampm   = _Maklocstr(":AM:am:PM:pm", static_cast<_Elem*>(nullptr), _Cvt);

  000ff	8b 55 fc	 mov	 edx, DWORD PTR _this$[ebp]
  00102	83 c2 18	 add	 edx, 24			; 00000018H
  00105	52		 push	 edx
  00106	6a 00		 push	 0
  00108	68 00 00 00 00	 push	 OFFSET ??_C@_0N@LPFKKEBD@?3AM?3am?3PM?3pm@
  0010d	e8 00 00 00 00	 call	 ??$_Maklocstr@_W@std@@YAPA_WPBDPA_WABU_Cvtvec@@@Z ; std::_Maklocstr<wchar_t>
  00112	83 c4 0c	 add	 esp, 12			; 0000000cH
  00115	8b 4d fc	 mov	 ecx, DWORD PTR _this$[ebp]
  00118	89 41 10	 mov	 DWORD PTR [ecx+16], eax
$LN1@Getvals:

; 185  :         }
; 186  :     }

  0011b	5f		 pop	 edi
  0011c	5e		 pop	 esi
  0011d	83 c4 30	 add	 esp, 48			; 00000030H
  00120	3b ec		 cmp	 ebp, esp
  00122	e8 00 00 00 00	 call	 __RTC_CheckEsp
  00127	8b e5		 mov	 esp, ebp
  00129	5d		 pop	 ebp
  0012a	c2 08 00	 ret	 8
??$_Getvals@_W@?$time_get@_WV?$istreambuf_iterator@_WU?$char_traits@_W@std@@@std@@@std@@IAEX_WABV_Locinfo@1@@Z ENDP ; std::time_get<wchar_t,std::istreambuf_iterator<wchar_t,std::char_traits<wchar_t> > >::_Getvals<wchar_t>
_TEXT	ENDS
; Function compile flags: /Odtp /RTCsu
; File C:\Program Files (x86)\Microsoft Visual Studio\2019\Community\VC\Tools\MSVC\14.29.30133\include\xloctime
;	COMDAT ??$_Getvals@_W@?$time_get@DV?$istreambuf_iterator@DU?$char_traits@D@std@@@std@@@std@@IAEX_WABV_Locinfo@1@@Z
_TEXT	SEGMENT
$T1 = -48						; size = 44
_this$ = -4						; size = 4
___formal$ = 8						; size = 2
__Lobj$ = 12						; size = 4
??$_Getvals@_W@?$time_get@DV?$istreambuf_iterator@DU?$char_traits@D@std@@@std@@@std@@IAEX_WABV_Locinfo@1@@Z PROC ; std::time_get<char,std::istreambuf_iterator<char,std::char_traits<char> > >::_Getvals<wchar_t>, COMDAT
; _this$ = ecx

; 173  :     void __CLR_OR_THIS_CALL _Getvals(_Elem2, const _Locinfo& _Lobj) { // get values

  00000	55		 push	 ebp
  00001	8b ec		 mov	 ebp, esp
  00003	83 ec 30	 sub	 esp, 48			; 00000030H
  00006	56		 push	 esi
  00007	57		 push	 edi
  00008	51		 push	 ecx
  00009	8d 7d d0	 lea	 edi, DWORD PTR [ebp-48]
  0000c	b9 0c 00 00 00	 mov	 ecx, 12			; 0000000cH
  00011	b8 cc cc cc cc	 mov	 eax, -858993460		; ccccccccH
  00016	f3 ab		 rep stosd
  00018	59		 pop	 ecx
  00019	89 4d fc	 mov	 DWORD PTR _this$[ebp], ecx
  0001c	b9 00 00 00 00	 mov	 ecx, OFFSET __D96D2425_xloctime
  00021	e8 00 00 00 00	 call	 @__CheckForDebuggerJustMyCode@4

; 174  :         _Cvt = _Lobj._Getcvt();

  00026	8b f4		 mov	 esi, esp
  00028	8d 45 d0	 lea	 eax, DWORD PTR $T1[ebp]
  0002b	50		 push	 eax
  0002c	8b 4d 0c	 mov	 ecx, DWORD PTR __Lobj$[ebp]
  0002f	ff 15 00 00 00
	00		 call	 DWORD PTR __imp_?_Getcvt@_Locinfo@std@@QBE?AU_Cvtvec@@XZ
  00035	3b f4		 cmp	 esi, esp
  00037	e8 00 00 00 00	 call	 __RTC_CheckEsp
  0003c	8b 7d fc	 mov	 edi, DWORD PTR _this$[ebp]
  0003f	83 c7 18	 add	 edi, 24			; 00000018H
  00042	b9 0b 00 00 00	 mov	 ecx, 11			; 0000000bH
  00047	8b f0		 mov	 esi, eax
  00049	f3 a5		 rep movsd

; 175  : 
; 176  :         if (is_same_v<_Elem2, wchar_t>) {

  0004b	b9 01 00 00 00	 mov	 ecx, 1
  00050	85 c9		 test	 ecx, ecx
  00052	74 57		 je	 SHORT $LN2@Getvals

; 177  :             _Days = reinterpret_cast<const _Elem*>(_Maklocwcs(reinterpret_cast<const wchar_t*>(_Lobj._W_Getdays())));

  00054	8b f4		 mov	 esi, esp
  00056	8b 4d 0c	 mov	 ecx, DWORD PTR __Lobj$[ebp]
  00059	ff 15 00 00 00
	00		 call	 DWORD PTR __imp_?_W_Getdays@_Locinfo@std@@QBEPBGXZ
  0005f	3b f4		 cmp	 esi, esp
  00061	e8 00 00 00 00	 call	 __RTC_CheckEsp
  00066	50		 push	 eax
  00067	e8 00 00 00 00	 call	 ?_Maklocwcs@std@@YAPA_WPB_W@Z ; std::_Maklocwcs
  0006c	83 c4 04	 add	 esp, 4
  0006f	8b 55 fc	 mov	 edx, DWORD PTR _this$[ebp]
  00072	89 42 08	 mov	 DWORD PTR [edx+8], eax

; 178  :             _Months =

  00075	8b f4		 mov	 esi, esp
  00077	8b 4d 0c	 mov	 ecx, DWORD PTR __Lobj$[ebp]
  0007a	ff 15 00 00 00
	00		 call	 DWORD PTR __imp_?_W_Getmonths@_Locinfo@std@@QBEPBGXZ
  00080	3b f4		 cmp	 esi, esp
  00082	e8 00 00 00 00	 call	 __RTC_CheckEsp
  00087	50		 push	 eax
  00088	e8 00 00 00 00	 call	 ?_Maklocwcs@std@@YAPA_WPB_W@Z ; std::_Maklocwcs
  0008d	83 c4 04	 add	 esp, 4
  00090	8b 4d fc	 mov	 ecx, DWORD PTR _this$[ebp]
  00093	89 41 0c	 mov	 DWORD PTR [ecx+12], eax

; 179  :                 reinterpret_cast<const _Elem*>(_Maklocwcs(reinterpret_cast<const wchar_t*>(_Lobj._W_Getmonths())));
; 180  :             _Ampm = reinterpret_cast<const _Elem*>(_Maklocwcs(L":AM:am:PM:pm"));

  00096	68 00 00 00 00	 push	 OFFSET ??_C@_1BK@MHIKGOKE@?$AA?3?$AAA?$AAM?$AA?3?$AAa?$AAm?$AA?3?$AAP?$AAM?$AA?3?$AAp?$AAm@
  0009b	e8 00 00 00 00	 call	 ?_Maklocwcs@std@@YAPA_WPB_W@Z ; std::_Maklocwcs
  000a0	83 c4 04	 add	 esp, 4
  000a3	8b 55 fc	 mov	 edx, DWORD PTR _this$[ebp]
  000a6	89 42 10	 mov	 DWORD PTR [edx+16], eax

; 181  :         } else {

  000a9	eb 70		 jmp	 SHORT $LN1@Getvals
$LN2@Getvals:

; 182  :             _Days   = _Maklocstr(_Lobj._Getdays(), static_cast<_Elem*>(nullptr), _Cvt);

  000ab	8b 45 fc	 mov	 eax, DWORD PTR _this$[ebp]
  000ae	83 c0 18	 add	 eax, 24			; 00000018H
  000b1	50		 push	 eax
  000b2	6a 00		 push	 0
  000b4	8b f4		 mov	 esi, esp
  000b6	8b 4d 0c	 mov	 ecx, DWORD PTR __Lobj$[ebp]
  000b9	ff 15 00 00 00
	00		 call	 DWORD PTR __imp_?_Getdays@_Locinfo@std@@QBEPBDXZ
  000bf	3b f4		 cmp	 esi, esp
  000c1	e8 00 00 00 00	 call	 __RTC_CheckEsp
  000c6	50		 push	 eax
  000c7	e8 00 00 00 00	 call	 ??$_Maklocstr@D@std@@YAPADPBDPADABU_Cvtvec@@@Z ; std::_Maklocstr<char>
  000cc	83 c4 0c	 add	 esp, 12			; 0000000cH
  000cf	8b 4d fc	 mov	 ecx, DWORD PTR _this$[ebp]
  000d2	89 41 08	 mov	 DWORD PTR [ecx+8], eax

; 183  :             _Months = _Maklocstr(_Lobj._Getmonths(), static_cast<_Elem*>(nullptr), _Cvt);

  000d5	8b 55 fc	 mov	 edx, DWORD PTR _this$[ebp]
  000d8	83 c2 18	 add	 edx, 24			; 00000018H
  000db	52		 push	 edx
  000dc	6a 00		 push	 0
  000de	8b f4		 mov	 esi, esp
  000e0	8b 4d 0c	 mov	 ecx, DWORD PTR __Lobj$[ebp]
  000e3	ff 15 00 00 00
	00		 call	 DWORD PTR __imp_?_Getmonths@_Locinfo@std@@QBEPBDXZ
  000e9	3b f4		 cmp	 esi, esp
  000eb	e8 00 00 00 00	 call	 __RTC_CheckEsp
  000f0	50		 push	 eax
  000f1	e8 00 00 00 00	 call	 ??$_Maklocstr@D@std@@YAPADPBDPADABU_Cvtvec@@@Z ; std::_Maklocstr<char>
  000f6	83 c4 0c	 add	 esp, 12			; 0000000cH
  000f9	8b 4d fc	 mov	 ecx, DWORD PTR _this$[ebp]
  000fc	89 41 0c	 mov	 DWORD PTR [ecx+12], eax

; 184  :             _Ampm   = _Maklocstr(":AM:am:PM:pm", static_cast<_Elem*>(nullptr), _Cvt);

  000ff	8b 55 fc	 mov	 edx, DWORD PTR _this$[ebp]
  00102	83 c2 18	 add	 edx, 24			; 00000018H
  00105	52		 push	 edx
  00106	6a 00		 push	 0
  00108	68 00 00 00 00	 push	 OFFSET ??_C@_0N@LPFKKEBD@?3AM?3am?3PM?3pm@
  0010d	e8 00 00 00 00	 call	 ??$_Maklocstr@D@std@@YAPADPBDPADABU_Cvtvec@@@Z ; std::_Maklocstr<char>
  00112	83 c4 0c	 add	 esp, 12			; 0000000cH
  00115	8b 4d fc	 mov	 ecx, DWORD PTR _this$[ebp]
  00118	89 41 10	 mov	 DWORD PTR [ecx+16], eax
$LN1@Getvals:

; 185  :         }
; 186  :     }

  0011b	5f		 pop	 edi
  0011c	5e		 pop	 esi
  0011d	83 c4 30	 add	 esp, 48			; 00000030H
  00120	3b ec		 cmp	 ebp, esp
  00122	e8 00 00 00 00	 call	 __RTC_CheckEsp
  00127	8b e5		 mov	 esp, ebp
  00129	5d		 pop	 ebp
  0012a	c2 08 00	 ret	 8
??$_Getvals@_W@?$time_get@DV?$istreambuf_iterator@DU?$char_traits@D@std@@@std@@@std@@IAEX_WABV_Locinfo@1@@Z ENDP ; std::time_get<char,std::istreambuf_iterator<char,std::char_traits<char> > >::_Getvals<wchar_t>
_TEXT	ENDS
; Function compile flags: /Odtp /RTCsu
; File C:\Program Files (x86)\Microsoft Visual Studio\2019\Community\VC\Tools\MSVC\14.29.30133\include\xlocale
;	COMDAT ??$_Maklocstr@D@std@@YAPADPBDPADABU_Cvtvec@@@Z
_TEXT	SEGMENT
__Ptrnext$1 = -12					; size = 4
__Ptrdest$ = -8						; size = 4
__Count$ = -4						; size = 4
__Ptr$ = 8						; size = 4
___formal$ = 12						; size = 4
___formal$ = 16						; size = 4
??$_Maklocstr@D@std@@YAPADPBDPADABU_Cvtvec@@@Z PROC	; std::_Maklocstr<char>, COMDAT

; 522  : _Elem* __CRTDECL _Maklocstr(const char* _Ptr, _Elem*, const _Locinfo::_Cvtvec&) {

  00000	55		 push	 ebp
  00001	8b ec		 mov	 ebp, esp
  00003	83 ec 0c	 sub	 esp, 12			; 0000000cH
  00006	56		 push	 esi
  00007	c7 45 f4 cc cc
	cc cc		 mov	 DWORD PTR [ebp-12], -858993460 ; ccccccccH
  0000e	c7 45 f8 cc cc
	cc cc		 mov	 DWORD PTR [ebp-8], -858993460 ; ccccccccH
  00015	c7 45 fc cc cc
	cc cc		 mov	 DWORD PTR [ebp-4], -858993460 ; ccccccccH
  0001c	b9 00 00 00 00	 mov	 ecx, OFFSET __D23FE460_xlocale
  00021	e8 00 00 00 00	 call	 @__CheckForDebuggerJustMyCode@4

; 523  :     // convert C string to _Elem sequence using _Cvtvec
; 524  :     size_t _Count = _CSTD strlen(_Ptr) + 1;

  00026	8b 45 08	 mov	 eax, DWORD PTR __Ptr$[ebp]
  00029	50		 push	 eax
  0002a	e8 00 00 00 00	 call	 _strlen
  0002f	83 c4 04	 add	 esp, 4
  00032	83 c0 01	 add	 eax, 1
  00035	89 45 fc	 mov	 DWORD PTR __Count$[ebp], eax

; 525  : 
; 526  :     _Elem* _Ptrdest = static_cast<_Elem*>(_calloc_dbg(_Count, sizeof(_Elem), _CRT_BLOCK, __FILE__, __LINE__));

  00038	8b f4		 mov	 esi, esp
  0003a	68 0e 02 00 00	 push	 526			; 0000020eH
  0003f	68 00 00 00 00	 push	 OFFSET $SG85647
  00044	6a 02		 push	 2
  00046	6a 01		 push	 1
  00048	8b 4d fc	 mov	 ecx, DWORD PTR __Count$[ebp]
  0004b	51		 push	 ecx
  0004c	ff 15 00 00 00
	00		 call	 DWORD PTR __imp___calloc_dbg
  00052	83 c4 14	 add	 esp, 20			; 00000014H
  00055	3b f4		 cmp	 esi, esp
  00057	e8 00 00 00 00	 call	 __RTC_CheckEsp
  0005c	89 45 f8	 mov	 DWORD PTR __Ptrdest$[ebp], eax

; 527  : 
; 528  :     if (!_Ptrdest) {

  0005f	83 7d f8 00	 cmp	 DWORD PTR __Ptrdest$[ebp], 0
  00063	75 05		 jne	 SHORT $LN5@Maklocstr

; 529  :         _Xbad_alloc();

  00065	e8 00 00 00 00	 call	 ?_Xbad_alloc@std@@YAXXZ	; std::_Xbad_alloc
$LN5@Maklocstr:

; 530  :     }
; 531  : 
; 532  :     for (_Elem* _Ptrnext = _Ptrdest; 0 < _Count; --_Count, ++_Ptrnext, ++_Ptr) {

  0006a	8b 55 f8	 mov	 edx, DWORD PTR __Ptrdest$[ebp]
  0006d	89 55 f4	 mov	 DWORD PTR __Ptrnext$1[ebp], edx
  00070	eb 1b		 jmp	 SHORT $LN4@Maklocstr
$LN2@Maklocstr:
  00072	8b 45 fc	 mov	 eax, DWORD PTR __Count$[ebp]
  00075	83 e8 01	 sub	 eax, 1
  00078	89 45 fc	 mov	 DWORD PTR __Count$[ebp], eax
  0007b	8b 4d f4	 mov	 ecx, DWORD PTR __Ptrnext$1[ebp]
  0007e	83 c1 01	 add	 ecx, 1
  00081	89 4d f4	 mov	 DWORD PTR __Ptrnext$1[ebp], ecx
  00084	8b 55 08	 mov	 edx, DWORD PTR __Ptr$[ebp]
  00087	83 c2 01	 add	 edx, 1
  0008a	89 55 08	 mov	 DWORD PTR __Ptr$[ebp], edx
$LN4@Maklocstr:
  0008d	83 7d fc 00	 cmp	 DWORD PTR __Count$[ebp], 0
  00091	76 0c		 jbe	 SHORT $LN3@Maklocstr

; 533  :         *_Ptrnext = static_cast<_Elem>(static_cast<unsigned char>(*_Ptr));

  00093	8b 45 f4	 mov	 eax, DWORD PTR __Ptrnext$1[ebp]
  00096	8b 4d 08	 mov	 ecx, DWORD PTR __Ptr$[ebp]
  00099	8a 11		 mov	 dl, BYTE PTR [ecx]
  0009b	88 10		 mov	 BYTE PTR [eax], dl

; 534  :     }

  0009d	eb d3		 jmp	 SHORT $LN2@Maklocstr
$LN3@Maklocstr:

; 535  : 
; 536  :     return _Ptrdest;

  0009f	8b 45 f8	 mov	 eax, DWORD PTR __Ptrdest$[ebp]
$LN6@Maklocstr:

; 537  : }

  000a2	5e		 pop	 esi
  000a3	83 c4 0c	 add	 esp, 12			; 0000000cH
  000a6	3b ec		 cmp	 ebp, esp
  000a8	e8 00 00 00 00	 call	 __RTC_CheckEsp
  000ad	8b e5		 mov	 esp, ebp
  000af	5d		 pop	 ebp
  000b0	c3		 ret	 0
??$_Maklocstr@D@std@@YAPADPBDPADABU_Cvtvec@@@Z ENDP	; std::_Maklocstr<char>
_TEXT	ENDS
; Function compile flags: /Odtp /RTCsu
; File C:\Program Files (x86)\Microsoft Visual Studio\2019\Community\VC\Tools\MSVC\14.29.30133\include\xlocnum
;	COMDAT ?_Maklocwcs@std@@YAPA_WPB_W@Z
_TEXT	SEGMENT
__Ptrdest$ = -8						; size = 4
__Count$ = -4						; size = 4
__Ptr$ = 8						; size = 4
?_Maklocwcs@std@@YAPA_WPB_W@Z PROC			; std::_Maklocwcs, COMDAT

; 90   : inline wchar_t* _Maklocwcs(const wchar_t* _Ptr) { // copy NTWCS to allocated storage

  00000	55		 push	 ebp
  00001	8b ec		 mov	 ebp, esp
  00003	83 ec 08	 sub	 esp, 8
  00006	56		 push	 esi
  00007	c7 45 f8 cc cc
	cc cc		 mov	 DWORD PTR [ebp-8], -858993460 ; ccccccccH
  0000e	c7 45 fc cc cc
	cc cc		 mov	 DWORD PTR [ebp-4], -858993460 ; ccccccccH
  00015	b9 00 00 00 00	 mov	 ecx, OFFSET __4CB88277_xlocnum
  0001a	e8 00 00 00 00	 call	 @__CheckForDebuggerJustMyCode@4

; 91   :     const size_t _Count = _CSTD wcslen(_Ptr) + 1;

  0001f	8b f4		 mov	 esi, esp
  00021	8b 45 08	 mov	 eax, DWORD PTR __Ptr$[ebp]
  00024	50		 push	 eax
  00025	ff 15 00 00 00
	00		 call	 DWORD PTR __imp__wcslen
  0002b	83 c4 04	 add	 esp, 4
  0002e	3b f4		 cmp	 esi, esp
  00030	e8 00 00 00 00	 call	 __RTC_CheckEsp
  00035	83 c0 01	 add	 eax, 1
  00038	89 45 fc	 mov	 DWORD PTR __Count$[ebp], eax

; 92   : 
; 93   :     wchar_t* _Ptrdest = static_cast<wchar_t*>(_calloc_dbg(_Count, sizeof(wchar_t), _CRT_BLOCK, __FILE__, __LINE__));

  0003b	8b f4		 mov	 esi, esp
  0003d	6a 5d		 push	 93			; 0000005dH
  0003f	68 00 00 00 00	 push	 OFFSET ??_C@_0GI@OGMNKBMN@C?3?2Program?5Files?5?$CIx86?$CJ?2Microsof@
  00044	6a 02		 push	 2
  00046	6a 02		 push	 2
  00048	8b 4d fc	 mov	 ecx, DWORD PTR __Count$[ebp]
  0004b	51		 push	 ecx
  0004c	ff 15 00 00 00
	00		 call	 DWORD PTR __imp___calloc_dbg
  00052	83 c4 14	 add	 esp, 20			; 00000014H
  00055	3b f4		 cmp	 esi, esp
  00057	e8 00 00 00 00	 call	 __RTC_CheckEsp
  0005c	89 45 f8	 mov	 DWORD PTR __Ptrdest$[ebp], eax

; 94   : 
; 95   :     if (!_Ptrdest) {

  0005f	83 7d f8 00	 cmp	 DWORD PTR __Ptrdest$[ebp], 0
  00063	75 05		 jne	 SHORT $LN2@Maklocwcs

; 96   :         _Xbad_alloc();

  00065	e8 00 00 00 00	 call	 ?_Xbad_alloc@std@@YAXXZ	; std::_Xbad_alloc
$LN2@Maklocwcs:

; 97   :     }
; 98   : 
; 99   :     _CSTD wmemcpy(_Ptrdest, _Ptr, _Count);

  0006a	8b 55 fc	 mov	 edx, DWORD PTR __Count$[ebp]
  0006d	52		 push	 edx
  0006e	8b 45 08	 mov	 eax, DWORD PTR __Ptr$[ebp]
  00071	50		 push	 eax
  00072	8b 4d f8	 mov	 ecx, DWORD PTR __Ptrdest$[ebp]
  00075	51		 push	 ecx
  00076	e8 00 00 00 00	 call	 _wmemcpy
  0007b	83 c4 0c	 add	 esp, 12			; 0000000cH

; 100  :     return _Ptrdest;

  0007e	8b 45 f8	 mov	 eax, DWORD PTR __Ptrdest$[ebp]
$LN3@Maklocwcs:

; 101  : }

  00081	5e		 pop	 esi
  00082	83 c4 08	 add	 esp, 8
  00085	3b ec		 cmp	 ebp, esp
  00087	e8 00 00 00 00	 call	 __RTC_CheckEsp
  0008c	8b e5		 mov	 esp, ebp
  0008e	5d		 pop	 ebp
  0008f	c3		 ret	 0
?_Maklocwcs@std@@YAPA_WPB_W@Z ENDP			; std::_Maklocwcs
_TEXT	ENDS
; Function compile flags: /Odtp /RTCsu
; File C:\Program Files (x86)\Microsoft Visual Studio\2019\Community\VC\Tools\MSVC\14.29.30133\include\utility
;	COMDAT ??$min@H@std@@YAABHABH0@Z
_TEXT	SEGMENT
tv65 = -8						; size = 4
$T1 = -4						; size = 4
__Left$ = 8						; size = 4
__Right$ = 12						; size = 4
??$min@H@std@@YAABHABH0@Z PROC				; std::min<int>, COMDAT

; 66   :     const _Ty& _Left, const _Ty& _Right) noexcept(noexcept(_Right < _Left)) /* strengthened */ {

  00000	55		 push	 ebp
  00001	8b ec		 mov	 ebp, esp
  00003	83 ec 08	 sub	 esp, 8
  00006	c7 45 f8 cc cc
	cc cc		 mov	 DWORD PTR [ebp-8], -858993460 ; ccccccccH
  0000d	c7 45 fc cc cc
	cc cc		 mov	 DWORD PTR [ebp-4], -858993460 ; ccccccccH
  00014	b9 00 00 00 00	 mov	 ecx, OFFSET __1347750E_utility
  00019	e8 00 00 00 00	 call	 @__CheckForDebuggerJustMyCode@4

; 67   :     // return smaller of _Left and _Right
; 68   :     return _Right < _Left ? _Right : _Left;

  0001e	8b 45 0c	 mov	 eax, DWORD PTR __Right$[ebp]
  00021	8b 4d 08	 mov	 ecx, DWORD PTR __Left$[ebp]
  00024	8b 10		 mov	 edx, DWORD PTR [eax]
  00026	3b 11		 cmp	 edx, DWORD PTR [ecx]
  00028	7d 08		 jge	 SHORT $LN3@min
  0002a	8b 45 0c	 mov	 eax, DWORD PTR __Right$[ebp]
  0002d	89 45 f8	 mov	 DWORD PTR tv65[ebp], eax
  00030	eb 06		 jmp	 SHORT $LN4@min
$LN3@min:
  00032	8b 4d 08	 mov	 ecx, DWORD PTR __Left$[ebp]
  00035	89 4d f8	 mov	 DWORD PTR tv65[ebp], ecx
$LN4@min:
  00038	8b 55 f8	 mov	 edx, DWORD PTR tv65[ebp]
  0003b	89 55 fc	 mov	 DWORD PTR $T1[ebp], edx
  0003e	8b 45 fc	 mov	 eax, DWORD PTR $T1[ebp]

; 69   : }

  00041	83 c4 08	 add	 esp, 8
  00044	3b ec		 cmp	 ebp, esp
  00046	e8 00 00 00 00	 call	 __RTC_CheckEsp
  0004b	8b e5		 mov	 esp, ebp
  0004d	5d		 pop	 ebp
  0004e	c3		 ret	 0
??$min@H@std@@YAABHABH0@Z ENDP				; std::min<int>
_TEXT	ENDS
; Function compile flags: /Odtp /RTCsu
; File C:\Program Files (x86)\Microsoft Visual Studio\2019\Community\VC\Tools\MSVC\14.29.30133\include\xlocale
;	COMDAT ??$_Maklocstr@_W@std@@YAPA_WPBDPA_WABU_Cvtvec@@@Z
_TEXT	SEGMENT
__Mbst2$ = -72						; size = 8
__Ptrnext$ = -60					; size = 4
__Ptrdest$ = -56					; size = 4
__Mbst1$ = -48						; size = 8
__Wc$ = -32						; size = 2
__Bytes$ = -24						; size = 4
__Ptr1$ = -20						; size = 4
__Wchars$ = -16						; size = 4
__Count1$ = -12						; size = 4
__Count$ = -8						; size = 4
__$ArrayPad$ = -4					; size = 4
__Ptr$ = 8						; size = 4
___formal$ = 12						; size = 4
__Cvt$ = 16						; size = 4
??$_Maklocstr@_W@std@@YAPA_WPBDPA_WABU_Cvtvec@@@Z PROC	; std::_Maklocstr<wchar_t>, COMDAT

; 540  : inline wchar_t* __CRTDECL _Maklocstr(const char* _Ptr, wchar_t*, const _Locinfo::_Cvtvec& _Cvt) {

  00000	55		 push	 ebp
  00001	8b ec		 mov	 ebp, esp
  00003	83 ec 4c	 sub	 esp, 76			; 0000004cH
  00006	56		 push	 esi
  00007	57		 push	 edi
  00008	8d 7d b4	 lea	 edi, DWORD PTR [ebp-76]
  0000b	b9 13 00 00 00	 mov	 ecx, 19			; 00000013H
  00010	b8 cc cc cc cc	 mov	 eax, -858993460		; ccccccccH
  00015	f3 ab		 rep stosd
  00017	a1 00 00 00 00	 mov	 eax, DWORD PTR ___security_cookie
  0001c	33 c5		 xor	 eax, ebp
  0001e	89 45 fc	 mov	 DWORD PTR __$ArrayPad$[ebp], eax
  00021	b9 00 00 00 00	 mov	 ecx, OFFSET __D23FE460_xlocale
  00026	e8 00 00 00 00	 call	 @__CheckForDebuggerJustMyCode@4

; 541  :     // convert C string to wchar_t sequence using _Cvtvec
; 542  :     size_t _Count;
; 543  :     size_t _Count1;
; 544  :     size_t _Wchars;
; 545  :     const char* _Ptr1;
; 546  :     int _Bytes;
; 547  :     wchar_t _Wc;
; 548  :     mbstate_t _Mbst1 = {};

  0002b	33 c0		 xor	 eax, eax
  0002d	89 45 d0	 mov	 DWORD PTR __Mbst1$[ebp], eax
  00030	89 45 d4	 mov	 DWORD PTR __Mbst1$[ebp+4], eax

; 549  : 
; 550  :     _Count1 = _CSTD strlen(_Ptr) + 1;

  00033	8b 4d 08	 mov	 ecx, DWORD PTR __Ptr$[ebp]
  00036	51		 push	 ecx
  00037	e8 00 00 00 00	 call	 _strlen
  0003c	83 c4 04	 add	 esp, 4
  0003f	83 c0 01	 add	 eax, 1
  00042	89 45 f4	 mov	 DWORD PTR __Count1$[ebp], eax

; 551  :     for (_Count = _Count1, _Wchars = 0, _Ptr1 = _Ptr; 0 < _Count; _Count -= _Bytes, _Ptr1 += _Bytes, ++_Wchars) {

  00045	8b 55 f4	 mov	 edx, DWORD PTR __Count1$[ebp]
  00048	89 55 f8	 mov	 DWORD PTR __Count$[ebp], edx
  0004b	c7 45 f0 00 00
	00 00		 mov	 DWORD PTR __Wchars$[ebp], 0
  00052	8b 45 08	 mov	 eax, DWORD PTR __Ptr$[ebp]
  00055	89 45 ec	 mov	 DWORD PTR __Ptr1$[ebp], eax
  00058	eb 1b		 jmp	 SHORT $LN4@Maklocstr
$LN2@Maklocstr:
  0005a	8b 4d f8	 mov	 ecx, DWORD PTR __Count$[ebp]
  0005d	2b 4d e8	 sub	 ecx, DWORD PTR __Bytes$[ebp]
  00060	89 4d f8	 mov	 DWORD PTR __Count$[ebp], ecx
  00063	8b 55 ec	 mov	 edx, DWORD PTR __Ptr1$[ebp]
  00066	03 55 e8	 add	 edx, DWORD PTR __Bytes$[ebp]
  00069	89 55 ec	 mov	 DWORD PTR __Ptr1$[ebp], edx
  0006c	8b 45 f0	 mov	 eax, DWORD PTR __Wchars$[ebp]
  0006f	83 c0 01	 add	 eax, 1
  00072	89 45 f0	 mov	 DWORD PTR __Wchars$[ebp], eax
$LN4@Maklocstr:
  00075	83 7d f8 00	 cmp	 DWORD PTR __Count$[ebp], 0
  00079	76 29		 jbe	 SHORT $LN3@Maklocstr

; 552  :         if ((_Bytes = _Mbrtowc(&_Wc, _Ptr1, _Count, &_Mbst1, &_Cvt)) <= 0) {

  0007b	8b 4d 10	 mov	 ecx, DWORD PTR __Cvt$[ebp]
  0007e	51		 push	 ecx
  0007f	8d 55 d0	 lea	 edx, DWORD PTR __Mbst1$[ebp]
  00082	52		 push	 edx
  00083	8b 45 f8	 mov	 eax, DWORD PTR __Count$[ebp]
  00086	50		 push	 eax
  00087	8b 4d ec	 mov	 ecx, DWORD PTR __Ptr1$[ebp]
  0008a	51		 push	 ecx
  0008b	8d 55 e0	 lea	 edx, DWORD PTR __Wc$[ebp]
  0008e	52		 push	 edx
  0008f	e8 00 00 00 00	 call	 __Mbrtowc
  00094	83 c4 14	 add	 esp, 20			; 00000014H
  00097	89 45 e8	 mov	 DWORD PTR __Bytes$[ebp], eax
  0009a	83 7d e8 00	 cmp	 DWORD PTR __Bytes$[ebp], 0
  0009e	7f 02		 jg	 SHORT $LN8@Maklocstr

; 553  :             break;

  000a0	eb 02		 jmp	 SHORT $LN3@Maklocstr
$LN8@Maklocstr:

; 554  :         }
; 555  :     }

  000a2	eb b6		 jmp	 SHORT $LN2@Maklocstr
$LN3@Maklocstr:

; 556  : 
; 557  :     ++_Wchars; // count terminating nul

  000a4	8b 45 f0	 mov	 eax, DWORD PTR __Wchars$[ebp]
  000a7	83 c0 01	 add	 eax, 1
  000aa	89 45 f0	 mov	 DWORD PTR __Wchars$[ebp], eax

; 558  : 
; 559  :     wchar_t* _Ptrdest = static_cast<wchar_t*>(_calloc_dbg(_Wchars, sizeof(wchar_t), _CRT_BLOCK, __FILE__, __LINE__));

  000ad	8b f4		 mov	 esi, esp
  000af	68 2f 02 00 00	 push	 559			; 0000022fH
  000b4	68 00 00 00 00	 push	 OFFSET ??_C@_0GI@GFIAKDGM@C?3?2Program?5Files?5?$CIx86?$CJ?2Microsof@
  000b9	6a 02		 push	 2
  000bb	6a 02		 push	 2
  000bd	8b 4d f0	 mov	 ecx, DWORD PTR __Wchars$[ebp]
  000c0	51		 push	 ecx
  000c1	ff 15 00 00 00
	00		 call	 DWORD PTR __imp___calloc_dbg
  000c7	83 c4 14	 add	 esp, 20			; 00000014H
  000ca	3b f4		 cmp	 esi, esp
  000cc	e8 00 00 00 00	 call	 __RTC_CheckEsp
  000d1	89 45 c8	 mov	 DWORD PTR __Ptrdest$[ebp], eax

; 560  : 
; 561  :     if (!_Ptrdest) {

  000d4	83 7d c8 00	 cmp	 DWORD PTR __Ptrdest$[ebp], 0
  000d8	75 05		 jne	 SHORT $LN9@Maklocstr

; 562  :         _Xbad_alloc();

  000da	e8 00 00 00 00	 call	 ?_Xbad_alloc@std@@YAXXZ	; std::_Xbad_alloc
$LN9@Maklocstr:

; 563  :     }
; 564  : 
; 565  :     wchar_t* _Ptrnext = _Ptrdest;

  000df	8b 55 c8	 mov	 edx, DWORD PTR __Ptrdest$[ebp]
  000e2	89 55 c4	 mov	 DWORD PTR __Ptrnext$[ebp], edx

; 566  :     mbstate_t _Mbst2  = {};

  000e5	33 c0		 xor	 eax, eax
  000e7	89 45 b8	 mov	 DWORD PTR __Mbst2$[ebp], eax
  000ea	89 45 bc	 mov	 DWORD PTR __Mbst2$[ebp+4], eax

; 567  : 
; 568  :     for (; 0 < _Wchars; _Count -= _Bytes, _Ptr += _Bytes, --_Wchars, ++_Ptrnext) {

  000ed	eb 24		 jmp	 SHORT $LN7@Maklocstr
$LN5@Maklocstr:
  000ef	8b 4d f8	 mov	 ecx, DWORD PTR __Count$[ebp]
  000f2	2b 4d e8	 sub	 ecx, DWORD PTR __Bytes$[ebp]
  000f5	89 4d f8	 mov	 DWORD PTR __Count$[ebp], ecx
  000f8	8b 55 08	 mov	 edx, DWORD PTR __Ptr$[ebp]
  000fb	03 55 e8	 add	 edx, DWORD PTR __Bytes$[ebp]
  000fe	89 55 08	 mov	 DWORD PTR __Ptr$[ebp], edx
  00101	8b 45 f0	 mov	 eax, DWORD PTR __Wchars$[ebp]
  00104	83 e8 01	 sub	 eax, 1
  00107	89 45 f0	 mov	 DWORD PTR __Wchars$[ebp], eax
  0010a	8b 4d c4	 mov	 ecx, DWORD PTR __Ptrnext$[ebp]
  0010d	83 c1 02	 add	 ecx, 2
  00110	89 4d c4	 mov	 DWORD PTR __Ptrnext$[ebp], ecx
$LN7@Maklocstr:
  00113	83 7d f0 00	 cmp	 DWORD PTR __Wchars$[ebp], 0
  00117	76 29		 jbe	 SHORT $LN6@Maklocstr

; 569  :         if ((_Bytes = _Mbrtowc(_Ptrnext, _Ptr, _Count1, &_Mbst2, &_Cvt)) <= 0) {

  00119	8b 55 10	 mov	 edx, DWORD PTR __Cvt$[ebp]
  0011c	52		 push	 edx
  0011d	8d 45 b8	 lea	 eax, DWORD PTR __Mbst2$[ebp]
  00120	50		 push	 eax
  00121	8b 4d f4	 mov	 ecx, DWORD PTR __Count1$[ebp]
  00124	51		 push	 ecx
  00125	8b 55 08	 mov	 edx, DWORD PTR __Ptr$[ebp]
  00128	52		 push	 edx
  00129	8b 45 c4	 mov	 eax, DWORD PTR __Ptrnext$[ebp]
  0012c	50		 push	 eax
  0012d	e8 00 00 00 00	 call	 __Mbrtowc
  00132	83 c4 14	 add	 esp, 20			; 00000014H
  00135	89 45 e8	 mov	 DWORD PTR __Bytes$[ebp], eax
  00138	83 7d e8 00	 cmp	 DWORD PTR __Bytes$[ebp], 0
  0013c	7f 02		 jg	 SHORT $LN10@Maklocstr

; 570  :             break;

  0013e	eb 02		 jmp	 SHORT $LN6@Maklocstr
$LN10@Maklocstr:

; 571  :         }
; 572  :     }

  00140	eb ad		 jmp	 SHORT $LN5@Maklocstr
$LN6@Maklocstr:

; 573  : 
; 574  :     *_Ptrnext = L'\0';

  00142	33 c9		 xor	 ecx, ecx
  00144	8b 55 c4	 mov	 edx, DWORD PTR __Ptrnext$[ebp]
  00147	66 89 0a	 mov	 WORD PTR [edx], cx

; 575  : 
; 576  :     return _Ptrdest;

  0014a	8b 45 c8	 mov	 eax, DWORD PTR __Ptrdest$[ebp]
$LN11@Maklocstr:

; 577  : }

  0014d	52		 push	 edx
  0014e	8b cd		 mov	 ecx, ebp
  00150	50		 push	 eax
  00151	8d 15 00 00 00
	00		 lea	 edx, DWORD PTR $LN16@Maklocstr
  00157	e8 00 00 00 00	 call	 @_RTC_CheckStackVars@8
  0015c	58		 pop	 eax
  0015d	5a		 pop	 edx
  0015e	5f		 pop	 edi
  0015f	5e		 pop	 esi
  00160	8b 4d fc	 mov	 ecx, DWORD PTR __$ArrayPad$[ebp]
  00163	33 cd		 xor	 ecx, ebp
  00165	e8 00 00 00 00	 call	 @__security_check_cookie@4
  0016a	83 c4 4c	 add	 esp, 76			; 0000004cH
  0016d	3b ec		 cmp	 ebp, esp
  0016f	e8 00 00 00 00	 call	 __RTC_CheckEsp
  00174	8b e5		 mov	 esp, ebp
  00176	5d		 pop	 ebp
  00177	c3		 ret	 0
$LN16@Maklocstr:
  00178	03 00 00 00	 DD	 3
  0017c	00 00 00 00	 DD	 $LN15@Maklocstr
$LN15@Maklocstr:
  00180	e0 ff ff ff	 DD	 -32			; ffffffe0H
  00184	02 00 00 00	 DD	 2
  00188	00 00 00 00	 DD	 $LN12@Maklocstr
  0018c	d0 ff ff ff	 DD	 -48			; ffffffd0H
  00190	08 00 00 00	 DD	 8
  00194	00 00 00 00	 DD	 $LN13@Maklocstr
  00198	b8 ff ff ff	 DD	 -72			; ffffffb8H
  0019c	08 00 00 00	 DD	 8
  001a0	00 00 00 00	 DD	 $LN14@Maklocstr
$LN14@Maklocstr:
  001a4	5f		 DB	 95			; 0000005fH
  001a5	4d		 DB	 77			; 0000004dH
  001a6	62		 DB	 98			; 00000062H
  001a7	73		 DB	 115			; 00000073H
  001a8	74		 DB	 116			; 00000074H
  001a9	32		 DB	 50			; 00000032H
  001aa	00		 DB	 0
$LN13@Maklocstr:
  001ab	5f		 DB	 95			; 0000005fH
  001ac	4d		 DB	 77			; 0000004dH
  001ad	62		 DB	 98			; 00000062H
  001ae	73		 DB	 115			; 00000073H
  001af	74		 DB	 116			; 00000074H
  001b0	31		 DB	 49			; 00000031H
  001b1	00		 DB	 0
$LN12@Maklocstr:
  001b2	5f		 DB	 95			; 0000005fH
  001b3	57		 DB	 87			; 00000057H
  001b4	63		 DB	 99			; 00000063H
  001b5	00		 DB	 0
??$_Maklocstr@_W@std@@YAPA_WPBDPA_WABU_Cvtvec@@@Z ENDP	; std::_Maklocstr<wchar_t>
_TEXT	ENDS
; Function compile flags: /Odtp /RTCsu
;	COMDAT ??1?$_Compressed_pair@V?$allocator@D@std@@V?$_String_val@U?$_Simple_types@D@std@@@2@$00@std@@QAE@XZ
_TEXT	SEGMENT
_this$ = -4						; size = 4
??1?$_Compressed_pair@V?$allocator@D@std@@V?$_String_val@U?$_Simple_types@D@std@@@2@$00@std@@QAE@XZ PROC ; std::_Compressed_pair<std::allocator<char>,std::_String_val<std::_Simple_types<char> >,1>::~_Compressed_pair<std::allocator<char>,std::_String_val<std::_Simple_types<char> >,1>, COMDAT
; _this$ = ecx
  00000	55		 push	 ebp
  00001	8b ec		 mov	 ebp, esp
  00003	51		 push	 ecx
  00004	c7 45 fc cc cc
	cc cc		 mov	 DWORD PTR [ebp-4], -858993460 ; ccccccccH
  0000b	89 4d fc	 mov	 DWORD PTR _this$[ebp], ecx
  0000e	8b 4d fc	 mov	 ecx, DWORD PTR _this$[ebp]
  00011	e8 00 00 00 00	 call	 ??1?$_String_val@U?$_Simple_types@D@std@@@std@@QAE@XZ
  00016	83 c4 04	 add	 esp, 4
  00019	3b ec		 cmp	 ebp, esp
  0001b	e8 00 00 00 00	 call	 __RTC_CheckEsp
  00020	8b e5		 mov	 esp, ebp
  00022	5d		 pop	 ebp
  00023	c3		 ret	 0
??1?$_Compressed_pair@V?$allocator@D@std@@V?$_String_val@U?$_Simple_types@D@std@@@2@$00@std@@QAE@XZ ENDP ; std::_Compressed_pair<std::allocator<char>,std::_String_val<std::_Simple_types<char> >,1>::~_Compressed_pair<std::allocator<char>,std::_String_val<std::_Simple_types<char> >,1>
_TEXT	ENDS
; Function compile flags: /Odtp /RTCsu
; File C:\Program Files (x86)\Microsoft Visual Studio\2019\Community\VC\Tools\MSVC\14.29.30133\include\xmemory
;	COMDAT ?_Get_first@?$_Compressed_pair@V?$allocator@D@std@@V?$_String_val@U?$_Simple_types@D@std@@@2@$00@std@@QBEABV?$allocator@D@2@XZ
_TEXT	SEGMENT
_this$ = -4						; size = 4
?_Get_first@?$_Compressed_pair@V?$allocator@D@std@@V?$_String_val@U?$_Simple_types@D@std@@@2@$00@std@@QBEABV?$allocator@D@2@XZ PROC ; std::_Compressed_pair<std::allocator<char>,std::_String_val<std::_Simple_types<char> >,1>::_Get_first, COMDAT
; _this$ = ecx

; 1401 :     constexpr const _Ty1& _Get_first() const noexcept {

  00000	55		 push	 ebp
  00001	8b ec		 mov	 ebp, esp
  00003	51		 push	 ecx
  00004	c7 45 fc cc cc
	cc cc		 mov	 DWORD PTR [ebp-4], -858993460 ; ccccccccH
  0000b	89 4d fc	 mov	 DWORD PTR _this$[ebp], ecx
  0000e	b9 00 00 00 00	 mov	 ecx, OFFSET __79D216CD_xmemory
  00013	e8 00 00 00 00	 call	 @__CheckForDebuggerJustMyCode@4

; 1402 :         return *this;

  00018	8b 45 fc	 mov	 eax, DWORD PTR _this$[ebp]

; 1403 :     }

  0001b	83 c4 04	 add	 esp, 4
  0001e	3b ec		 cmp	 ebp, esp
  00020	e8 00 00 00 00	 call	 __RTC_CheckEsp
  00025	8b e5		 mov	 esp, ebp
  00027	5d		 pop	 ebp
  00028	c3		 ret	 0
?_Get_first@?$_Compressed_pair@V?$allocator@D@std@@V?$_String_val@U?$_Simple_types@D@std@@@2@$00@std@@QBEABV?$allocator@D@2@XZ ENDP ; std::_Compressed_pair<std::allocator<char>,std::_String_val<std::_Simple_types<char> >,1>::_Get_first
_TEXT	ENDS
; Function compile flags: /Odtp /RTCsu
; File C:\Program Files (x86)\Microsoft Visual Studio\2019\Community\VC\Tools\MSVC\14.29.30133\include\xmemory
;	COMDAT ?_Get_first@?$_Compressed_pair@V?$allocator@D@std@@V?$_String_val@U?$_Simple_types@D@std@@@2@$00@std@@QAEAAV?$allocator@D@2@XZ
_TEXT	SEGMENT
_this$ = -4						; size = 4
?_Get_first@?$_Compressed_pair@V?$allocator@D@std@@V?$_String_val@U?$_Simple_types@D@std@@@2@$00@std@@QAEAAV?$allocator@D@2@XZ PROC ; std::_Compressed_pair<std::allocator<char>,std::_String_val<std::_Simple_types<char> >,1>::_Get_first, COMDAT
; _this$ = ecx

; 1397 :     constexpr _Ty1& _Get_first() noexcept {

  00000	55		 push	 ebp
  00001	8b ec		 mov	 ebp, esp
  00003	51		 push	 ecx
  00004	c7 45 fc cc cc
	cc cc		 mov	 DWORD PTR [ebp-4], -858993460 ; ccccccccH
  0000b	89 4d fc	 mov	 DWORD PTR _this$[ebp], ecx
  0000e	b9 00 00 00 00	 mov	 ecx, OFFSET __79D216CD_xmemory
  00013	e8 00 00 00 00	 call	 @__CheckForDebuggerJustMyCode@4

; 1398 :         return *this;

  00018	8b 45 fc	 mov	 eax, DWORD PTR _this$[ebp]

; 1399 :     }

  0001b	83 c4 04	 add	 esp, 4
  0001e	3b ec		 cmp	 ebp, esp
  00020	e8 00 00 00 00	 call	 __RTC_CheckEsp
  00025	8b e5		 mov	 esp, ebp
  00027	5d		 pop	 ebp
  00028	c3		 ret	 0
?_Get_first@?$_Compressed_pair@V?$allocator@D@std@@V?$_String_val@U?$_Simple_types@D@std@@@2@$00@std@@QAEAAV?$allocator@D@2@XZ ENDP ; std::_Compressed_pair<std::allocator<char>,std::_String_val<std::_Simple_types<char> >,1>::_Get_first
_TEXT	ENDS
; Function compile flags: /Odtp /RTCsu
; File C:\Program Files (x86)\Microsoft Visual Studio\2019\Community\VC\Tools\MSVC\14.29.30133\include\xstring
;	COMDAT ?_Getal@?$basic_string@DU?$char_traits@D@std@@V?$allocator@D@2@@std@@ABEABV?$allocator@D@2@XZ
_TEXT	SEGMENT
_this$ = -4						; size = 4
?_Getal@?$basic_string@DU?$char_traits@D@std@@V?$allocator@D@2@@std@@ABEABV?$allocator@D@2@XZ PROC ; std::basic_string<char,std::char_traits<char>,std::allocator<char> >::_Getal, COMDAT
; _this$ = ecx

; 4654 :     _CONSTEXPR20_CONTAINER const _Alty& _Getal() const noexcept {

  00000	55		 push	 ebp
  00001	8b ec		 mov	 ebp, esp
  00003	51		 push	 ecx
  00004	c7 45 fc cc cc
	cc cc		 mov	 DWORD PTR [ebp-4], -858993460 ; ccccccccH
  0000b	89 4d fc	 mov	 DWORD PTR _this$[ebp], ecx
  0000e	b9 00 00 00 00	 mov	 ecx, OFFSET __0D019051_xstring
  00013	e8 00 00 00 00	 call	 @__CheckForDebuggerJustMyCode@4

; 4655 :         return _Mypair._Get_first();

  00018	8b 4d fc	 mov	 ecx, DWORD PTR _this$[ebp]
  0001b	e8 00 00 00 00	 call	 ?_Get_first@?$_Compressed_pair@V?$allocator@D@std@@V?$_String_val@U?$_Simple_types@D@std@@@2@$00@std@@QBEABV?$allocator@D@2@XZ ; std::_Compressed_pair<std::allocator<char>,std::_String_val<std::_Simple_types<char> >,1>::_Get_first

; 4656 :     }

  00020	83 c4 04	 add	 esp, 4
  00023	3b ec		 cmp	 ebp, esp
  00025	e8 00 00 00 00	 call	 __RTC_CheckEsp
  0002a	8b e5		 mov	 esp, ebp
  0002c	5d		 pop	 ebp
  0002d	c3		 ret	 0
?_Getal@?$basic_string@DU?$char_traits@D@std@@V?$allocator@D@2@@std@@ABEABV?$allocator@D@2@XZ ENDP ; std::basic_string<char,std::char_traits<char>,std::allocator<char> >::_Getal
_TEXT	ENDS
; Function compile flags: /Odtp /RTCsu
; File C:\Program Files (x86)\Microsoft Visual Studio\2019\Community\VC\Tools\MSVC\14.29.30133\include\xstring
;	COMDAT ?_Getal@?$basic_string@DU?$char_traits@D@std@@V?$allocator@D@2@@std@@AAEAAV?$allocator@D@2@XZ
_TEXT	SEGMENT
_this$ = -4						; size = 4
?_Getal@?$basic_string@DU?$char_traits@D@std@@V?$allocator@D@2@@std@@AAEAAV?$allocator@D@2@XZ PROC ; std::basic_string<char,std::char_traits<char>,std::allocator<char> >::_Getal, COMDAT
; _this$ = ecx

; 4650 :     _CONSTEXPR20_CONTAINER _Alty& _Getal() noexcept {

  00000	55		 push	 ebp
  00001	8b ec		 mov	 ebp, esp
  00003	51		 push	 ecx
  00004	c7 45 fc cc cc
	cc cc		 mov	 DWORD PTR [ebp-4], -858993460 ; ccccccccH
  0000b	89 4d fc	 mov	 DWORD PTR _this$[ebp], ecx
  0000e	b9 00 00 00 00	 mov	 ecx, OFFSET __0D019051_xstring
  00013	e8 00 00 00 00	 call	 @__CheckForDebuggerJustMyCode@4

; 4651 :         return _Mypair._Get_first();

  00018	8b 4d fc	 mov	 ecx, DWORD PTR _this$[ebp]
  0001b	e8 00 00 00 00	 call	 ?_Get_first@?$_Compressed_pair@V?$allocator@D@std@@V?$_String_val@U?$_Simple_types@D@std@@@2@$00@std@@QAEAAV?$allocator@D@2@XZ ; std::_Compressed_pair<std::allocator<char>,std::_String_val<std::_Simple_types<char> >,1>::_Get_first

; 4652 :     }

  00020	83 c4 04	 add	 esp, 4
  00023	3b ec		 cmp	 ebp, esp
  00025	e8 00 00 00 00	 call	 __RTC_CheckEsp
  0002a	8b e5		 mov	 esp, ebp
  0002c	5d		 pop	 ebp
  0002d	c3		 ret	 0
?_Getal@?$basic_string@DU?$char_traits@D@std@@V?$allocator@D@2@@std@@AAEAAV?$allocator@D@2@XZ ENDP ; std::basic_string<char,std::char_traits<char>,std::allocator<char> >::_Getal
_TEXT	ENDS
; Function compile flags: /Odtp /RTCsu
; File C:\Program Files (x86)\Microsoft Visual Studio\2019\Community\VC\Tools\MSVC\14.29.30133\include\xstring
;	COMDAT ?_Tidy_deallocate@?$basic_string@DU?$char_traits@D@std@@V?$allocator@D@2@@std@@AAEXXZ
_TEXT	SEGMENT
$T2 = -25						; size = 1
__Al$3 = -24						; size = 4
__Ptr$4 = -20						; size = 4
_this$ = -16						; size = 4
__$EHRec$ = -12						; size = 12
?_Tidy_deallocate@?$basic_string@DU?$char_traits@D@std@@V?$allocator@D@2@@std@@AAEXXZ PROC ; std::basic_string<char,std::char_traits<char>,std::allocator<char> >::_Tidy_deallocate, COMDAT
; _this$ = ecx

; 4616 :     _CONSTEXPR20_CONTAINER void _Tidy_deallocate() noexcept { // initialize buffer, deallocating any storage

  00000	55		 push	 ebp
  00001	8b ec		 mov	 ebp, esp
  00003	6a ff		 push	 -1
  00005	68 00 00 00 00	 push	 __ehhandler$?_Tidy_deallocate@?$basic_string@DU?$char_traits@D@std@@V?$allocator@D@2@@std@@AAEXXZ
  0000a	64 a1 00 00 00
	00		 mov	 eax, DWORD PTR fs:0
  00010	50		 push	 eax
  00011	83 ec 10	 sub	 esp, 16			; 00000010H
  00014	b8 cc cc cc cc	 mov	 eax, -858993460		; ccccccccH
  00019	89 45 e4	 mov	 DWORD PTR [ebp-28], eax
  0001c	89 45 e8	 mov	 DWORD PTR [ebp-24], eax
  0001f	89 45 ec	 mov	 DWORD PTR [ebp-20], eax
  00022	89 45 f0	 mov	 DWORD PTR [ebp-16], eax
  00025	a1 00 00 00 00	 mov	 eax, DWORD PTR ___security_cookie
  0002a	33 c5		 xor	 eax, ebp
  0002c	50		 push	 eax
  0002d	8d 45 f4	 lea	 eax, DWORD PTR __$EHRec$[ebp]
  00030	64 a3 00 00 00
	00		 mov	 DWORD PTR fs:0, eax
  00036	89 4d f0	 mov	 DWORD PTR _this$[ebp], ecx
  00039	b9 00 00 00 00	 mov	 ecx, OFFSET __0D019051_xstring
  0003e	e8 00 00 00 00	 call	 @__CheckForDebuggerJustMyCode@4

; 4617 :         _Mypair._Myval2._Orphan_all();

  00043	8b 4d f0	 mov	 ecx, DWORD PTR _this$[ebp]
  00046	e8 00 00 00 00	 call	 ?_Orphan_all@_Container_base12@std@@QAEXXZ ; std::_Container_base12::_Orphan_all

; 4618 :         if (_Mypair._Myval2._Large_string_engaged()) {

  0004b	8b 4d f0	 mov	 ecx, DWORD PTR _this$[ebp]
  0004e	e8 00 00 00 00	 call	 ?_Large_string_engaged@?$_String_val@U?$_Simple_types@D@std@@@std@@QBE_NXZ ; std::_String_val<std::_Simple_types<char> >::_Large_string_engaged
  00053	0f b6 c0	 movzx	 eax, al
  00056	85 c0		 test	 eax, eax
  00058	74 39		 je	 SHORT $LN2@Tidy_deall

; 4619 :             const pointer _Ptr = _Mypair._Myval2._Bx._Ptr;

  0005a	8b 4d f0	 mov	 ecx, DWORD PTR _this$[ebp]
  0005d	8b 51 04	 mov	 edx, DWORD PTR [ecx+4]
  00060	89 55 ec	 mov	 DWORD PTR __Ptr$4[ebp], edx

; 4620 :             auto& _Al          = _Getal();

  00063	8b 4d f0	 mov	 ecx, DWORD PTR _this$[ebp]
  00066	e8 00 00 00 00	 call	 ?_Getal@?$basic_string@DU?$char_traits@D@std@@V?$allocator@D@2@@std@@AAEAAV?$allocator@D@2@XZ ; std::basic_string<char,std::char_traits<char>,std::allocator<char> >::_Getal
  0006b	89 45 e8	 mov	 DWORD PTR __Al$3[ebp], eax

; 4621 :             _Destroy_in_place(_Mypair._Myval2._Bx._Ptr);

  0006e	8b 45 f0	 mov	 eax, DWORD PTR _this$[ebp]
  00071	83 c0 04	 add	 eax, 4
  00074	50		 push	 eax
  00075	e8 00 00 00 00	 call	 ??$_Destroy_in_place@PAD@std@@YAXAAPAD@Z ; std::_Destroy_in_place<char *>
  0007a	83 c4 04	 add	 esp, 4

; 4622 :             _Al.deallocate(_Ptr, _Mypair._Myval2._Myres + 1);

  0007d	8b 4d f0	 mov	 ecx, DWORD PTR _this$[ebp]
  00080	8b 51 18	 mov	 edx, DWORD PTR [ecx+24]
  00083	83 c2 01	 add	 edx, 1
  00086	52		 push	 edx
  00087	8b 45 ec	 mov	 eax, DWORD PTR __Ptr$4[ebp]
  0008a	50		 push	 eax
  0008b	8b 4d e8	 mov	 ecx, DWORD PTR __Al$3[ebp]
  0008e	e8 00 00 00 00	 call	 ?deallocate@?$allocator@D@std@@QAEXQADI@Z ; std::allocator<char>::deallocate
$LN2@Tidy_deall:

; 4623 :         }
; 4624 : 
; 4625 : #ifdef __cpp_lib_constexpr_string
; 4626 :         if (_STD is_constant_evaluated()) {

  00093	e8 00 00 00 00	 call	 ?is_constant_evaluated@std@@YA_NXZ ; std::is_constant_evaluated
  00098	0f b6 c8	 movzx	 ecx, al
  0009b	85 c9		 test	 ecx, ecx
  0009d	74 20		 je	 SHORT $LN3@Tidy_deall

; 4627 :             _Mypair._Myval2._Bx._Ptr = nullptr;

  0009f	8b 55 f0	 mov	 edx, DWORD PTR _this$[ebp]
  000a2	c7 42 04 00 00
	00 00		 mov	 DWORD PTR [edx+4], 0

; 4628 :             _Mypair._Myval2._Mysize  = 0;

  000a9	8b 45 f0	 mov	 eax, DWORD PTR _this$[ebp]
  000ac	c7 40 14 00 00
	00 00		 mov	 DWORD PTR [eax+20], 0

; 4629 :             _Mypair._Myval2._Myres   = 0;

  000b3	8b 4d f0	 mov	 ecx, DWORD PTR _this$[ebp]
  000b6	c7 41 18 00 00
	00 00		 mov	 DWORD PTR [ecx+24], 0

; 4630 :         } else

  000bd	eb 34		 jmp	 SHORT $LN5@Tidy_deall
$LN3@Tidy_deall:

; 4631 : #endif // __cpp_lib_constexpr_string
; 4632 :         {
; 4633 :             _Mypair._Myval2._Mysize = 0;

  000bf	8b 55 f0	 mov	 edx, DWORD PTR _this$[ebp]
  000c2	c7 42 14 00 00
	00 00		 mov	 DWORD PTR [edx+20], 0

; 4634 :             _Mypair._Myval2._Myres  = _BUF_SIZE - 1;

  000c9	8b 45 f0	 mov	 eax, DWORD PTR _this$[ebp]
  000cc	c7 40 18 0f 00
	00 00		 mov	 DWORD PTR [eax+24], 15	; 0000000fH

; 4635 :             // the _Traits::assign is last so the codegen doesn't think the char write can alias this
; 4636 :             _Traits::assign(_Mypair._Myval2._Bx._Buf[0], _Elem());

  000d3	c6 45 e7 00	 mov	 BYTE PTR $T2[ebp], 0
  000d7	8d 4d e7	 lea	 ecx, DWORD PTR $T2[ebp]
  000da	51		 push	 ecx
  000db	ba 01 00 00 00	 mov	 edx, 1
  000e0	6b c2 00	 imul	 eax, edx, 0
  000e3	8b 4d f0	 mov	 ecx, DWORD PTR _this$[ebp]
  000e6	8d 54 01 04	 lea	 edx, DWORD PTR [ecx+eax+4]
  000ea	52		 push	 edx
  000eb	e8 00 00 00 00	 call	 ?assign@?$_Narrow_char_traits@DH@std@@SAXAADABD@Z ; std::_Narrow_char_traits<char,int>::assign
  000f0	83 c4 08	 add	 esp, 8
$LN5@Tidy_deall:

; 4637 :         }
; 4638 :     }

  000f3	8b 4d f4	 mov	 ecx, DWORD PTR __$EHRec$[ebp]
  000f6	64 89 0d 00 00
	00 00		 mov	 DWORD PTR fs:0, ecx
  000fd	59		 pop	 ecx
  000fe	83 c4 1c	 add	 esp, 28			; 0000001cH
  00101	3b ec		 cmp	 ebp, esp
  00103	e8 00 00 00 00	 call	 __RTC_CheckEsp
  00108	8b e5		 mov	 esp, ebp
  0010a	5d		 pop	 ebp
  0010b	c3		 ret	 0
  0010c	cc		 int	 3
  0010d	cc		 int	 3
  0010e	cc		 int	 3
  0010f	cc		 int	 3
  00110	cc		 int	 3
_TEXT	ENDS
;	COMDAT text$x
text$x	SEGMENT
__ehhandler$?_Tidy_deallocate@?$basic_string@DU?$char_traits@D@std@@V?$allocator@D@2@@std@@AAEXXZ:
  00000	90		 npad	 1
  00001	90		 npad	 1
  00002	8b 54 24 08	 mov	 edx, DWORD PTR [esp+8]
  00006	8d 42 0c	 lea	 eax, DWORD PTR [edx+12]
  00009	8b 4a ec	 mov	 ecx, DWORD PTR [edx-20]
  0000c	33 c8		 xor	 ecx, eax
  0000e	e8 00 00 00 00	 call	 @__security_check_cookie@4
  00013	b8 00 00 00 00	 mov	 eax, OFFSET __ehfuncinfo$?_Tidy_deallocate@?$basic_string@DU?$char_traits@D@std@@V?$allocator@D@2@@std@@AAEXXZ
  00018	e9 00 00 00 00	 jmp	 ___CxxFrameHandler3
text$x	ENDS
?_Tidy_deallocate@?$basic_string@DU?$char_traits@D@std@@V?$allocator@D@2@@std@@AAEXXZ ENDP ; std::basic_string<char,std::char_traits<char>,std::allocator<char> >::_Tidy_deallocate
; Function compile flags: /Odtp /RTCsu
; File C:\Program Files (x86)\Microsoft Visual Studio\2019\Community\VC\Tools\MSVC\14.29.30133\include\xstring
;	COMDAT ?_Tidy_init@?$basic_string@DU?$char_traits@D@std@@V?$allocator@D@2@@std@@AAEXXZ
_TEXT	SEGMENT
$T2 = -33						; size = 1
__Raw_new$3 = -32					; size = 4
__New_ptr$4 = -28					; size = 4
__Al$5 = -24						; size = 4
__My_data$ = -20					; size = 4
_this$ = -16						; size = 4
__$EHRec$ = -12						; size = 12
?_Tidy_init@?$basic_string@DU?$char_traits@D@std@@V?$allocator@D@2@@std@@AAEXXZ PROC ; std::basic_string<char,std::char_traits<char>,std::allocator<char> >::_Tidy_init, COMDAT
; _this$ = ecx

; 4594 :     _CONSTEXPR20_CONTAINER void _Tidy_init() noexcept { // initialize basic_string data members

  00000	55		 push	 ebp
  00001	8b ec		 mov	 ebp, esp
  00003	6a ff		 push	 -1
  00005	68 00 00 00 00	 push	 __ehhandler$?_Tidy_init@?$basic_string@DU?$char_traits@D@std@@V?$allocator@D@2@@std@@AAEXXZ
  0000a	64 a1 00 00 00
	00		 mov	 eax, DWORD PTR fs:0
  00010	50		 push	 eax
  00011	83 ec 18	 sub	 esp, 24			; 00000018H
  00014	b8 cc cc cc cc	 mov	 eax, -858993460		; ccccccccH
  00019	89 45 dc	 mov	 DWORD PTR [ebp-36], eax
  0001c	89 45 e0	 mov	 DWORD PTR [ebp-32], eax
  0001f	89 45 e4	 mov	 DWORD PTR [ebp-28], eax
  00022	89 45 e8	 mov	 DWORD PTR [ebp-24], eax
  00025	89 45 ec	 mov	 DWORD PTR [ebp-20], eax
  00028	89 45 f0	 mov	 DWORD PTR [ebp-16], eax
  0002b	a1 00 00 00 00	 mov	 eax, DWORD PTR ___security_cookie
  00030	33 c5		 xor	 eax, ebp
  00032	50		 push	 eax
  00033	8d 45 f4	 lea	 eax, DWORD PTR __$EHRec$[ebp]
  00036	64 a3 00 00 00
	00		 mov	 DWORD PTR fs:0, eax
  0003c	89 4d f0	 mov	 DWORD PTR _this$[ebp], ecx
  0003f	b9 00 00 00 00	 mov	 ecx, OFFSET __0D019051_xstring
  00044	e8 00 00 00 00	 call	 @__CheckForDebuggerJustMyCode@4

; 4595 :         auto& _My_data   = _Mypair._Myval2;

  00049	8b 45 f0	 mov	 eax, DWORD PTR _this$[ebp]
  0004c	89 45 ec	 mov	 DWORD PTR __My_data$[ebp], eax

; 4596 :         _My_data._Mysize = 0;

  0004f	8b 4d ec	 mov	 ecx, DWORD PTR __My_data$[ebp]
  00052	c7 41 14 00 00
	00 00		 mov	 DWORD PTR [ecx+20], 0

; 4597 : 
; 4598 : #ifdef __cpp_lib_constexpr_string
; 4599 :         if (_STD is_constant_evaluated()) {

  00059	e8 00 00 00 00	 call	 ?is_constant_evaluated@std@@YA_NXZ ; std::is_constant_evaluated
  0005e	0f b6 d0	 movzx	 edx, al
  00061	85 d2		 test	 edx, edx
  00063	74 4c		 je	 SHORT $LN2@Tidy_init

; 4600 :             _My_data._Myres        = _BUF_SIZE; // SSO disabled in constexpr context

  00065	8b 45 ec	 mov	 eax, DWORD PTR __My_data$[ebp]
  00068	c7 40 18 10 00
	00 00		 mov	 DWORD PTR [eax+24], 16	; 00000010H

; 4601 :             auto& _Al              = _Getal();

  0006f	8b 4d f0	 mov	 ecx, DWORD PTR _this$[ebp]
  00072	e8 00 00 00 00	 call	 ?_Getal@?$basic_string@DU?$char_traits@D@std@@V?$allocator@D@2@@std@@AAEAAV?$allocator@D@2@XZ ; std::basic_string<char,std::char_traits<char>,std::allocator<char> >::_Getal
  00077	89 45 e8	 mov	 DWORD PTR __Al$5[ebp], eax

; 4602 :             const pointer _New_ptr = _Al.allocate(_BUF_SIZE + 1); // throws

  0007a	6a 11		 push	 17			; 00000011H
  0007c	8b 4d e8	 mov	 ecx, DWORD PTR __Al$5[ebp]
  0007f	e8 00 00 00 00	 call	 ?allocate@?$allocator@D@std@@QAEPADI@Z ; std::allocator<char>::allocate
  00084	89 45 e4	 mov	 DWORD PTR __New_ptr$4[ebp], eax

; 4603 :             _My_data._Bx._Ptr      = _New_ptr;

  00087	8b 4d ec	 mov	 ecx, DWORD PTR __My_data$[ebp]
  0008a	8b 55 e4	 mov	 edx, DWORD PTR __New_ptr$4[ebp]
  0008d	89 51 04	 mov	 DWORD PTR [ecx+4], edx

; 4604 : 
; 4605 :             _Elem* const _Raw_new = _Unfancy(_New_ptr);

  00090	8b 45 e4	 mov	 eax, DWORD PTR __New_ptr$4[ebp]
  00093	50		 push	 eax
  00094	e8 00 00 00 00	 call	 ??$_Unfancy@D@std@@YAPADPAD@Z ; std::_Unfancy<char>
  00099	83 c4 04	 add	 esp, 4
  0009c	89 45 e0	 mov	 DWORD PTR __Raw_new$3[ebp], eax

; 4606 :             _Traits::assign(_Raw_new, _BUF_SIZE + 1, _Elem());

  0009f	6a 00		 push	 0
  000a1	6a 11		 push	 17			; 00000011H
  000a3	8b 4d e0	 mov	 ecx, DWORD PTR __Raw_new$3[ebp]
  000a6	51		 push	 ecx
  000a7	e8 00 00 00 00	 call	 ?assign@?$_Narrow_char_traits@DH@std@@SAPADQADID@Z ; std::_Narrow_char_traits<char,int>::assign
  000ac	83 c4 0c	 add	 esp, 12			; 0000000cH

; 4607 :         } else

  000af	eb 2a		 jmp	 SHORT $LN4@Tidy_init
$LN2@Tidy_init:

; 4608 : #endif // __cpp_lib_constexpr_string
; 4609 :         {
; 4610 :             _My_data._Myres = _BUF_SIZE - 1;

  000b1	8b 55 ec	 mov	 edx, DWORD PTR __My_data$[ebp]
  000b4	c7 42 18 0f 00
	00 00		 mov	 DWORD PTR [edx+24], 15	; 0000000fH

; 4611 :             // the _Traits::assign is last so the codegen doesn't think the char write can alias this
; 4612 :             _Traits::assign(_My_data._Bx._Buf[0], _Elem());

  000bb	c6 45 df 00	 mov	 BYTE PTR $T2[ebp], 0
  000bf	8d 45 df	 lea	 eax, DWORD PTR $T2[ebp]
  000c2	50		 push	 eax
  000c3	b9 01 00 00 00	 mov	 ecx, 1
  000c8	6b d1 00	 imul	 edx, ecx, 0
  000cb	8b 45 ec	 mov	 eax, DWORD PTR __My_data$[ebp]
  000ce	8d 4c 10 04	 lea	 ecx, DWORD PTR [eax+edx+4]
  000d2	51		 push	 ecx
  000d3	e8 00 00 00 00	 call	 ?assign@?$_Narrow_char_traits@DH@std@@SAXAADABD@Z ; std::_Narrow_char_traits<char,int>::assign
  000d8	83 c4 08	 add	 esp, 8
$LN4@Tidy_init:

; 4613 :         }
; 4614 :     }

  000db	8b 4d f4	 mov	 ecx, DWORD PTR __$EHRec$[ebp]
  000de	64 89 0d 00 00
	00 00		 mov	 DWORD PTR fs:0, ecx
  000e5	59		 pop	 ecx
  000e6	83 c4 24	 add	 esp, 36			; 00000024H
  000e9	3b ec		 cmp	 ebp, esp
  000eb	e8 00 00 00 00	 call	 __RTC_CheckEsp
  000f0	8b e5		 mov	 esp, ebp
  000f2	5d		 pop	 ebp
  000f3	c3		 ret	 0
  000f4	cc		 int	 3
  000f5	cc		 int	 3
  000f6	cc		 int	 3
  000f7	cc		 int	 3
  000f8	cc		 int	 3
_TEXT	ENDS
;	COMDAT text$x
text$x	SEGMENT
__ehhandler$?_Tidy_init@?$basic_string@DU?$char_traits@D@std@@V?$allocator@D@2@@std@@AAEXXZ:
  00000	90		 npad	 1
  00001	90		 npad	 1
  00002	8b 54 24 08	 mov	 edx, DWORD PTR [esp+8]
  00006	8d 42 0c	 lea	 eax, DWORD PTR [edx+12]
  00009	8b 4a e4	 mov	 ecx, DWORD PTR [edx-28]
  0000c	33 c8		 xor	 ecx, eax
  0000e	e8 00 00 00 00	 call	 @__security_check_cookie@4
  00013	b8 00 00 00 00	 mov	 eax, OFFSET __ehfuncinfo$?_Tidy_init@?$basic_string@DU?$char_traits@D@std@@V?$allocator@D@2@@std@@AAEXXZ
  00018	e9 00 00 00 00	 jmp	 ___CxxFrameHandler3
text$x	ENDS
?_Tidy_init@?$basic_string@DU?$char_traits@D@std@@V?$allocator@D@2@@std@@AAEXXZ ENDP ; std::basic_string<char,std::char_traits<char>,std::allocator<char> >::_Tidy_init
; Function compile flags: /Odtp /RTCsu
; File C:\Program Files (x86)\Microsoft Visual Studio\2019\Community\VC\Tools\MSVC\14.29.30133\include\xstring
;	COMDAT ?_Calculate_growth@?$basic_string@DU?$char_traits@D@std@@V?$allocator@D@2@@std@@ABEII@Z
_TEXT	SEGMENT
tv74 = -12						; size = 4
tv76 = -8						; size = 4
_this$ = -4						; size = 4
__Requested$ = 8					; size = 4
?_Calculate_growth@?$basic_string@DU?$char_traits@D@std@@V?$allocator@D@2@@std@@ABEII@Z PROC ; std::basic_string<char,std::char_traits<char>,std::allocator<char> >::_Calculate_growth, COMDAT
; _this$ = ecx

; 4500 :     _NODISCARD _CONSTEXPR20_CONTAINER size_type _Calculate_growth(const size_type _Requested) const noexcept {

  00000	55		 push	 ebp
  00001	8b ec		 mov	 ebp, esp
  00003	83 ec 0c	 sub	 esp, 12			; 0000000cH
  00006	c7 45 f4 cc cc
	cc cc		 mov	 DWORD PTR [ebp-12], -858993460 ; ccccccccH
  0000d	c7 45 f8 cc cc
	cc cc		 mov	 DWORD PTR [ebp-8], -858993460 ; ccccccccH
  00014	c7 45 fc cc cc
	cc cc		 mov	 DWORD PTR [ebp-4], -858993460 ; ccccccccH
  0001b	89 4d fc	 mov	 DWORD PTR _this$[ebp], ecx
  0001e	b9 00 00 00 00	 mov	 ecx, OFFSET __0D019051_xstring
  00023	e8 00 00 00 00	 call	 @__CheckForDebuggerJustMyCode@4

; 4501 :         return _Calculate_growth(_Requested, _Mypair._Myval2._Myres, max_size());

  00028	8b 4d fc	 mov	 ecx, DWORD PTR _this$[ebp]
  0002b	e8 00 00 00 00	 call	 ?max_size@?$basic_string@DU?$char_traits@D@std@@V?$allocator@D@2@@std@@QBEIXZ ; std::basic_string<char,std::char_traits<char>,std::allocator<char> >::max_size
  00030	89 45 f8	 mov	 DWORD PTR tv76[ebp], eax
  00033	8b 45 fc	 mov	 eax, DWORD PTR _this$[ebp]
  00036	8b 48 18	 mov	 ecx, DWORD PTR [eax+24]
  00039	89 4d f4	 mov	 DWORD PTR tv74[ebp], ecx
  0003c	8b 55 f8	 mov	 edx, DWORD PTR tv76[ebp]
  0003f	52		 push	 edx
  00040	8b 45 f4	 mov	 eax, DWORD PTR tv74[ebp]
  00043	50		 push	 eax
  00044	8b 4d 08	 mov	 ecx, DWORD PTR __Requested$[ebp]
  00047	51		 push	 ecx
  00048	e8 00 00 00 00	 call	 ?_Calculate_growth@?$basic_string@DU?$char_traits@D@std@@V?$allocator@D@2@@std@@CAIIII@Z ; std::basic_string<char,std::char_traits<char>,std::allocator<char> >::_Calculate_growth
  0004d	83 c4 0c	 add	 esp, 12			; 0000000cH

; 4502 :     }

  00050	83 c4 0c	 add	 esp, 12			; 0000000cH
  00053	3b ec		 cmp	 ebp, esp
  00055	e8 00 00 00 00	 call	 __RTC_CheckEsp
  0005a	8b e5		 mov	 esp, ebp
  0005c	5d		 pop	 ebp
  0005d	c2 04 00	 ret	 4
?_Calculate_growth@?$basic_string@DU?$char_traits@D@std@@V?$allocator@D@2@@std@@ABEII@Z ENDP ; std::basic_string<char,std::char_traits<char>,std::allocator<char> >::_Calculate_growth
_TEXT	ENDS
; Function compile flags: /Odtp /RTCsu
; File C:\Program Files (x86)\Microsoft Visual Studio\2019\Community\VC\Tools\MSVC\14.29.30133\include\xstring
;	COMDAT ?_Calculate_growth@?$basic_string@DU?$char_traits@D@std@@V?$allocator@D@2@@std@@CAIIII@Z
_TEXT	SEGMENT
$T1 = -20						; size = 4
__Masked$ = -12						; size = 4
__$ArrayPad$ = -4					; size = 4
__Requested$ = 8					; size = 4
__Old$ = 12						; size = 4
__Max$ = 16						; size = 4
?_Calculate_growth@?$basic_string@DU?$char_traits@D@std@@V?$allocator@D@2@@std@@CAIIII@Z PROC ; std::basic_string<char,std::char_traits<char>,std::allocator<char> >::_Calculate_growth, COMDAT

; 4487 :         const size_type _Requested, const size_type _Old, const size_type _Max) noexcept {

  00000	55		 push	 ebp
  00001	8b ec		 mov	 ebp, esp
  00003	83 ec 14	 sub	 esp, 20			; 00000014H
  00006	b8 cc cc cc cc	 mov	 eax, -858993460		; ccccccccH
  0000b	89 45 ec	 mov	 DWORD PTR [ebp-20], eax
  0000e	89 45 f0	 mov	 DWORD PTR [ebp-16], eax
  00011	89 45 f4	 mov	 DWORD PTR [ebp-12], eax
  00014	89 45 f8	 mov	 DWORD PTR [ebp-8], eax
  00017	89 45 fc	 mov	 DWORD PTR [ebp-4], eax
  0001a	a1 00 00 00 00	 mov	 eax, DWORD PTR ___security_cookie
  0001f	33 c5		 xor	 eax, ebp
  00021	89 45 fc	 mov	 DWORD PTR __$ArrayPad$[ebp], eax
  00024	b9 00 00 00 00	 mov	 ecx, OFFSET __0D019051_xstring
  00029	e8 00 00 00 00	 call	 @__CheckForDebuggerJustMyCode@4

; 4488 :         const size_type _Masked = _Requested | _ALLOC_MASK;

  0002e	8b 45 08	 mov	 eax, DWORD PTR __Requested$[ebp]
  00031	83 c8 0f	 or	 eax, 15			; 0000000fH
  00034	89 45 f4	 mov	 DWORD PTR __Masked$[ebp], eax

; 4489 :         if (_Masked > _Max) { // the mask overflows, settle for max_size()

  00037	8b 4d f4	 mov	 ecx, DWORD PTR __Masked$[ebp]
  0003a	3b 4d 10	 cmp	 ecx, DWORD PTR __Max$[ebp]
  0003d	76 05		 jbe	 SHORT $LN2@Calculate_

; 4490 :             return _Max;

  0003f	8b 45 10	 mov	 eax, DWORD PTR __Max$[ebp]
  00042	eb 31		 jmp	 SHORT $LN4@Calculate_
$LN2@Calculate_:

; 4491 :         }
; 4492 : 
; 4493 :         if (_Old > _Max - _Old / 2) { // similarly, geometric overflows

  00044	8b 55 0c	 mov	 edx, DWORD PTR __Old$[ebp]
  00047	d1 ea		 shr	 edx, 1
  00049	8b 45 10	 mov	 eax, DWORD PTR __Max$[ebp]
  0004c	2b c2		 sub	 eax, edx
  0004e	39 45 0c	 cmp	 DWORD PTR __Old$[ebp], eax
  00051	76 05		 jbe	 SHORT $LN3@Calculate_

; 4494 :             return _Max;

  00053	8b 45 10	 mov	 eax, DWORD PTR __Max$[ebp]
  00056	eb 1d		 jmp	 SHORT $LN4@Calculate_
$LN3@Calculate_:

; 4495 :         }
; 4496 : 
; 4497 :         return (_STD max)(_Masked, _Old + _Old / 2);

  00058	8b 4d 0c	 mov	 ecx, DWORD PTR __Old$[ebp]
  0005b	d1 e9		 shr	 ecx, 1
  0005d	03 4d 0c	 add	 ecx, DWORD PTR __Old$[ebp]
  00060	89 4d ec	 mov	 DWORD PTR $T1[ebp], ecx
  00063	8d 55 ec	 lea	 edx, DWORD PTR $T1[ebp]
  00066	52		 push	 edx
  00067	8d 45 f4	 lea	 eax, DWORD PTR __Masked$[ebp]
  0006a	50		 push	 eax
  0006b	e8 00 00 00 00	 call	 ??$max@I@std@@YAABIABI0@Z ; std::max<unsigned int>
  00070	83 c4 08	 add	 esp, 8
  00073	8b 00		 mov	 eax, DWORD PTR [eax]
$LN4@Calculate_:

; 4498 :     }

  00075	52		 push	 edx
  00076	8b cd		 mov	 ecx, ebp
  00078	50		 push	 eax
  00079	8d 15 00 00 00
	00		 lea	 edx, DWORD PTR $LN7@Calculate_
  0007f	e8 00 00 00 00	 call	 @_RTC_CheckStackVars@8
  00084	58		 pop	 eax
  00085	5a		 pop	 edx
  00086	8b 4d fc	 mov	 ecx, DWORD PTR __$ArrayPad$[ebp]
  00089	33 cd		 xor	 ecx, ebp
  0008b	e8 00 00 00 00	 call	 @__security_check_cookie@4
  00090	83 c4 14	 add	 esp, 20			; 00000014H
  00093	3b ec		 cmp	 ebp, esp
  00095	e8 00 00 00 00	 call	 __RTC_CheckEsp
  0009a	8b e5		 mov	 esp, ebp
  0009c	5d		 pop	 ebp
  0009d	c3		 ret	 0
  0009e	66 90		 npad	 2
$LN7@Calculate_:
  000a0	01 00 00 00	 DD	 1
  000a4	00 00 00 00	 DD	 $LN6@Calculate_
$LN6@Calculate_:
  000a8	f4 ff ff ff	 DD	 -12			; fffffff4H
  000ac	04 00 00 00	 DD	 4
  000b0	00 00 00 00	 DD	 $LN5@Calculate_
$LN5@Calculate_:
  000b4	5f		 DB	 95			; 0000005fH
  000b5	4d		 DB	 77			; 0000004dH
  000b6	61		 DB	 97			; 00000061H
  000b7	73		 DB	 115			; 00000073H
  000b8	6b		 DB	 107			; 0000006bH
  000b9	65		 DB	 101			; 00000065H
  000ba	64		 DB	 100			; 00000064H
  000bb	00		 DB	 0
?_Calculate_growth@?$basic_string@DU?$char_traits@D@std@@V?$allocator@D@2@@std@@CAIIII@Z ENDP ; std::basic_string<char,std::char_traits<char>,std::allocator<char> >::_Calculate_growth
_TEXT	ENDS
; Function compile flags: /Odtp /RTCsu
; File C:\Program Files (x86)\Microsoft Visual Studio\2019\Community\VC\Tools\MSVC\14.29.30133\include\xstring
;	COMDAT ?max_size@?$basic_string@DU?$char_traits@D@std@@V?$allocator@D@2@@std@@QBEIXZ
_TEXT	SEGMENT
$T1 = -36						; size = 4
$T2 = -32						; size = 4
$T3 = -28						; size = 4
__Storage_max$ = -24					; size = 4
__Alloc_max$ = -16					; size = 4
_this$ = -8						; size = 4
__$ArrayPad$ = -4					; size = 4
?max_size@?$basic_string@DU?$char_traits@D@std@@V?$allocator@D@2@@std@@QBEIXZ PROC ; std::basic_string<char,std::char_traits<char>,std::allocator<char> >::max_size, COMDAT
; _this$ = ecx

; 3943 :     _NODISCARD _CONSTEXPR20_CONTAINER size_type max_size() const noexcept {

  00000	55		 push	 ebp
  00001	8b ec		 mov	 ebp, esp
  00003	83 ec 24	 sub	 esp, 36			; 00000024H
  00006	b8 cc cc cc cc	 mov	 eax, -858993460		; ccccccccH
  0000b	89 45 dc	 mov	 DWORD PTR [ebp-36], eax
  0000e	89 45 e0	 mov	 DWORD PTR [ebp-32], eax
  00011	89 45 e4	 mov	 DWORD PTR [ebp-28], eax
  00014	89 45 e8	 mov	 DWORD PTR [ebp-24], eax
  00017	89 45 ec	 mov	 DWORD PTR [ebp-20], eax
  0001a	89 45 f0	 mov	 DWORD PTR [ebp-16], eax
  0001d	89 45 f4	 mov	 DWORD PTR [ebp-12], eax
  00020	89 45 f8	 mov	 DWORD PTR [ebp-8], eax
  00023	89 45 fc	 mov	 DWORD PTR [ebp-4], eax
  00026	a1 00 00 00 00	 mov	 eax, DWORD PTR ___security_cookie
  0002b	33 c5		 xor	 eax, ebp
  0002d	89 45 fc	 mov	 DWORD PTR __$ArrayPad$[ebp], eax
  00030	89 4d f8	 mov	 DWORD PTR _this$[ebp], ecx
  00033	b9 00 00 00 00	 mov	 ecx, OFFSET __0D019051_xstring
  00038	e8 00 00 00 00	 call	 @__CheckForDebuggerJustMyCode@4

; 3944 :         const size_type _Alloc_max   = _Alty_traits::max_size(_Getal());

  0003d	8b 4d f8	 mov	 ecx, DWORD PTR _this$[ebp]
  00040	e8 00 00 00 00	 call	 ?_Getal@?$basic_string@DU?$char_traits@D@std@@V?$allocator@D@2@@std@@ABEABV?$allocator@D@2@XZ ; std::basic_string<char,std::char_traits<char>,std::allocator<char> >::_Getal
  00045	50		 push	 eax
  00046	e8 00 00 00 00	 call	 ?max_size@?$_Default_allocator_traits@V?$allocator@D@std@@@std@@SAIABV?$allocator@D@2@@Z ; std::_Default_allocator_traits<std::allocator<char> >::max_size
  0004b	83 c4 04	 add	 esp, 4
  0004e	89 45 f0	 mov	 DWORD PTR __Alloc_max$[ebp], eax

; 3945 :         const size_type _Storage_max = // can always store small string

  00051	c7 45 e4 10 00
	00 00		 mov	 DWORD PTR $T3[ebp], 16	; 00000010H
  00058	8d 45 e4	 lea	 eax, DWORD PTR $T3[ebp]
  0005b	50		 push	 eax
  0005c	8d 4d f0	 lea	 ecx, DWORD PTR __Alloc_max$[ebp]
  0005f	51		 push	 ecx
  00060	e8 00 00 00 00	 call	 ??$max@I@std@@YAABIABI0@Z ; std::max<unsigned int>
  00065	83 c4 08	 add	 esp, 8
  00068	8b 10		 mov	 edx, DWORD PTR [eax]
  0006a	89 55 e8	 mov	 DWORD PTR __Storage_max$[ebp], edx

; 3946 :             (_STD max)(_Alloc_max, static_cast<size_type>(_BUF_SIZE));
; 3947 :         return (_STD min)(static_cast<size_type>((numeric_limits<difference_type>::max)()),

  0006d	8b 45 e8	 mov	 eax, DWORD PTR __Storage_max$[ebp]
  00070	83 e8 01	 sub	 eax, 1
  00073	89 45 e0	 mov	 DWORD PTR $T2[ebp], eax
  00076	e8 00 00 00 00	 call	 ?max@?$numeric_limits@H@std@@SAHXZ ; std::numeric_limits<int>::max
  0007b	89 45 dc	 mov	 DWORD PTR $T1[ebp], eax
  0007e	8d 4d e0	 lea	 ecx, DWORD PTR $T2[ebp]
  00081	51		 push	 ecx
  00082	8d 55 dc	 lea	 edx, DWORD PTR $T1[ebp]
  00085	52		 push	 edx
  00086	e8 00 00 00 00	 call	 ??$min@I@std@@YAABIABI0@Z ; std::min<unsigned int>
  0008b	83 c4 08	 add	 esp, 8
  0008e	8b 00		 mov	 eax, DWORD PTR [eax]

; 3948 :             _Storage_max - 1 // -1 is for null terminator and/or npos
; 3949 :         );
; 3950 :     }

  00090	52		 push	 edx
  00091	8b cd		 mov	 ecx, ebp
  00093	50		 push	 eax
  00094	8d 15 00 00 00
	00		 lea	 edx, DWORD PTR $LN5@max_size
  0009a	e8 00 00 00 00	 call	 @_RTC_CheckStackVars@8
  0009f	58		 pop	 eax
  000a0	5a		 pop	 edx
  000a1	8b 4d fc	 mov	 ecx, DWORD PTR __$ArrayPad$[ebp]
  000a4	33 cd		 xor	 ecx, ebp
  000a6	e8 00 00 00 00	 call	 @__security_check_cookie@4
  000ab	83 c4 24	 add	 esp, 36			; 00000024H
  000ae	3b ec		 cmp	 ebp, esp
  000b0	e8 00 00 00 00	 call	 __RTC_CheckEsp
  000b5	8b e5		 mov	 esp, ebp
  000b7	5d		 pop	 ebp
  000b8	c3		 ret	 0
  000b9	0f 1f 00	 npad	 3
$LN5@max_size:
  000bc	01 00 00 00	 DD	 1
  000c0	00 00 00 00	 DD	 $LN4@max_size
$LN4@max_size:
  000c4	f0 ff ff ff	 DD	 -16			; fffffff0H
  000c8	04 00 00 00	 DD	 4
  000cc	00 00 00 00	 DD	 $LN3@max_size
$LN3@max_size:
  000d0	5f		 DB	 95			; 0000005fH
  000d1	41		 DB	 65			; 00000041H
  000d2	6c		 DB	 108			; 0000006cH
  000d3	6c		 DB	 108			; 0000006cH
  000d4	6f		 DB	 111			; 0000006fH
  000d5	63		 DB	 99			; 00000063H
  000d6	5f		 DB	 95			; 0000005fH
  000d7	6d		 DB	 109			; 0000006dH
  000d8	61		 DB	 97			; 00000061H
  000d9	78		 DB	 120			; 00000078H
  000da	00		 DB	 0
?max_size@?$basic_string@DU?$char_traits@D@std@@V?$allocator@D@2@@std@@QBEIXZ ENDP ; std::basic_string<char,std::char_traits<char>,std::allocator<char> >::max_size
_TEXT	ENDS
; Function compile flags: /Odtp /RTCsu
; File C:\Program Files (x86)\Microsoft Visual Studio\2019\Community\VC\Tools\MSVC\14.29.30133\include\xstring
;	COMDAT ?assign@?$basic_string@DU?$char_traits@D@std@@V?$allocator@D@2@@std@@QAEAAV12@QBD@Z
_TEXT	SEGMENT
_this$ = -4						; size = 4
__Ptr$ = 8						; size = 4
?assign@?$basic_string@DU?$char_traits@D@std@@V?$allocator@D@2@@std@@QAEAAV12@QBD@Z PROC ; std::basic_string<char,std::char_traits<char>,std::allocator<char> >::assign, COMDAT
; _this$ = ecx

; 3263 :     _CONSTEXPR20_CONTAINER basic_string& assign(_In_z_ const _Elem* const _Ptr) {

  00000	55		 push	 ebp
  00001	8b ec		 mov	 ebp, esp
  00003	51		 push	 ecx
  00004	c7 45 fc cc cc
	cc cc		 mov	 DWORD PTR [ebp-4], -858993460 ; ccccccccH
  0000b	89 4d fc	 mov	 DWORD PTR _this$[ebp], ecx
  0000e	b9 00 00 00 00	 mov	 ecx, OFFSET __0D019051_xstring
  00013	e8 00 00 00 00	 call	 @__CheckForDebuggerJustMyCode@4

; 3264 :         return assign(_Ptr, _Convert_size<size_type>(_Traits::length(_Ptr)));

  00018	8b 45 08	 mov	 eax, DWORD PTR __Ptr$[ebp]
  0001b	50		 push	 eax
  0001c	e8 00 00 00 00	 call	 ?length@?$_Narrow_char_traits@DH@std@@SAIQBD@Z ; std::_Narrow_char_traits<char,int>::length
  00021	83 c4 04	 add	 esp, 4
  00024	50		 push	 eax
  00025	e8 00 00 00 00	 call	 ??$_Convert_size@I@std@@YAII@Z ; std::_Convert_size<unsigned int>
  0002a	83 c4 04	 add	 esp, 4
  0002d	50		 push	 eax
  0002e	8b 4d 08	 mov	 ecx, DWORD PTR __Ptr$[ebp]
  00031	51		 push	 ecx
  00032	8b 4d fc	 mov	 ecx, DWORD PTR _this$[ebp]
  00035	e8 00 00 00 00	 call	 ?assign@?$basic_string@DU?$char_traits@D@std@@V?$allocator@D@2@@std@@QAEAAV12@QBDI@Z ; std::basic_string<char,std::char_traits<char>,std::allocator<char> >::assign

; 3265 :     }

  0003a	83 c4 04	 add	 esp, 4
  0003d	3b ec		 cmp	 ebp, esp
  0003f	e8 00 00 00 00	 call	 __RTC_CheckEsp
  00044	8b e5		 mov	 esp, ebp
  00046	5d		 pop	 ebp
  00047	c2 04 00	 ret	 4
?assign@?$basic_string@DU?$char_traits@D@std@@V?$allocator@D@2@@std@@QAEAAV12@QBD@Z ENDP ; std::basic_string<char,std::char_traits<char>,std::allocator<char> >::assign
_TEXT	ENDS
; Function compile flags: /Odtp /RTCsu
; File C:\Program Files (x86)\Microsoft Visual Studio\2019\Community\VC\Tools\MSVC\14.29.30133\include\xstring
;	COMDAT ?assign@?$basic_string@DU?$char_traits@D@std@@V?$allocator@D@2@@std@@QAEAAV12@QBDI@Z
_TEXT	SEGMENT
$T1 = -10						; size = 1
$T2 = -9						; size = 1
__Old_ptr$3 = -8					; size = 4
_this$ = -4						; size = 4
__Ptr$ = 8						; size = 4
__Count$ = 12						; size = 4
?assign@?$basic_string@DU?$char_traits@D@std@@V?$allocator@D@2@@std@@QAEAAV12@QBDI@Z PROC ; std::basic_string<char,std::char_traits<char>,std::allocator<char> >::assign, COMDAT
; _this$ = ecx

; 3244 :         _In_reads_(_Count) const _Elem* const _Ptr, _CRT_GUARDOVERFLOW const size_type _Count) {

  00000	55		 push	 ebp
  00001	8b ec		 mov	 ebp, esp
  00003	83 ec 0c	 sub	 esp, 12			; 0000000cH
  00006	c7 45 f4 cc cc
	cc cc		 mov	 DWORD PTR [ebp-12], -858993460 ; ccccccccH
  0000d	c7 45 f8 cc cc
	cc cc		 mov	 DWORD PTR [ebp-8], -858993460 ; ccccccccH
  00014	c7 45 fc cc cc
	cc cc		 mov	 DWORD PTR [ebp-4], -858993460 ; ccccccccH
  0001b	89 4d fc	 mov	 DWORD PTR _this$[ebp], ecx
  0001e	b9 00 00 00 00	 mov	 ecx, OFFSET __0D019051_xstring
  00023	e8 00 00 00 00	 call	 @__CheckForDebuggerJustMyCode@4

; 3245 :         // assign [_Ptr, _Ptr + _Count)
; 3246 :         if (_Count <= _Mypair._Myval2._Myres) {

  00028	8b 45 fc	 mov	 eax, DWORD PTR _this$[ebp]
  0002b	8b 4d 0c	 mov	 ecx, DWORD PTR __Count$[ebp]
  0002e	3b 48 18	 cmp	 ecx, DWORD PTR [eax+24]
  00031	77 44		 ja	 SHORT $LN2@assign

; 3247 :             _Elem* const _Old_ptr   = _Mypair._Myval2._Myptr();

  00033	8b 4d fc	 mov	 ecx, DWORD PTR _this$[ebp]
  00036	e8 00 00 00 00	 call	 ?_Myptr@?$_String_val@U?$_Simple_types@D@std@@@std@@QAEPADXZ ; std::_String_val<std::_Simple_types<char> >::_Myptr
  0003b	89 45 f8	 mov	 DWORD PTR __Old_ptr$3[ebp], eax

; 3248 :             _Mypair._Myval2._Mysize = _Count;

  0003e	8b 55 fc	 mov	 edx, DWORD PTR _this$[ebp]
  00041	8b 45 0c	 mov	 eax, DWORD PTR __Count$[ebp]
  00044	89 42 14	 mov	 DWORD PTR [edx+20], eax

; 3249 :             _Traits::move(_Old_ptr, _Ptr, _Count);

  00047	8b 4d 0c	 mov	 ecx, DWORD PTR __Count$[ebp]
  0004a	51		 push	 ecx
  0004b	8b 55 08	 mov	 edx, DWORD PTR __Ptr$[ebp]
  0004e	52		 push	 edx
  0004f	8b 45 f8	 mov	 eax, DWORD PTR __Old_ptr$3[ebp]
  00052	50		 push	 eax
  00053	e8 00 00 00 00	 call	 ?move@?$_Char_traits@DH@std@@SAPADQADQBDI@Z ; std::_Char_traits<char,int>::move
  00058	83 c4 0c	 add	 esp, 12			; 0000000cH

; 3250 :             _Traits::assign(_Old_ptr[_Count], _Elem());

  0005b	c6 45 f7 00	 mov	 BYTE PTR $T2[ebp], 0
  0005f	8d 4d f7	 lea	 ecx, DWORD PTR $T2[ebp]
  00062	51		 push	 ecx
  00063	8b 55 f8	 mov	 edx, DWORD PTR __Old_ptr$3[ebp]
  00066	03 55 0c	 add	 edx, DWORD PTR __Count$[ebp]
  00069	52		 push	 edx
  0006a	e8 00 00 00 00	 call	 ?assign@?$_Narrow_char_traits@DH@std@@SAXAADABD@Z ; std::_Narrow_char_traits<char,int>::assign
  0006f	83 c4 08	 add	 esp, 8

; 3251 :             return *this;

  00072	8b 45 fc	 mov	 eax, DWORD PTR _this$[ebp]
  00075	eb 15		 jmp	 SHORT $LN1@assign
$LN2@assign:

; 3252 :         }
; 3253 : 
; 3254 :         return _Reallocate_for(

  00077	8b 45 08	 mov	 eax, DWORD PTR __Ptr$[ebp]
  0007a	50		 push	 eax
  0007b	0f b6 4d f6	 movzx	 ecx, BYTE PTR $T1[ebp]
  0007f	51		 push	 ecx
  00080	8b 55 0c	 mov	 edx, DWORD PTR __Count$[ebp]
  00083	52		 push	 edx
  00084	8b 4d fc	 mov	 ecx, DWORD PTR _this$[ebp]
  00087	e8 00 00 00 00	 call	 ??$_Reallocate_for@V<lambda_1>@?1??assign@?$basic_string@DU?$char_traits@D@std@@V?$allocator@D@2@@std@@QAEAAV34@QBDI@Z@PBD@?$basic_string@DU?$char_traits@D@std@@V?$allocator@D@2@@std@@AAEAAV01@IV<lambda_1>@?1??assign@01@QAEAAV01@QBDI@Z@PBD@Z ; std::basic_string<char,std::char_traits<char>,std::allocator<char> >::_Reallocate_for<`std::basic_string<char,std::char_traits<char>,std::allocator<char> >::assign'::`2'::<lambda_1>,char const *>
$LN1@assign:

; 3255 :             _Count,
; 3256 :             [](_Elem* const _New_ptr, const size_type _Count, const _Elem* const _Ptr) {
; 3257 :                 _Traits::copy(_New_ptr, _Ptr, _Count);
; 3258 :                 _Traits::assign(_New_ptr[_Count], _Elem());
; 3259 :             },
; 3260 :             _Ptr);
; 3261 :     }

  0008c	83 c4 0c	 add	 esp, 12			; 0000000cH
  0008f	3b ec		 cmp	 ebp, esp
  00091	e8 00 00 00 00	 call	 __RTC_CheckEsp
  00096	8b e5		 mov	 esp, ebp
  00098	5d		 pop	 ebp
  00099	c2 08 00	 ret	 8
?assign@?$basic_string@DU?$char_traits@D@std@@V?$allocator@D@2@@std@@QAEAAV12@QBDI@Z ENDP ; std::basic_string<char,std::char_traits<char>,std::allocator<char> >::assign
_TEXT	ENDS
; Function compile flags: /Odtp /RTCsu
; File C:\Program Files (x86)\Microsoft Visual Studio\2019\Community\VC\Tools\MSVC\14.29.30133\include\xstring
;	COMDAT ??1?$basic_string@DU?$char_traits@D@std@@V?$allocator@D@2@@std@@QAE@XZ
_TEXT	SEGMENT
__To_delete$ = -28					; size = 4
_$S10$ = -17						; size = 1
__Alproxy$ = -12					; size = 4
_this$ = -8						; size = 4
__$ArrayPad$ = -4					; size = 4
??1?$basic_string@DU?$char_traits@D@std@@V?$allocator@D@2@@std@@QAE@XZ PROC ; std::basic_string<char,std::char_traits<char>,std::allocator<char> >::~basic_string<char,std::char_traits<char>,std::allocator<char> >, COMDAT
; _this$ = ecx

; 3002 :     _CONSTEXPR20_CONTAINER ~basic_string() noexcept {

  00000	55		 push	 ebp
  00001	8b ec		 mov	 ebp, esp
  00003	83 ec 1c	 sub	 esp, 28			; 0000001cH
  00006	b8 cc cc cc cc	 mov	 eax, -858993460		; ccccccccH
  0000b	89 45 e4	 mov	 DWORD PTR [ebp-28], eax
  0000e	89 45 e8	 mov	 DWORD PTR [ebp-24], eax
  00011	89 45 ec	 mov	 DWORD PTR [ebp-20], eax
  00014	89 45 f0	 mov	 DWORD PTR [ebp-16], eax
  00017	89 45 f4	 mov	 DWORD PTR [ebp-12], eax
  0001a	89 45 f8	 mov	 DWORD PTR [ebp-8], eax
  0001d	89 45 fc	 mov	 DWORD PTR [ebp-4], eax
  00020	a1 00 00 00 00	 mov	 eax, DWORD PTR ___security_cookie
  00025	33 c5		 xor	 eax, ebp
  00027	89 45 fc	 mov	 DWORD PTR __$ArrayPad$[ebp], eax
  0002a	89 4d f8	 mov	 DWORD PTR _this$[ebp], ecx
  0002d	b9 00 00 00 00	 mov	 ecx, OFFSET __0D019051_xstring
  00032	e8 00 00 00 00	 call	 @__CheckForDebuggerJustMyCode@4

; 3003 :         _Tidy_deallocate();

  00037	8b 4d f8	 mov	 ecx, DWORD PTR _this$[ebp]
  0003a	e8 00 00 00 00	 call	 ?_Tidy_deallocate@?$basic_string@DU?$char_traits@D@std@@V?$allocator@D@2@@std@@AAEXXZ ; std::basic_string<char,std::char_traits<char>,std::allocator<char> >::_Tidy_deallocate

; 3004 : #if _ITERATOR_DEBUG_LEVEL != 0
; 3005 :         auto&& _Alproxy          = _GET_PROXY_ALLOCATOR(_Alty, _Getal());

  0003f	8b 4d f8	 mov	 ecx, DWORD PTR _this$[ebp]
  00042	e8 00 00 00 00	 call	 ?_Getal@?$basic_string@DU?$char_traits@D@std@@V?$allocator@D@2@@std@@AAEAAV?$allocator@D@2@XZ ; std::basic_string<char,std::char_traits<char>,std::allocator<char> >::_Getal
  00047	50		 push	 eax
  00048	8d 4d ef	 lea	 ecx, DWORD PTR _$S10$[ebp]
  0004b	e8 00 00 00 00	 call	 ??$?0D@?$allocator@U_Container_proxy@std@@@std@@QAE@ABV?$allocator@D@1@@Z ; std::allocator<std::_Container_proxy>::allocator<std::_Container_proxy><char>
  00050	8d 45 ef	 lea	 eax, DWORD PTR _$S10$[ebp]
  00053	89 45 f4	 mov	 DWORD PTR __Alproxy$[ebp], eax

; 3006 :         const auto _To_delete    = _Mypair._Myval2._Myproxy;

  00056	8b 4d f8	 mov	 ecx, DWORD PTR _this$[ebp]
  00059	8b 11		 mov	 edx, DWORD PTR [ecx]
  0005b	89 55 e4	 mov	 DWORD PTR __To_delete$[ebp], edx

; 3007 :         _Mypair._Myval2._Myproxy = nullptr;

  0005e	8b 45 f8	 mov	 eax, DWORD PTR _this$[ebp]
  00061	c7 00 00 00 00
	00		 mov	 DWORD PTR [eax], 0

; 3008 :         _Delete_plain_internal(_Alproxy, _To_delete);

  00067	8b 4d e4	 mov	 ecx, DWORD PTR __To_delete$[ebp]
  0006a	51		 push	 ecx
  0006b	8b 55 f4	 mov	 edx, DWORD PTR __Alproxy$[ebp]
  0006e	52		 push	 edx
  0006f	e8 00 00 00 00	 call	 ??$_Delete_plain_internal@V?$allocator@U_Container_proxy@std@@@std@@@std@@YAXAAV?$allocator@U_Container_proxy@std@@@0@QAU_Container_proxy@0@@Z ; std::_Delete_plain_internal<std::allocator<std::_Container_proxy> >
  00074	83 c4 08	 add	 esp, 8

; 3009 : #endif // _ITERATOR_DEBUG_LEVEL != 0
; 3010 :     }

  00077	8b 4d f8	 mov	 ecx, DWORD PTR _this$[ebp]
  0007a	e8 00 00 00 00	 call	 ??1?$_Compressed_pair@V?$allocator@D@std@@V?$_String_val@U?$_Simple_types@D@std@@@2@$00@std@@QAE@XZ
  0007f	52		 push	 edx
  00080	8b cd		 mov	 ecx, ebp
  00082	50		 push	 eax
  00083	8d 15 00 00 00
	00		 lea	 edx, DWORD PTR $LN5@basic_stri
  00089	e8 00 00 00 00	 call	 @_RTC_CheckStackVars@8
  0008e	58		 pop	 eax
  0008f	5a		 pop	 edx
  00090	8b 4d fc	 mov	 ecx, DWORD PTR __$ArrayPad$[ebp]
  00093	33 cd		 xor	 ecx, ebp
  00095	e8 00 00 00 00	 call	 @__security_check_cookie@4
  0009a	83 c4 1c	 add	 esp, 28			; 0000001cH
  0009d	3b ec		 cmp	 ebp, esp
  0009f	e8 00 00 00 00	 call	 __RTC_CheckEsp
  000a4	8b e5		 mov	 esp, ebp
  000a6	5d		 pop	 ebp
  000a7	c3		 ret	 0
$LN5@basic_stri:
  000a8	01 00 00 00	 DD	 1
  000ac	00 00 00 00	 DD	 $LN4@basic_stri
$LN4@basic_stri:
  000b0	ef ff ff ff	 DD	 -17			; ffffffefH
  000b4	01 00 00 00	 DD	 1
  000b8	00 00 00 00	 DD	 $LN3@basic_stri
$LN3@basic_stri:
  000bc	24		 DB	 36			; 00000024H
  000bd	53		 DB	 83			; 00000053H
  000be	31		 DB	 49			; 00000031H
  000bf	30		 DB	 48			; 00000030H
  000c0	00		 DB	 0
??1?$basic_string@DU?$char_traits@D@std@@V?$allocator@D@2@@std@@QAE@XZ ENDP ; std::basic_string<char,std::char_traits<char>,std::allocator<char> >::~basic_string<char,std::char_traits<char>,std::allocator<char> >
_TEXT	ENDS
; Function compile flags: /Odtp /RTCsu
; File C:\Program Files (x86)\Microsoft Visual Studio\2019\Community\VC\Tools\MSVC\14.29.30133\include\xstring
;	COMDAT ??0?$basic_string@DU?$char_traits@D@std@@V?$allocator@D@2@@std@@QAE@QBD@Z
_TEXT	SEGMENT
tv69 = -60						; size = 4
$T2 = -53						; size = 1
__Proxy$ = -48						; size = 8
_$S12$ = -29						; size = 1
__Alproxy$ = -24					; size = 4
_this$ = -20						; size = 4
__$ArrayPad$ = -16					; size = 4
__$EHRec$ = -12						; size = 12
__Ptr$ = 8						; size = 4
??0?$basic_string@DU?$char_traits@D@std@@V?$allocator@D@2@@std@@QAE@QBD@Z PROC ; std::basic_string<char,std::char_traits<char>,std::allocator<char> >::basic_string<char,std::char_traits<char>,std::allocator<char> >, COMDAT
; _this$ = ecx

; 2517 :     _CONSTEXPR20_CONTAINER basic_string(_In_z_ const _Elem* const _Ptr) : _Mypair(_Zero_then_variadic_args_t{}) {

  00000	55		 push	 ebp
  00001	8b ec		 mov	 ebp, esp
  00003	6a ff		 push	 -1
  00005	68 00 00 00 00	 push	 __ehhandler$??0?$basic_string@DU?$char_traits@D@std@@V?$allocator@D@2@@std@@QAE@QBD@Z
  0000a	64 a1 00 00 00
	00		 mov	 eax, DWORD PTR fs:0
  00010	50		 push	 eax
  00011	83 ec 30	 sub	 esp, 48			; 00000030H
  00014	57		 push	 edi
  00015	51		 push	 ecx
  00016	8d 7d c4	 lea	 edi, DWORD PTR [ebp-60]
  00019	b9 0c 00 00 00	 mov	 ecx, 12			; 0000000cH
  0001e	b8 cc cc cc cc	 mov	 eax, -858993460		; ccccccccH
  00023	f3 ab		 rep stosd
  00025	59		 pop	 ecx
  00026	a1 00 00 00 00	 mov	 eax, DWORD PTR ___security_cookie
  0002b	33 c5		 xor	 eax, ebp
  0002d	89 45 f0	 mov	 DWORD PTR __$ArrayPad$[ebp], eax
  00030	50		 push	 eax
  00031	8d 45 f4	 lea	 eax, DWORD PTR __$EHRec$[ebp]
  00034	64 a3 00 00 00
	00		 mov	 DWORD PTR fs:0, eax
  0003a	89 4d ec	 mov	 DWORD PTR _this$[ebp], ecx
  0003d	b9 00 00 00 00	 mov	 ecx, OFFSET __0D019051_xstring
  00042	e8 00 00 00 00	 call	 @__CheckForDebuggerJustMyCode@4
  00047	8b 45 ec	 mov	 eax, DWORD PTR _this$[ebp]
  0004a	89 45 c4	 mov	 DWORD PTR tv69[ebp], eax
  0004d	0f b6 4d cb	 movzx	 ecx, BYTE PTR $T2[ebp]
  00051	51		 push	 ecx
  00052	8b 4d c4	 mov	 ecx, DWORD PTR tv69[ebp]
  00055	e8 00 00 00 00	 call	 ??$?0$$V@?$_Compressed_pair@V?$allocator@D@std@@V?$_String_val@U?$_Simple_types@D@std@@@2@$00@std@@QAE@U_Zero_then_variadic_args_t@1@@Z ; std::_Compressed_pair<std::allocator<char>,std::_String_val<std::_Simple_types<char> >,1>::_Compressed_pair<std::allocator<char>,std::_String_val<std::_Simple_types<char> >,1><>
  0005a	c7 45 fc 00 00
	00 00		 mov	 DWORD PTR __$EHRec$[ebp+8], 0

; 2518 :         auto&& _Alproxy = _GET_PROXY_ALLOCATOR(_Alty, _Getal());

  00061	8b 4d ec	 mov	 ecx, DWORD PTR _this$[ebp]
  00064	e8 00 00 00 00	 call	 ?_Getal@?$basic_string@DU?$char_traits@D@std@@V?$allocator@D@2@@std@@AAEAAV?$allocator@D@2@XZ ; std::basic_string<char,std::char_traits<char>,std::allocator<char> >::_Getal
  00069	50		 push	 eax
  0006a	8d 4d e3	 lea	 ecx, DWORD PTR _$S12$[ebp]
  0006d	e8 00 00 00 00	 call	 ??$?0D@?$allocator@U_Container_proxy@std@@@std@@QAE@ABV?$allocator@D@1@@Z ; std::allocator<std::_Container_proxy>::allocator<std::_Container_proxy><char>
  00072	8d 55 e3	 lea	 edx, DWORD PTR _$S12$[ebp]
  00075	89 55 e8	 mov	 DWORD PTR __Alproxy$[ebp], edx

; 2519 :         _Container_proxy_ptr<_Alty> _Proxy(_Alproxy, _Mypair._Myval2);

  00078	8b 45 ec	 mov	 eax, DWORD PTR _this$[ebp]
  0007b	50		 push	 eax
  0007c	8b 4d e8	 mov	 ecx, DWORD PTR __Alproxy$[ebp]
  0007f	51		 push	 ecx
  00080	8d 4d d0	 lea	 ecx, DWORD PTR __Proxy$[ebp]
  00083	e8 00 00 00 00	 call	 ??0?$_Container_proxy_ptr12@V?$allocator@U_Container_proxy@std@@@std@@@std@@QAE@AAV?$allocator@U_Container_proxy@std@@@1@AAU_Container_base12@1@@Z ; std::_Container_proxy_ptr12<std::allocator<std::_Container_proxy> >::_Container_proxy_ptr12<std::allocator<std::_Container_proxy> >
  00088	c6 45 fc 01	 mov	 BYTE PTR __$EHRec$[ebp+8], 1

; 2520 :         _Tidy_init();

  0008c	8b 4d ec	 mov	 ecx, DWORD PTR _this$[ebp]
  0008f	e8 00 00 00 00	 call	 ?_Tidy_init@?$basic_string@DU?$char_traits@D@std@@V?$allocator@D@2@@std@@AAEXXZ ; std::basic_string<char,std::char_traits<char>,std::allocator<char> >::_Tidy_init

; 2521 :         assign(_Ptr);

  00094	8b 55 08	 mov	 edx, DWORD PTR __Ptr$[ebp]
  00097	52		 push	 edx
  00098	8b 4d ec	 mov	 ecx, DWORD PTR _this$[ebp]
  0009b	e8 00 00 00 00	 call	 ?assign@?$basic_string@DU?$char_traits@D@std@@V?$allocator@D@2@@std@@QAEAAV12@QBD@Z ; std::basic_string<char,std::char_traits<char>,std::allocator<char> >::assign

; 2522 :         _Proxy._Release();

  000a0	8d 4d d0	 lea	 ecx, DWORD PTR __Proxy$[ebp]
  000a3	e8 00 00 00 00	 call	 ?_Release@_Basic_container_proxy_ptr12@std@@QAEXXZ ; std::_Basic_container_proxy_ptr12::_Release

; 2523 :     }

  000a8	c6 45 fc 00	 mov	 BYTE PTR __$EHRec$[ebp+8], 0
  000ac	8d 4d d0	 lea	 ecx, DWORD PTR __Proxy$[ebp]
  000af	e8 00 00 00 00	 call	 ??1?$_Container_proxy_ptr12@V?$allocator@U_Container_proxy@std@@@std@@@std@@QAE@XZ ; std::_Container_proxy_ptr12<std::allocator<std::_Container_proxy> >::~_Container_proxy_ptr12<std::allocator<std::_Container_proxy> >
  000b4	c7 45 fc ff ff
	ff ff		 mov	 DWORD PTR __$EHRec$[ebp+8], -1
  000bb	8b 45 ec	 mov	 eax, DWORD PTR _this$[ebp]
  000be	52		 push	 edx
  000bf	8b cd		 mov	 ecx, ebp
  000c1	50		 push	 eax
  000c2	8d 15 00 00 00
	00		 lea	 edx, DWORD PTR $LN9@basic_stri
  000c8	e8 00 00 00 00	 call	 @_RTC_CheckStackVars@8
  000cd	58		 pop	 eax
  000ce	5a		 pop	 edx
  000cf	8b 4d f4	 mov	 ecx, DWORD PTR __$EHRec$[ebp]
  000d2	64 89 0d 00 00
	00 00		 mov	 DWORD PTR fs:0, ecx
  000d9	59		 pop	 ecx
  000da	5f		 pop	 edi
  000db	8b 4d f0	 mov	 ecx, DWORD PTR __$ArrayPad$[ebp]
  000de	33 cd		 xor	 ecx, ebp
  000e0	e8 00 00 00 00	 call	 @__security_check_cookie@4
  000e5	83 c4 3c	 add	 esp, 60			; 0000003cH
  000e8	3b ec		 cmp	 ebp, esp
  000ea	e8 00 00 00 00	 call	 __RTC_CheckEsp
  000ef	8b e5		 mov	 esp, ebp
  000f1	5d		 pop	 ebp
  000f2	c2 04 00	 ret	 4
  000f5	0f 1f 00	 npad	 3
$LN9@basic_stri:
  000f8	02 00 00 00	 DD	 2
  000fc	00 00 00 00	 DD	 $LN8@basic_stri
$LN8@basic_stri:
  00100	e3 ff ff ff	 DD	 -29			; ffffffe3H
  00104	01 00 00 00	 DD	 1
  00108	00 00 00 00	 DD	 $LN5@basic_stri
  0010c	d0 ff ff ff	 DD	 -48			; ffffffd0H
  00110	08 00 00 00	 DD	 8
  00114	00 00 00 00	 DD	 $LN6@basic_stri
$LN6@basic_stri:
  00118	5f		 DB	 95			; 0000005fH
  00119	50		 DB	 80			; 00000050H
  0011a	72		 DB	 114			; 00000072H
  0011b	6f		 DB	 111			; 0000006fH
  0011c	78		 DB	 120			; 00000078H
  0011d	79		 DB	 121			; 00000079H
  0011e	00		 DB	 0
$LN5@basic_stri:
  0011f	24		 DB	 36			; 00000024H
  00120	53		 DB	 83			; 00000053H
  00121	31		 DB	 49			; 00000031H
  00122	32		 DB	 50			; 00000032H
  00123	00		 DB	 0
_TEXT	ENDS
;	COMDAT text$x
text$x	SEGMENT
__unwindfunclet$??0?$basic_string@DU?$char_traits@D@std@@V?$allocator@D@2@@std@@QAE@QBD@Z$0:
  00000	8b 4d ec	 mov	 ecx, DWORD PTR _this$[ebp]
  00003	e9 00 00 00 00	 jmp	 ??1?$_Compressed_pair@V?$allocator@D@std@@V?$_String_val@U?$_Simple_types@D@std@@@2@$00@std@@QAE@XZ
__unwindfunclet$??0?$basic_string@DU?$char_traits@D@std@@V?$allocator@D@2@@std@@QAE@QBD@Z$1:
  00008	8d 4d d0	 lea	 ecx, DWORD PTR __Proxy$[ebp]
  0000b	e9 00 00 00 00	 jmp	 ??1?$_Container_proxy_ptr12@V?$allocator@U_Container_proxy@std@@@std@@@std@@QAE@XZ ; std::_Container_proxy_ptr12<std::allocator<std::_Container_proxy> >::~_Container_proxy_ptr12<std::allocator<std::_Container_proxy> >
  00010	cc		 int	 3
  00011	cc		 int	 3
  00012	cc		 int	 3
  00013	cc		 int	 3
  00014	cc		 int	 3
__ehhandler$??0?$basic_string@DU?$char_traits@D@std@@V?$allocator@D@2@@std@@QAE@QBD@Z:
  00015	90		 npad	 1
  00016	90		 npad	 1
  00017	8b 54 24 08	 mov	 edx, DWORD PTR [esp+8]
  0001b	8d 42 0c	 lea	 eax, DWORD PTR [edx+12]
  0001e	8b 4a c8	 mov	 ecx, DWORD PTR [edx-56]
  00021	33 c8		 xor	 ecx, eax
  00023	e8 00 00 00 00	 call	 @__security_check_cookie@4
  00028	8b 4a fc	 mov	 ecx, DWORD PTR [edx-4]
  0002b	33 c8		 xor	 ecx, eax
  0002d	e8 00 00 00 00	 call	 @__security_check_cookie@4
  00032	b8 00 00 00 00	 mov	 eax, OFFSET __ehfuncinfo$??0?$basic_string@DU?$char_traits@D@std@@V?$allocator@D@2@@std@@QAE@QBD@Z
  00037	e9 00 00 00 00	 jmp	 ___CxxFrameHandler3
text$x	ENDS
??0?$basic_string@DU?$char_traits@D@std@@V?$allocator@D@2@@std@@QAE@QBD@Z ENDP ; std::basic_string<char,std::char_traits<char>,std::allocator<char> >::basic_string<char,std::char_traits<char>,std::allocator<char> >
; Function compile flags: /Odtp /RTCsu
;	COMDAT ??1?$_String_val@U?$_Simple_types@D@std@@@std@@QAE@XZ
_TEXT	SEGMENT
_this$ = -4						; size = 4
??1?$_String_val@U?$_Simple_types@D@std@@@std@@QAE@XZ PROC ; std::_String_val<std::_Simple_types<char> >::~_String_val<std::_Simple_types<char> >, COMDAT
; _this$ = ecx
  00000	55		 push	 ebp
  00001	8b ec		 mov	 ebp, esp
  00003	51		 push	 ecx
  00004	c7 45 fc cc cc
	cc cc		 mov	 DWORD PTR [ebp-4], -858993460 ; ccccccccH
  0000b	89 4d fc	 mov	 DWORD PTR _this$[ebp], ecx
  0000e	8b 4d fc	 mov	 ecx, DWORD PTR _this$[ebp]
  00011	83 c1 04	 add	 ecx, 4
  00014	e8 00 00 00 00	 call	 ??1_Bxty@?$_String_val@U?$_Simple_types@D@std@@@std@@QAE@XZ ; std::_String_val<std::_Simple_types<char> >::_Bxty::~_Bxty
  00019	83 c4 04	 add	 esp, 4
  0001c	3b ec		 cmp	 ebp, esp
  0001e	e8 00 00 00 00	 call	 __RTC_CheckEsp
  00023	8b e5		 mov	 esp, ebp
  00025	5d		 pop	 ebp
  00026	c3		 ret	 0
??1?$_String_val@U?$_Simple_types@D@std@@@std@@QAE@XZ ENDP ; std::_String_val<std::_Simple_types<char> >::~_String_val<std::_Simple_types<char> >
_TEXT	ENDS
; Function compile flags: /Odtp /RTCsu
; File C:\Program Files (x86)\Microsoft Visual Studio\2019\Community\VC\Tools\MSVC\14.29.30133\include\xstring
;	COMDAT ??1_Bxty@?$_String_val@U?$_Simple_types@D@std@@@std@@QAE@XZ
_TEXT	SEGMENT
_this$ = -4						; size = 4
??1_Bxty@?$_String_val@U?$_Simple_types@D@std@@@std@@QAE@XZ PROC ; std::_String_val<std::_Simple_types<char> >::_Bxty::~_Bxty, COMDAT
; _this$ = ecx

; 2348 :         _CONSTEXPR20_CONTAINER ~_Bxty() noexcept {} // user-provided, for fancy pointers

  00000	55		 push	 ebp
  00001	8b ec		 mov	 ebp, esp
  00003	51		 push	 ecx
  00004	c7 45 fc cc cc
	cc cc		 mov	 DWORD PTR [ebp-4], -858993460 ; ccccccccH
  0000b	89 4d fc	 mov	 DWORD PTR _this$[ebp], ecx
  0000e	b9 00 00 00 00	 mov	 ecx, OFFSET __0D019051_xstring
  00013	e8 00 00 00 00	 call	 @__CheckForDebuggerJustMyCode@4
  00018	83 c4 04	 add	 esp, 4
  0001b	3b ec		 cmp	 ebp, esp
  0001d	e8 00 00 00 00	 call	 __RTC_CheckEsp
  00022	8b e5		 mov	 esp, ebp
  00024	5d		 pop	 ebp
  00025	c3		 ret	 0
??1_Bxty@?$_String_val@U?$_Simple_types@D@std@@@std@@QAE@XZ ENDP ; std::_String_val<std::_Simple_types<char> >::_Bxty::~_Bxty
_TEXT	ENDS
; Function compile flags: /Odtp /RTCsu
; File C:\Program Files (x86)\Microsoft Visual Studio\2019\Community\VC\Tools\MSVC\14.29.30133\include\xstring
;	COMDAT ??0_Bxty@?$_String_val@U?$_Simple_types@D@std@@@std@@QAE@XZ
_TEXT	SEGMENT
_this$ = -4						; size = 4
??0_Bxty@?$_String_val@U?$_Simple_types@D@std@@@std@@QAE@XZ PROC ; std::_String_val<std::_Simple_types<char> >::_Bxty::_Bxty, COMDAT
; _this$ = ecx

; 2346 :         _CONSTEXPR20_CONTAINER _Bxty() noexcept : _Ptr() {} // user-provided, for fancy pointers

  00000	55		 push	 ebp
  00001	8b ec		 mov	 ebp, esp
  00003	51		 push	 ecx
  00004	c7 45 fc cc cc
	cc cc		 mov	 DWORD PTR [ebp-4], -858993460 ; ccccccccH
  0000b	89 4d fc	 mov	 DWORD PTR _this$[ebp], ecx
  0000e	b9 00 00 00 00	 mov	 ecx, OFFSET __0D019051_xstring
  00013	e8 00 00 00 00	 call	 @__CheckForDebuggerJustMyCode@4
  00018	8b 45 fc	 mov	 eax, DWORD PTR _this$[ebp]
  0001b	c7 00 00 00 00
	00		 mov	 DWORD PTR [eax], 0
  00021	8b 45 fc	 mov	 eax, DWORD PTR _this$[ebp]
  00024	83 c4 04	 add	 esp, 4
  00027	3b ec		 cmp	 ebp, esp
  00029	e8 00 00 00 00	 call	 __RTC_CheckEsp
  0002e	8b e5		 mov	 esp, ebp
  00030	5d		 pop	 ebp
  00031	c3		 ret	 0
??0_Bxty@?$_String_val@U?$_Simple_types@D@std@@@std@@QAE@XZ ENDP ; std::_String_val<std::_Simple_types<char> >::_Bxty::_Bxty
_TEXT	ENDS
; Function compile flags: /Odtp /RTCsu
; File C:\Program Files (x86)\Microsoft Visual Studio\2019\Community\VC\Tools\MSVC\14.29.30133\include\xstring
;	COMDAT ?_Large_string_engaged@?$_String_val@U?$_Simple_types@D@std@@@std@@QBE_NXZ
_TEXT	SEGMENT
tv69 = -8						; size = 4
_this$ = -4						; size = 4
?_Large_string_engaged@?$_String_val@U?$_Simple_types@D@std@@@std@@QBE_NXZ PROC ; std::_String_val<std::_Simple_types<char> >::_Large_string_engaged, COMDAT
; _this$ = ecx

; 2313 :     _CONSTEXPR20_CONTAINER bool _Large_string_engaged() const noexcept {

  00000	55		 push	 ebp
  00001	8b ec		 mov	 ebp, esp
  00003	83 ec 08	 sub	 esp, 8
  00006	c7 45 f8 cc cc
	cc cc		 mov	 DWORD PTR [ebp-8], -858993460 ; ccccccccH
  0000d	c7 45 fc cc cc
	cc cc		 mov	 DWORD PTR [ebp-4], -858993460 ; ccccccccH
  00014	89 4d fc	 mov	 DWORD PTR _this$[ebp], ecx
  00017	b9 00 00 00 00	 mov	 ecx, OFFSET __0D019051_xstring
  0001c	e8 00 00 00 00	 call	 @__CheckForDebuggerJustMyCode@4

; 2314 : #ifdef __cpp_lib_constexpr_string
; 2315 :         if (_STD is_constant_evaluated()) {

  00021	e8 00 00 00 00	 call	 ?is_constant_evaluated@std@@YA_NXZ ; std::is_constant_evaluated
  00026	0f b6 c0	 movzx	 eax, al
  00029	85 c0		 test	 eax, eax
  0002b	74 04		 je	 SHORT $LN2@Large_stri

; 2316 :             return true;

  0002d	b0 01		 mov	 al, 1
  0002f	eb 1c		 jmp	 SHORT $LN3@Large_stri
$LN2@Large_stri:

; 2317 :         }
; 2318 : #endif // __cpp_lib_constexpr_string
; 2319 :         return _BUF_SIZE <= _Myres;

  00031	8b 4d fc	 mov	 ecx, DWORD PTR _this$[ebp]
  00034	83 79 18 10	 cmp	 DWORD PTR [ecx+24], 16	; 00000010H
  00038	72 09		 jb	 SHORT $LN4@Large_stri
  0003a	c7 45 f8 01 00
	00 00		 mov	 DWORD PTR tv69[ebp], 1
  00041	eb 07		 jmp	 SHORT $LN5@Large_stri
$LN4@Large_stri:
  00043	c7 45 f8 00 00
	00 00		 mov	 DWORD PTR tv69[ebp], 0
$LN5@Large_stri:
  0004a	8a 45 f8	 mov	 al, BYTE PTR tv69[ebp]
$LN3@Large_stri:

; 2320 :     }

  0004d	83 c4 08	 add	 esp, 8
  00050	3b ec		 cmp	 ebp, esp
  00052	e8 00 00 00 00	 call	 __RTC_CheckEsp
  00057	8b e5		 mov	 esp, ebp
  00059	5d		 pop	 ebp
  0005a	c3		 ret	 0
?_Large_string_engaged@?$_String_val@U?$_Simple_types@D@std@@@std@@QBE_NXZ ENDP ; std::_String_val<std::_Simple_types<char> >::_Large_string_engaged
_TEXT	ENDS
; Function compile flags: /Odtp /RTCsu
; File C:\Program Files (x86)\Microsoft Visual Studio\2019\Community\VC\Tools\MSVC\14.29.30133\include\xstring
;	COMDAT ?_Myptr@?$_String_val@U?$_Simple_types@D@std@@@std@@QAEPADXZ
_TEXT	SEGMENT
__Result$ = -8						; size = 4
_this$ = -4						; size = 4
?_Myptr@?$_String_val@U?$_Simple_types@D@std@@@std@@QAEPADXZ PROC ; std::_String_val<std::_Simple_types<char> >::_Myptr, COMDAT
; _this$ = ecx

; 2295 :     _CONSTEXPR20_CONTAINER value_type* _Myptr() noexcept {

  00000	55		 push	 ebp
  00001	8b ec		 mov	 ebp, esp
  00003	83 ec 08	 sub	 esp, 8
  00006	c7 45 f8 cc cc
	cc cc		 mov	 DWORD PTR [ebp-8], -858993460 ; ccccccccH
  0000d	c7 45 fc cc cc
	cc cc		 mov	 DWORD PTR [ebp-4], -858993460 ; ccccccccH
  00014	89 4d fc	 mov	 DWORD PTR _this$[ebp], ecx
  00017	b9 00 00 00 00	 mov	 ecx, OFFSET __0D019051_xstring
  0001c	e8 00 00 00 00	 call	 @__CheckForDebuggerJustMyCode@4

; 2296 :         value_type* _Result = _Bx._Buf;

  00021	8b 45 fc	 mov	 eax, DWORD PTR _this$[ebp]
  00024	83 c0 04	 add	 eax, 4
  00027	89 45 f8	 mov	 DWORD PTR __Result$[ebp], eax

; 2297 :         if (_Large_string_engaged()) {

  0002a	8b 4d fc	 mov	 ecx, DWORD PTR _this$[ebp]
  0002d	e8 00 00 00 00	 call	 ?_Large_string_engaged@?$_String_val@U?$_Simple_types@D@std@@@std@@QBE_NXZ ; std::_String_val<std::_Simple_types<char> >::_Large_string_engaged
  00032	0f b6 c8	 movzx	 ecx, al
  00035	85 c9		 test	 ecx, ecx
  00037	74 12		 je	 SHORT $LN2@Myptr

; 2298 :             _Result = _Unfancy(_Bx._Ptr);

  00039	8b 55 fc	 mov	 edx, DWORD PTR _this$[ebp]
  0003c	8b 42 04	 mov	 eax, DWORD PTR [edx+4]
  0003f	50		 push	 eax
  00040	e8 00 00 00 00	 call	 ??$_Unfancy@D@std@@YAPADPAD@Z ; std::_Unfancy<char>
  00045	83 c4 04	 add	 esp, 4
  00048	89 45 f8	 mov	 DWORD PTR __Result$[ebp], eax
$LN2@Myptr:

; 2299 :         }
; 2300 : 
; 2301 :         return _Result;

  0004b	8b 45 f8	 mov	 eax, DWORD PTR __Result$[ebp]

; 2302 :     }

  0004e	83 c4 08	 add	 esp, 8
  00051	3b ec		 cmp	 ebp, esp
  00053	e8 00 00 00 00	 call	 __RTC_CheckEsp
  00058	8b e5		 mov	 esp, ebp
  0005a	5d		 pop	 ebp
  0005b	c3		 ret	 0
?_Myptr@?$_String_val@U?$_Simple_types@D@std@@@std@@QAEPADXZ ENDP ; std::_String_val<std::_Simple_types<char> >::_Myptr
_TEXT	ENDS
; Function compile flags: /Odtp /RTCsu
; File C:\Program Files (x86)\Microsoft Visual Studio\2019\Community\VC\Tools\MSVC\14.29.30133\include\xstring
;	COMDAT ??0?$_String_val@U?$_Simple_types@D@std@@@std@@QAE@XZ
_TEXT	SEGMENT
_this$ = -4						; size = 4
??0?$_String_val@U?$_Simple_types@D@std@@@std@@QAE@XZ PROC ; std::_String_val<std::_Simple_types<char> >::_String_val<std::_Simple_types<char> >, COMDAT
; _this$ = ecx

; 2284 :     _CONSTEXPR20_CONTAINER _String_val() noexcept : _Bx() {}

  00000	55		 push	 ebp
  00001	8b ec		 mov	 ebp, esp
  00003	51		 push	 ecx
  00004	c7 45 fc cc cc
	cc cc		 mov	 DWORD PTR [ebp-4], -858993460 ; ccccccccH
  0000b	89 4d fc	 mov	 DWORD PTR _this$[ebp], ecx
  0000e	b9 00 00 00 00	 mov	 ecx, OFFSET __0D019051_xstring
  00013	e8 00 00 00 00	 call	 @__CheckForDebuggerJustMyCode@4
  00018	8b 4d fc	 mov	 ecx, DWORD PTR _this$[ebp]
  0001b	e8 00 00 00 00	 call	 ??0_Container_base12@std@@QAE@XZ ; std::_Container_base12::_Container_base12
  00020	8b 4d fc	 mov	 ecx, DWORD PTR _this$[ebp]
  00023	83 c1 04	 add	 ecx, 4
  00026	e8 00 00 00 00	 call	 ??0_Bxty@?$_String_val@U?$_Simple_types@D@std@@@std@@QAE@XZ ; std::_String_val<std::_Simple_types<char> >::_Bxty::_Bxty

; 2285 : 
; 2286 :     // length of internal buffer, [1, 16]:
; 2287 :     static constexpr size_type _BUF_SIZE = 16 / sizeof(value_type) < 1 ? 1 : 16 / sizeof(value_type);
; 2288 :     // roundup mask for allocated buffers, [0, 15]:
; 2289 :     static constexpr size_type _ALLOC_MASK = sizeof(value_type) <= 1 ? 15
; 2290 :                                            : sizeof(value_type) <= 2 ? 7
; 2291 :                                            : sizeof(value_type) <= 4 ? 3
; 2292 :                                            : sizeof(value_type) <= 8 ? 1
; 2293 :                                                                      : 0;
; 2294 : 
; 2295 :     _CONSTEXPR20_CONTAINER value_type* _Myptr() noexcept {
; 2296 :         value_type* _Result = _Bx._Buf;
; 2297 :         if (_Large_string_engaged()) {
; 2298 :             _Result = _Unfancy(_Bx._Ptr);
; 2299 :         }
; 2300 : 
; 2301 :         return _Result;
; 2302 :     }
; 2303 : 
; 2304 :     _CONSTEXPR20_CONTAINER const value_type* _Myptr() const noexcept {
; 2305 :         const value_type* _Result = _Bx._Buf;
; 2306 :         if (_Large_string_engaged()) {
; 2307 :             _Result = _Unfancy(_Bx._Ptr);
; 2308 :         }
; 2309 : 
; 2310 :         return _Result;
; 2311 :     }
; 2312 : 
; 2313 :     _CONSTEXPR20_CONTAINER bool _Large_string_engaged() const noexcept {
; 2314 : #ifdef __cpp_lib_constexpr_string
; 2315 :         if (_STD is_constant_evaluated()) {
; 2316 :             return true;
; 2317 :         }
; 2318 : #endif // __cpp_lib_constexpr_string
; 2319 :         return _BUF_SIZE <= _Myres;
; 2320 :     }
; 2321 : 
; 2322 :     _CONSTEXPR20_CONTAINER void _Check_offset(const size_type _Off) const {
; 2323 :         // checks whether _Off is in the bounds of [0, size()]
; 2324 :         if (_Mysize < _Off) {
; 2325 :             _Xran();
; 2326 :         }
; 2327 :     }
; 2328 : 
; 2329 :     _CONSTEXPR20_CONTAINER void _Check_offset_exclusive(const size_type _Off) const {
; 2330 :         // checks whether _Off is in the bounds of [0, size())
; 2331 :         if (_Mysize <= _Off) {
; 2332 :             _Xran();
; 2333 :         }
; 2334 :     }
; 2335 : 
; 2336 :     [[noreturn]] static void _Xran() {
; 2337 :         _Xout_of_range("invalid string position");
; 2338 :     }
; 2339 : 
; 2340 :     _CONSTEXPR20_CONTAINER size_type _Clamp_suffix_size(const size_type _Off, const size_type _Size) const noexcept {
; 2341 :         // trims _Size to the longest it can be assuming a string at/after _Off
; 2342 :         return (_STD min)(_Size, _Mysize - _Off);
; 2343 :     }
; 2344 : 
; 2345 :     union _Bxty { // storage for small buffer or pointer to larger one
; 2346 :         _CONSTEXPR20_CONTAINER _Bxty() noexcept : _Ptr() {} // user-provided, for fancy pointers
; 2347 : 
; 2348 :         _CONSTEXPR20_CONTAINER ~_Bxty() noexcept {} // user-provided, for fancy pointers
; 2349 : 
; 2350 :         value_type _Buf[_BUF_SIZE];
; 2351 :         pointer _Ptr;
; 2352 :         char _Alias[_BUF_SIZE]; // TRANSITION, ABI: _Alias is preserved for binary compatibility (especially /clr)
; 2353 :     } _Bx;
; 2354 : 
; 2355 :     size_type _Mysize = 0; // current length of string

  0002b	8b 45 fc	 mov	 eax, DWORD PTR _this$[ebp]
  0002e	c7 40 14 00 00
	00 00		 mov	 DWORD PTR [eax+20], 0

; 2356 :     size_type _Myres  = 0; // current storage reserved for string

  00035	8b 4d fc	 mov	 ecx, DWORD PTR _this$[ebp]
  00038	c7 41 18 00 00
	00 00		 mov	 DWORD PTR [ecx+24], 0

; 2284 :     _CONSTEXPR20_CONTAINER _String_val() noexcept : _Bx() {}

  0003f	8b 45 fc	 mov	 eax, DWORD PTR _this$[ebp]
  00042	83 c4 04	 add	 esp, 4
  00045	3b ec		 cmp	 ebp, esp
  00047	e8 00 00 00 00	 call	 __RTC_CheckEsp
  0004c	8b e5		 mov	 esp, ebp
  0004e	5d		 pop	 ebp
  0004f	c3		 ret	 0
??0?$_String_val@U?$_Simple_types@D@std@@@std@@QAE@XZ ENDP ; std::_String_val<std::_Simple_types<char> >::_String_val<std::_Simple_types<char> >
_TEXT	ENDS
; Function compile flags: /Odtp /RTCsu
; File C:\Program Files (x86)\Microsoft Visual Studio\2019\Community\VC\Tools\MSVC\14.29.30133\include\xmemory
;	COMDAT ?max_size@?$_Default_allocator_traits@V?$allocator@D@std@@@std@@SAIABV?$allocator@D@2@@Z
_TEXT	SEGMENT
___formal$ = 8						; size = 4
?max_size@?$_Default_allocator_traits@V?$allocator@D@std@@@std@@SAIABV?$allocator@D@2@@Z PROC ; std::_Default_allocator_traits<std::allocator<char> >::max_size, COMDAT

; 727  :     _NODISCARD static _CONSTEXPR20_DYNALLOC size_type max_size(const _Alloc&) noexcept {

  00000	55		 push	 ebp
  00001	8b ec		 mov	 ebp, esp
  00003	b9 00 00 00 00	 mov	 ecx, OFFSET __79D216CD_xmemory
  00008	e8 00 00 00 00	 call	 @__CheckForDebuggerJustMyCode@4

; 728  :         return static_cast<size_t>(-1) / sizeof(value_type);

  0000d	83 c8 ff	 or	 eax, -1

; 729  :     }

  00010	3b ec		 cmp	 ebp, esp
  00012	e8 00 00 00 00	 call	 __RTC_CheckEsp
  00017	5d		 pop	 ebp
  00018	c3		 ret	 0
?max_size@?$_Default_allocator_traits@V?$allocator@D@std@@@std@@SAIABV?$allocator@D@2@@Z ENDP ; std::_Default_allocator_traits<std::allocator<char> >::max_size
_TEXT	ENDS
; Function compile flags: /Odtp /RTCsu
; File C:\Program Files (x86)\Microsoft Visual Studio\2019\Community\VC\Tools\MSVC\14.29.30133\include\xmemory
;	COMDAT ?allocate@?$allocator@D@std@@QAEPADI@Z
_TEXT	SEGMENT
_this$ = -4						; size = 4
__Count$ = 8						; size = 4
?allocate@?$allocator@D@std@@QAEPADI@Z PROC		; std::allocator<char>::allocate, COMDAT
; _this$ = ecx

; 838  :     _NODISCARD _CONSTEXPR20_DYNALLOC __declspec(allocator) _Ty* allocate(_CRT_GUARDOVERFLOW const size_t _Count) {

  00000	55		 push	 ebp
  00001	8b ec		 mov	 ebp, esp
  00003	51		 push	 ecx
  00004	c7 45 fc cc cc
	cc cc		 mov	 DWORD PTR [ebp-4], -858993460 ; ccccccccH
  0000b	89 4d fc	 mov	 DWORD PTR _this$[ebp], ecx
  0000e	b9 00 00 00 00	 mov	 ecx, OFFSET __79D216CD_xmemory
  00013	e8 00 00 00 00	 call	 @__CheckForDebuggerJustMyCode@4

; 839  :         return static_cast<_Ty*>(_Allocate<_New_alignof<_Ty>>(_Get_size_of_n<sizeof(_Ty)>(_Count)));

  00018	8b 45 08	 mov	 eax, DWORD PTR __Count$[ebp]
  0001b	50		 push	 eax
  0001c	e8 00 00 00 00	 call	 ??$_Get_size_of_n@$00@std@@YAII@Z ; std::_Get_size_of_n<1>
  00021	83 c4 04	 add	 esp, 4
  00024	50		 push	 eax
  00025	e8 00 00 00 00	 call	 ??$_Allocate@$07U_Default_allocate_traits@std@@$0A@@std@@YAPAXI@Z ; std::_Allocate<8,std::_Default_allocate_traits,0>
  0002a	83 c4 04	 add	 esp, 4

; 840  :     }

  0002d	83 c4 04	 add	 esp, 4
  00030	3b ec		 cmp	 ebp, esp
  00032	e8 00 00 00 00	 call	 __RTC_CheckEsp
  00037	8b e5		 mov	 esp, ebp
  00039	5d		 pop	 ebp
  0003a	c2 04 00	 ret	 4
?allocate@?$allocator@D@std@@QAEPADI@Z ENDP		; std::allocator<char>::allocate
_TEXT	ENDS
; Function compile flags: /Odtp /RTCsu
; File C:\Program Files (x86)\Microsoft Visual Studio\2019\Community\VC\Tools\MSVC\14.29.30133\include\xmemory
;	COMDAT ?deallocate@?$allocator@D@std@@QAEXQADI@Z
_TEXT	SEGMENT
_this$ = -4						; size = 4
__Ptr$ = 8						; size = 4
__Count$ = 12						; size = 4
?deallocate@?$allocator@D@std@@QAEXQADI@Z PROC		; std::allocator<char>::deallocate, COMDAT
; _this$ = ecx

; 833  :     _CONSTEXPR20_DYNALLOC void deallocate(_Ty* const _Ptr, const size_t _Count) {

  00000	55		 push	 ebp
  00001	8b ec		 mov	 ebp, esp
  00003	51		 push	 ecx
  00004	c7 45 fc cc cc
	cc cc		 mov	 DWORD PTR [ebp-4], -858993460 ; ccccccccH
  0000b	89 4d fc	 mov	 DWORD PTR _this$[ebp], ecx
  0000e	b9 00 00 00 00	 mov	 ecx, OFFSET __79D216CD_xmemory
  00013	e8 00 00 00 00	 call	 @__CheckForDebuggerJustMyCode@4

; 834  :         // no overflow check on the following multiply; we assume _Allocate did that check
; 835  :         _Deallocate<_New_alignof<_Ty>>(_Ptr, sizeof(_Ty) * _Count);

  00018	8b 45 0c	 mov	 eax, DWORD PTR __Count$[ebp]
  0001b	50		 push	 eax
  0001c	8b 4d 08	 mov	 ecx, DWORD PTR __Ptr$[ebp]
  0001f	51		 push	 ecx
  00020	e8 00 00 00 00	 call	 ??$_Deallocate@$07$0A@@std@@YAXPAXI@Z ; std::_Deallocate<8,0>
  00025	83 c4 08	 add	 esp, 8

; 836  :     }

  00028	83 c4 04	 add	 esp, 4
  0002b	3b ec		 cmp	 ebp, esp
  0002d	e8 00 00 00 00	 call	 __RTC_CheckEsp
  00032	8b e5		 mov	 esp, ebp
  00034	5d		 pop	 ebp
  00035	c2 08 00	 ret	 8
?deallocate@?$allocator@D@std@@QAEXQADI@Z ENDP		; std::allocator<char>::deallocate
_TEXT	ENDS
; Function compile flags: /Odtp /RTCsu
; File C:\Program Files (x86)\Microsoft Visual Studio\2019\Community\VC\Tools\MSVC\14.29.30133\include\xmemory
;	COMDAT ??0?$allocator@D@std@@QAE@XZ
_TEXT	SEGMENT
_this$ = -4						; size = 4
??0?$allocator@D@std@@QAE@XZ PROC			; std::allocator<char>::allocator<char>, COMDAT
; _this$ = ecx

; 825  :     constexpr allocator() noexcept {}

  00000	55		 push	 ebp
  00001	8b ec		 mov	 ebp, esp
  00003	51		 push	 ecx
  00004	c7 45 fc cc cc
	cc cc		 mov	 DWORD PTR [ebp-4], -858993460 ; ccccccccH
  0000b	89 4d fc	 mov	 DWORD PTR _this$[ebp], ecx
  0000e	b9 00 00 00 00	 mov	 ecx, OFFSET __79D216CD_xmemory
  00013	e8 00 00 00 00	 call	 @__CheckForDebuggerJustMyCode@4
  00018	8b 45 fc	 mov	 eax, DWORD PTR _this$[ebp]
  0001b	83 c4 04	 add	 esp, 4
  0001e	3b ec		 cmp	 ebp, esp
  00020	e8 00 00 00 00	 call	 __RTC_CheckEsp
  00025	8b e5		 mov	 esp, ebp
  00027	5d		 pop	 ebp
  00028	c3		 ret	 0
??0?$allocator@D@std@@QAE@XZ ENDP			; std::allocator<char>::allocator<char>
_TEXT	ENDS
; Function compile flags: /Odtp /RTCsu
; File C:\Program Files (x86)\Microsoft Visual Studio\2019\Community\VC\Tools\MSVC\14.29.30133\include\xstring
;	COMDAT ?_Xlen_string@std@@YAXXZ
_TEXT	SEGMENT
?_Xlen_string@std@@YAXXZ PROC				; std::_Xlen_string, COMDAT

; 2373 : [[noreturn]] inline void _Xlen_string() {

  00000	55		 push	 ebp
  00001	8b ec		 mov	 ebp, esp
  00003	b9 00 00 00 00	 mov	 ecx, OFFSET __0D019051_xstring
  00008	e8 00 00 00 00	 call	 @__CheckForDebuggerJustMyCode@4

; 2374 :     _Xlength_error("string too long");

  0000d	68 00 00 00 00	 push	 OFFSET ??_C@_0BA@JFNIOLAK@string?5too?5long@
  00012	e8 00 00 00 00	 call	 ?_Xlength_error@std@@YAXPBD@Z ; std::_Xlength_error
$LN2@Xlen_strin:

; 2375 : }

  00017	3b ec		 cmp	 ebp, esp
  00019	e8 00 00 00 00	 call	 __RTC_CheckEsp
  0001e	5d		 pop	 ebp
  0001f	c3		 ret	 0
?_Xlen_string@std@@YAXXZ ENDP				; std::_Xlen_string
_TEXT	ENDS
; Function compile flags: /Odtp /RTCsu
; File C:\Program Files (x86)\Microsoft Visual Studio\2019\Community\VC\Tools\MSVC\14.29.30133\include\xstring
;	COMDAT ?assign@?$_Narrow_char_traits@DH@std@@SAXAADABD@Z
_TEXT	SEGMENT
__Left$ = 8						; size = 4
__Right$ = 12						; size = 4
?assign@?$_Narrow_char_traits@DH@std@@SAXAADABD@Z PROC	; std::_Narrow_char_traits<char,int>::assign, COMDAT

; 449  :     static _CONSTEXPR17 void assign(_Elem& _Left, const _Elem& _Right) noexcept {

  00000	55		 push	 ebp
  00001	8b ec		 mov	 ebp, esp
  00003	b9 00 00 00 00	 mov	 ecx, OFFSET __0D019051_xstring
  00008	e8 00 00 00 00	 call	 @__CheckForDebuggerJustMyCode@4

; 450  :         _Left = _Right;

  0000d	8b 45 08	 mov	 eax, DWORD PTR __Left$[ebp]
  00010	8b 4d 0c	 mov	 ecx, DWORD PTR __Right$[ebp]
  00013	8a 11		 mov	 dl, BYTE PTR [ecx]
  00015	88 10		 mov	 BYTE PTR [eax], dl

; 451  :     }

  00017	3b ec		 cmp	 ebp, esp
  00019	e8 00 00 00 00	 call	 __RTC_CheckEsp
  0001e	5d		 pop	 ebp
  0001f	c3		 ret	 0
?assign@?$_Narrow_char_traits@DH@std@@SAXAADABD@Z ENDP	; std::_Narrow_char_traits<char,int>::assign
_TEXT	ENDS
; Function compile flags: /Odtp /RTCsu
; File C:\Program Files (x86)\Microsoft Visual Studio\2019\Community\VC\Tools\MSVC\14.29.30133\include\xstring
;	COMDAT ?assign@?$_Narrow_char_traits@DH@std@@SAPADQADID@Z
_TEXT	SEGMENT
__First$ = 8						; size = 4
__Count$ = 12						; size = 4
__Ch$ = 16						; size = 1
?assign@?$_Narrow_char_traits@DH@std@@SAPADQADID@Z PROC	; std::_Narrow_char_traits<char,int>::assign, COMDAT

; 438  :         _Out_writes_all_(_Count) _Elem* const _First, size_t _Count, const _Elem _Ch) noexcept /* strengthened */ {

  00000	55		 push	 ebp
  00001	8b ec		 mov	 ebp, esp
  00003	b9 00 00 00 00	 mov	 ecx, OFFSET __0D019051_xstring
  00008	e8 00 00 00 00	 call	 @__CheckForDebuggerJustMyCode@4

; 439  :         // assign _Count * _Ch to [_First, ...)
; 440  : #ifdef __cpp_lib_is_constant_evaluated
; 441  :         if (_STD is_constant_evaluated()) {

  0000d	e8 00 00 00 00	 call	 ?is_constant_evaluated@std@@YA_NXZ ; std::is_constant_evaluated
  00012	0f b6 c0	 movzx	 eax, al
  00015	85 c0		 test	 eax, eax
  00017	74 17		 je	 SHORT $LN2@assign

; 442  :             return _Primary_char_traits::assign(_First, _Count, _Ch);

  00019	0f b6 4d 10	 movzx	 ecx, BYTE PTR __Ch$[ebp]
  0001d	51		 push	 ecx
  0001e	8b 55 0c	 mov	 edx, DWORD PTR __Count$[ebp]
  00021	52		 push	 edx
  00022	8b 45 08	 mov	 eax, DWORD PTR __First$[ebp]
  00025	50		 push	 eax
  00026	e8 00 00 00 00	 call	 ?assign@?$_Char_traits@DH@std@@SAPADQADID@Z ; std::_Char_traits<char,int>::assign
  0002b	83 c4 0c	 add	 esp, 12			; 0000000cH
  0002e	eb 15		 jmp	 SHORT $LN3@assign
$LN2@assign:

; 443  :         }
; 444  : #endif // __cpp_lib_is_constant_evaluated
; 445  : 
; 446  :         return static_cast<_Elem*>(_CSTD memset(_First, _Ch, _Count));

  00030	8b 4d 0c	 mov	 ecx, DWORD PTR __Count$[ebp]
  00033	51		 push	 ecx
  00034	0f be 55 10	 movsx	 edx, BYTE PTR __Ch$[ebp]
  00038	52		 push	 edx
  00039	8b 45 08	 mov	 eax, DWORD PTR __First$[ebp]
  0003c	50		 push	 eax
  0003d	e8 00 00 00 00	 call	 _memset
  00042	83 c4 0c	 add	 esp, 12			; 0000000cH
$LN3@assign:

; 447  :     }

  00045	3b ec		 cmp	 ebp, esp
  00047	e8 00 00 00 00	 call	 __RTC_CheckEsp
  0004c	5d		 pop	 ebp
  0004d	c3		 ret	 0
?assign@?$_Narrow_char_traits@DH@std@@SAPADQADID@Z ENDP	; std::_Narrow_char_traits<char,int>::assign
_TEXT	ENDS
; Function compile flags: /Odtp /RTCsu
; File C:\Program Files (x86)\Microsoft Visual Studio\2019\Community\VC\Tools\MSVC\14.29.30133\include\xstring
;	COMDAT ?length@?$_Narrow_char_traits@DH@std@@SAIQBD@Z
_TEXT	SEGMENT
tv66 = -16						; size = 4
tv75 = -9						; size = 1
tv72 = -8						; size = 4
tv69 = -4						; size = 4
__First$ = 8						; size = 4
?length@?$_Narrow_char_traits@DH@std@@SAIQBD@Z PROC	; std::_Narrow_char_traits<char,int>::length, COMDAT

; 396  :     _NODISCARD static _CONSTEXPR17 size_t length(_In_z_ const _Elem* const _First) noexcept /* strengthened */ {

  00000	55		 push	 ebp
  00001	8b ec		 mov	 ebp, esp
  00003	83 ec 10	 sub	 esp, 16			; 00000010H
  00006	b8 cc cc cc cc	 mov	 eax, -858993460		; ccccccccH
  0000b	89 45 f0	 mov	 DWORD PTR [ebp-16], eax
  0000e	89 45 f4	 mov	 DWORD PTR [ebp-12], eax
  00011	89 45 f8	 mov	 DWORD PTR [ebp-8], eax
  00014	89 45 fc	 mov	 DWORD PTR [ebp-4], eax
  00017	b9 00 00 00 00	 mov	 ecx, OFFSET __0D019051_xstring
  0001c	e8 00 00 00 00	 call	 @__CheckForDebuggerJustMyCode@4

; 397  :         // find length of null-terminated string
; 398  : #if _HAS_CXX17
; 399  : #ifdef __cpp_char8_t
; 400  :         if constexpr (is_same_v<_Elem, char8_t>) {
; 401  : #if _HAS_U8_INTRINSICS
; 402  :             return __builtin_u8strlen(_First);
; 403  : #else // ^^^ use u8 intrinsics / no u8 intrinsics vvv
; 404  :             return _Primary_char_traits::length(_First);
; 405  : #endif // _HAS_U8_INTRINSICS
; 406  :         } else
; 407  : #endif // __cpp_char8_t
; 408  :         {
; 409  :             return __builtin_strlen(_First);

  00021	8b 45 08	 mov	 eax, DWORD PTR __First$[ebp]
  00024	89 45 fc	 mov	 DWORD PTR tv69[ebp], eax
  00027	8b 4d fc	 mov	 ecx, DWORD PTR tv69[ebp]
  0002a	83 c1 01	 add	 ecx, 1
  0002d	89 4d f8	 mov	 DWORD PTR tv72[ebp], ecx
$LL3@length:
  00030	8b 55 fc	 mov	 edx, DWORD PTR tv69[ebp]
  00033	8a 02		 mov	 al, BYTE PTR [edx]
  00035	88 45 f7	 mov	 BYTE PTR tv75[ebp], al
  00038	83 45 fc 01	 add	 DWORD PTR tv69[ebp], 1
  0003c	80 7d f7 00	 cmp	 BYTE PTR tv75[ebp], 0
  00040	75 ee		 jne	 SHORT $LL3@length
  00042	8b 4d fc	 mov	 ecx, DWORD PTR tv69[ebp]
  00045	2b 4d f8	 sub	 ecx, DWORD PTR tv72[ebp]
  00048	89 4d f0	 mov	 DWORD PTR tv66[ebp], ecx
  0004b	8b 45 f0	 mov	 eax, DWORD PTR tv66[ebp]

; 410  :         }
; 411  : #else // _HAS_CXX17
; 412  :         return _CSTD strlen(reinterpret_cast<const char*>(_First));
; 413  : #endif // _HAS_CXX17
; 414  :     }

  0004e	83 c4 10	 add	 esp, 16			; 00000010H
  00051	3b ec		 cmp	 ebp, esp
  00053	e8 00 00 00 00	 call	 __RTC_CheckEsp
  00058	8b e5		 mov	 esp, ebp
  0005a	5d		 pop	 ebp
  0005b	c3		 ret	 0
?length@?$_Narrow_char_traits@DH@std@@SAIQBD@Z ENDP	; std::_Narrow_char_traits<char,int>::length
_TEXT	ENDS
; Function compile flags: /Odtp /RTCsu
; File C:\Program Files (x86)\Microsoft Visual Studio\2019\Community\VC\Tools\MSVC\14.29.30133\include\xstring
;	COMDAT ?assign@?$_Char_traits@DH@std@@SAPADQADID@Z
_TEXT	SEGMENT
__Next$1 = -8						; size = 4
__Next$2 = -4						; size = 4
__First$ = 8						; size = 4
__Count$ = 12						; size = 4
__Ch$ = 16						; size = 1
?assign@?$_Char_traits@DH@std@@SAPADQADID@Z PROC	; std::_Char_traits<char,int>::assign, COMDAT

; 167  :         _Out_writes_all_(_Count) _Elem* const _First, size_t _Count, const _Elem _Ch) noexcept /* strengthened */ {

  00000	55		 push	 ebp
  00001	8b ec		 mov	 ebp, esp
  00003	83 ec 08	 sub	 esp, 8
  00006	c7 45 f8 cc cc
	cc cc		 mov	 DWORD PTR [ebp-8], -858993460 ; ccccccccH
  0000d	c7 45 fc cc cc
	cc cc		 mov	 DWORD PTR [ebp-4], -858993460 ; ccccccccH
  00014	b9 00 00 00 00	 mov	 ecx, OFFSET __0D019051_xstring
  00019	e8 00 00 00 00	 call	 @__CheckForDebuggerJustMyCode@4

; 168  :         // assign _Count * _Ch to [_First, ...)
; 169  : #ifdef __cpp_lib_constexpr_string
; 170  :         if (_STD is_constant_evaluated()) {

  0001e	e8 00 00 00 00	 call	 ?is_constant_evaluated@std@@YA_NXZ ; std::is_constant_evaluated
  00023	0f b6 c0	 movzx	 eax, al
  00026	85 c0		 test	 eax, eax
  00028	74 34		 je	 SHORT $LN8@assign

; 171  :             for (_Elem* _Next = _First; _Count > 0; --_Count, ++_Next) {

  0002a	8b 4d 08	 mov	 ecx, DWORD PTR __First$[ebp]
  0002d	89 4d fc	 mov	 DWORD PTR __Next$2[ebp], ecx
  00030	eb 12		 jmp	 SHORT $LN4@assign
$LN2@assign:
  00032	8b 55 0c	 mov	 edx, DWORD PTR __Count$[ebp]
  00035	83 ea 01	 sub	 edx, 1
  00038	89 55 0c	 mov	 DWORD PTR __Count$[ebp], edx
  0003b	8b 45 fc	 mov	 eax, DWORD PTR __Next$2[ebp]
  0003e	83 c0 01	 add	 eax, 1
  00041	89 45 fc	 mov	 DWORD PTR __Next$2[ebp], eax
$LN4@assign:
  00044	83 7d 0c 00	 cmp	 DWORD PTR __Count$[ebp], 0
  00048	76 12		 jbe	 SHORT $LN3@assign

; 172  :                 _STD construct_at(_Next, _Ch);

  0004a	8d 4d 10	 lea	 ecx, DWORD PTR __Ch$[ebp]
  0004d	51		 push	 ecx
  0004e	8b 55 fc	 mov	 edx, DWORD PTR __Next$2[ebp]
  00051	52		 push	 edx
  00052	e8 00 00 00 00	 call	 ??$construct_at@DABDX@std@@YAPADQADABD@Z ; std::construct_at<char,char const &,void>
  00057	83 c4 08	 add	 esp, 8

; 173  :             }

  0005a	eb d6		 jmp	 SHORT $LN2@assign
$LN3@assign:

; 174  :         } else

  0005c	eb 2a		 jmp	 SHORT $LN9@assign
$LN8@assign:

; 175  : #endif // __cpp_lib_constexpr_string
; 176  :         {
; 177  :             for (_Elem* _Next = _First; _Count > 0; --_Count, ++_Next) {

  0005e	8b 45 08	 mov	 eax, DWORD PTR __First$[ebp]
  00061	89 45 f8	 mov	 DWORD PTR __Next$1[ebp], eax
  00064	eb 12		 jmp	 SHORT $LN7@assign
$LN5@assign:
  00066	8b 4d 0c	 mov	 ecx, DWORD PTR __Count$[ebp]
  00069	83 e9 01	 sub	 ecx, 1
  0006c	89 4d 0c	 mov	 DWORD PTR __Count$[ebp], ecx
  0006f	8b 55 f8	 mov	 edx, DWORD PTR __Next$1[ebp]
  00072	83 c2 01	 add	 edx, 1
  00075	89 55 f8	 mov	 DWORD PTR __Next$1[ebp], edx
$LN7@assign:
  00078	83 7d 0c 00	 cmp	 DWORD PTR __Count$[ebp], 0
  0007c	76 0a		 jbe	 SHORT $LN9@assign

; 178  :                 *_Next = _Ch;

  0007e	8b 45 f8	 mov	 eax, DWORD PTR __Next$1[ebp]
  00081	8a 4d 10	 mov	 cl, BYTE PTR __Ch$[ebp]
  00084	88 08		 mov	 BYTE PTR [eax], cl

; 179  :             }

  00086	eb de		 jmp	 SHORT $LN5@assign
$LN9@assign:

; 180  :         }
; 181  : 
; 182  :         return _First;

  00088	8b 45 08	 mov	 eax, DWORD PTR __First$[ebp]

; 183  :     }

  0008b	83 c4 08	 add	 esp, 8
  0008e	3b ec		 cmp	 ebp, esp
  00090	e8 00 00 00 00	 call	 __RTC_CheckEsp
  00095	8b e5		 mov	 esp, ebp
  00097	5d		 pop	 ebp
  00098	c3		 ret	 0
?assign@?$_Char_traits@DH@std@@SAPADQADID@Z ENDP	; std::_Char_traits<char,int>::assign
_TEXT	ENDS
; Function compile flags: /Odtp /RTCsu
; File C:\Program Files (x86)\Microsoft Visual Studio\2019\Community\VC\Tools\MSVC\14.29.30133\include\xstring
;	COMDAT ?move@?$_Char_traits@DH@std@@SAPADQADQBDI@Z
_TEXT	SEGMENT
__Idx$1 = -16						; size = 4
__Idx$2 = -12						; size = 4
__Src$3 = -8						; size = 4
__Loop_forward$4 = -1					; size = 1
__First1$ = 8						; size = 4
__First2$ = 12						; size = 4
__Count$ = 16						; size = 4
?move@?$_Char_traits@DH@std@@SAPADQADQBDI@Z PROC	; std::_Char_traits<char,int>::move, COMDAT

; 80   :         _In_reads_(_Count) const _Elem* const _First2, const size_t _Count) noexcept /* strengthened */ {

  00000	55		 push	 ebp
  00001	8b ec		 mov	 ebp, esp
  00003	83 ec 10	 sub	 esp, 16			; 00000010H
  00006	56		 push	 esi
  00007	b8 cc cc cc cc	 mov	 eax, -858993460		; ccccccccH
  0000c	89 45 f0	 mov	 DWORD PTR [ebp-16], eax
  0000f	89 45 f4	 mov	 DWORD PTR [ebp-12], eax
  00012	89 45 f8	 mov	 DWORD PTR [ebp-8], eax
  00015	89 45 fc	 mov	 DWORD PTR [ebp-4], eax
  00018	b9 00 00 00 00	 mov	 ecx, OFFSET __0D019051_xstring
  0001d	e8 00 00 00 00	 call	 @__CheckForDebuggerJustMyCode@4

; 81   :         // copy [_First2, _First2 + _Count) to [_First1, ...), allowing overlap
; 82   : #if _HAS_MEMCPY_MEMMOVE_INTRINSICS
; 83   :         __builtin_memmove(_First1, _First2, _Count * sizeof(_Elem));
; 84   : #else // ^^^ _HAS_MEMCPY_MEMMOVE_INTRINSICS ^^^ / vvv !_HAS_MEMCPY_MEMMOVE_INTRINSICS vvv
; 85   : #ifdef __cpp_lib_is_constant_evaluated
; 86   :         if (_STD is_constant_evaluated()) {

  00022	e8 00 00 00 00	 call	 ?is_constant_evaluated@std@@YA_NXZ ; std::is_constant_evaluated
  00027	0f b6 c0	 movzx	 eax, al
  0002a	85 c0		 test	 eax, eax
  0002c	0f 84 b5 00 00
	00		 je	 $LN11@move

; 87   :             // dest: [_First1, _First1 + _Count)
; 88   :             // src: [_First2, _First2 + _Count)
; 89   :             // We need to handle overlapping ranges.
; 90   :             // If _First1 is in the src range, we need a backward loop.
; 91   :             // Otherwise, the forward loop works (even if the back of dest overlaps the front of src).
; 92   : 
; 93   :             if (_First1 == _First2) {

  00032	8b 4d 08	 mov	 ecx, DWORD PTR __First1$[ebp]
  00035	3b 4d 0c	 cmp	 ecx, DWORD PTR __First2$[ebp]
  00038	75 08		 jne	 SHORT $LN12@move

; 94   :                 return _First1; // Self-assignment; either loop would work, but returning immediately is faster.

  0003a	8b 45 08	 mov	 eax, DWORD PTR __First1$[ebp]
  0003d	e9 bc 00 00 00	 jmp	 $LN16@move
$LN12@move:

; 95   :             }
; 96   : 
; 97   :             // Usually, we would compare pointers with less-than, even though they could belong to different arrays.
; 98   :             // However, we're not allowed to do that during constant evaluation, so we need a linear scan for equality.
; 99   :             bool _Loop_forward = true;

  00042	c6 45 ff 01	 mov	 BYTE PTR __Loop_forward$4[ebp], 1

; 100  : 
; 101  :             for (const _Elem* _Src = _First2; _Src != _First2 + _Count; ++_Src) {

  00046	8b 55 0c	 mov	 edx, DWORD PTR __First2$[ebp]
  00049	89 55 f8	 mov	 DWORD PTR __Src$3[ebp], edx
  0004c	eb 09		 jmp	 SHORT $LN4@move
$LN2@move:
  0004e	8b 45 f8	 mov	 eax, DWORD PTR __Src$3[ebp]
  00051	83 c0 01	 add	 eax, 1
  00054	89 45 f8	 mov	 DWORD PTR __Src$3[ebp], eax
$LN4@move:
  00057	8b 4d 0c	 mov	 ecx, DWORD PTR __First2$[ebp]
  0005a	03 4d 10	 add	 ecx, DWORD PTR __Count$[ebp]
  0005d	39 4d f8	 cmp	 DWORD PTR __Src$3[ebp], ecx
  00060	74 10		 je	 SHORT $LN3@move

; 102  :                 if (_First1 == _Src) {

  00062	8b 55 08	 mov	 edx, DWORD PTR __First1$[ebp]
  00065	3b 55 f8	 cmp	 edx, DWORD PTR __Src$3[ebp]
  00068	75 06		 jne	 SHORT $LN13@move

; 103  :                     _Loop_forward = false;

  0006a	c6 45 ff 00	 mov	 BYTE PTR __Loop_forward$4[ebp], 0

; 104  :                     break;

  0006e	eb 02		 jmp	 SHORT $LN3@move
$LN13@move:

; 105  :                 }
; 106  :             }

  00070	eb dc		 jmp	 SHORT $LN2@move
$LN3@move:

; 107  : 
; 108  :             if (_Loop_forward) {

  00072	0f b6 45 ff	 movzx	 eax, BYTE PTR __Loop_forward$4[ebp]
  00076	85 c0		 test	 eax, eax
  00078	74 2e		 je	 SHORT $LN14@move

; 109  :                 for (size_t _Idx = 0; _Idx < _Count; ++_Idx) {

  0007a	c7 45 f4 00 00
	00 00		 mov	 DWORD PTR __Idx$2[ebp], 0
  00081	eb 09		 jmp	 SHORT $LN7@move
$LN5@move:
  00083	8b 4d f4	 mov	 ecx, DWORD PTR __Idx$2[ebp]
  00086	83 c1 01	 add	 ecx, 1
  00089	89 4d f4	 mov	 DWORD PTR __Idx$2[ebp], ecx
$LN7@move:
  0008c	8b 55 f4	 mov	 edx, DWORD PTR __Idx$2[ebp]
  0008f	3b 55 10	 cmp	 edx, DWORD PTR __Count$[ebp]
  00092	73 12		 jae	 SHORT $LN6@move

; 110  :                     _First1[_Idx] = _First2[_Idx];

  00094	8b 45 08	 mov	 eax, DWORD PTR __First1$[ebp]
  00097	03 45 f4	 add	 eax, DWORD PTR __Idx$2[ebp]
  0009a	8b 4d 0c	 mov	 ecx, DWORD PTR __First2$[ebp]
  0009d	03 4d f4	 add	 ecx, DWORD PTR __Idx$2[ebp]
  000a0	8a 11		 mov	 dl, BYTE PTR [ecx]
  000a2	88 10		 mov	 BYTE PTR [eax], dl

; 111  :                 }

  000a4	eb dd		 jmp	 SHORT $LN5@move
$LN6@move:

; 112  :             } else {

  000a6	eb 3a		 jmp	 SHORT $LN15@move
$LN14@move:

; 113  :                 for (size_t _Idx = 0; _Idx < _Count; ++_Idx) {

  000a8	c7 45 f0 00 00
	00 00		 mov	 DWORD PTR __Idx$1[ebp], 0
  000af	eb 09		 jmp	 SHORT $LN10@move
$LN8@move:
  000b1	8b 45 f0	 mov	 eax, DWORD PTR __Idx$1[ebp]
  000b4	83 c0 01	 add	 eax, 1
  000b7	89 45 f0	 mov	 DWORD PTR __Idx$1[ebp], eax
$LN10@move:
  000ba	8b 4d f0	 mov	 ecx, DWORD PTR __Idx$1[ebp]
  000bd	3b 4d 10	 cmp	 ecx, DWORD PTR __Count$[ebp]
  000c0	73 20		 jae	 SHORT $LN15@move

; 114  :                     _First1[_Count - 1 - _Idx] = _First2[_Count - 1 - _Idx];

  000c2	8b 55 10	 mov	 edx, DWORD PTR __Count$[ebp]
  000c5	83 ea 01	 sub	 edx, 1
  000c8	2b 55 f0	 sub	 edx, DWORD PTR __Idx$1[ebp]
  000cb	8b 45 10	 mov	 eax, DWORD PTR __Count$[ebp]
  000ce	83 e8 01	 sub	 eax, 1
  000d1	2b 45 f0	 sub	 eax, DWORD PTR __Idx$1[ebp]
  000d4	8b 4d 08	 mov	 ecx, DWORD PTR __First1$[ebp]
  000d7	8b 75 0c	 mov	 esi, DWORD PTR __First2$[ebp]
  000da	8a 14 16	 mov	 dl, BYTE PTR [esi+edx]
  000dd	88 14 01	 mov	 BYTE PTR [ecx+eax], dl

; 115  :                 }

  000e0	eb cf		 jmp	 SHORT $LN8@move
$LN15@move:

; 116  :             }
; 117  : 
; 118  :             return _First1;

  000e2	8b 45 08	 mov	 eax, DWORD PTR __First1$[ebp]
  000e5	eb 17		 jmp	 SHORT $LN16@move
$LN11@move:

; 119  :         }
; 120  : #endif // __cpp_lib_is_constant_evaluated
; 121  : 
; 122  :         _CSTD memmove(_First1, _First2, _Count * sizeof(_Elem));

  000e7	8b 45 10	 mov	 eax, DWORD PTR __Count$[ebp]
  000ea	50		 push	 eax
  000eb	8b 4d 0c	 mov	 ecx, DWORD PTR __First2$[ebp]
  000ee	51		 push	 ecx
  000ef	8b 55 08	 mov	 edx, DWORD PTR __First1$[ebp]
  000f2	52		 push	 edx
  000f3	e8 00 00 00 00	 call	 _memmove
  000f8	83 c4 0c	 add	 esp, 12			; 0000000cH

; 123  : #endif // ^^^ !_HAS_MEMCPY_MEMMOVE_INTRINSICS ^^^
; 124  : 
; 125  :         return _First1;

  000fb	8b 45 08	 mov	 eax, DWORD PTR __First1$[ebp]
$LN16@move:

; 126  :     }

  000fe	5e		 pop	 esi
  000ff	83 c4 10	 add	 esp, 16			; 00000010H
  00102	3b ec		 cmp	 ebp, esp
  00104	e8 00 00 00 00	 call	 __RTC_CheckEsp
  00109	8b e5		 mov	 esp, ebp
  0010b	5d		 pop	 ebp
  0010c	c3		 ret	 0
?move@?$_Char_traits@DH@std@@SAPADQADQBDI@Z ENDP	; std::_Char_traits<char,int>::move
_TEXT	ENDS
; Function compile flags: /Odtp /RTCsu
; File C:\Program Files (x86)\Microsoft Visual Studio\2019\Community\VC\Tools\MSVC\14.29.30133\include\xstring
;	COMDAT ?copy@?$_Char_traits@DH@std@@SAPADQADQBDI@Z
_TEXT	SEGMENT
__Idx$1 = -4						; size = 4
__First1$ = 8						; size = 4
__First2$ = 12						; size = 4
__Count$ = 16						; size = 4
?copy@?$_Char_traits@DH@std@@SAPADQADQBDI@Z PROC	; std::_Char_traits<char,int>::copy, COMDAT

; 49   :         _In_reads_(_Count) const _Elem* const _First2, const size_t _Count) noexcept /* strengthened */ {

  00000	55		 push	 ebp
  00001	8b ec		 mov	 ebp, esp
  00003	51		 push	 ecx
  00004	c7 45 fc cc cc
	cc cc		 mov	 DWORD PTR [ebp-4], -858993460 ; ccccccccH
  0000b	b9 00 00 00 00	 mov	 ecx, OFFSET __0D019051_xstring
  00010	e8 00 00 00 00	 call	 @__CheckForDebuggerJustMyCode@4

; 50   :         // copy [_First2, _First2 + _Count) to [_First1, ...)
; 51   : #if _HAS_MEMCPY_MEMMOVE_INTRINSICS
; 52   :         __builtin_memcpy(_First1, _First2, _Count * sizeof(_Elem));
; 53   : #else // ^^^ _HAS_MEMCPY_MEMMOVE_INTRINSICS ^^^ / vvv !_HAS_MEMCPY_MEMMOVE_INTRINSICS vvv
; 54   : #ifdef __cpp_lib_is_constant_evaluated
; 55   :         if (_STD is_constant_evaluated()) {

  00015	e8 00 00 00 00	 call	 ?is_constant_evaluated@std@@YA_NXZ ; std::is_constant_evaluated
  0001a	0f b6 c0	 movzx	 eax, al
  0001d	85 c0		 test	 eax, eax
  0001f	74 31		 je	 SHORT $LN5@copy

; 56   :             // pre: [_First1, _First1 + _Count) and [_First2, _First2 + _Count) do not overlap; see LWG-3085
; 57   :             for (size_t _Idx = 0; _Idx < _Count; ++_Idx) {

  00021	c7 45 fc 00 00
	00 00		 mov	 DWORD PTR __Idx$1[ebp], 0
  00028	eb 09		 jmp	 SHORT $LN4@copy
$LN2@copy:
  0002a	8b 4d fc	 mov	 ecx, DWORD PTR __Idx$1[ebp]
  0002d	83 c1 01	 add	 ecx, 1
  00030	89 4d fc	 mov	 DWORD PTR __Idx$1[ebp], ecx
$LN4@copy:
  00033	8b 55 fc	 mov	 edx, DWORD PTR __Idx$1[ebp]
  00036	3b 55 10	 cmp	 edx, DWORD PTR __Count$[ebp]
  00039	73 12		 jae	 SHORT $LN3@copy

; 58   :                 _First1[_Idx] = _First2[_Idx];

  0003b	8b 45 08	 mov	 eax, DWORD PTR __First1$[ebp]
  0003e	03 45 fc	 add	 eax, DWORD PTR __Idx$1[ebp]
  00041	8b 4d 0c	 mov	 ecx, DWORD PTR __First2$[ebp]
  00044	03 4d fc	 add	 ecx, DWORD PTR __Idx$1[ebp]
  00047	8a 11		 mov	 dl, BYTE PTR [ecx]
  00049	88 10		 mov	 BYTE PTR [eax], dl

; 59   :             }

  0004b	eb dd		 jmp	 SHORT $LN2@copy
$LN3@copy:

; 60   : 
; 61   :             return _First1;

  0004d	8b 45 08	 mov	 eax, DWORD PTR __First1$[ebp]
  00050	eb 17		 jmp	 SHORT $LN6@copy
$LN5@copy:

; 62   :         }
; 63   : #endif // __cpp_lib_is_constant_evaluated
; 64   : 
; 65   :         _CSTD memcpy(_First1, _First2, _Count * sizeof(_Elem));

  00052	8b 45 10	 mov	 eax, DWORD PTR __Count$[ebp]
  00055	50		 push	 eax
  00056	8b 4d 0c	 mov	 ecx, DWORD PTR __First2$[ebp]
  00059	51		 push	 ecx
  0005a	8b 55 08	 mov	 edx, DWORD PTR __First1$[ebp]
  0005d	52		 push	 edx
  0005e	e8 00 00 00 00	 call	 _memcpy
  00063	83 c4 0c	 add	 esp, 12			; 0000000cH

; 66   : #endif // ^^^ !_HAS_MEMCPY_MEMMOVE_INTRINSICS ^^^
; 67   : 
; 68   :         return _First1;

  00066	8b 45 08	 mov	 eax, DWORD PTR __First1$[ebp]
$LN6@copy:

; 69   :     }

  00069	83 c4 04	 add	 esp, 4
  0006c	3b ec		 cmp	 ebp, esp
  0006e	e8 00 00 00 00	 call	 __RTC_CheckEsp
  00073	8b e5		 mov	 esp, ebp
  00075	5d		 pop	 ebp
  00076	c3		 ret	 0
?copy@?$_Char_traits@DH@std@@SAPADQADQBDI@Z ENDP	; std::_Char_traits<char,int>::copy
_TEXT	ENDS
; Function compile flags: /Odtp /RTCsu
; File C:\Program Files (x86)\Microsoft Visual Studio\2019\Community\VC\Tools\MSVC\14.29.30133\include\xutility
;	COMDAT ??$_Construct_in_place@U_Container_proxy@std@@PAU_Container_base12@2@@std@@YAXAAU_Container_proxy@0@$$QAPAU_Container_base12@0@@Z
_TEXT	SEGMENT
tv93 = -16						; size = 4
tv75 = -12						; size = 4
tv77 = -8						; size = 4
$T1 = -4						; size = 4
__Obj$ = 8						; size = 4
_<_Args_0>$ = 12					; size = 4
??$_Construct_in_place@U_Container_proxy@std@@PAU_Container_base12@2@@std@@YAXAAU_Container_proxy@0@$$QAPAU_Container_base12@0@@Z PROC ; std::_Construct_in_place<std::_Container_proxy,std::_Container_base12 *>, COMDAT

; 151  :     is_nothrow_constructible_v<_Ty, _Types...>) {

  00000	55		 push	 ebp
  00001	8b ec		 mov	 ebp, esp
  00003	83 ec 10	 sub	 esp, 16			; 00000010H
  00006	b8 cc cc cc cc	 mov	 eax, -858993460		; ccccccccH
  0000b	89 45 f0	 mov	 DWORD PTR [ebp-16], eax
  0000e	89 45 f4	 mov	 DWORD PTR [ebp-12], eax
  00011	89 45 f8	 mov	 DWORD PTR [ebp-8], eax
  00014	89 45 fc	 mov	 DWORD PTR [ebp-4], eax
  00017	b9 00 00 00 00	 mov	 ecx, OFFSET __12269DE6_xutility
  0001c	e8 00 00 00 00	 call	 @__CheckForDebuggerJustMyCode@4

; 152  : #ifdef __cpp_lib_constexpr_dynamic_alloc
; 153  :     if (_STD is_constant_evaluated()) {

  00021	e8 00 00 00 00	 call	 ?is_constant_evaluated@std@@YA_NXZ ; std::is_constant_evaluated
  00026	0f b6 c0	 movzx	 eax, al
  00029	85 c0		 test	 eax, eax
  0002b	74 30		 je	 SHORT $LN2@Construct_

; 154  :         _STD construct_at(_STD addressof(_Obj), _STD forward<_Types>(_Args)...);

  0002d	8b 4d 0c	 mov	 ecx, DWORD PTR _<_Args_0>$[ebp]
  00030	51		 push	 ecx
  00031	e8 00 00 00 00	 call	 ??$forward@PAU_Container_base12@std@@@std@@YA$$QAPAU_Container_base12@0@AAPAU10@@Z ; std::forward<std::_Container_base12 *>
  00036	83 c4 04	 add	 esp, 4
  00039	89 45 f8	 mov	 DWORD PTR tv77[ebp], eax
  0003c	8b 55 08	 mov	 edx, DWORD PTR __Obj$[ebp]
  0003f	52		 push	 edx
  00040	e8 00 00 00 00	 call	 ??$addressof@U_Container_proxy@std@@@std@@YAPAU_Container_proxy@0@AAU10@@Z ; std::addressof<std::_Container_proxy>
  00045	83 c4 04	 add	 esp, 4
  00048	89 45 f4	 mov	 DWORD PTR tv75[ebp], eax
  0004b	8b 45 f8	 mov	 eax, DWORD PTR tv77[ebp]
  0004e	50		 push	 eax
  0004f	8b 4d f4	 mov	 ecx, DWORD PTR tv75[ebp]
  00052	51		 push	 ecx
  00053	e8 00 00 00 00	 call	 ??$construct_at@U_Container_proxy@std@@PAU_Container_base12@2@X@std@@YAPAU_Container_proxy@0@QAU10@$$QAPAU_Container_base12@0@@Z ; std::construct_at<std::_Container_proxy,std::_Container_base12 *,void>
  00058	83 c4 08	 add	 esp, 8

; 155  :     } else

  0005b	eb 40		 jmp	 SHORT $LN4@Construct_
$LN2@Construct_:

; 151  :     is_nothrow_constructible_v<_Ty, _Types...>) {

  0005d	8b 55 08	 mov	 edx, DWORD PTR __Obj$[ebp]
  00060	52		 push	 edx
  00061	e8 00 00 00 00	 call	 ??$addressof@U_Container_proxy@std@@@std@@YAPAU_Container_proxy@0@AAU10@@Z ; std::addressof<std::_Container_proxy>
  00066	83 c4 04	 add	 esp, 4
  00069	50		 push	 eax
  0006a	e8 00 00 00 00	 call	 ??$_Voidify_iter@PAU_Container_proxy@std@@@std@@YAPAXPAU_Container_proxy@0@@Z ; std::_Voidify_iter<std::_Container_proxy *>
  0006f	83 c4 04	 add	 esp, 4
  00072	50		 push	 eax
  00073	6a 08		 push	 8
  00075	e8 00 00 00 00	 call	 ??2@YAPAXIPAX@Z		; operator new
  0007a	83 c4 08	 add	 esp, 8
  0007d	89 45 fc	 mov	 DWORD PTR $T1[ebp], eax
  00080	8b 45 0c	 mov	 eax, DWORD PTR _<_Args_0>$[ebp]
  00083	50		 push	 eax
  00084	e8 00 00 00 00	 call	 ??$forward@PAU_Container_base12@std@@@std@@YA$$QAPAU_Container_base12@0@AAPAU10@@Z ; std::forward<std::_Container_base12 *>
  00089	83 c4 04	 add	 esp, 4
  0008c	8b 08		 mov	 ecx, DWORD PTR [eax]
  0008e	89 4d f0	 mov	 DWORD PTR tv93[ebp], ecx
  00091	8b 55 f0	 mov	 edx, DWORD PTR tv93[ebp]
  00094	52		 push	 edx
  00095	8b 4d fc	 mov	 ecx, DWORD PTR $T1[ebp]
  00098	e8 00 00 00 00	 call	 ??0_Container_proxy@std@@QAE@PAU_Container_base12@1@@Z ; std::_Container_proxy::_Container_proxy
$LN4@Construct_:

; 156  : #endif // __cpp_lib_constexpr_dynamic_alloc
; 157  :     {
; 158  :         ::new (_Voidify_iter(_STD addressof(_Obj))) _Ty(_STD forward<_Types>(_Args)...);
; 159  :     }
; 160  : }

  0009d	83 c4 10	 add	 esp, 16			; 00000010H
  000a0	3b ec		 cmp	 ebp, esp
  000a2	e8 00 00 00 00	 call	 __RTC_CheckEsp
  000a7	8b e5		 mov	 esp, ebp
  000a9	5d		 pop	 ebp
  000aa	c3		 ret	 0
??$_Construct_in_place@U_Container_proxy@std@@PAU_Container_base12@2@@std@@YAXAAU_Container_proxy@0@$$QAPAU_Container_base12@0@@Z ENDP ; std::_Construct_in_place<std::_Container_proxy,std::_Container_base12 *>
_TEXT	ENDS
; Function compile flags: /Odtp /RTCsu
; File C:\Program Files (x86)\Microsoft Visual Studio\2019\Community\VC\Tools\MSVC\14.29.30133\include\xstddef
;	COMDAT ??$addressof@U_Container_base12@std@@@std@@YAPAU_Container_base12@0@AAU10@@Z
_TEXT	SEGMENT
__Val$ = 8						; size = 4
??$addressof@U_Container_base12@std@@@std@@YAPAU_Container_base12@0@AAU10@@Z PROC ; std::addressof<std::_Container_base12>, COMDAT

; 274  : _NODISCARD constexpr _Ty* addressof(_Ty& _Val) noexcept {

  00000	55		 push	 ebp
  00001	8b ec		 mov	 ebp, esp
  00003	b9 00 00 00 00	 mov	 ecx, OFFSET __E458E21C_xstddef
  00008	e8 00 00 00 00	 call	 @__CheckForDebuggerJustMyCode@4

; 275  :     return __builtin_addressof(_Val);

  0000d	8b 45 08	 mov	 eax, DWORD PTR __Val$[ebp]

; 276  : }

  00010	3b ec		 cmp	 ebp, esp
  00012	e8 00 00 00 00	 call	 __RTC_CheckEsp
  00017	5d		 pop	 ebp
  00018	c3		 ret	 0
??$addressof@U_Container_base12@std@@@std@@YAPAU_Container_base12@0@AAU10@@Z ENDP ; std::addressof<std::_Container_base12>
_TEXT	ENDS
; Function compile flags: /Odtp /RTCsu
; File C:\Program Files (x86)\Microsoft Visual Studio\2019\Community\VC\Tools\MSVC\14.29.30133\include\xmemory
;	COMDAT ??0_Basic_container_proxy_ptr12@std@@IAE@XZ
_TEXT	SEGMENT
_this$ = -4						; size = 4
??0_Basic_container_proxy_ptr12@std@@IAE@XZ PROC	; std::_Basic_container_proxy_ptr12::_Basic_container_proxy_ptr12, COMDAT
; _this$ = ecx

; 1323 :     _CONSTEXPR20_CONTAINER _Basic_container_proxy_ptr12()             = default;

  00000	55		 push	 ebp
  00001	8b ec		 mov	 ebp, esp
  00003	51		 push	 ecx
  00004	c7 45 fc cc cc
	cc cc		 mov	 DWORD PTR [ebp-4], -858993460 ; ccccccccH
  0000b	89 4d fc	 mov	 DWORD PTR _this$[ebp], ecx
  0000e	b9 00 00 00 00	 mov	 ecx, OFFSET __79D216CD_xmemory
  00013	e8 00 00 00 00	 call	 @__CheckForDebuggerJustMyCode@4

; 1316 :     _Container_proxy* _Ptr = nullptr;

  00018	8b 45 fc	 mov	 eax, DWORD PTR _this$[ebp]
  0001b	c7 00 00 00 00
	00		 mov	 DWORD PTR [eax], 0

; 1323 :     _CONSTEXPR20_CONTAINER _Basic_container_proxy_ptr12()             = default;

  00021	8b 45 fc	 mov	 eax, DWORD PTR _this$[ebp]
  00024	83 c4 04	 add	 esp, 4
  00027	3b ec		 cmp	 ebp, esp
  00029	e8 00 00 00 00	 call	 __RTC_CheckEsp
  0002e	8b e5		 mov	 esp, ebp
  00030	5d		 pop	 ebp
  00031	c3		 ret	 0
??0_Basic_container_proxy_ptr12@std@@IAE@XZ ENDP	; std::_Basic_container_proxy_ptr12::_Basic_container_proxy_ptr12
_TEXT	ENDS
; Function compile flags: /Odtp /RTCsu
; File C:\Program Files (x86)\Microsoft Visual Studio\2019\Community\VC\Tools\MSVC\14.29.30133\include\xmemory
;	COMDAT ?_Release@_Basic_container_proxy_ptr12@std@@QAEXXZ
_TEXT	SEGMENT
_this$ = -4						; size = 4
?_Release@_Basic_container_proxy_ptr12@std@@QAEXXZ PROC	; std::_Basic_container_proxy_ptr12::_Release, COMDAT
; _this$ = ecx

; 1318 :     constexpr void _Release() noexcept { // disengage this _Basic_container_proxy_ptr12

  00000	55		 push	 ebp
  00001	8b ec		 mov	 ebp, esp
  00003	51		 push	 ecx
  00004	c7 45 fc cc cc
	cc cc		 mov	 DWORD PTR [ebp-4], -858993460 ; ccccccccH
  0000b	89 4d fc	 mov	 DWORD PTR _this$[ebp], ecx
  0000e	b9 00 00 00 00	 mov	 ecx, OFFSET __79D216CD_xmemory
  00013	e8 00 00 00 00	 call	 @__CheckForDebuggerJustMyCode@4

; 1319 :         _Ptr = nullptr;

  00018	8b 45 fc	 mov	 eax, DWORD PTR _this$[ebp]
  0001b	c7 00 00 00 00
	00		 mov	 DWORD PTR [eax], 0

; 1320 :     }

  00021	83 c4 04	 add	 esp, 4
  00024	3b ec		 cmp	 ebp, esp
  00026	e8 00 00 00 00	 call	 __RTC_CheckEsp
  0002b	8b e5		 mov	 esp, ebp
  0002d	5d		 pop	 ebp
  0002e	c3		 ret	 0
?_Release@_Basic_container_proxy_ptr12@std@@QAEXXZ ENDP	; std::_Basic_container_proxy_ptr12::_Release
_TEXT	ENDS
; Function compile flags: /Odtp /RTCsu
; File C:\Program Files (x86)\Microsoft Visual Studio\2019\Community\VC\Tools\MSVC\14.29.30133\include\xmemory
;	COMDAT ?_Orphan_all_locked_v3@_Container_base12@std@@AAEXXZ
_TEXT	SEGMENT
__Lock$ = -16						; size = 4
_this$ = -8						; size = 4
__$ArrayPad$ = -4					; size = 4
?_Orphan_all_locked_v3@_Container_base12@std@@AAEXXZ PROC ; std::_Container_base12::_Orphan_all_locked_v3, COMDAT
; _this$ = ecx

; 1095 :     void _Orphan_all_locked_v3() noexcept {

  00000	55		 push	 ebp
  00001	8b ec		 mov	 ebp, esp
  00003	83 ec 14	 sub	 esp, 20			; 00000014H
  00006	56		 push	 esi
  00007	b8 cc cc cc cc	 mov	 eax, -858993460		; ccccccccH
  0000c	89 45 ec	 mov	 DWORD PTR [ebp-20], eax
  0000f	89 45 f0	 mov	 DWORD PTR [ebp-16], eax
  00012	89 45 f4	 mov	 DWORD PTR [ebp-12], eax
  00015	89 45 f8	 mov	 DWORD PTR [ebp-8], eax
  00018	89 45 fc	 mov	 DWORD PTR [ebp-4], eax
  0001b	a1 00 00 00 00	 mov	 eax, DWORD PTR ___security_cookie
  00020	33 c5		 xor	 eax, ebp
  00022	89 45 fc	 mov	 DWORD PTR __$ArrayPad$[ebp], eax
  00025	89 4d f8	 mov	 DWORD PTR _this$[ebp], ecx
  00028	b9 00 00 00 00	 mov	 ecx, OFFSET __79D216CD_xmemory
  0002d	e8 00 00 00 00	 call	 @__CheckForDebuggerJustMyCode@4

; 1096 :         _Lockit _Lock(_LOCK_DEBUG);

  00032	8b f4		 mov	 esi, esp
  00034	6a 03		 push	 3
  00036	8d 4d f0	 lea	 ecx, DWORD PTR __Lock$[ebp]
  00039	ff 15 00 00 00
	00		 call	 DWORD PTR __imp_??0_Lockit@std@@QAE@H@Z
  0003f	3b f4		 cmp	 esi, esp
  00041	e8 00 00 00 00	 call	 __RTC_CheckEsp

; 1097 :         _Orphan_all_unlocked_v3();

  00046	8b 4d f8	 mov	 ecx, DWORD PTR _this$[ebp]
  00049	e8 00 00 00 00	 call	 ?_Orphan_all_unlocked_v3@_Container_base12@std@@AAEXXZ ; std::_Container_base12::_Orphan_all_unlocked_v3

; 1098 :     }

  0004e	8b f4		 mov	 esi, esp
  00050	8d 4d f0	 lea	 ecx, DWORD PTR __Lock$[ebp]
  00053	ff 15 00 00 00
	00		 call	 DWORD PTR __imp_??1_Lockit@std@@QAE@XZ
  00059	3b f4		 cmp	 esi, esp
  0005b	e8 00 00 00 00	 call	 __RTC_CheckEsp
  00060	52		 push	 edx
  00061	8b cd		 mov	 ecx, ebp
  00063	50		 push	 eax
  00064	8d 15 00 00 00
	00		 lea	 edx, DWORD PTR $LN5@Orphan_all
  0006a	e8 00 00 00 00	 call	 @_RTC_CheckStackVars@8
  0006f	58		 pop	 eax
  00070	5a		 pop	 edx
  00071	5e		 pop	 esi
  00072	8b 4d fc	 mov	 ecx, DWORD PTR __$ArrayPad$[ebp]
  00075	33 cd		 xor	 ecx, ebp
  00077	e8 00 00 00 00	 call	 @__security_check_cookie@4
  0007c	83 c4 14	 add	 esp, 20			; 00000014H
  0007f	3b ec		 cmp	 ebp, esp
  00081	e8 00 00 00 00	 call	 __RTC_CheckEsp
  00086	8b e5		 mov	 esp, ebp
  00088	5d		 pop	 ebp
  00089	c3		 ret	 0
  0008a	66 90		 npad	 2
$LN5@Orphan_all:
  0008c	01 00 00 00	 DD	 1
  00090	00 00 00 00	 DD	 $LN4@Orphan_all
$LN4@Orphan_all:
  00094	f0 ff ff ff	 DD	 -16			; fffffff0H
  00098	04 00 00 00	 DD	 4
  0009c	00 00 00 00	 DD	 $LN3@Orphan_all
$LN3@Orphan_all:
  000a0	5f		 DB	 95			; 0000005fH
  000a1	4c		 DB	 76			; 0000004cH
  000a2	6f		 DB	 111			; 0000006fH
  000a3	63		 DB	 99			; 00000063H
  000a4	6b		 DB	 107			; 0000006bH
  000a5	00		 DB	 0
?_Orphan_all_locked_v3@_Container_base12@std@@AAEXXZ ENDP ; std::_Container_base12::_Orphan_all_locked_v3
_TEXT	ENDS
; Function compile flags: /Odtp /RTCsu
; File C:\Program Files (x86)\Microsoft Visual Studio\2019\Community\VC\Tools\MSVC\14.29.30133\include\xmemory
;	COMDAT ?_Orphan_all_unlocked_v3@_Container_base12@std@@AAEXXZ
_TEXT	SEGMENT
__Pnext$1 = -8						; size = 4
_this$ = -4						; size = 4
?_Orphan_all_unlocked_v3@_Container_base12@std@@AAEXXZ PROC ; std::_Container_base12::_Orphan_all_unlocked_v3, COMDAT
; _this$ = ecx

; 1237 : _CONSTEXPR20_CONTAINER void _Container_base12::_Orphan_all_unlocked_v3() noexcept {

  00000	55		 push	 ebp
  00001	8b ec		 mov	 ebp, esp
  00003	83 ec 08	 sub	 esp, 8
  00006	c7 45 f8 cc cc
	cc cc		 mov	 DWORD PTR [ebp-8], -858993460 ; ccccccccH
  0000d	c7 45 fc cc cc
	cc cc		 mov	 DWORD PTR [ebp-4], -858993460 ; ccccccccH
  00014	89 4d fc	 mov	 DWORD PTR _this$[ebp], ecx
  00017	b9 00 00 00 00	 mov	 ecx, OFFSET __79D216CD_xmemory
  0001c	e8 00 00 00 00	 call	 @__CheckForDebuggerJustMyCode@4

; 1238 :     if (!_Myproxy) { // no proxy, already done

  00021	8b 45 fc	 mov	 eax, DWORD PTR _this$[ebp]
  00024	83 38 00	 cmp	 DWORD PTR [eax], 0
  00027	75 02		 jne	 SHORT $LN5@Orphan_all

; 1239 :         return;

  00029	eb 3b		 jmp	 SHORT $LN6@Orphan_all
$LN5@Orphan_all:

; 1240 :     }
; 1241 : 
; 1242 :     // proxy allocated, drain it
; 1243 :     for (auto& _Pnext = _Myproxy->_Myfirstiter; _Pnext; _Pnext = _Pnext->_Mynextiter) { // TRANSITION, VSO-1269037

  0002b	8b 4d fc	 mov	 ecx, DWORD PTR _this$[ebp]
  0002e	8b 11		 mov	 edx, DWORD PTR [ecx]
  00030	83 c2 04	 add	 edx, 4
  00033	89 55 f8	 mov	 DWORD PTR __Pnext$1[ebp], edx
  00036	eb 0d		 jmp	 SHORT $LN4@Orphan_all
$LN2@Orphan_all:
  00038	8b 45 f8	 mov	 eax, DWORD PTR __Pnext$1[ebp]
  0003b	8b 08		 mov	 ecx, DWORD PTR [eax]
  0003d	8b 55 f8	 mov	 edx, DWORD PTR __Pnext$1[ebp]
  00040	8b 41 04	 mov	 eax, DWORD PTR [ecx+4]
  00043	89 02		 mov	 DWORD PTR [edx], eax
$LN4@Orphan_all:
  00045	8b 4d f8	 mov	 ecx, DWORD PTR __Pnext$1[ebp]
  00048	83 39 00	 cmp	 DWORD PTR [ecx], 0
  0004b	74 0d		 je	 SHORT $LN3@Orphan_all

; 1244 :         _Pnext->_Myproxy = nullptr;

  0004d	8b 55 f8	 mov	 edx, DWORD PTR __Pnext$1[ebp]
  00050	8b 02		 mov	 eax, DWORD PTR [edx]
  00052	c7 00 00 00 00
	00		 mov	 DWORD PTR [eax], 0

; 1245 :     }

  00058	eb de		 jmp	 SHORT $LN2@Orphan_all
$LN3@Orphan_all:

; 1246 :     _Myproxy->_Myfirstiter = nullptr;

  0005a	8b 4d fc	 mov	 ecx, DWORD PTR _this$[ebp]
  0005d	8b 11		 mov	 edx, DWORD PTR [ecx]
  0005f	c7 42 04 00 00
	00 00		 mov	 DWORD PTR [edx+4], 0
$LN6@Orphan_all:

; 1247 : }

  00066	83 c4 08	 add	 esp, 8
  00069	3b ec		 cmp	 ebp, esp
  0006b	e8 00 00 00 00	 call	 __RTC_CheckEsp
  00070	8b e5		 mov	 esp, ebp
  00072	5d		 pop	 ebp
  00073	c3		 ret	 0
?_Orphan_all_unlocked_v3@_Container_base12@std@@AAEXXZ ENDP ; std::_Container_base12::_Orphan_all_unlocked_v3
_TEXT	ENDS
; Function compile flags: /Odtp /RTCsu
; File C:\Program Files (x86)\Microsoft Visual Studio\2019\Community\VC\Tools\MSVC\14.29.30133\include\xmemory
;	COMDAT ?_Orphan_all@_Container_base12@std@@QAEXXZ
_TEXT	SEGMENT
_this$ = -4						; size = 4
?_Orphan_all@_Container_base12@std@@QAEXXZ PROC		; std::_Container_base12::_Orphan_all, COMDAT
; _this$ = ecx

; 1249 : _CONSTEXPR20_CONTAINER void _Container_base12::_Orphan_all() noexcept {

  00000	55		 push	 ebp
  00001	8b ec		 mov	 ebp, esp
  00003	51		 push	 ecx
  00004	c7 45 fc cc cc
	cc cc		 mov	 DWORD PTR [ebp-4], -858993460 ; ccccccccH
  0000b	89 4d fc	 mov	 DWORD PTR _this$[ebp], ecx
  0000e	b9 00 00 00 00	 mov	 ecx, OFFSET __79D216CD_xmemory
  00013	e8 00 00 00 00	 call	 @__CheckForDebuggerJustMyCode@4

; 1250 : #if _ITERATOR_DEBUG_LEVEL == 2
; 1251 : #ifdef __cpp_lib_constexpr_dynamic_alloc
; 1252 :     if (_STD is_constant_evaluated()) {

  00018	e8 00 00 00 00	 call	 ?is_constant_evaluated@std@@YA_NXZ ; std::is_constant_evaluated
  0001d	0f b6 c0	 movzx	 eax, al
  00020	85 c0		 test	 eax, eax
  00022	74 0a		 je	 SHORT $LN2@Orphan_all

; 1253 :         _Orphan_all_unlocked_v3();

  00024	8b 4d fc	 mov	 ecx, DWORD PTR _this$[ebp]
  00027	e8 00 00 00 00	 call	 ?_Orphan_all_unlocked_v3@_Container_base12@std@@AAEXXZ ; std::_Container_base12::_Orphan_all_unlocked_v3

; 1254 :     } else

  0002c	eb 08		 jmp	 SHORT $LN4@Orphan_all
$LN2@Orphan_all:

; 1255 : #endif // __cpp_lib_constexpr_dynamic_alloc
; 1256 :     {
; 1257 :         _Orphan_all_locked_v3();

  0002e	8b 4d fc	 mov	 ecx, DWORD PTR _this$[ebp]
  00031	e8 00 00 00 00	 call	 ?_Orphan_all_locked_v3@_Container_base12@std@@AAEXXZ ; std::_Container_base12::_Orphan_all_locked_v3
$LN4@Orphan_all:

; 1258 :     }
; 1259 : #endif // _ITERATOR_DEBUG_LEVEL == 2
; 1260 : }

  00036	83 c4 04	 add	 esp, 4
  00039	3b ec		 cmp	 ebp, esp
  0003b	e8 00 00 00 00	 call	 __RTC_CheckEsp
  00040	8b e5		 mov	 esp, ebp
  00042	5d		 pop	 ebp
  00043	c3		 ret	 0
?_Orphan_all@_Container_base12@std@@QAEXXZ ENDP		; std::_Container_base12::_Orphan_all
_TEXT	ENDS
; Function compile flags: /Odtp /RTCsu
; File C:\Program Files (x86)\Microsoft Visual Studio\2019\Community\VC\Tools\MSVC\14.29.30133\include\xmemory
;	COMDAT ??0_Container_base12@std@@QAE@XZ
_TEXT	SEGMENT
_this$ = -4						; size = 4
??0_Container_base12@std@@QAE@XZ PROC			; std::_Container_base12::_Container_base12, COMDAT
; _this$ = ecx

; 1064 :     _CONSTEXPR20_CONTAINER _Container_base12() noexcept = default;

  00000	55		 push	 ebp
  00001	8b ec		 mov	 ebp, esp
  00003	51		 push	 ecx
  00004	c7 45 fc cc cc
	cc cc		 mov	 DWORD PTR [ebp-4], -858993460 ; ccccccccH
  0000b	89 4d fc	 mov	 DWORD PTR _this$[ebp], ecx
  0000e	b9 00 00 00 00	 mov	 ecx, OFFSET __79D216CD_xmemory
  00013	e8 00 00 00 00	 call	 @__CheckForDebuggerJustMyCode@4

; 1065 : 
; 1066 :     _Container_base12(const _Container_base12&) = delete;
; 1067 :     _Container_base12& operator=(const _Container_base12&) = delete;
; 1068 : 
; 1069 :     _CONSTEXPR20_CONTAINER void _Orphan_all() noexcept;
; 1070 :     _CONSTEXPR20_CONTAINER void _Swap_proxy_and_iterators(_Container_base12&) noexcept;
; 1071 : 
; 1072 :     template <class _Alloc>
; 1073 :     _CONSTEXPR20_CONTAINER void _Alloc_proxy(_Alloc&& _Al) {
; 1074 :         _Container_proxy* const _New_proxy = _Unfancy(_Al.allocate(1));
; 1075 :         _Construct_in_place(*_New_proxy, this);
; 1076 :         _Myproxy            = _New_proxy;
; 1077 :         _New_proxy->_Mycont = this;
; 1078 :     }
; 1079 : 
; 1080 :     template <class _Alloc>
; 1081 :     _CONSTEXPR20_CONTAINER void _Reload_proxy(_Alloc&& _Old_alloc, _Alloc&& _New_alloc) {
; 1082 :         // pre: no iterators refer to the existing proxy
; 1083 :         _Container_proxy* const _New_proxy = _Unfancy(_New_alloc.allocate(1));
; 1084 :         _Construct_in_place(*_New_proxy, this);
; 1085 :         _New_proxy->_Mycont = this;
; 1086 :         _Delete_plain_internal(_Old_alloc, _STD exchange(_Myproxy, _New_proxy));
; 1087 :     }
; 1088 : 
; 1089 :     _Container_proxy* _Myproxy = nullptr;

  00018	8b 45 fc	 mov	 eax, DWORD PTR _this$[ebp]
  0001b	c7 00 00 00 00
	00		 mov	 DWORD PTR [eax], 0

; 1064 :     _CONSTEXPR20_CONTAINER _Container_base12() noexcept = default;

  00021	8b 45 fc	 mov	 eax, DWORD PTR _this$[ebp]
  00024	83 c4 04	 add	 esp, 4
  00027	3b ec		 cmp	 ebp, esp
  00029	e8 00 00 00 00	 call	 __RTC_CheckEsp
  0002e	8b e5		 mov	 esp, ebp
  00030	5d		 pop	 ebp
  00031	c3		 ret	 0
??0_Container_base12@std@@QAE@XZ ENDP			; std::_Container_base12::_Container_base12
_TEXT	ENDS
; Function compile flags: /Odtp /RTCsu
; File C:\Program Files (x86)\Microsoft Visual Studio\2019\Community\VC\Tools\MSVC\14.29.30133\include\xmemory
;	COMDAT ??0_Container_proxy@std@@QAE@PAU_Container_base12@1@@Z
_TEXT	SEGMENT
_this$ = -4						; size = 4
__Mycont_$ = 8						; size = 4
??0_Container_proxy@std@@QAE@PAU_Container_base12@1@@Z PROC ; std::_Container_proxy::_Container_proxy, COMDAT
; _this$ = ecx

; 1056 :     _CONSTEXPR20_CONTAINER _Container_proxy(_Container_base12* _Mycont_) noexcept : _Mycont(_Mycont_) {}

  00000	55		 push	 ebp
  00001	8b ec		 mov	 ebp, esp
  00003	51		 push	 ecx
  00004	c7 45 fc cc cc
	cc cc		 mov	 DWORD PTR [ebp-4], -858993460 ; ccccccccH
  0000b	89 4d fc	 mov	 DWORD PTR _this$[ebp], ecx
  0000e	b9 00 00 00 00	 mov	 ecx, OFFSET __79D216CD_xmemory
  00013	e8 00 00 00 00	 call	 @__CheckForDebuggerJustMyCode@4
  00018	8b 45 fc	 mov	 eax, DWORD PTR _this$[ebp]
  0001b	8b 4d 08	 mov	 ecx, DWORD PTR __Mycont_$[ebp]
  0001e	89 08		 mov	 DWORD PTR [eax], ecx

; 1057 : 
; 1058 :     const _Container_base12* _Mycont       = nullptr;
; 1059 :     mutable _Iterator_base12* _Myfirstiter = nullptr;

  00020	8b 55 fc	 mov	 edx, DWORD PTR _this$[ebp]
  00023	c7 42 04 00 00
	00 00		 mov	 DWORD PTR [edx+4], 0

; 1056 :     _CONSTEXPR20_CONTAINER _Container_proxy(_Container_base12* _Mycont_) noexcept : _Mycont(_Mycont_) {}

  0002a	8b 45 fc	 mov	 eax, DWORD PTR _this$[ebp]
  0002d	83 c4 04	 add	 esp, 4
  00030	3b ec		 cmp	 ebp, esp
  00032	e8 00 00 00 00	 call	 __RTC_CheckEsp
  00037	8b e5		 mov	 esp, ebp
  00039	5d		 pop	 ebp
  0003a	c2 04 00	 ret	 4
??0_Container_proxy@std@@QAE@PAU_Container_base12@1@@Z ENDP ; std::_Container_proxy::_Container_proxy
_TEXT	ENDS
; Function compile flags: /Odtp /RTCsu
; File C:\Program Files (x86)\Microsoft Visual Studio\2019\Community\VC\Tools\MSVC\14.29.30133\include\xmemory
;	COMDAT ??$_Convert_size@I@std@@YAII@Z
_TEXT	SEGMENT
__Len$ = 8						; size = 4
??$_Convert_size@I@std@@YAII@Z PROC			; std::_Convert_size<unsigned int>, COMDAT

; 978  : _NODISCARD constexpr size_t _Convert_size<size_t>(const size_t _Len) noexcept {

  00000	55		 push	 ebp
  00001	8b ec		 mov	 ebp, esp
  00003	b9 00 00 00 00	 mov	 ecx, OFFSET __79D216CD_xmemory
  00008	e8 00 00 00 00	 call	 @__CheckForDebuggerJustMyCode@4

; 979  :     // convert size_t to size_t, unchanged
; 980  :     return _Len;

  0000d	8b 45 08	 mov	 eax, DWORD PTR __Len$[ebp]

; 981  : }

  00010	3b ec		 cmp	 ebp, esp
  00012	e8 00 00 00 00	 call	 __RTC_CheckEsp
  00017	5d		 pop	 ebp
  00018	c3		 ret	 0
??$_Convert_size@I@std@@YAII@Z ENDP			; std::_Convert_size<unsigned int>
_TEXT	ENDS
; Function compile flags: /Odtp /RTCsu
; File C:\Program Files (x86)\Microsoft Visual Studio\2019\Community\VC\Tools\MSVC\14.29.30133\include\xmemory
;	COMDAT ?_Adjust_manually_vector_aligned@std@@YAXAAPAXAAI@Z
_TEXT	SEGMENT
__Back_shift$ = -16					; size = 4
__Min_back_shift$ = -12					; size = 4
__Ptr_container$ = -8					; size = 4
__Ptr_user$ = -4					; size = 4
__Ptr$ = 8						; size = 4
__Bytes$ = 12						; size = 4
?_Adjust_manually_vector_aligned@std@@YAXAAPAXAAI@Z PROC ; std::_Adjust_manually_vector_aligned, COMDAT

; 153  : inline void _Adjust_manually_vector_aligned(void*& _Ptr, size_t& _Bytes) {

  00000	55		 push	 ebp
  00001	8b ec		 mov	 ebp, esp
  00003	83 ec 10	 sub	 esp, 16			; 00000010H
  00006	56		 push	 esi
  00007	b8 cc cc cc cc	 mov	 eax, -858993460		; ccccccccH
  0000c	89 45 f0	 mov	 DWORD PTR [ebp-16], eax
  0000f	89 45 f4	 mov	 DWORD PTR [ebp-12], eax
  00012	89 45 f8	 mov	 DWORD PTR [ebp-8], eax
  00015	89 45 fc	 mov	 DWORD PTR [ebp-4], eax
  00018	b9 00 00 00 00	 mov	 ecx, OFFSET __79D216CD_xmemory
  0001d	e8 00 00 00 00	 call	 @__CheckForDebuggerJustMyCode@4

; 154  :     // adjust parameters from _Allocate_manually_vector_aligned to pass to operator delete
; 155  :     _Bytes += _Non_user_size;

  00022	8b 45 0c	 mov	 eax, DWORD PTR __Bytes$[ebp]
  00025	8b 08		 mov	 ecx, DWORD PTR [eax]
  00027	83 c1 27	 add	 ecx, 39			; 00000027H
  0002a	8b 55 0c	 mov	 edx, DWORD PTR __Bytes$[ebp]
  0002d	89 0a		 mov	 DWORD PTR [edx], ecx

; 156  : 
; 157  :     const uintptr_t* const _Ptr_user = reinterpret_cast<uintptr_t*>(_Ptr);

  0002f	8b 45 08	 mov	 eax, DWORD PTR __Ptr$[ebp]
  00032	8b 08		 mov	 ecx, DWORD PTR [eax]
  00034	89 4d fc	 mov	 DWORD PTR __Ptr_user$[ebp], ecx

; 158  :     const uintptr_t _Ptr_container   = _Ptr_user[-1];

  00037	ba 04 00 00 00	 mov	 edx, 4
  0003c	6b c2 ff	 imul	 eax, edx, -1
  0003f	8b 4d fc	 mov	 ecx, DWORD PTR __Ptr_user$[ebp]
  00042	8b 14 01	 mov	 edx, DWORD PTR [ecx+eax]
  00045	89 55 f8	 mov	 DWORD PTR __Ptr_container$[ebp], edx
$LN4@Adjust_man:

; 159  : 
; 160  :     // If the following asserts, it likely means that we are performing
; 161  :     // an aligned delete on memory coming from an unaligned allocation.
; 162  :     _STL_ASSERT(_Ptr_user[-2] == _Big_allocation_sentinel, "invalid argument");

  00048	b8 04 00 00 00	 mov	 eax, 4
  0004d	6b c8 fe	 imul	 ecx, eax, -2
  00050	8b 55 fc	 mov	 edx, DWORD PTR __Ptr_user$[ebp]
  00053	81 3c 0a fa fa
	fa fa		 cmp	 DWORD PTR [edx+ecx], -84215046 ; fafafafaH
  0005a	75 02		 jne	 SHORT $LN7@Adjust_man
  0005c	eb 5c		 jmp	 SHORT $LN2@Adjust_man
$LN7@Adjust_man:
  0005e	8b f4		 mov	 esi, esp
  00060	68 00 00 00 00	 push	 OFFSET ??_C@_0BB@FCMFBGOM@invalid?5argument@
  00065	68 00 00 00 00	 push	 OFFSET ??_C@_02DKCKIIND@?$CFs@
  0006a	6a 00		 push	 0
  0006c	68 a2 00 00 00	 push	 162			; 000000a2H
  00071	68 00 00 00 00	 push	 OFFSET ??_C@_0GI@MNEMJBML@C?3?2Program?5Files?5?$CIx86?$CJ?2Microsof@
  00076	6a 02		 push	 2
  00078	ff 15 00 00 00
	00		 call	 DWORD PTR __imp___CrtDbgReport
  0007e	83 c4 18	 add	 esp, 24			; 00000018H
  00081	3b f4		 cmp	 esi, esp
  00083	e8 00 00 00 00	 call	 __RTC_CheckEsp
  00088	83 f8 01	 cmp	 eax, 1
  0008b	75 01		 jne	 SHORT $LN19@Adjust_man
  0008d	cc		 int	 3
$LN19@Adjust_man:
  0008e	8b f4		 mov	 esi, esp
  00090	6a 00		 push	 0
  00092	68 a2 00 00 00	 push	 162			; 000000a2H
  00097	68 00 00 00 00	 push	 OFFSET ??_C@_1NA@MJBOBEJL@?$AAC?$AA?3?$AA?2?$AAP?$AAr?$AAo?$AAg?$AAr?$AAa?$AAm?$AA?5?$AAF?$AAi?$AAl?$AAe@
  0009c	68 00 00 00 00	 push	 OFFSET ??_C@_1EK@NIFDJFDG@?$AAs?$AAt?$AAd?$AA?3?$AA?3?$AA_?$AAA?$AAd?$AAj?$AAu?$AAs?$AAt?$AA_?$AAm?$AAa@
  000a1	68 00 00 00 00	 push	 OFFSET ??_C@_1CG@JNLFBNGN@?$AA?$CC?$AAi?$AAn?$AAv?$AAa?$AAl?$AAi?$AAd?$AA?5?$AAa?$AAr?$AAg?$AAu?$AAm?$AAe@
  000a6	ff 15 00 00 00
	00		 call	 DWORD PTR __imp___invalid_parameter
  000ac	83 c4 14	 add	 esp, 20			; 00000014H
  000af	3b f4		 cmp	 esi, esp
  000b1	e8 00 00 00 00	 call	 __RTC_CheckEsp
  000b6	33 c9		 xor	 ecx, ecx
  000b8	75 a4		 jne	 SHORT $LN7@Adjust_man
$LN2@Adjust_man:
  000ba	33 d2		 xor	 edx, edx
  000bc	75 8a		 jne	 SHORT $LN4@Adjust_man

; 163  : 
; 164  :     // Extra paranoia on aligned allocation/deallocation; ensure _Ptr_container is
; 165  :     // in range [_Min_back_shift, _Non_user_size]
; 166  : #ifdef _DEBUG
; 167  :     constexpr uintptr_t _Min_back_shift = 2 * sizeof(void*);

  000be	c7 45 f4 08 00
	00 00		 mov	 DWORD PTR __Min_back_shift$[ebp], 8

; 168  : #else // ^^^ _DEBUG ^^^ // vvv !_DEBUG vvv
; 169  :     constexpr uintptr_t _Min_back_shift = sizeof(void*);
; 170  : #endif // _DEBUG
; 171  :     const uintptr_t _Back_shift = reinterpret_cast<uintptr_t>(_Ptr) - _Ptr_container;

  000c5	8b 45 08	 mov	 eax, DWORD PTR __Ptr$[ebp]
  000c8	8b 08		 mov	 ecx, DWORD PTR [eax]
  000ca	2b 4d f8	 sub	 ecx, DWORD PTR __Ptr_container$[ebp]
  000cd	89 4d f0	 mov	 DWORD PTR __Back_shift$[ebp], ecx
$LN10@Adjust_man:

; 172  :     _STL_VERIFY(_Back_shift >= _Min_back_shift && _Back_shift <= _Non_user_size, "invalid argument");

  000d0	83 7d f0 08	 cmp	 DWORD PTR __Back_shift$[ebp], 8
  000d4	72 08		 jb	 SHORT $LN13@Adjust_man
  000d6	83 7d f0 27	 cmp	 DWORD PTR __Back_shift$[ebp], 39 ; 00000027H
  000da	77 02		 ja	 SHORT $LN13@Adjust_man
  000dc	eb 5c		 jmp	 SHORT $LN8@Adjust_man
$LN13@Adjust_man:
  000de	8b f4		 mov	 esi, esp
  000e0	68 00 00 00 00	 push	 OFFSET ??_C@_0BB@FCMFBGOM@invalid?5argument@
  000e5	68 00 00 00 00	 push	 OFFSET ??_C@_02DKCKIIND@?$CFs@
  000ea	6a 00		 push	 0
  000ec	68 ac 00 00 00	 push	 172			; 000000acH
  000f1	68 00 00 00 00	 push	 OFFSET ??_C@_0GI@MNEMJBML@C?3?2Program?5Files?5?$CIx86?$CJ?2Microsof@
  000f6	6a 02		 push	 2
  000f8	ff 15 00 00 00
	00		 call	 DWORD PTR __imp___CrtDbgReport
  000fe	83 c4 18	 add	 esp, 24			; 00000018H
  00101	3b f4		 cmp	 esi, esp
  00103	e8 00 00 00 00	 call	 __RTC_CheckEsp
  00108	83 f8 01	 cmp	 eax, 1
  0010b	75 01		 jne	 SHORT $LN20@Adjust_man
  0010d	cc		 int	 3
$LN20@Adjust_man:
  0010e	8b f4		 mov	 esi, esp
  00110	6a 00		 push	 0
  00112	68 ac 00 00 00	 push	 172			; 000000acH
  00117	68 00 00 00 00	 push	 OFFSET ??_C@_1NA@MJBOBEJL@?$AAC?$AA?3?$AA?2?$AAP?$AAr?$AAo?$AAg?$AAr?$AAa?$AAm?$AA?5?$AAF?$AAi?$AAl?$AAe@
  0011c	68 00 00 00 00	 push	 OFFSET ??_C@_1EK@NIFDJFDG@?$AAs?$AAt?$AAd?$AA?3?$AA?3?$AA_?$AAA?$AAd?$AAj?$AAu?$AAs?$AAt?$AA_?$AAm?$AAa@
  00121	68 00 00 00 00	 push	 OFFSET ??_C@_1CG@JNLFBNGN@?$AA?$CC?$AAi?$AAn?$AAv?$AAa?$AAl?$AAi?$AAd?$AA?5?$AAa?$AAr?$AAg?$AAu?$AAm?$AAe@
  00126	ff 15 00 00 00
	00		 call	 DWORD PTR __imp___invalid_parameter
  0012c	83 c4 14	 add	 esp, 20			; 00000014H
  0012f	3b f4		 cmp	 esi, esp
  00131	e8 00 00 00 00	 call	 __RTC_CheckEsp
  00136	33 c0		 xor	 eax, eax
  00138	75 a4		 jne	 SHORT $LN13@Adjust_man
$LN8@Adjust_man:
  0013a	33 c9		 xor	 ecx, ecx
  0013c	75 92		 jne	 SHORT $LN10@Adjust_man

; 173  :     _Ptr = reinterpret_cast<void*>(_Ptr_container);

  0013e	8b 55 08	 mov	 edx, DWORD PTR __Ptr$[ebp]
  00141	8b 45 f8	 mov	 eax, DWORD PTR __Ptr_container$[ebp]
  00144	89 02		 mov	 DWORD PTR [edx], eax

; 174  : }

  00146	5e		 pop	 esi
  00147	83 c4 10	 add	 esp, 16			; 00000010H
  0014a	3b ec		 cmp	 ebp, esp
  0014c	e8 00 00 00 00	 call	 __RTC_CheckEsp
  00151	8b e5		 mov	 esp, ebp
  00153	5d		 pop	 ebp
  00154	c3		 ret	 0
?_Adjust_manually_vector_aligned@std@@YAXAAPAXAAI@Z ENDP ; std::_Adjust_manually_vector_aligned
_TEXT	ENDS
; Function compile flags: /Odtp /RTCsu
; File C:\Program Files (x86)\Microsoft Visual Studio\2019\Community\VC\Tools\MSVC\14.29.30133\include\xmemory
;	COMDAT ?_Allocate@_Default_allocate_traits@std@@SAPAXI@Z
_TEXT	SEGMENT
__Bytes$ = 8						; size = 4
?_Allocate@_Default_allocate_traits@std@@SAPAXI@Z PROC	; std::_Default_allocate_traits::_Allocate, COMDAT

; 84   :         void* _Allocate(const size_t _Bytes) {

  00000	55		 push	 ebp
  00001	8b ec		 mov	 ebp, esp
  00003	b9 00 00 00 00	 mov	 ecx, OFFSET __79D216CD_xmemory
  00008	e8 00 00 00 00	 call	 @__CheckForDebuggerJustMyCode@4

; 85   :         return ::operator new(_Bytes);

  0000d	8b 45 08	 mov	 eax, DWORD PTR __Bytes$[ebp]
  00010	50		 push	 eax
  00011	e8 00 00 00 00	 call	 ??2@YAPAXI@Z		; operator new
  00016	83 c4 04	 add	 esp, 4

; 86   :     }

  00019	3b ec		 cmp	 ebp, esp
  0001b	e8 00 00 00 00	 call	 __RTC_CheckEsp
  00020	5d		 pop	 ebp
  00021	c3		 ret	 0
?_Allocate@_Default_allocate_traits@std@@SAPAXI@Z ENDP	; std::_Default_allocate_traits::_Allocate
_TEXT	ENDS
; Function compile flags: /Odtp /RTCsu
; File C:\Program Files (x86)\Microsoft Visual Studio\2019\Community\VC\Tools\MSVC\14.29.30133\include\exception
;	COMDAT ?_Throw_bad_array_new_length@std@@YAXXZ
_TEXT	SEGMENT
$T1 = -12						; size = 12
?_Throw_bad_array_new_length@std@@YAXXZ PROC		; std::_Throw_bad_array_new_length, COMDAT

; 320  : [[noreturn]] inline void _Throw_bad_array_new_length() {

  00000	55		 push	 ebp
  00001	8b ec		 mov	 ebp, esp
  00003	83 ec 0c	 sub	 esp, 12			; 0000000cH
  00006	c7 45 f4 cc cc
	cc cc		 mov	 DWORD PTR [ebp-12], -858993460 ; ccccccccH
  0000d	c7 45 f8 cc cc
	cc cc		 mov	 DWORD PTR [ebp-8], -858993460 ; ccccccccH
  00014	c7 45 fc cc cc
	cc cc		 mov	 DWORD PTR [ebp-4], -858993460 ; ccccccccH
  0001b	b9 00 00 00 00	 mov	 ecx, OFFSET __FF458F76_exception
  00020	e8 00 00 00 00	 call	 @__CheckForDebuggerJustMyCode@4

; 321  :     _THROW(bad_array_new_length{});

  00025	8d 4d f4	 lea	 ecx, DWORD PTR $T1[ebp]
  00028	e8 00 00 00 00	 call	 ??0bad_array_new_length@std@@QAE@XZ ; std::bad_array_new_length::bad_array_new_length
  0002d	68 00 00 00 00	 push	 OFFSET __TI3?AVbad_array_new_length@std@@
  00032	8d 45 f4	 lea	 eax, DWORD PTR $T1[ebp]
  00035	50		 push	 eax
  00036	e8 00 00 00 00	 call	 __CxxThrowException@8
$LN2@Throw_bad_:

; 322  : }

  0003b	83 c4 0c	 add	 esp, 12			; 0000000cH
  0003e	3b ec		 cmp	 ebp, esp
  00040	e8 00 00 00 00	 call	 __RTC_CheckEsp
  00045	8b e5		 mov	 esp, ebp
  00047	5d		 pop	 ebp
  00048	c3		 ret	 0
?_Throw_bad_array_new_length@std@@YAXXZ ENDP		; std::_Throw_bad_array_new_length
_TEXT	ENDS
; Function compile flags: /Odtp /RTCsu
;	COMDAT ??_Gbad_array_new_length@std@@UAEPAXI@Z
_TEXT	SEGMENT
_this$ = -4						; size = 4
___flags$ = 8						; size = 4
??_Gbad_array_new_length@std@@UAEPAXI@Z PROC		; std::bad_array_new_length::`scalar deleting destructor', COMDAT
; _this$ = ecx
  00000	55		 push	 ebp
  00001	8b ec		 mov	 ebp, esp
  00003	51		 push	 ecx
  00004	c7 45 fc cc cc
	cc cc		 mov	 DWORD PTR [ebp-4], -858993460 ; ccccccccH
  0000b	89 4d fc	 mov	 DWORD PTR _this$[ebp], ecx
  0000e	8b 4d fc	 mov	 ecx, DWORD PTR _this$[ebp]
  00011	e8 00 00 00 00	 call	 ??1bad_array_new_length@std@@UAE@XZ
  00016	8b 45 08	 mov	 eax, DWORD PTR ___flags$[ebp]
  00019	83 e0 01	 and	 eax, 1
  0001c	74 0e		 je	 SHORT $LN2@scalar
  0001e	6a 0c		 push	 12			; 0000000cH
  00020	8b 4d fc	 mov	 ecx, DWORD PTR _this$[ebp]
  00023	51		 push	 ecx
  00024	e8 00 00 00 00	 call	 ??3@YAXPAXI@Z		; operator delete
  00029	83 c4 08	 add	 esp, 8
$LN2@scalar:
  0002c	8b 45 fc	 mov	 eax, DWORD PTR _this$[ebp]
  0002f	83 c4 04	 add	 esp, 4
  00032	3b ec		 cmp	 ebp, esp
  00034	e8 00 00 00 00	 call	 __RTC_CheckEsp
  00039	8b e5		 mov	 esp, ebp
  0003b	5d		 pop	 ebp
  0003c	c2 04 00	 ret	 4
??_Gbad_array_new_length@std@@UAEPAXI@Z ENDP		; std::bad_array_new_length::`scalar deleting destructor'
_TEXT	ENDS
; Function compile flags: /Odtp /RTCsu
;	COMDAT ??0bad_array_new_length@std@@QAE@ABV01@@Z
_TEXT	SEGMENT
_this$ = -4						; size = 4
___that$ = 8						; size = 4
??0bad_array_new_length@std@@QAE@ABV01@@Z PROC		; std::bad_array_new_length::bad_array_new_length, COMDAT
; _this$ = ecx
  00000	55		 push	 ebp
  00001	8b ec		 mov	 ebp, esp
  00003	51		 push	 ecx
  00004	c7 45 fc cc cc
	cc cc		 mov	 DWORD PTR [ebp-4], -858993460 ; ccccccccH
  0000b	89 4d fc	 mov	 DWORD PTR _this$[ebp], ecx
  0000e	8b 45 08	 mov	 eax, DWORD PTR ___that$[ebp]
  00011	50		 push	 eax
  00012	8b 4d fc	 mov	 ecx, DWORD PTR _this$[ebp]
  00015	e8 00 00 00 00	 call	 ??0bad_alloc@std@@QAE@ABV01@@Z
  0001a	8b 4d fc	 mov	 ecx, DWORD PTR _this$[ebp]
  0001d	c7 01 00 00 00
	00		 mov	 DWORD PTR [ecx], OFFSET ??_7bad_array_new_length@std@@6B@
  00023	8b 45 fc	 mov	 eax, DWORD PTR _this$[ebp]
  00026	83 c4 04	 add	 esp, 4
  00029	3b ec		 cmp	 ebp, esp
  0002b	e8 00 00 00 00	 call	 __RTC_CheckEsp
  00030	8b e5		 mov	 esp, ebp
  00032	5d		 pop	 ebp
  00033	c2 04 00	 ret	 4
??0bad_array_new_length@std@@QAE@ABV01@@Z ENDP		; std::bad_array_new_length::bad_array_new_length
_TEXT	ENDS
; Function compile flags: /Odtp /RTCsu
;	COMDAT ??1bad_array_new_length@std@@UAE@XZ
_TEXT	SEGMENT
_this$ = -4						; size = 4
??1bad_array_new_length@std@@UAE@XZ PROC		; std::bad_array_new_length::~bad_array_new_length, COMDAT
; _this$ = ecx
  00000	55		 push	 ebp
  00001	8b ec		 mov	 ebp, esp
  00003	51		 push	 ecx
  00004	c7 45 fc cc cc
	cc cc		 mov	 DWORD PTR [ebp-4], -858993460 ; ccccccccH
  0000b	89 4d fc	 mov	 DWORD PTR _this$[ebp], ecx
  0000e	8b 4d fc	 mov	 ecx, DWORD PTR _this$[ebp]
  00011	e8 00 00 00 00	 call	 ??1bad_alloc@std@@UAE@XZ
  00016	83 c4 04	 add	 esp, 4
  00019	3b ec		 cmp	 ebp, esp
  0001b	e8 00 00 00 00	 call	 __RTC_CheckEsp
  00020	8b e5		 mov	 esp, ebp
  00022	5d		 pop	 ebp
  00023	c3		 ret	 0
??1bad_array_new_length@std@@UAE@XZ ENDP		; std::bad_array_new_length::~bad_array_new_length
_TEXT	ENDS
; Function compile flags: /Odtp /RTCsu
; File C:\Program Files (x86)\Microsoft Visual Studio\2019\Community\VC\Tools\MSVC\14.29.30133\include\vcruntime_exception.h
;	COMDAT ??0bad_array_new_length@std@@QAE@XZ
_TEXT	SEGMENT
_this$ = -4						; size = 4
??0bad_array_new_length@std@@QAE@XZ PROC		; std::bad_array_new_length::bad_array_new_length, COMDAT
; _this$ = ecx

; 141  :     {

  00000	55		 push	 ebp
  00001	8b ec		 mov	 ebp, esp
  00003	51		 push	 ecx
  00004	c7 45 fc cc cc
	cc cc		 mov	 DWORD PTR [ebp-4], -858993460 ; ccccccccH
  0000b	89 4d fc	 mov	 DWORD PTR _this$[ebp], ecx
  0000e	b9 00 00 00 00	 mov	 ecx, OFFSET __B0A13A33_vcruntime_exception@h
  00013	e8 00 00 00 00	 call	 @__CheckForDebuggerJustMyCode@4

; 140  :         : bad_alloc("bad array new length")

  00018	68 00 00 00 00	 push	 OFFSET ??_C@_0BF@KINCDENJ@bad?5array?5new?5length@
  0001d	8b 4d fc	 mov	 ecx, DWORD PTR _this$[ebp]
  00020	e8 00 00 00 00	 call	 ??0bad_alloc@std@@AAE@QBD@Z ; std::bad_alloc::bad_alloc

; 141  :     {

  00025	8b 45 fc	 mov	 eax, DWORD PTR _this$[ebp]
  00028	c7 00 00 00 00
	00		 mov	 DWORD PTR [eax], OFFSET ??_7bad_array_new_length@std@@6B@

; 142  :     }

  0002e	8b 45 fc	 mov	 eax, DWORD PTR _this$[ebp]
  00031	83 c4 04	 add	 esp, 4
  00034	3b ec		 cmp	 ebp, esp
  00036	e8 00 00 00 00	 call	 __RTC_CheckEsp
  0003b	8b e5		 mov	 esp, ebp
  0003d	5d		 pop	 ebp
  0003e	c3		 ret	 0
??0bad_array_new_length@std@@QAE@XZ ENDP		; std::bad_array_new_length::bad_array_new_length
_TEXT	ENDS
; Function compile flags: /Odtp /RTCsu
;	COMDAT ??_Gbad_alloc@std@@UAEPAXI@Z
_TEXT	SEGMENT
_this$ = -4						; size = 4
___flags$ = 8						; size = 4
??_Gbad_alloc@std@@UAEPAXI@Z PROC			; std::bad_alloc::`scalar deleting destructor', COMDAT
; _this$ = ecx
  00000	55		 push	 ebp
  00001	8b ec		 mov	 ebp, esp
  00003	51		 push	 ecx
  00004	c7 45 fc cc cc
	cc cc		 mov	 DWORD PTR [ebp-4], -858993460 ; ccccccccH
  0000b	89 4d fc	 mov	 DWORD PTR _this$[ebp], ecx
  0000e	8b 4d fc	 mov	 ecx, DWORD PTR _this$[ebp]
  00011	e8 00 00 00 00	 call	 ??1bad_alloc@std@@UAE@XZ
  00016	8b 45 08	 mov	 eax, DWORD PTR ___flags$[ebp]
  00019	83 e0 01	 and	 eax, 1
  0001c	74 0e		 je	 SHORT $LN2@scalar
  0001e	6a 0c		 push	 12			; 0000000cH
  00020	8b 4d fc	 mov	 ecx, DWORD PTR _this$[ebp]
  00023	51		 push	 ecx
  00024	e8 00 00 00 00	 call	 ??3@YAXPAXI@Z		; operator delete
  00029	83 c4 08	 add	 esp, 8
$LN2@scalar:
  0002c	8b 45 fc	 mov	 eax, DWORD PTR _this$[ebp]
  0002f	83 c4 04	 add	 esp, 4
  00032	3b ec		 cmp	 ebp, esp
  00034	e8 00 00 00 00	 call	 __RTC_CheckEsp
  00039	8b e5		 mov	 esp, ebp
  0003b	5d		 pop	 ebp
  0003c	c2 04 00	 ret	 4
??_Gbad_alloc@std@@UAEPAXI@Z ENDP			; std::bad_alloc::`scalar deleting destructor'
_TEXT	ENDS
; Function compile flags: /Odtp /RTCsu
;	COMDAT ??0bad_alloc@std@@QAE@ABV01@@Z
_TEXT	SEGMENT
_this$ = -4						; size = 4
___that$ = 8						; size = 4
??0bad_alloc@std@@QAE@ABV01@@Z PROC			; std::bad_alloc::bad_alloc, COMDAT
; _this$ = ecx
  00000	55		 push	 ebp
  00001	8b ec		 mov	 ebp, esp
  00003	51		 push	 ecx
  00004	c7 45 fc cc cc
	cc cc		 mov	 DWORD PTR [ebp-4], -858993460 ; ccccccccH
  0000b	89 4d fc	 mov	 DWORD PTR _this$[ebp], ecx
  0000e	8b 45 08	 mov	 eax, DWORD PTR ___that$[ebp]
  00011	50		 push	 eax
  00012	8b 4d fc	 mov	 ecx, DWORD PTR _this$[ebp]
  00015	e8 00 00 00 00	 call	 ??0exception@std@@QAE@ABV01@@Z ; std::exception::exception
  0001a	8b 4d fc	 mov	 ecx, DWORD PTR _this$[ebp]
  0001d	c7 01 00 00 00
	00		 mov	 DWORD PTR [ecx], OFFSET ??_7bad_alloc@std@@6B@
  00023	8b 45 fc	 mov	 eax, DWORD PTR _this$[ebp]
  00026	83 c4 04	 add	 esp, 4
  00029	3b ec		 cmp	 ebp, esp
  0002b	e8 00 00 00 00	 call	 __RTC_CheckEsp
  00030	8b e5		 mov	 esp, ebp
  00032	5d		 pop	 ebp
  00033	c2 04 00	 ret	 4
??0bad_alloc@std@@QAE@ABV01@@Z ENDP			; std::bad_alloc::bad_alloc
_TEXT	ENDS
; Function compile flags: /Odtp /RTCsu
;	COMDAT ??1bad_alloc@std@@UAE@XZ
_TEXT	SEGMENT
_this$ = -4						; size = 4
??1bad_alloc@std@@UAE@XZ PROC				; std::bad_alloc::~bad_alloc, COMDAT
; _this$ = ecx
  00000	55		 push	 ebp
  00001	8b ec		 mov	 ebp, esp
  00003	51		 push	 ecx
  00004	c7 45 fc cc cc
	cc cc		 mov	 DWORD PTR [ebp-4], -858993460 ; ccccccccH
  0000b	89 4d fc	 mov	 DWORD PTR _this$[ebp], ecx
  0000e	8b 4d fc	 mov	 ecx, DWORD PTR _this$[ebp]
  00011	e8 00 00 00 00	 call	 ??1exception@std@@UAE@XZ ; std::exception::~exception
  00016	83 c4 04	 add	 esp, 4
  00019	3b ec		 cmp	 ebp, esp
  0001b	e8 00 00 00 00	 call	 __RTC_CheckEsp
  00020	8b e5		 mov	 esp, ebp
  00022	5d		 pop	 ebp
  00023	c3		 ret	 0
??1bad_alloc@std@@UAE@XZ ENDP				; std::bad_alloc::~bad_alloc
_TEXT	ENDS
; Function compile flags: /Odtp /RTCsu
; File C:\Program Files (x86)\Microsoft Visual Studio\2019\Community\VC\Tools\MSVC\14.29.30133\include\vcruntime_exception.h
;	COMDAT ??0bad_alloc@std@@AAE@QBD@Z
_TEXT	SEGMENT
_this$ = -4						; size = 4
__Message$ = 8						; size = 4
??0bad_alloc@std@@AAE@QBD@Z PROC			; std::bad_alloc::bad_alloc, COMDAT
; _this$ = ecx

; 130  :     {

  00000	55		 push	 ebp
  00001	8b ec		 mov	 ebp, esp
  00003	51		 push	 ecx
  00004	c7 45 fc cc cc
	cc cc		 mov	 DWORD PTR [ebp-4], -858993460 ; ccccccccH
  0000b	89 4d fc	 mov	 DWORD PTR _this$[ebp], ecx
  0000e	b9 00 00 00 00	 mov	 ecx, OFFSET __B0A13A33_vcruntime_exception@h
  00013	e8 00 00 00 00	 call	 @__CheckForDebuggerJustMyCode@4

; 129  :         : exception(_Message, 1)

  00018	6a 01		 push	 1
  0001a	8b 45 08	 mov	 eax, DWORD PTR __Message$[ebp]
  0001d	50		 push	 eax
  0001e	8b 4d fc	 mov	 ecx, DWORD PTR _this$[ebp]
  00021	e8 00 00 00 00	 call	 ??0exception@std@@QAE@QBDH@Z ; std::exception::exception

; 130  :     {

  00026	8b 4d fc	 mov	 ecx, DWORD PTR _this$[ebp]
  00029	c7 01 00 00 00
	00		 mov	 DWORD PTR [ecx], OFFSET ??_7bad_alloc@std@@6B@

; 131  :     }

  0002f	8b 45 fc	 mov	 eax, DWORD PTR _this$[ebp]
  00032	83 c4 04	 add	 esp, 4
  00035	3b ec		 cmp	 ebp, esp
  00037	e8 00 00 00 00	 call	 __RTC_CheckEsp
  0003c	8b e5		 mov	 esp, ebp
  0003e	5d		 pop	 ebp
  0003f	c2 04 00	 ret	 4
??0bad_alloc@std@@AAE@QBD@Z ENDP			; std::bad_alloc::bad_alloc
_TEXT	ENDS
; Function compile flags: /Odtp /RTCsu
;	COMDAT ??_Gexception@std@@UAEPAXI@Z
_TEXT	SEGMENT
_this$ = -4						; size = 4
___flags$ = 8						; size = 4
??_Gexception@std@@UAEPAXI@Z PROC			; std::exception::`scalar deleting destructor', COMDAT
; _this$ = ecx
  00000	55		 push	 ebp
  00001	8b ec		 mov	 ebp, esp
  00003	51		 push	 ecx
  00004	c7 45 fc cc cc
	cc cc		 mov	 DWORD PTR [ebp-4], -858993460 ; ccccccccH
  0000b	89 4d fc	 mov	 DWORD PTR _this$[ebp], ecx
  0000e	8b 4d fc	 mov	 ecx, DWORD PTR _this$[ebp]
  00011	e8 00 00 00 00	 call	 ??1exception@std@@UAE@XZ ; std::exception::~exception
  00016	8b 45 08	 mov	 eax, DWORD PTR ___flags$[ebp]
  00019	83 e0 01	 and	 eax, 1
  0001c	74 0e		 je	 SHORT $LN2@scalar
  0001e	6a 0c		 push	 12			; 0000000cH
  00020	8b 4d fc	 mov	 ecx, DWORD PTR _this$[ebp]
  00023	51		 push	 ecx
  00024	e8 00 00 00 00	 call	 ??3@YAXPAXI@Z		; operator delete
  00029	83 c4 08	 add	 esp, 8
$LN2@scalar:
  0002c	8b 45 fc	 mov	 eax, DWORD PTR _this$[ebp]
  0002f	83 c4 04	 add	 esp, 4
  00032	3b ec		 cmp	 ebp, esp
  00034	e8 00 00 00 00	 call	 __RTC_CheckEsp
  00039	8b e5		 mov	 esp, ebp
  0003b	5d		 pop	 ebp
  0003c	c2 04 00	 ret	 4
??_Gexception@std@@UAEPAXI@Z ENDP			; std::exception::`scalar deleting destructor'
_TEXT	ENDS
; Function compile flags: /Odtp /RTCsu
; File C:\Program Files (x86)\Microsoft Visual Studio\2019\Community\VC\Tools\MSVC\14.29.30133\include\vcruntime_exception.h
;	COMDAT ?what@exception@std@@UBEPBDXZ
_TEXT	SEGMENT
tv69 = -8						; size = 4
_this$ = -4						; size = 4
?what@exception@std@@UBEPBDXZ PROC			; std::exception::what, COMDAT
; _this$ = ecx

; 94   :     {

  00000	55		 push	 ebp
  00001	8b ec		 mov	 ebp, esp
  00003	83 ec 08	 sub	 esp, 8
  00006	c7 45 f8 cc cc
	cc cc		 mov	 DWORD PTR [ebp-8], -858993460 ; ccccccccH
  0000d	c7 45 fc cc cc
	cc cc		 mov	 DWORD PTR [ebp-4], -858993460 ; ccccccccH
  00014	89 4d fc	 mov	 DWORD PTR _this$[ebp], ecx
  00017	b9 00 00 00 00	 mov	 ecx, OFFSET __B0A13A33_vcruntime_exception@h
  0001c	e8 00 00 00 00	 call	 @__CheckForDebuggerJustMyCode@4

; 95   :         return _Data._What ? _Data._What : "Unknown exception";

  00021	8b 45 fc	 mov	 eax, DWORD PTR _this$[ebp]
  00024	83 78 04 00	 cmp	 DWORD PTR [eax+4], 0
  00028	74 0b		 je	 SHORT $LN3@what
  0002a	8b 4d fc	 mov	 ecx, DWORD PTR _this$[ebp]
  0002d	8b 51 04	 mov	 edx, DWORD PTR [ecx+4]
  00030	89 55 f8	 mov	 DWORD PTR tv69[ebp], edx
  00033	eb 07		 jmp	 SHORT $LN4@what
$LN3@what:
  00035	c7 45 f8 00 00
	00 00		 mov	 DWORD PTR tv69[ebp], OFFSET ??_C@_0BC@EOODALEL@Unknown?5exception@
$LN4@what:
  0003c	8b 45 f8	 mov	 eax, DWORD PTR tv69[ebp]

; 96   :     }

  0003f	83 c4 08	 add	 esp, 8
  00042	3b ec		 cmp	 ebp, esp
  00044	e8 00 00 00 00	 call	 __RTC_CheckEsp
  00049	8b e5		 mov	 esp, ebp
  0004b	5d		 pop	 ebp
  0004c	c3		 ret	 0
?what@exception@std@@UBEPBDXZ ENDP			; std::exception::what
_TEXT	ENDS
; Function compile flags: /Odtp /RTCsu
; File C:\Program Files (x86)\Microsoft Visual Studio\2019\Community\VC\Tools\MSVC\14.29.30133\include\vcruntime_exception.h
;	COMDAT ??1exception@std@@UAE@XZ
_TEXT	SEGMENT
_this$ = -4						; size = 4
??1exception@std@@UAE@XZ PROC				; std::exception::~exception, COMDAT
; _this$ = ecx

; 89   :     {

  00000	55		 push	 ebp
  00001	8b ec		 mov	 ebp, esp
  00003	51		 push	 ecx
  00004	c7 45 fc cc cc
	cc cc		 mov	 DWORD PTR [ebp-4], -858993460 ; ccccccccH
  0000b	89 4d fc	 mov	 DWORD PTR _this$[ebp], ecx
  0000e	b9 00 00 00 00	 mov	 ecx, OFFSET __B0A13A33_vcruntime_exception@h
  00013	e8 00 00 00 00	 call	 @__CheckForDebuggerJustMyCode@4
  00018	8b 45 fc	 mov	 eax, DWORD PTR _this$[ebp]
  0001b	c7 00 00 00 00
	00		 mov	 DWORD PTR [eax], OFFSET ??_7exception@std@@6B@

; 90   :         __std_exception_destroy(&_Data);

  00021	8b 4d fc	 mov	 ecx, DWORD PTR _this$[ebp]
  00024	83 c1 04	 add	 ecx, 4
  00027	51		 push	 ecx
  00028	e8 00 00 00 00	 call	 ___std_exception_destroy
  0002d	83 c4 04	 add	 esp, 4

; 91   :     }

  00030	83 c4 04	 add	 esp, 4
  00033	3b ec		 cmp	 ebp, esp
  00035	e8 00 00 00 00	 call	 __RTC_CheckEsp
  0003a	8b e5		 mov	 esp, ebp
  0003c	5d		 pop	 ebp
  0003d	c3		 ret	 0
??1exception@std@@UAE@XZ ENDP				; std::exception::~exception
_TEXT	ENDS
; Function compile flags: /Odtp /RTCsu
; File C:\Program Files (x86)\Microsoft Visual Studio\2019\Community\VC\Tools\MSVC\14.29.30133\include\vcruntime_exception.h
;	COMDAT ??0exception@std@@QAE@ABV01@@Z
_TEXT	SEGMENT
_this$ = -4						; size = 4
__Other$ = 8						; size = 4
??0exception@std@@QAE@ABV01@@Z PROC			; std::exception::exception, COMDAT
; _this$ = ecx

; 72   :     {

  00000	55		 push	 ebp
  00001	8b ec		 mov	 ebp, esp
  00003	51		 push	 ecx
  00004	c7 45 fc cc cc
	cc cc		 mov	 DWORD PTR [ebp-4], -858993460 ; ccccccccH
  0000b	89 4d fc	 mov	 DWORD PTR _this$[ebp], ecx
  0000e	b9 00 00 00 00	 mov	 ecx, OFFSET __B0A13A33_vcruntime_exception@h
  00013	e8 00 00 00 00	 call	 @__CheckForDebuggerJustMyCode@4
  00018	8b 45 fc	 mov	 eax, DWORD PTR _this$[ebp]
  0001b	c7 00 00 00 00
	00		 mov	 DWORD PTR [eax], OFFSET ??_7exception@std@@6B@

; 71   :         : _Data()

  00021	33 c9		 xor	 ecx, ecx
  00023	8b 55 fc	 mov	 edx, DWORD PTR _this$[ebp]
  00026	83 c2 04	 add	 edx, 4
  00029	89 0a		 mov	 DWORD PTR [edx], ecx
  0002b	89 4a 04	 mov	 DWORD PTR [edx+4], ecx

; 73   :         __std_exception_copy(&_Other._Data, &_Data);

  0002e	8b 45 fc	 mov	 eax, DWORD PTR _this$[ebp]
  00031	83 c0 04	 add	 eax, 4
  00034	50		 push	 eax
  00035	8b 4d 08	 mov	 ecx, DWORD PTR __Other$[ebp]
  00038	83 c1 04	 add	 ecx, 4
  0003b	51		 push	 ecx
  0003c	e8 00 00 00 00	 call	 ___std_exception_copy
  00041	83 c4 08	 add	 esp, 8

; 74   :     }

  00044	8b 45 fc	 mov	 eax, DWORD PTR _this$[ebp]
  00047	83 c4 04	 add	 esp, 4
  0004a	3b ec		 cmp	 ebp, esp
  0004c	e8 00 00 00 00	 call	 __RTC_CheckEsp
  00051	8b e5		 mov	 esp, ebp
  00053	5d		 pop	 ebp
  00054	c2 04 00	 ret	 4
??0exception@std@@QAE@ABV01@@Z ENDP			; std::exception::exception
_TEXT	ENDS
; Function compile flags: /Odtp /RTCsu
; File C:\Program Files (x86)\Microsoft Visual Studio\2019\Community\VC\Tools\MSVC\14.29.30133\include\vcruntime_exception.h
;	COMDAT ??0exception@std@@QAE@QBDH@Z
_TEXT	SEGMENT
_this$ = -4						; size = 4
__Message$ = 8						; size = 4
___formal$ = 12						; size = 4
??0exception@std@@QAE@QBDH@Z PROC			; std::exception::exception, COMDAT
; _this$ = ecx

; 66   :     {

  00000	55		 push	 ebp
  00001	8b ec		 mov	 ebp, esp
  00003	51		 push	 ecx
  00004	c7 45 fc cc cc
	cc cc		 mov	 DWORD PTR [ebp-4], -858993460 ; ccccccccH
  0000b	89 4d fc	 mov	 DWORD PTR _this$[ebp], ecx
  0000e	b9 00 00 00 00	 mov	 ecx, OFFSET __B0A13A33_vcruntime_exception@h
  00013	e8 00 00 00 00	 call	 @__CheckForDebuggerJustMyCode@4
  00018	8b 45 fc	 mov	 eax, DWORD PTR _this$[ebp]
  0001b	c7 00 00 00 00
	00		 mov	 DWORD PTR [eax], OFFSET ??_7exception@std@@6B@

; 65   :         : _Data()

  00021	33 c9		 xor	 ecx, ecx
  00023	8b 55 fc	 mov	 edx, DWORD PTR _this$[ebp]
  00026	83 c2 04	 add	 edx, 4
  00029	89 0a		 mov	 DWORD PTR [edx], ecx
  0002b	89 4a 04	 mov	 DWORD PTR [edx+4], ecx

; 67   :         _Data._What = _Message;

  0002e	8b 45 fc	 mov	 eax, DWORD PTR _this$[ebp]
  00031	8b 4d 08	 mov	 ecx, DWORD PTR __Message$[ebp]
  00034	89 48 04	 mov	 DWORD PTR [eax+4], ecx

; 68   :     }

  00037	8b 45 fc	 mov	 eax, DWORD PTR _this$[ebp]
  0003a	83 c4 04	 add	 esp, 4
  0003d	3b ec		 cmp	 ebp, esp
  0003f	e8 00 00 00 00	 call	 __RTC_CheckEsp
  00044	8b e5		 mov	 esp, ebp
  00046	5d		 pop	 ebp
  00047	c2 08 00	 ret	 8
??0exception@std@@QAE@QBDH@Z ENDP			; std::exception::exception
_TEXT	ENDS
; Function compile flags: /Odtp /RTCsu
; File C:\Program Files (x86)\Microsoft Visual Studio\2019\Community\VC\Tools\MSVC\14.29.30133\include\limits
;	COMDAT ?max@?$numeric_limits@H@std@@SAHXZ
_TEXT	SEGMENT
?max@?$numeric_limits@H@std@@SAHXZ PROC			; std::numeric_limits<int>::max, COMDAT

; 556  :     _NODISCARD static constexpr int(max)() noexcept {

  00000	55		 push	 ebp
  00001	8b ec		 mov	 ebp, esp
  00003	b9 00 00 00 00	 mov	 ecx, OFFSET __7FE5F402_limits
  00008	e8 00 00 00 00	 call	 @__CheckForDebuggerJustMyCode@4

; 557  :         return INT_MAX;

  0000d	b8 ff ff ff 7f	 mov	 eax, 2147483647		; 7fffffffH

; 558  :     }

  00012	3b ec		 cmp	 ebp, esp
  00014	e8 00 00 00 00	 call	 __RTC_CheckEsp
  00019	5d		 pop	 ebp
  0001a	c3		 ret	 0
?max@?$numeric_limits@H@std@@SAHXZ ENDP			; std::numeric_limits<int>::max
_TEXT	ENDS
; Function compile flags: /Odtp /RTCsu
; File C:\Program Files (x86)\Windows Kits\10\Include\10.0.19041.0\ucrt\wchar.h
;	COMDAT _wmemcpy
_TEXT	SEGMENT
__S1$ = 8						; size = 4
__S2$ = 12						; size = 4
__N$ = 16						; size = 4
_wmemcpy PROC						; COMDAT

; 234  :     {

  00000	55		 push	 ebp
  00001	8b ec		 mov	 ebp, esp
  00003	b9 00 00 00 00	 mov	 ecx, OFFSET __93DC0B45_wchar@h
  00008	e8 00 00 00 00	 call	 @__CheckForDebuggerJustMyCode@4

; 235  :         #pragma warning(suppress: 6386) // Buffer overrun
; 236  :         return (wchar_t*)memcpy(_S1, _S2, _N*sizeof(wchar_t));

  0000d	8b 45 10	 mov	 eax, DWORD PTR __N$[ebp]
  00010	d1 e0		 shl	 eax, 1
  00012	50		 push	 eax
  00013	8b 4d 0c	 mov	 ecx, DWORD PTR __S2$[ebp]
  00016	51		 push	 ecx
  00017	8b 55 08	 mov	 edx, DWORD PTR __S1$[ebp]
  0001a	52		 push	 edx
  0001b	e8 00 00 00 00	 call	 _memcpy
  00020	83 c4 0c	 add	 esp, 12			; 0000000cH

; 237  :     }

  00023	3b ec		 cmp	 ebp, esp
  00025	e8 00 00 00 00	 call	 __RTC_CheckEsp
  0002a	5d		 pop	 ebp
  0002b	c3		 ret	 0
_wmemcpy ENDP
_TEXT	ENDS
; Function compile flags: /Odtp /RTCsu
; File C:\Program Files (x86)\Microsoft Visual Studio\2019\Community\VC\Tools\MSVC\14.29.30133\include\xtr1common
;	COMDAT ?is_constant_evaluated@std@@YA_NXZ
_TEXT	SEGMENT
?is_constant_evaluated@std@@YA_NXZ PROC			; std::is_constant_evaluated, COMDAT

; 180  : _NODISCARD constexpr bool is_constant_evaluated() noexcept {

  00000	55		 push	 ebp
  00001	8b ec		 mov	 ebp, esp
  00003	b9 00 00 00 00	 mov	 ecx, OFFSET __47F37C5A_xtr1common
  00008	e8 00 00 00 00	 call	 @__CheckForDebuggerJustMyCode@4

; 181  :     return __builtin_is_constant_evaluated();

  0000d	32 c0		 xor	 al, al

; 182  : }

  0000f	3b ec		 cmp	 ebp, esp
  00011	e8 00 00 00 00	 call	 __RTC_CheckEsp
  00016	5d		 pop	 ebp
  00017	c3		 ret	 0
?is_constant_evaluated@std@@YA_NXZ ENDP			; std::is_constant_evaluated
_TEXT	ENDS
; Function compile flags: /Odtp /RTCsu
; File C:\Program Files (x86)\Microsoft Visual Studio\2019\Community\VC\Tools\MSVC\14.29.30133\include\vcruntime_new.h
;	COMDAT ??2@YAPAXIPAX@Z
_TEXT	SEGMENT
__Size$ = 8						; size = 4
__Where$ = 12						; size = 4
??2@YAPAXIPAX@Z PROC					; operator new, COMDAT

; 167  :     {

  00000	55		 push	 ebp
  00001	8b ec		 mov	 ebp, esp
  00003	b9 00 00 00 00	 mov	 ecx, OFFSET __97D3638F_vcruntime_new@h
  00008	e8 00 00 00 00	 call	 @__CheckForDebuggerJustMyCode@4

; 168  :         (void)_Size;
; 169  :         return _Where;

  0000d	8b 45 0c	 mov	 eax, DWORD PTR __Where$[ebp]

; 170  :     }

  00010	3b ec		 cmp	 ebp, esp
  00012	e8 00 00 00 00	 call	 __RTC_CheckEsp
  00017	5d		 pop	 ebp
  00018	c3		 ret	 0
??2@YAPAXIPAX@Z ENDP					; operator new
_TEXT	ENDS
; Function compile flags: /Odtp /RTCsu
; File C:\Users\theob\Documents\GitHub\as-pts1\travail\ProjetTutore1\Element.cpp
;	COMDAT ?__empty_global_delete@@YAXPAXIW4align_val_t@std@@@Z
_TEXT	SEGMENT
___formal$ = 8						; size = 4
___formal$ = 12						; size = 4
___formal$ = 16						; size = 4
?__empty_global_delete@@YAXPAXIW4align_val_t@std@@@Z PROC ; __empty_global_delete, COMDAT

  00000	55		 push	 ebp
  00001	8b ec		 mov	 ebp, esp
  00003	b9 00 00 00 00	 mov	 ecx, OFFSET __DF7BE9E9_Element@cpp
  00008	e8 00 00 00 00	 call	 @__CheckForDebuggerJustMyCode@4
  0000d	3b ec		 cmp	 ebp, esp
  0000f	e8 00 00 00 00	 call	 __RTC_CheckEsp
  00014	5d		 pop	 ebp
  00015	c3		 ret	 0
?__empty_global_delete@@YAXPAXIW4align_val_t@std@@@Z ENDP ; __empty_global_delete
_TEXT	ENDS
; Function compile flags: /Odtp /RTCsu
; File C:\Users\theob\Documents\GitHub\as-pts1\travail\ProjetTutore1\Element.cpp
;	COMDAT ?__empty_global_delete@@YAXPAXW4align_val_t@std@@@Z
_TEXT	SEGMENT
___formal$ = 8						; size = 4
___formal$ = 12						; size = 4
?__empty_global_delete@@YAXPAXW4align_val_t@std@@@Z PROC ; __empty_global_delete, COMDAT

  00000	55		 push	 ebp
  00001	8b ec		 mov	 ebp, esp
  00003	b9 00 00 00 00	 mov	 ecx, OFFSET __DF7BE9E9_Element@cpp
  00008	e8 00 00 00 00	 call	 @__CheckForDebuggerJustMyCode@4
  0000d	3b ec		 cmp	 ebp, esp
  0000f	e8 00 00 00 00	 call	 __RTC_CheckEsp
  00014	5d		 pop	 ebp
  00015	c3		 ret	 0
?__empty_global_delete@@YAXPAXW4align_val_t@std@@@Z ENDP ; __empty_global_delete
_TEXT	ENDS
; Function compile flags: /Odtp /RTCsu
; File C:\Users\theob\Documents\GitHub\as-pts1\travail\ProjetTutore1\Element.cpp
;	COMDAT ?__empty_global_delete@@YAXPAXI@Z
_TEXT	SEGMENT
___formal$ = 8						; size = 4
___formal$ = 12						; size = 4
?__empty_global_delete@@YAXPAXI@Z PROC			; __empty_global_delete, COMDAT

  00000	55		 push	 ebp
  00001	8b ec		 mov	 ebp, esp
  00003	b9 00 00 00 00	 mov	 ecx, OFFSET __DF7BE9E9_Element@cpp
  00008	e8 00 00 00 00	 call	 @__CheckForDebuggerJustMyCode@4
  0000d	3b ec		 cmp	 ebp, esp
  0000f	e8 00 00 00 00	 call	 __RTC_CheckEsp
  00014	5d		 pop	 ebp
  00015	c3		 ret	 0
?__empty_global_delete@@YAXPAXI@Z ENDP			; __empty_global_delete
_TEXT	ENDS
; Function compile flags: /Odtp /RTCsu
; File C:\Users\theob\Documents\GitHub\as-pts1\travail\ProjetTutore1\Element.cpp
;	COMDAT ?__empty_global_delete@@YAXPAX@Z
_TEXT	SEGMENT
___formal$ = 8						; size = 4
?__empty_global_delete@@YAXPAX@Z PROC			; __empty_global_delete, COMDAT

  00000	55		 push	 ebp
  00001	8b ec		 mov	 ebp, esp
  00003	b9 00 00 00 00	 mov	 ecx, OFFSET __DF7BE9E9_Element@cpp
  00008	e8 00 00 00 00	 call	 @__CheckForDebuggerJustMyCode@4
  0000d	3b ec		 cmp	 ebp, esp
  0000f	e8 00 00 00 00	 call	 __RTC_CheckEsp
  00014	5d		 pop	 ebp
  00015	c3		 ret	 0
?__empty_global_delete@@YAXPAX@Z ENDP			; __empty_global_delete
_TEXT	ENDS
END
