; Listing generated by Microsoft (R) Optimizing Compiler Version 19.29.30137.0 

	TITLE	C:\Users\theob\Documents\GitHub\as-pts1\rendu2\Debug\Player.obj
	.686P
	.XMM
	include listing.inc
	.model	flat

INCLUDELIB MSVCRTD
INCLUDELIB OLDNAMES

msvcjmc	SEGMENT
__A2143F22_corecrt_stdio_config@h DB 01H
__829E1958_corecrt_wstdio@h DB 01H
__6DFAE8B8_stdio@h DB 01H
__1FEB9909_corecrt_memcpy_s@h DB 01H
__C6E16F6F_corecrt_wconio@h DB 01H
__6D390390_corecrt_wio@h DB 01H
__9200769A_corecrt_wstring@h DB 01H
__1157D6BA_corecrt_wtime@h DB 01H
__1DC1E279_stat@h DB 01H
__93DC0B45_wchar@h DB 01H
__47F37C5A_xtr1common DB 01H
__81812A28_cstddef DB 01H
__741AE07E_corecrt_math@h DB 01H
__B49664B7_stdlib@h DB 01H
__244AF085_cstdlib DB 01H
__7FE5F402_limits DB 01H
__589FA321_type_traits DB 01H
__97D3638F_vcruntime_new@h DB 01H
__DD5FCA34_compare DB 01H
__A751F051_corecrt_memory@h DB 01H
__32E5F013_string@h DB 01H
__12269DE6_xutility DB 01H
__C69F69CF_tuple DB 01H
__20BB4341_malloc@h DB 01H
__B0A13A33_vcruntime_exception@h DB 01H
__FF458F76_exception DB 01H
__79D216CD_xmemory DB 01H
__374A57BA_xpolymorphic_allocator@h DB 01H
__60BC708E_cmath DB 01H
__0D019051_xstring DB 01H
__760BB52B_stdexcept DB 01H
__A4685E82_xcall_once@h DB 01H
__A0B61CF9_time@h DB 01H
__DDB379A0_xthreads@h DB 01H
__14D0A8C0_atomic DB 01H
__1B354CA2_system_error DB 01H
__65ADBEC9_vcruntime_typeinfo@h DB 01H
__62F96EFF_typeinfo DB 01H
__C34BF88C_memory DB 01H
__EF0EAF83_xfacet DB 01H
__B2D2BA86_ctype@h DB 01H
__7D708D37_xlocinfo DB 01H
__D23FE460_xlocale DB 01H
__4495FA24_xiosbase DB 01H
__4CB88277_xlocnum DB 01H
__845859A3_ios DB 01H
__B2A9EE53_InputStream@hpp DB 01H
__62DD75E3_NonCopyable@hpp DB 01H
__B7987E10_string DB 01H
__1589CDA2_algorithm DB 01H
__FE33131C_xlocmes DB 01H
__67DA974F_xlocmon DB 01H
__D96D2425_xloctime DB 01H
__FC4CDF9C_Thread@inl DB 01H
__3C1C7D88_ContextSettings@hpp DB 01H
__8D991C03_Drawable@hpp DB 01H
__896EE8A8_Glyph@hpp DB 01H
__69958C8C_xtree DB 01H
__E3A1A8C3_Font@hpp DB 01H
__5808F286_Player@h DB 01H
__B4613F23_Sprite@hpp DB 01H
__324884E2_vector DB 01H
__4D0513DE_Player@cpp DB 01H
__68A60A21_locale DB 01H
__C12F3EA4_ostream DB 01H
__74AB0D97_streambuf DB 01H
__038A2AA6_iterator DB 01H
__B30C2184_iosfwd DB 01H
__1347750E_utility DB 01H
__E458E21C_xstddef DB 01H
__0A631FEE_Vector2@inl DB 01H
__CBE11649_Vector2@hpp DB 01H
__C23CD225_Rect@inl DB 01H
__03BEDB82_Rect@hpp DB 01H
__F54903A0_xatomic@h DB 01H
msvcjmc	ENDS
CONST	SEGMENT
$SG92591 DB	'invalid argument', 00H
	ORG $+3
$SG92592 DB	'%s', 00H
	ORG $+1
$SG92593 DB	'C:\Program Files (x86)\Microsoft Visual Studio\2019\Comm'
	DB	'unity\VC\Tools\MSVC\14.29.30133\include\xmemory', 00H
$SG92594 DB	'C', 00H, ':', 00H, '\', 00H, 'P', 00H, 'r', 00H, 'o', 00H
	DB	'g', 00H, 'r', 00H, 'a', 00H, 'm', 00H, ' ', 00H, 'F', 00H, 'i'
	DB	00H, 'l', 00H, 'e', 00H, 's', 00H, ' ', 00H, '(', 00H, 'x', 00H
	DB	'8', 00H, '6', 00H, ')', 00H, '\', 00H, 'M', 00H, 'i', 00H, 'c'
	DB	00H, 'r', 00H, 'o', 00H, 's', 00H, 'o', 00H, 'f', 00H, 't', 00H
	DB	' ', 00H, 'V', 00H, 'i', 00H, 's', 00H, 'u', 00H, 'a', 00H, 'l'
	DB	00H, ' ', 00H, 'S', 00H, 't', 00H, 'u', 00H, 'd', 00H, 'i', 00H
	DB	'o', 00H, '\', 00H, '2', 00H, '0', 00H, '1', 00H, '9', 00H, '\'
	DB	00H, 'C', 00H, 'o', 00H, 'm', 00H, 'm', 00H, 'u', 00H, 'n', 00H
	DB	'i', 00H, 't', 00H, 'y', 00H, '\', 00H, 'V', 00H, 'C', 00H, '\'
	DB	00H, 'T', 00H, 'o', 00H, 'o', 00H, 'l', 00H, 's', 00H, '\', 00H
	DB	'M', 00H, 'S', 00H, 'V', 00H, 'C', 00H, '\', 00H, '1', 00H, '4'
	DB	00H, '.', 00H, '2', 00H, '9', 00H, '.', 00H, '3', 00H, '0', 00H
	DB	'1', 00H, '3', 00H, '3', 00H, '\', 00H, 'i', 00H, 'n', 00H, 'c'
	DB	00H, 'l', 00H, 'u', 00H, 'd', 00H, 'e', 00H, '\', 00H, 'x', 00H
	DB	'm', 00H, 'e', 00H, 'm', 00H, 'o', 00H, 'r', 00H, 'y', 00H, 00H
	DB	00H
$SG92595 DB	's', 00H, 't', 00H, 'd', 00H, ':', 00H, ':', 00H, '_', 00H
	DB	'A', 00H, 'l', 00H, 'l', 00H, 'o', 00H, 'c', 00H, 'a', 00H, 't'
	DB	00H, 'e', 00H, '_', 00H, 'm', 00H, 'a', 00H, 'n', 00H, 'u', 00H
	DB	'a', 00H, 'l', 00H, 'l', 00H, 'y', 00H, '_', 00H, 'v', 00H, 'e'
	DB	00H, 'c', 00H, 't', 00H, 'o', 00H, 'r', 00H, '_', 00H, 'a', 00H
	DB	'l', 00H, 'i', 00H, 'g', 00H, 'n', 00H, 'e', 00H, 'd', 00H, 00H
	DB	00H
	ORG $+2
$SG92596 DB	'"', 00H, 'i', 00H, 'n', 00H, 'v', 00H, 'a', 00H, 'l', 00H
	DB	'i', 00H, 'd', 00H, ' ', 00H, 'a', 00H, 'r', 00H, 'g', 00H, 'u'
	DB	00H, 'm', 00H, 'e', 00H, 'n', 00H, 't', 00H, '"', 00H, 00H, 00H
	ORG $+2
$SG89949 DB	'C:\Program Files (x86)\Microsoft Visual Studio\2019\Comm'
	DB	'unity\VC\Tools\MSVC\14.29.30133\include\xlocale', 00H
CONST	ENDS
PUBLIC	?__empty_global_delete@@YAXPAX@Z		; __empty_global_delete
PUBLIC	?__empty_global_delete@@YAXPAXI@Z		; __empty_global_delete
PUBLIC	?__empty_global_delete@@YAXPAXW4align_val_t@std@@@Z ; __empty_global_delete
PUBLIC	?__empty_global_delete@@YAXPAXIW4align_val_t@std@@@Z ; __empty_global_delete
PUBLIC	_wmemcpy
PUBLIC	?is_constant_evaluated@std@@YA_NXZ		; std::is_constant_evaluated
PUBLIC	?max@?$numeric_limits@H@std@@SAHXZ		; std::numeric_limits<int>::max
PUBLIC	??2@YAPAXIPAX@Z					; operator new
PUBLIC	??0exception@std@@QAE@QBDH@Z			; std::exception::exception
PUBLIC	??0exception@std@@QAE@ABV01@@Z			; std::exception::exception
PUBLIC	??1exception@std@@UAE@XZ			; std::exception::~exception
PUBLIC	?what@exception@std@@UBEPBDXZ			; std::exception::what
PUBLIC	??_Gexception@std@@UAEPAXI@Z			; std::exception::`scalar deleting destructor'
PUBLIC	??0bad_alloc@std@@AAE@QBD@Z			; std::bad_alloc::bad_alloc
PUBLIC	??1bad_alloc@std@@UAE@XZ			; std::bad_alloc::~bad_alloc
PUBLIC	??0bad_alloc@std@@QAE@ABV01@@Z			; std::bad_alloc::bad_alloc
PUBLIC	??_Gbad_alloc@std@@UAEPAXI@Z			; std::bad_alloc::`scalar deleting destructor'
PUBLIC	??0bad_array_new_length@std@@QAE@XZ		; std::bad_array_new_length::bad_array_new_length
PUBLIC	??1bad_array_new_length@std@@UAE@XZ		; std::bad_array_new_length::~bad_array_new_length
PUBLIC	??0bad_array_new_length@std@@QAE@ABV01@@Z	; std::bad_array_new_length::bad_array_new_length
PUBLIC	??_Gbad_array_new_length@std@@UAEPAXI@Z		; std::bad_array_new_length::`scalar deleting destructor'
PUBLIC	?_Throw_bad_array_new_length@std@@YAXXZ		; std::_Throw_bad_array_new_length
PUBLIC	?_Allocate@_Default_allocate_traits@std@@SAPAXI@Z ; std::_Default_allocate_traits::_Allocate
PUBLIC	?_Adjust_manually_vector_aligned@std@@YAXAAPAXAAI@Z ; std::_Adjust_manually_vector_aligned
PUBLIC	??0_Container_proxy@std@@QAE@PAU_Container_base12@1@@Z ; std::_Container_proxy::_Container_proxy
PUBLIC	??0_Container_base12@std@@QAE@XZ		; std::_Container_base12::_Container_base12
PUBLIC	?_Orphan_all@_Container_base12@std@@QAEXXZ	; std::_Container_base12::_Orphan_all
PUBLIC	?_Orphan_all_unlocked_v3@_Container_base12@std@@AAEXXZ ; std::_Container_base12::_Orphan_all_unlocked_v3
PUBLIC	?_Orphan_all_locked_v3@_Container_base12@std@@AAEXXZ ; std::_Container_base12::_Orphan_all_locked_v3
PUBLIC	??0_Iterator_base12@std@@QAE@XZ			; std::_Iterator_base12::_Iterator_base12
PUBLIC	??1_Iterator_base12@std@@QAE@XZ			; std::_Iterator_base12::~_Iterator_base12
PUBLIC	?_Adopt@_Iterator_base12@std@@QAEXPBU_Container_base12@2@@Z ; std::_Iterator_base12::_Adopt
PUBLIC	?_Getcont@_Iterator_base12@std@@QBEPBU_Container_base12@2@XZ ; std::_Iterator_base12::_Getcont
PUBLIC	?_Adopt_unlocked@_Iterator_base12@std@@AAEXPBU_Container_base12@2@@Z ; std::_Iterator_base12::_Adopt_unlocked
PUBLIC	?_Adopt_locked@_Iterator_base12@std@@AAEXPBU_Container_base12@2@@Z ; std::_Iterator_base12::_Adopt_locked
PUBLIC	?_Orphan_me_unlocked_v3@_Iterator_base12@std@@AAEXXZ ; std::_Iterator_base12::_Orphan_me_unlocked_v3
PUBLIC	?_Orphan_me_locked_v3@_Iterator_base12@std@@AAEXXZ ; std::_Iterator_base12::_Orphan_me_locked_v3
PUBLIC	?_Release@_Basic_container_proxy_ptr12@std@@QAEXXZ ; std::_Basic_container_proxy_ptr12::_Release
PUBLIC	??0_Basic_container_proxy_ptr12@std@@IAE@XZ	; std::_Basic_container_proxy_ptr12::_Basic_container_proxy_ptr12
PUBLIC	??$addressof@U_Container_base12@std@@@std@@YAPAU_Container_base12@0@AAU10@@Z ; std::addressof<std::_Container_base12>
PUBLIC	??$_Construct_in_place@U_Container_proxy@std@@PAU_Container_base12@2@@std@@YAXAAU_Container_proxy@0@$$QAPAU_Container_base12@0@@Z ; std::_Construct_in_place<std::_Container_proxy,std::_Container_base12 *>
PUBLIC	??$_Maklocstr@_W@std@@YAPA_WPBDPA_WABU_Cvtvec@@@Z ; std::_Maklocstr<wchar_t>
PUBLIC	?_Maklocwcs@std@@YAPA_WPB_W@Z			; std::_Maklocwcs
PUBLIC	??$_Maklocstr@D@std@@YAPADPBDPADABU_Cvtvec@@@Z	; std::_Maklocstr<char>
PUBLIC	??$_Getvals@_W@?$time_get@DV?$istreambuf_iterator@DU?$char_traits@D@std@@@std@@@std@@IAEX_WABV_Locinfo@1@@Z ; std::time_get<char,std::istreambuf_iterator<char,std::char_traits<char> > >::_Getvals<wchar_t>
PUBLIC	??$_Getvals@_W@?$time_get@_WV?$istreambuf_iterator@_WU?$char_traits@_W@std@@@std@@@std@@IAEX_WABV_Locinfo@1@@Z ; std::time_get<wchar_t,std::istreambuf_iterator<wchar_t,std::char_traits<wchar_t> > >::_Getvals<wchar_t>
PUBLIC	?deallocate@?$allocator@I@std@@QAEXQAII@Z	; std::allocator<unsigned int>::deallocate
PUBLIC	??0?$Vector2@I@sf@@QAE@XZ			; sf::Vector2<unsigned int>::Vector2<unsigned int>
PUBLIC	??0?$Rect@H@sf@@QAE@XZ				; sf::Rect<int>::Rect<int>
PUBLIC	??0?$Rect@H@sf@@QAE@HHHH@Z			; sf::Rect<int>::Rect<int>
PUBLIC	??_GSprite@sf@@UAEPAXI@Z			; sf::Sprite::`scalar deleting destructor'
PUBLIC	??0Player@@QAE@HHPAV?$vector@PAVImage@sf@@V?$allocator@PAVImage@sf@@@std@@@std@@@Z ; Player::Player
PUBLIC	?move@Player@@QAEXV?$tuple@W4DIRDEP@@W41@@std@@V?$vector@_NV?$allocator@_N@std@@@3@@Z ; Player::move
PUBLIC	??1Player@@QAE@XZ				; Player::~Player
PUBLIC	??0?$allocator@PAVSprite@sf@@@std@@QAE@XZ	; std::allocator<sf::Sprite *>::allocator<sf::Sprite *>
PUBLIC	?deallocate@?$allocator@PAVSprite@sf@@@std@@QAEXQAPAVSprite@sf@@I@Z ; std::allocator<sf::Sprite *>::deallocate
PUBLIC	?allocate@?$allocator@PAVSprite@sf@@@std@@QAEPAPAVSprite@sf@@I@Z ; std::allocator<sf::Sprite *>::allocate
PUBLIC	?max_size@?$_Default_allocator_traits@V?$allocator@PAVSprite@sf@@@std@@@std@@SAIABV?$allocator@PAVSprite@sf@@@2@@Z ; std::_Default_allocator_traits<std::allocator<sf::Sprite *> >::max_size
PUBLIC	??0?$vector@PAVSprite@sf@@V?$allocator@PAVSprite@sf@@@std@@@std@@QAE@IABV?$allocator@PAVSprite@sf@@@1@@Z ; std::vector<sf::Sprite *,std::allocator<sf::Sprite *> >::vector<sf::Sprite *,std::allocator<sf::Sprite *> >
PUBLIC	??1?$vector@PAVSprite@sf@@V?$allocator@PAVSprite@sf@@@std@@@std@@QAE@XZ ; std::vector<sf::Sprite *,std::allocator<sf::Sprite *> >::~vector<sf::Sprite *,std::allocator<sf::Sprite *> >
PUBLIC	?max_size@?$vector@PAVSprite@sf@@V?$allocator@PAVSprite@sf@@@std@@@std@@QBEIXZ ; std::vector<sf::Sprite *,std::allocator<sf::Sprite *> >::max_size
PUBLIC	?at@?$vector@PAVSprite@sf@@V?$allocator@PAVSprite@sf@@@std@@@std@@QAEAAPAVSprite@sf@@I@Z ; std::vector<sf::Sprite *,std::allocator<sf::Sprite *> >::at
PUBLIC	?_Ufill@?$vector@PAVSprite@sf@@V?$allocator@PAVSprite@sf@@@std@@@std@@AAEPAPAVSprite@sf@@PAPAV34@IU_Value_init_tag@2@@Z ; std::vector<sf::Sprite *,std::allocator<sf::Sprite *> >::_Ufill
PUBLIC	?_Destroy@?$vector@PAVSprite@sf@@V?$allocator@PAVSprite@sf@@@std@@@std@@AAEXPAPAVSprite@sf@@0@Z ; std::vector<sf::Sprite *,std::allocator<sf::Sprite *> >::_Destroy
PUBLIC	?_Buy_raw@?$vector@PAVSprite@sf@@V?$allocator@PAVSprite@sf@@@std@@@std@@AAEXI@Z ; std::vector<sf::Sprite *,std::allocator<sf::Sprite *> >::_Buy_raw
PUBLIC	?_Buy_nonzero@?$vector@PAVSprite@sf@@V?$allocator@PAVSprite@sf@@@std@@@std@@AAEXI@Z ; std::vector<sf::Sprite *,std::allocator<sf::Sprite *> >::_Buy_nonzero
PUBLIC	?_Tidy@?$vector@PAVSprite@sf@@V?$allocator@PAVSprite@sf@@@std@@@std@@AAEXXZ ; std::vector<sf::Sprite *,std::allocator<sf::Sprite *> >::_Tidy
PUBLIC	?_Xlength@?$vector@PAVSprite@sf@@V?$allocator@PAVSprite@sf@@@std@@@std@@CAXXZ ; std::vector<sf::Sprite *,std::allocator<sf::Sprite *> >::_Xlength
PUBLIC	?_Xrange@?$vector@PAVSprite@sf@@V?$allocator@PAVSprite@sf@@@std@@@std@@CAXXZ ; std::vector<sf::Sprite *,std::allocator<sf::Sprite *> >::_Xrange
PUBLIC	?_Getal@?$vector@PAVSprite@sf@@V?$allocator@PAVSprite@sf@@@std@@@std@@AAEAAV?$allocator@PAVSprite@sf@@@2@XZ ; std::vector<sf::Sprite *,std::allocator<sf::Sprite *> >::_Getal
PUBLIC	?_Getal@?$vector@PAVSprite@sf@@V?$allocator@PAVSprite@sf@@@std@@@std@@ABEABV?$allocator@PAVSprite@sf@@@2@XZ ; std::vector<sf::Sprite *,std::allocator<sf::Sprite *> >::_Getal
PUBLIC	??0?$_Vector_val@U?$_Simple_types@PAVSprite@sf@@@std@@@std@@QAE@XZ ; std::_Vector_val<std::_Simple_types<sf::Sprite *> >::_Vector_val<std::_Simple_types<sf::Sprite *> >
PUBLIC	?_Get_first@?$_Compressed_pair@V?$allocator@PAVSprite@sf@@@std@@V?$_Vector_val@U?$_Simple_types@PAVSprite@sf@@@std@@@2@$00@std@@QAEAAV?$allocator@PAVSprite@sf@@@2@XZ ; std::_Compressed_pair<std::allocator<sf::Sprite *>,std::_Vector_val<std::_Simple_types<sf::Sprite *> >,1>::_Get_first
PUBLIC	?_Get_first@?$_Compressed_pair@V?$allocator@PAVSprite@sf@@@std@@V?$_Vector_val@U?$_Simple_types@PAVSprite@sf@@@std@@@2@$00@std@@QBEABV?$allocator@PAVSprite@sf@@@2@XZ ; std::_Compressed_pair<std::allocator<sf::Sprite *>,std::_Vector_val<std::_Simple_types<sf::Sprite *> >,1>::_Get_first
PUBLIC	?__autoclassinit2@?$vector@PAVSprite@sf@@V?$allocator@PAVSprite@sf@@@std@@@std@@QAEXI@Z ; std::vector<sf::Sprite *,std::allocator<sf::Sprite *> >::__autoclassinit2
PUBLIC	??_G?$vector@PAVSprite@sf@@V?$allocator@PAVSprite@sf@@@std@@@std@@QAEPAXI@Z ; std::vector<sf::Sprite *,std::allocator<sf::Sprite *> >::`scalar deleting destructor'
PUBLIC	?size@?$vector@PAVImage@sf@@V?$allocator@PAVImage@sf@@@std@@@std@@QBEIXZ ; std::vector<sf::Image *,std::allocator<sf::Image *> >::size
PUBLIC	?at@?$vector@PAVImage@sf@@V?$allocator@PAVImage@sf@@@std@@@std@@QAEAAPAVImage@sf@@I@Z ; std::vector<sf::Image *,std::allocator<sf::Image *> >::at
PUBLIC	?_Xrange@?$vector@PAVImage@sf@@V?$allocator@PAVImage@sf@@@std@@@std@@CAXXZ ; std::vector<sf::Image *,std::allocator<sf::Image *> >::_Xrange
PUBLIC	??0?$allocator@PAVTexture@sf@@@std@@QAE@XZ	; std::allocator<sf::Texture *>::allocator<sf::Texture *>
PUBLIC	?deallocate@?$allocator@PAVTexture@sf@@@std@@QAEXQAPAVTexture@sf@@I@Z ; std::allocator<sf::Texture *>::deallocate
PUBLIC	?allocate@?$allocator@PAVTexture@sf@@@std@@QAEPAPAVTexture@sf@@I@Z ; std::allocator<sf::Texture *>::allocate
PUBLIC	?max_size@?$_Default_allocator_traits@V?$allocator@PAVTexture@sf@@@std@@@std@@SAIABV?$allocator@PAVTexture@sf@@@2@@Z ; std::_Default_allocator_traits<std::allocator<sf::Texture *> >::max_size
PUBLIC	??0?$vector@PAVTexture@sf@@V?$allocator@PAVTexture@sf@@@std@@@std@@QAE@XZ ; std::vector<sf::Texture *,std::allocator<sf::Texture *> >::vector<sf::Texture *,std::allocator<sf::Texture *> >
PUBLIC	??1?$vector@PAVTexture@sf@@V?$allocator@PAVTexture@sf@@@std@@@std@@QAE@XZ ; std::vector<sf::Texture *,std::allocator<sf::Texture *> >::~vector<sf::Texture *,std::allocator<sf::Texture *> >
PUBLIC	?push_back@?$vector@PAVTexture@sf@@V?$allocator@PAVTexture@sf@@@std@@@std@@QAEXABQAVTexture@sf@@@Z ; std::vector<sf::Texture *,std::allocator<sf::Texture *> >::push_back
PUBLIC	?max_size@?$vector@PAVTexture@sf@@V?$allocator@PAVTexture@sf@@@std@@@std@@QBEIXZ ; std::vector<sf::Texture *,std::allocator<sf::Texture *> >::max_size
PUBLIC	?capacity@?$vector@PAVTexture@sf@@V?$allocator@PAVTexture@sf@@@std@@@std@@QBEIXZ ; std::vector<sf::Texture *,std::allocator<sf::Texture *> >::capacity
PUBLIC	?_Umove@?$vector@PAVTexture@sf@@V?$allocator@PAVTexture@sf@@@std@@@std@@AAEPAPAVTexture@sf@@PAPAV34@00@Z ; std::vector<sf::Texture *,std::allocator<sf::Texture *> >::_Umove
PUBLIC	?_Umove_if_noexcept1@?$vector@PAVTexture@sf@@V?$allocator@PAVTexture@sf@@@std@@@std@@AAEXPAPAVTexture@sf@@00U?$integral_constant@_N$00@2@@Z ; std::vector<sf::Texture *,std::allocator<sf::Texture *> >::_Umove_if_noexcept1
PUBLIC	?_Umove_if_noexcept@?$vector@PAVTexture@sf@@V?$allocator@PAVTexture@sf@@@std@@@std@@AAEXPAPAVTexture@sf@@00@Z ; std::vector<sf::Texture *,std::allocator<sf::Texture *> >::_Umove_if_noexcept
PUBLIC	?_Destroy@?$vector@PAVTexture@sf@@V?$allocator@PAVTexture@sf@@@std@@@std@@AAEXPAPAVTexture@sf@@0@Z ; std::vector<sf::Texture *,std::allocator<sf::Texture *> >::_Destroy
PUBLIC	?_Calculate_growth@?$vector@PAVTexture@sf@@V?$allocator@PAVTexture@sf@@@std@@@std@@ABEII@Z ; std::vector<sf::Texture *,std::allocator<sf::Texture *> >::_Calculate_growth
PUBLIC	?_Change_array@?$vector@PAVTexture@sf@@V?$allocator@PAVTexture@sf@@@std@@@std@@AAEXQAPAVTexture@sf@@II@Z ; std::vector<sf::Texture *,std::allocator<sf::Texture *> >::_Change_array
PUBLIC	?_Tidy@?$vector@PAVTexture@sf@@V?$allocator@PAVTexture@sf@@@std@@@std@@AAEXXZ ; std::vector<sf::Texture *,std::allocator<sf::Texture *> >::_Tidy
PUBLIC	?_Xlength@?$vector@PAVTexture@sf@@V?$allocator@PAVTexture@sf@@@std@@@std@@CAXXZ ; std::vector<sf::Texture *,std::allocator<sf::Texture *> >::_Xlength
PUBLIC	?_Orphan_range_unlocked@?$vector@PAVTexture@sf@@V?$allocator@PAVTexture@sf@@@std@@@std@@ABEXPAPAVTexture@sf@@0@Z ; std::vector<sf::Texture *,std::allocator<sf::Texture *> >::_Orphan_range_unlocked
PUBLIC	?_Orphan_range_locked@?$vector@PAVTexture@sf@@V?$allocator@PAVTexture@sf@@@std@@@std@@ABEXPAPAVTexture@sf@@0@Z ; std::vector<sf::Texture *,std::allocator<sf::Texture *> >::_Orphan_range_locked
PUBLIC	?_Orphan_range@?$vector@PAVTexture@sf@@V?$allocator@PAVTexture@sf@@@std@@@std@@ABEXPAPAVTexture@sf@@0@Z ; std::vector<sf::Texture *,std::allocator<sf::Texture *> >::_Orphan_range
PUBLIC	?_Getal@?$vector@PAVTexture@sf@@V?$allocator@PAVTexture@sf@@@std@@@std@@AAEAAV?$allocator@PAVTexture@sf@@@2@XZ ; std::vector<sf::Texture *,std::allocator<sf::Texture *> >::_Getal
PUBLIC	?_Getal@?$vector@PAVTexture@sf@@V?$allocator@PAVTexture@sf@@@std@@@std@@ABEABV?$allocator@PAVTexture@sf@@@2@XZ ; std::vector<sf::Texture *,std::allocator<sf::Texture *> >::_Getal
PUBLIC	??0?$_Vector_val@U?$_Simple_types@PAVTexture@sf@@@std@@@std@@QAE@XZ ; std::_Vector_val<std::_Simple_types<sf::Texture *> >::_Vector_val<std::_Simple_types<sf::Texture *> >
PUBLIC	?_Get_first@?$_Compressed_pair@V?$allocator@PAVTexture@sf@@@std@@V?$_Vector_val@U?$_Simple_types@PAVTexture@sf@@@std@@@2@$00@std@@QAEAAV?$allocator@PAVTexture@sf@@@2@XZ ; std::_Compressed_pair<std::allocator<sf::Texture *>,std::_Vector_val<std::_Simple_types<sf::Texture *> >,1>::_Get_first
PUBLIC	?_Get_first@?$_Compressed_pair@V?$allocator@PAVTexture@sf@@@std@@V?$_Vector_val@U?$_Simple_types@PAVTexture@sf@@@std@@@2@$00@std@@QBEABV?$allocator@PAVTexture@sf@@@2@XZ ; std::_Compressed_pair<std::allocator<sf::Texture *>,std::_Vector_val<std::_Simple_types<sf::Texture *> >,1>::_Get_first
PUBLIC	?__autoclassinit2@?$vector@PAVTexture@sf@@V?$allocator@PAVTexture@sf@@@std@@@std@@QAEXI@Z ; std::vector<sf::Texture *,std::allocator<sf::Texture *> >::__autoclassinit2
PUBLIC	??_G?$vector@PAVTexture@sf@@V?$allocator@PAVTexture@sf@@@std@@@std@@QAEPAXI@Z ; std::vector<sf::Texture *,std::allocator<sf::Texture *> >::`scalar deleting destructor'
PUBLIC	??1?$_Vb_val@V?$allocator@_N@std@@@std@@QAE@XZ	; std::_Vb_val<std::allocator<bool> >::~_Vb_val<std::allocator<bool> >
PUBLIC	?_Getal@?$_Vb_val@V?$allocator@_N@std@@@std@@QAEAAV?$allocator@I@2@XZ ; std::_Vb_val<std::allocator<bool> >::_Getal
PUBLIC	??1?$vector@IV?$allocator@I@std@@@std@@QAE@XZ	; std::vector<unsigned int,std::allocator<unsigned int> >::~vector<unsigned int,std::allocator<unsigned int> >
PUBLIC	?data@?$vector@IV?$allocator@I@std@@@std@@QAEPAIXZ ; std::vector<unsigned int,std::allocator<unsigned int> >::data
PUBLIC	?data@?$vector@IV?$allocator@I@std@@@std@@QBEPBIXZ ; std::vector<unsigned int,std::allocator<unsigned int> >::data
PUBLIC	?_Destroy@?$vector@IV?$allocator@I@std@@@std@@AAEXPAI0@Z ; std::vector<unsigned int,std::allocator<unsigned int> >::_Destroy
PUBLIC	?_Tidy@?$vector@IV?$allocator@I@std@@@std@@AAEXXZ ; std::vector<unsigned int,std::allocator<unsigned int> >::_Tidy
PUBLIC	?_Getal@?$vector@IV?$allocator@I@std@@@std@@AAEAAV?$allocator@I@2@XZ ; std::vector<unsigned int,std::allocator<unsigned int> >::_Getal
PUBLIC	?_Get_first@?$_Compressed_pair@V?$allocator@I@std@@V?$_Vector_val@U?$_Simple_types@I@std@@@2@$00@std@@QAEAAV?$allocator@I@2@XZ ; std::_Compressed_pair<std::allocator<unsigned int>,std::_Vector_val<std::_Simple_types<unsigned int> >,1>::_Get_first
PUBLIC	??1?$vector@_NV?$allocator@_N@std@@@std@@QAE@XZ	; std::vector<bool,std::allocator<bool> >::~vector<bool,std::allocator<bool> >
PUBLIC	?begin@?$vector@_NV?$allocator@_N@std@@@std@@QAE?AV?$_Vb_iterator@U?$_Wrap_alloc@V?$allocator@I@std@@@std@@@2@XZ ; std::vector<bool,std::allocator<bool> >::begin
PUBLIC	?size@?$vector@_NV?$allocator@_N@std@@@std@@QBEIXZ ; std::vector<bool,std::allocator<bool> >::size
PUBLIC	?at@?$vector@_NV?$allocator@_N@std@@@std@@QAE?AV?$_Vb_reference@U?$_Wrap_alloc@V?$allocator@I@std@@@std@@@2@I@Z ; std::vector<bool,std::allocator<bool> >::at
PUBLIC	??A?$vector@_NV?$allocator@_N@std@@@std@@QAE?AV?$_Vb_reference@U?$_Wrap_alloc@V?$allocator@I@std@@@std@@@1@I@Z ; std::vector<bool,std::allocator<bool> >::operator[]
PUBLIC	?_Xran@?$vector@_NV?$allocator@_N@std@@@std@@QBEXXZ ; std::vector<bool,std::allocator<bool> >::_Xran
PUBLIC	??0?$_Vb_iter_base@U?$_Wrap_alloc@V?$allocator@I@std@@@std@@@std@@QAE@PBIIPBU_Container_base12@1@@Z ; std::_Vb_iter_base<std::_Wrap_alloc<std::allocator<unsigned int> > >::_Vb_iter_base<std::_Wrap_alloc<std::allocator<unsigned int> > >
PUBLIC	?_Advance@?$_Vb_iter_base@U?$_Wrap_alloc@V?$allocator@I@std@@@std@@@std@@QAEXI@Z ; std::_Vb_iter_base<std::_Wrap_alloc<std::allocator<unsigned int> > >::_Advance
PUBLIC	?_Total_off@?$_Vb_iter_base@U?$_Wrap_alloc@V?$allocator@I@std@@@std@@@std@@QBEHPBV?$vector@_NV?$allocator@_N@std@@@2@@Z ; std::_Vb_iter_base<std::_Wrap_alloc<std::allocator<unsigned int> > >::_Total_off
PUBLIC	??1?$_Vb_iter_base@U?$_Wrap_alloc@V?$allocator@I@std@@@std@@@std@@QAE@XZ ; std::_Vb_iter_base<std::_Wrap_alloc<std::allocator<unsigned int> > >::~_Vb_iter_base<std::_Wrap_alloc<std::allocator<unsigned int> > >
PUBLIC	??0?$_Vb_reference@U?$_Wrap_alloc@V?$allocator@I@std@@@std@@@std@@QAE@ABV?$_Vb_iter_base@U?$_Wrap_alloc@V?$allocator@I@std@@@std@@@1@@Z ; std::_Vb_reference<std::_Wrap_alloc<std::allocator<unsigned int> > >::_Vb_reference<std::_Wrap_alloc<std::allocator<unsigned int> > >
PUBLIC	??B?$_Vb_reference@U?$_Wrap_alloc@V?$allocator@I@std@@@std@@@std@@QBE_NXZ ; std::_Vb_reference<std::_Wrap_alloc<std::allocator<unsigned int> > >::operator bool
PUBLIC	?_Getptr@?$_Vb_reference@U?$_Wrap_alloc@V?$allocator@I@std@@@std@@@std@@QBEPBIXZ ; std::_Vb_reference<std::_Wrap_alloc<std::allocator<unsigned int> > >::_Getptr
PUBLIC	?_Mask@?$_Vb_reference@U?$_Wrap_alloc@V?$allocator@I@std@@@std@@@std@@IBEIXZ ; std::_Vb_reference<std::_Wrap_alloc<std::allocator<unsigned int> > >::_Mask
PUBLIC	??1?$_Vb_reference@U?$_Wrap_alloc@V?$allocator@I@std@@@std@@@std@@QAE@XZ ; std::_Vb_reference<std::_Wrap_alloc<std::allocator<unsigned int> > >::~_Vb_reference<std::_Wrap_alloc<std::allocator<unsigned int> > >
PUBLIC	??$get@$0A@W4DIRDEP@@W41@@std@@YAAAW4DIRDEP@@AAV?$tuple@W4DIRDEP@@W41@@0@@Z ; std::get<0,enum DIRDEP,enum DIRDEP>
PUBLIC	??$get@$00W4DIRDEP@@W41@@std@@YAAAW4DIRDEP@@AAV?$tuple@W4DIRDEP@@W41@@0@@Z ; std::get<1,enum DIRDEP,enum DIRDEP>
PUBLIC	??0?$_Vb_const_iterator@U?$_Wrap_alloc@V?$allocator@I@std@@@std@@@std@@QAE@PBIPBU_Container_base12@1@@Z ; std::_Vb_const_iterator<std::_Wrap_alloc<std::allocator<unsigned int> > >::_Vb_const_iterator<std::_Wrap_alloc<std::allocator<unsigned int> > >
PUBLIC	??1?$_Vb_const_iterator@U?$_Wrap_alloc@V?$allocator@I@std@@@std@@@std@@QAE@XZ ; std::_Vb_const_iterator<std::_Wrap_alloc<std::allocator<unsigned int> > >::~_Vb_const_iterator<std::_Wrap_alloc<std::allocator<unsigned int> > >
PUBLIC	??D?$_Vb_iterator@U?$_Wrap_alloc@V?$allocator@I@std@@@std@@@std@@QBE?AV?$_Vb_reference@U?$_Wrap_alloc@V?$allocator@I@std@@@std@@@1@XZ ; std::_Vb_iterator<std::_Wrap_alloc<std::allocator<unsigned int> > >::operator*
PUBLIC	??1?$_Vb_iterator@U?$_Wrap_alloc@V?$allocator@I@std@@@std@@@std@@QAE@XZ ; std::_Vb_iterator<std::_Wrap_alloc<std::allocator<unsigned int> > >::~_Vb_iterator<std::_Wrap_alloc<std::allocator<unsigned int> > >
PUBLIC	?__autoclassinit2@?$_Vb_iterator@U?$_Wrap_alloc@V?$allocator@I@std@@@std@@@std@@QAEXI@Z ; std::_Vb_iterator<std::_Wrap_alloc<std::allocator<unsigned int> > >::__autoclassinit2
PUBLIC	??0?$_Vb_iterator@U?$_Wrap_alloc@V?$allocator@I@std@@@std@@@std@@QAE@PBIPBU_Container_base12@1@@Z ; std::_Vb_iterator<std::_Wrap_alloc<std::allocator<unsigned int> > >::_Vb_iterator<std::_Wrap_alloc<std::allocator<unsigned int> > >
PUBLIC	??$emplace_back@ABQAVTexture@sf@@@?$vector@PAVTexture@sf@@V?$allocator@PAVTexture@sf@@@std@@@std@@QAE?A_TABQAVTexture@sf@@@Z ; std::vector<sf::Texture *,std::allocator<sf::Texture *> >::emplace_back<sf::Texture * const &>
PUBLIC	??$forward@ABQAVTexture@sf@@@std@@YAABQAVTexture@sf@@ABQAV12@@Z ; std::forward<sf::Texture * const &>
PUBLIC	??$_Emplace_back_with_unused_capacity@ABQAVTexture@sf@@@?$vector@PAVTexture@sf@@V?$allocator@PAVTexture@sf@@@std@@@std@@AAE?A_TABQAVTexture@sf@@@Z ; std::vector<sf::Texture *,std::allocator<sf::Texture *> >::_Emplace_back_with_unused_capacity<sf::Texture * const &>
PUBLIC	??$_Unfancy@PAVTexture@sf@@@std@@YAPAPAVTexture@sf@@PAPAV12@@Z ; std::_Unfancy<sf::Texture *>
PUBLIC	??$construct@PAVTexture@sf@@ABQAV12@@?$_Default_allocator_traits@V?$allocator@PAVTexture@sf@@@std@@@std@@SAXAAV?$allocator@PAVTexture@sf@@@1@QAPAVTexture@sf@@ABQAV34@@Z ; std::_Default_allocator_traits<std::allocator<sf::Texture *> >::construct<sf::Texture *,sf::Texture * const &>
PUBLIC	??$_Emplace_reallocate@ABQAVTexture@sf@@@?$vector@PAVTexture@sf@@V?$allocator@PAVTexture@sf@@@std@@@std@@QAEPAPAVTexture@sf@@QAPAV23@ABQAV23@@Z ; std::vector<sf::Texture *,std::allocator<sf::Texture *> >::_Emplace_reallocate<sf::Texture * const &>
PUBLIC	?deallocate@?$allocator@U_Container_proxy@std@@@std@@QAEXQAU_Container_proxy@2@I@Z ; std::allocator<std::_Container_proxy>::deallocate
PUBLIC	?allocate@?$allocator@U_Container_proxy@std@@@std@@QAEPAU_Container_proxy@2@I@Z ; std::allocator<std::_Container_proxy>::allocate
PUBLIC	??$?0PAVTexture@sf@@@?$allocator@U_Container_proxy@std@@@std@@QAE@ABV?$allocator@PAVTexture@sf@@@1@@Z ; std::allocator<std::_Container_proxy>::allocator<std::_Container_proxy><sf::Texture *>
PUBLIC	??$exchange@PAU_Container_proxy@std@@$$T@std@@YAPAU_Container_proxy@0@AAPAU10@$$QA$$T@Z ; std::exchange<std::_Container_proxy *,std::nullptr_t>
PUBLIC	??$_Delete_plain_internal@V?$allocator@U_Container_proxy@std@@@std@@@std@@YAXAAV?$allocator@U_Container_proxy@std@@@0@QAU_Container_proxy@0@@Z ; std::_Delete_plain_internal<std::allocator<std::_Container_proxy> >
PUBLIC	??$?0$$V@?$_Compressed_pair@V?$allocator@PAVTexture@sf@@@std@@V?$_Vector_val@U?$_Simple_types@PAVTexture@sf@@@std@@@2@$00@std@@QAE@U_Zero_then_variadic_args_t@1@@Z ; std::_Compressed_pair<std::allocator<sf::Texture *>,std::_Vector_val<std::_Simple_types<sf::Texture *> >,1>::_Compressed_pair<std::allocator<sf::Texture *>,std::_Vector_val<std::_Simple_types<sf::Texture *> >,1><>
PUBLIC	??$_Alloc_proxy@V?$allocator@U_Container_proxy@std@@@std@@@_Container_base12@std@@QAEX$$QAV?$allocator@U_Container_proxy@std@@@1@@Z ; std::_Container_base12::_Alloc_proxy<std::allocator<std::_Container_proxy> >
PUBLIC	??$?0PAVSprite@sf@@@?$allocator@U_Container_proxy@std@@@std@@QAE@ABV?$allocator@PAVSprite@sf@@@1@@Z ; std::allocator<std::_Container_proxy>::allocator<std::_Container_proxy><sf::Sprite *>
PUBLIC	??$?0ABV?$allocator@PAVSprite@sf@@@std@@$$V@?$_Compressed_pair@V?$allocator@PAVSprite@sf@@@std@@V?$_Vector_val@U?$_Simple_types@PAVSprite@sf@@@std@@@2@$00@std@@QAE@U_One_then_variadic_args_t@1@ABV?$allocator@PAVSprite@sf@@@1@@Z ; std::_Compressed_pair<std::allocator<sf::Sprite *>,std::_Vector_val<std::_Simple_types<sf::Sprite *> >,1>::_Compressed_pair<std::allocator<sf::Sprite *>,std::_Vector_val<std::_Simple_types<sf::Sprite *> >,1><std::allocator<sf::Sprite *> const &>
PUBLIC	??$_Construct_n_copies_of_ty@U_Value_init_tag@std@@@?$vector@PAVSprite@sf@@V?$allocator@PAVSprite@sf@@@std@@@std@@AAEXIABU_Value_init_tag@1@@Z ; std::vector<sf::Sprite *,std::allocator<sf::Sprite *> >::_Construct_n_copies_of_ty<std::_Value_init_tag>
PUBLIC	??$min@I@std@@YAABIABI0@Z			; std::min<unsigned int>
PUBLIC	??0?$_Container_proxy_ptr12@V?$allocator@U_Container_proxy@std@@@std@@@std@@QAE@AAV?$allocator@U_Container_proxy@std@@@1@AAU_Container_base12@1@@Z ; std::_Container_proxy_ptr12<std::allocator<std::_Container_proxy> >::_Container_proxy_ptr12<std::allocator<std::_Container_proxy> >
PUBLIC	??1?$_Container_proxy_ptr12@V?$allocator@U_Container_proxy@std@@@std@@@std@@QAE@XZ ; std::_Container_proxy_ptr12<std::allocator<std::_Container_proxy> >::~_Container_proxy_ptr12<std::allocator<std::_Container_proxy> >
PUBLIC	??$_Unfancy@U_Container_proxy@std@@@std@@YAPAU_Container_proxy@0@PAU10@@Z ; std::_Unfancy<std::_Container_proxy>
PUBLIC	??$?0I@?$allocator@U_Container_proxy@std@@@std@@QAE@ABV?$allocator@I@1@@Z ; std::allocator<std::_Container_proxy>::allocator<std::_Container_proxy><unsigned int>
PUBLIC	??$_Get_size_of_n@$07@std@@YAII@Z		; std::_Get_size_of_n<8>
PUBLIC	??$_Allocate@$07U_Default_allocate_traits@std@@$0A@@std@@YAPAXI@Z ; std::_Allocate<8,std::_Default_allocate_traits,0>
PUBLIC	??$_Unfancy_maybe_null@I@std@@YAPAIPAI@Z	; std::_Unfancy_maybe_null<unsigned int>
PUBLIC	??$_Destroy_range@V?$allocator@PAVTexture@sf@@@std@@@std@@YAXPAPAVTexture@sf@@QAPAV12@AAV?$allocator@PAVTexture@sf@@@0@@Z ; std::_Destroy_range<std::allocator<sf::Texture *> >
PUBLIC	??$_Deallocate@$07$0A@@std@@YAXPAXI@Z		; std::_Deallocate<8,0>
PUBLIC	??$_Destroy_range@V?$allocator@PAVSprite@sf@@@std@@@std@@YAXPAPAVSprite@sf@@QAPAV12@AAV?$allocator@PAVSprite@sf@@@0@@Z ; std::_Destroy_range<std::allocator<sf::Sprite *> >
PUBLIC	??$_Get_size_of_n@$03@std@@YAII@Z		; std::_Get_size_of_n<4>
PUBLIC	??$_Destroy_range@V?$allocator@I@std@@@std@@YAXPAIQAIAAV?$allocator@I@0@@Z ; std::_Destroy_range<std::allocator<unsigned int> >
PUBLIC	??$addressof@U_Container_proxy@std@@@std@@YAPAU_Container_proxy@0@AAU10@@Z ; std::addressof<std::_Container_proxy>
PUBLIC	??$forward@PAU_Container_base12@std@@@std@@YA$$QAPAU_Container_base12@0@AAPAU10@@Z ; std::forward<std::_Container_base12 *>
PUBLIC	??$construct_at@U_Container_proxy@std@@PAU_Container_base12@2@X@std@@YAPAU_Container_proxy@0@QAU10@$$QAPAU_Container_base12@0@@Z ; std::construct_at<std::_Container_proxy,std::_Container_base12 *,void>
PUBLIC	??$_Voidify_iter@PAU_Container_proxy@std@@@std@@YAPAXPAU_Container_proxy@0@@Z ; std::_Voidify_iter<std::_Container_proxy *>
PUBLIC	??$construct_at@PAVTexture@sf@@ABQAV12@X@std@@YAPAPAVTexture@sf@@QAPAV12@ABQAV12@@Z ; std::construct_at<sf::Texture *,sf::Texture * const &,void>
PUBLIC	??$_Voidify_iter@PAPAVTexture@sf@@@std@@YAPAXPAPAVTexture@sf@@@Z ; std::_Voidify_iter<sf::Texture * *>
PUBLIC	??$_Deallocate_plain@V?$allocator@U_Container_proxy@std@@@std@@@std@@YAXAAV?$allocator@U_Container_proxy@std@@@0@QAU_Container_proxy@0@@Z ; std::_Deallocate_plain<std::allocator<std::_Container_proxy> >
PUBLIC	??$forward@ABV?$allocator@PAVSprite@sf@@@std@@@std@@YAABV?$allocator@PAVSprite@sf@@@0@ABV10@@Z ; std::forward<std::allocator<sf::Sprite *> const &>
PUBLIC	??1?$_Tidy_guard@V?$vector@PAVSprite@sf@@V?$allocator@PAVSprite@sf@@@std@@@std@@@std@@QAE@XZ ; std::_Tidy_guard<std::vector<sf::Sprite *,std::allocator<sf::Sprite *> > >::~_Tidy_guard<std::vector<sf::Sprite *,std::allocator<sf::Sprite *> > >
PUBLIC	??$_Allocate_manually_vector_aligned@U_Default_allocate_traits@std@@@std@@YAPAXI@Z ; std::_Allocate_manually_vector_aligned<std::_Default_allocate_traits>
PUBLIC	??$_Uninitialized_move@PAPAVTexture@sf@@V?$allocator@PAVTexture@sf@@@std@@@std@@YAPAPAVTexture@sf@@QAPAV12@0PAPAV12@AAV?$allocator@PAVTexture@sf@@@0@@Z ; std::_Uninitialized_move<sf::Texture * *,std::allocator<sf::Texture *> >
PUBLIC	??$_Uninitialized_value_construct_n@V?$allocator@PAVSprite@sf@@@std@@@std@@YAPAPAVSprite@sf@@PAPAV12@IAAV?$allocator@PAVSprite@sf@@@0@@Z ; std::_Uninitialized_value_construct_n<std::allocator<sf::Sprite *> >
PUBLIC	?deallocate@?$_Default_allocator_traits@V?$allocator@U_Container_proxy@std@@@std@@@std@@SAXAAV?$allocator@U_Container_proxy@std@@@2@QAU_Container_proxy@2@I@Z ; std::_Default_allocator_traits<std::allocator<std::_Container_proxy> >::deallocate
PUBLIC	??$_Get_unwrapped@ABQAPAVTexture@sf@@@std@@YA?A_TABQAPAVTexture@sf@@@Z ; std::_Get_unwrapped<sf::Texture * * const &>
PUBLIC	??$move@AAPAVTexture@sf@@@std@@YA$$QAPAVTexture@sf@@AAPAV12@@Z ; std::move<sf::Texture * &>
PUBLIC	??$to_address@PAVTexture@sf@@@std@@YAPAPAVTexture@sf@@QAPAV12@@Z ; std::to_address<sf::Texture *>
PUBLIC	??$_Copy_memmove@PAPAVTexture@sf@@PAPAV12@@std@@YAPAPAVTexture@sf@@PAPAV12@00@Z ; std::_Copy_memmove<sf::Texture * *,sf::Texture * *>
PUBLIC	??0?$_Uninitialized_backout_al@V?$allocator@PAVTexture@sf@@@std@@@std@@QAE@PAPAVTexture@sf@@AAV?$allocator@PAVTexture@sf@@@1@@Z ; std::_Uninitialized_backout_al<std::allocator<sf::Texture *> >::_Uninitialized_backout_al<std::allocator<sf::Texture *> >
PUBLIC	??1?$_Uninitialized_backout_al@V?$allocator@PAVTexture@sf@@@std@@@std@@QAE@XZ ; std::_Uninitialized_backout_al<std::allocator<sf::Texture *> >::~_Uninitialized_backout_al<std::allocator<sf::Texture *> >
PUBLIC	?_Release@?$_Uninitialized_backout_al@V?$allocator@PAVTexture@sf@@@std@@@std@@QAEPAPAVTexture@sf@@XZ ; std::_Uninitialized_backout_al<std::allocator<sf::Texture *> >::_Release
PUBLIC	?__autoclassinit2@?$_Uninitialized_backout_al@V?$allocator@PAVTexture@sf@@@std@@@std@@QAEXI@Z ; std::_Uninitialized_backout_al<std::allocator<sf::Texture *> >::__autoclassinit2
PUBLIC	??$_Emplace_back@PAVTexture@sf@@@?$_Uninitialized_backout_al@V?$allocator@PAVTexture@sf@@@std@@@std@@QAEX$$QAPAVTexture@sf@@@Z ; std::_Uninitialized_backout_al<std::allocator<sf::Texture *> >::_Emplace_back<sf::Texture *>
PUBLIC	??$to_address@PAVSprite@sf@@@std@@YAPAPAVSprite@sf@@QAPAV12@@Z ; std::to_address<sf::Sprite *>
PUBLIC	??$_Unfancy@PAVSprite@sf@@@std@@YAPAPAVSprite@sf@@PAPAV12@@Z ; std::_Unfancy<sf::Sprite *>
PUBLIC	??$_Zero_range@PAPAVSprite@sf@@@std@@YAPAPAVSprite@sf@@QAPAV12@0@Z ; std::_Zero_range<sf::Sprite * *>
PUBLIC	??0?$_Uninitialized_backout_al@V?$allocator@PAVSprite@sf@@@std@@@std@@QAE@PAPAVSprite@sf@@AAV?$allocator@PAVSprite@sf@@@1@@Z ; std::_Uninitialized_backout_al<std::allocator<sf::Sprite *> >::_Uninitialized_backout_al<std::allocator<sf::Sprite *> >
PUBLIC	??1?$_Uninitialized_backout_al@V?$allocator@PAVSprite@sf@@@std@@@std@@QAE@XZ ; std::_Uninitialized_backout_al<std::allocator<sf::Sprite *> >::~_Uninitialized_backout_al<std::allocator<sf::Sprite *> >
PUBLIC	?_Release@?$_Uninitialized_backout_al@V?$allocator@PAVSprite@sf@@@std@@@std@@QAEPAPAVSprite@sf@@XZ ; std::_Uninitialized_backout_al<std::allocator<sf::Sprite *> >::_Release
PUBLIC	?__autoclassinit2@?$_Uninitialized_backout_al@V?$allocator@PAVSprite@sf@@@std@@@std@@QAEXI@Z ; std::_Uninitialized_backout_al<std::allocator<sf::Sprite *> >::__autoclassinit2
PUBLIC	??$_Emplace_back@$$V@?$_Uninitialized_backout_al@V?$allocator@PAVSprite@sf@@@std@@@std@@QAEXXZ ; std::_Uninitialized_backout_al<std::allocator<sf::Sprite *> >::_Emplace_back<>
PUBLIC	??$_To_address@PAPAVTexture@sf@@@std@@YA?A_PABQAPAVTexture@sf@@@Z ; std::_To_address<sf::Texture * *>
PUBLIC	??$forward@PAVTexture@sf@@@std@@YA$$QAPAVTexture@sf@@AAPAV12@@Z ; std::forward<sf::Texture *>
PUBLIC	??$construct@PAVTexture@sf@@PAV12@@?$_Default_allocator_traits@V?$allocator@PAVTexture@sf@@@std@@@std@@SAXAAV?$allocator@PAVTexture@sf@@@1@QAPAVTexture@sf@@$$QAPAV34@@Z ; std::_Default_allocator_traits<std::allocator<sf::Texture *> >::construct<sf::Texture *,sf::Texture *>
PUBLIC	??$_To_address@PAPAVSprite@sf@@@std@@YA?A_PABQAPAVSprite@sf@@@Z ; std::_To_address<sf::Sprite * *>
PUBLIC	??$construct@PAVSprite@sf@@$$V@?$_Default_allocator_traits@V?$allocator@PAVSprite@sf@@@std@@@std@@SAXAAV?$allocator@PAVSprite@sf@@@1@QAPAVSprite@sf@@@Z ; std::_Default_allocator_traits<std::allocator<sf::Sprite *> >::construct<sf::Sprite *>
PUBLIC	??$construct_at@PAVTexture@sf@@PAV12@X@std@@YAPAPAVTexture@sf@@QAPAV12@$$QAPAV12@@Z ; std::construct_at<sf::Texture *,sf::Texture *,void>
PUBLIC	??$construct_at@PAVSprite@sf@@$$VX@std@@YAPAPAVSprite@sf@@QAPAV12@@Z ; std::construct_at<sf::Sprite *,void>
PUBLIC	??$_Voidify_iter@PAPAVSprite@sf@@@std@@YAPAXPAPAVSprite@sf@@@Z ; std::_Voidify_iter<sf::Sprite * *>
PUBLIC	??_ESprite@sf@@W3AEPAXI@Z			; [thunk]:sf::Sprite::`vector deleting destructor'
PUBLIC	__JustMyCode_Default
PUBLIC	??_7exception@std@@6B@				; std::exception::`vftable'
PUBLIC	??_C@_0BC@EOODALEL@Unknown?5exception@		; `string'
PUBLIC	??_7bad_alloc@std@@6B@				; std::bad_alloc::`vftable'
PUBLIC	??_7bad_array_new_length@std@@6B@		; std::bad_array_new_length::`vftable'
PUBLIC	??_C@_0BF@KINCDENJ@bad?5array?5new?5length@	; `string'
PUBLIC	__TI3?AVbad_array_new_length@std@@
PUBLIC	__CTA3?AVbad_array_new_length@std@@
PUBLIC	??_R0?AVbad_array_new_length@std@@@8		; std::bad_array_new_length `RTTI Type Descriptor'
PUBLIC	__CT??_R0?AVbad_array_new_length@std@@@8??0bad_array_new_length@std@@QAE@ABV01@@Z12
PUBLIC	??_R0?AVbad_alloc@std@@@8			; std::bad_alloc `RTTI Type Descriptor'
PUBLIC	__CT??_R0?AVbad_alloc@std@@@8??0bad_alloc@std@@QAE@ABV01@@Z12
PUBLIC	??_R0?AVexception@std@@@8			; std::exception `RTTI Type Descriptor'
PUBLIC	__CT??_R0?AVexception@std@@@8??0exception@std@@QAE@ABV01@@Z12
PUBLIC	??_C@_0BB@FCMFBGOM@invalid?5argument@		; `string'
PUBLIC	??_C@_02DKCKIIND@?$CFs@				; `string'
PUBLIC	??_C@_0GI@MNEMJBML@C?3?2Program?5Files?5?$CIx86?$CJ?2Microsof@ ; `string'
PUBLIC	??_C@_1NA@MJBOBEJL@?$AAC?$AA?3?$AA?2?$AAP?$AAr?$AAo?$AAg?$AAr?$AAa?$AAm?$AA?5?$AAF?$AAi?$AAl?$AAe@ ; `string'
PUBLIC	??_C@_1EK@NIFDJFDG@?$AAs?$AAt?$AAd?$AA?3?$AA?3?$AA_?$AAA?$AAd?$AAj?$AAu?$AAs?$AAt?$AA_?$AAm?$AAa@ ; `string'
PUBLIC	??_C@_1CG@JNLFBNGN@?$AA?$CC?$AAi?$AAn?$AAv?$AAa?$AAl?$AAi?$AAd?$AA?5?$AAa?$AAr?$AAg?$AAu?$AAm?$AAe@ ; `string'
PUBLIC	??_C@_0BJ@LFDBABJJ@ITERATOR?5LIST?5CORRUPTED?$CB@ ; `string'
PUBLIC	??_C@_1FM@FOFDAEGI@?$AAs?$AAt?$AAd?$AA?3?$AA?3?$AA_?$AAI?$AAt?$AAe?$AAr?$AAa?$AAt?$AAo?$AAr?$AA_@ ; `string'
PUBLIC	??_C@_1DG@PLBPCAEM@?$AA?$CC?$AAI?$AAT?$AAE?$AAR?$AAA?$AAT?$AAO?$AAR?$AA?5?$AAL?$AAI?$AAS?$AAT?$AA?5@ ; `string'
PUBLIC	??_C@_0GI@GFIAKDGM@C?3?2Program?5Files?5?$CIx86?$CJ?2Microsof@ ; `string'
PUBLIC	??_C@_0GI@OGMNKBMN@C?3?2Program?5Files?5?$CIx86?$CJ?2Microsof@ ; `string'
PUBLIC	??_SSprite@sf@@6BDrawable@1@@			; sf::Sprite::`local vftable'
PUBLIC	??_SSprite@sf@@6BTransformable@1@@		; sf::Sprite::`local vftable'
PUBLIC	??_C@_0CE@FFEOOBMH@vector?$DMbool?$DO?5subscript?5out?5of?5r@ ; `string'
PUBLIC	??_C@_0GH@KMHDIFOI@C?3?2Program?5Files?5?$CIx86?$CJ?2Microsof@ ; `string'
PUBLIC	??_C@_1MO@NOHEJINP@?$AAC?$AA?3?$AA?2?$AAP?$AAr?$AAo?$AAg?$AAr?$AAa?$AAm?$AA?5?$AAF?$AAi?$AAl?$AAe@ ; `string'
PUBLIC	??_C@_1HG@KMENFMCO@?$AAs?$AAt?$AAd?$AA?3?$AA?3?$AAv?$AAe?$AAc?$AAt?$AAo?$AAr?$AA?$DM?$AAb?$AAo?$AAo@ ; `string'
PUBLIC	??_C@_1EM@HCHFCCIP@?$AA?$CC?$AAv?$AAe?$AAc?$AAt?$AAo?$AAr?$AA?$DM?$AAb?$AAo?$AAo?$AAl?$AA?$DO?$AA?5?$AAs@ ; `string'
PUBLIC	??_C@_0N@LPFKKEBD@?3AM?3am?3PM?3pm@		; `string'
PUBLIC	??_C@_0DL@EIIPGNKA@cannot?5dereference?5value?9initia@ ; `string'
PUBLIC	??_C@_1LK@OCBBIODL@?$AAs?$AAt?$AAd?$AA?3?$AA?3?$AA_?$AAV?$AAb?$AA_?$AAi?$AAt?$AAe?$AAr?$AAa?$AAt@ ; `string'
PUBLIC	??_C@_1HK@NLJEKNBE@?$AA?$CC?$AAc?$AAa?$AAn?$AAn?$AAo?$AAt?$AA?5?$AAd?$AAe?$AAr?$AAe?$AAf?$AAe?$AAr@ ; `string'
PUBLIC	??_C@_0CK@FLJLFEAD@vector?$DMbool?$DO?5iterator?5not?5deref@ ; `string'
PUBLIC	??_C@_1FI@IBAHAGLP@?$AA?$CC?$AAv?$AAe?$AAc?$AAt?$AAo?$AAr?$AA?$DM?$AAb?$AAo?$AAo?$AAl?$AA?$DO?$AA?5?$AAi@ ; `string'
PUBLIC	??_C@_1LG@CHICOEJ@?$AAs?$AAt?$AAd?$AA?3?$AA?3?$AA_?$AAV?$AAb?$AA_?$AAr?$AAe?$AAf?$AAe?$AAr?$AAe@ ; `string'
PUBLIC	??_C@_0BP@BKHLLOGL@invalid?5vector?$DMbool?$DO?5subscript@ ; `string'
PUBLIC	??_C@_0BJ@DHFDPMIM@invalid?5vector?5subscript@	; `string'
PUBLIC	??_C@_1BK@MHIKGOKE@?$AA?3?$AAA?$AAM?$AA?3?$AAa?$AAm?$AA?3?$AAP?$AAM?$AA?3?$AAp?$AAm@ ; `string'
PUBLIC	??_C@_0BA@FOIKENOD@vector?5too?5long@		; `string'
PUBLIC	??_R4exception@std@@6B@				; std::exception::`RTTI Complete Object Locator'
PUBLIC	??_R3exception@std@@8				; std::exception::`RTTI Class Hierarchy Descriptor'
PUBLIC	??_R2exception@std@@8				; std::exception::`RTTI Base Class Array'
PUBLIC	??_R1A@?0A@EA@exception@std@@8			; std::exception::`RTTI Base Class Descriptor at (0,-1,0,64)'
PUBLIC	??_R4bad_alloc@std@@6B@				; std::bad_alloc::`RTTI Complete Object Locator'
PUBLIC	??_R3bad_alloc@std@@8				; std::bad_alloc::`RTTI Class Hierarchy Descriptor'
PUBLIC	??_R2bad_alloc@std@@8				; std::bad_alloc::`RTTI Base Class Array'
PUBLIC	??_R1A@?0A@EA@bad_alloc@std@@8			; std::bad_alloc::`RTTI Base Class Descriptor at (0,-1,0,64)'
PUBLIC	??_R4bad_array_new_length@std@@6B@		; std::bad_array_new_length::`RTTI Complete Object Locator'
PUBLIC	??_R3bad_array_new_length@std@@8		; std::bad_array_new_length::`RTTI Class Hierarchy Descriptor'
PUBLIC	??_R2bad_array_new_length@std@@8		; std::bad_array_new_length::`RTTI Base Class Array'
PUBLIC	??_R1A@?0A@EA@bad_array_new_length@std@@8	; std::bad_array_new_length::`RTTI Base Class Descriptor at (0,-1,0,64)'
PUBLIC	??_R4Sprite@sf@@6BDrawable@1@@			; sf::Sprite::`RTTI Complete Object Locator'
PUBLIC	??_R0?AVSprite@sf@@@8				; sf::Sprite `RTTI Type Descriptor'
PUBLIC	??_R3Sprite@sf@@8				; sf::Sprite::`RTTI Class Hierarchy Descriptor'
PUBLIC	??_R2Sprite@sf@@8				; sf::Sprite::`RTTI Base Class Array'
PUBLIC	??_R1A@?0A@EA@Sprite@sf@@8			; sf::Sprite::`RTTI Base Class Descriptor at (0,-1,0,64)'
PUBLIC	??_R1A@?0A@EA@Drawable@sf@@8			; sf::Drawable::`RTTI Base Class Descriptor at (0,-1,0,64)'
PUBLIC	??_R0?AVDrawable@sf@@@8				; sf::Drawable `RTTI Type Descriptor'
PUBLIC	??_R3Drawable@sf@@8				; sf::Drawable::`RTTI Class Hierarchy Descriptor'
PUBLIC	??_R2Drawable@sf@@8				; sf::Drawable::`RTTI Base Class Array'
PUBLIC	??_R13?0A@EA@Transformable@sf@@8		; sf::Transformable::`RTTI Base Class Descriptor at (4,-1,0,64)'
PUBLIC	??_R0?AVTransformable@sf@@@8			; sf::Transformable `RTTI Type Descriptor'
PUBLIC	??_R3Transformable@sf@@8			; sf::Transformable::`RTTI Class Hierarchy Descriptor'
PUBLIC	??_R2Transformable@sf@@8			; sf::Transformable::`RTTI Base Class Array'
PUBLIC	??_R1A@?0A@EA@Transformable@sf@@8		; sf::Transformable::`RTTI Base Class Descriptor at (0,-1,0,64)'
PUBLIC	??_R4Sprite@sf@@6BTransformable@1@@		; sf::Sprite::`RTTI Complete Object Locator'
PUBLIC	__real@3dcccccd
PUBLIC	__real@3e4ccccd
PUBLIC	__real@40a00000
PUBLIC	__real@c0a00000
EXTRN	??2@YAPAXI@Z:PROC				; operator new
EXTRN	??3@YAXPAX@Z:PROC				; operator delete
EXTRN	??3@YAXPAXI@Z:PROC				; operator delete
EXTRN	__imp___invalid_parameter:PROC
EXTRN	_memcpy:PROC
EXTRN	_memmove:PROC
EXTRN	_memset:PROC
EXTRN	__imp__wcslen:PROC
EXTRN	__imp___calloc_dbg:PROC
EXTRN	__imp___CrtDbgReport:PROC
EXTRN	__imp_??0_Lockit@std@@QAE@H@Z:PROC
EXTRN	__imp_??1_Lockit@std@@QAE@XZ:PROC
EXTRN	_strlen:PROC
EXTRN	?_Xbad_alloc@std@@YAXXZ:PROC			; std::_Xbad_alloc
EXTRN	?_Xlength_error@std@@YAXPBD@Z:PROC		; std::_Xlength_error
EXTRN	?_Xout_of_range@std@@YAXPBD@Z:PROC		; std::_Xout_of_range
EXTRN	___std_exception_copy:PROC
EXTRN	___std_exception_destroy:PROC
EXTRN	??_Eexception@std@@UAEPAXI@Z:PROC		; std::exception::`vector deleting destructor'
EXTRN	??_Ebad_alloc@std@@UAEPAXI@Z:PROC		; std::bad_alloc::`vector deleting destructor'
EXTRN	??_Ebad_array_new_length@std@@UAEPAXI@Z:PROC	; std::bad_array_new_length::`vector deleting destructor'
EXTRN	__Mbrtowc:PROC
EXTRN	__imp_?_Getcvt@_Locinfo@std@@QBE?AU_Cvtvec@@XZ:PROC
EXTRN	__imp_?_Getdays@_Locinfo@std@@QBEPBDXZ:PROC
EXTRN	__imp_?_Getmonths@_Locinfo@std@@QBEPBDXZ:PROC
EXTRN	__imp_?_W_Getdays@_Locinfo@std@@QBEPBGXZ:PROC
EXTRN	__imp_?_W_Getmonths@_Locinfo@std@@QBEPBGXZ:PROC
EXTRN	__imp_?setPosition@Transformable@sf@@QAEXMM@Z:PROC
EXTRN	__imp_?getSize@Image@sf@@QBE?AV?$Vector2@I@2@XZ:PROC
EXTRN	__imp_??0Texture@sf@@QAE@XZ:PROC
EXTRN	__imp_?loadFromImage@Texture@sf@@QAE_NABVImage@2@ABV?$Rect@H@2@@Z:PROC
EXTRN	__imp_?setSmooth@Texture@sf@@QAEX_N@Z:PROC
EXTRN	__imp_??0Sprite@sf@@QAE@ABVTexture@1@ABV?$Rect@H@1@@Z:PROC
EXTRN	__imp_??1Sprite@sf@@UAE@XZ:PROC
EXTRN	??_ESprite@sf@@UAEPAXI@Z:PROC			; sf::Sprite::`vector deleting destructor'
EXTRN	?draw@Sprite@sf@@EBEXAAVRenderTarget@2@VRenderStates@2@@Z:PROC ; sf::Sprite::draw
EXTRN	@_RTC_CheckStackVars@8:PROC
EXTRN	@__CheckForDebuggerJustMyCode@4:PROC
EXTRN	@__security_check_cookie@4:PROC
EXTRN	__CxxThrowException@8:PROC
EXTRN	__RTC_CheckEsp:PROC
EXTRN	__RTC_InitBase:PROC
EXTRN	__RTC_Shutdown:PROC
EXTRN	___CxxFrameHandler3:PROC
EXTRN	_memset:PROC
EXTRN	??_7type_info@@6B@:QWORD			; type_info::`vftable'
EXTRN	___security_cookie:DWORD
EXTRN	__fltused:DWORD
;	COMDAT __real@c0a00000
CONST	SEGMENT
__real@c0a00000 DD 0c0a00000r			; -5
CONST	ENDS
;	COMDAT __real@40a00000
CONST	SEGMENT
__real@40a00000 DD 040a00000r			; 5
CONST	ENDS
;	COMDAT __real@3e4ccccd
CONST	SEGMENT
__real@3e4ccccd DD 03e4ccccdr			; 0.2
CONST	ENDS
;	COMDAT __real@3dcccccd
CONST	SEGMENT
__real@3dcccccd DD 03dcccccdr			; 0.1
CONST	ENDS
;	COMDAT rtc$TMZ
rtc$TMZ	SEGMENT
__RTC_Shutdown.rtc$TMZ DD FLAT:__RTC_Shutdown
rtc$TMZ	ENDS
;	COMDAT rtc$IMZ
rtc$IMZ	SEGMENT
__RTC_InitBase.rtc$IMZ DD FLAT:__RTC_InitBase
rtc$IMZ	ENDS
;	COMDAT ??_R4Sprite@sf@@6BTransformable@1@@
rdata$r	SEGMENT
??_R4Sprite@sf@@6BTransformable@1@@ DD 00H		; sf::Sprite::`RTTI Complete Object Locator'
	DD	04H
	DD	00H
	DD	FLAT:??_R0?AVSprite@sf@@@8
	DD	FLAT:??_R3Sprite@sf@@8
rdata$r	ENDS
;	COMDAT ??_R1A@?0A@EA@Transformable@sf@@8
rdata$r	SEGMENT
??_R1A@?0A@EA@Transformable@sf@@8 DD FLAT:??_R0?AVTransformable@sf@@@8 ; sf::Transformable::`RTTI Base Class Descriptor at (0,-1,0,64)'
	DD	00H
	DD	00H
	DD	0ffffffffH
	DD	00H
	DD	040H
	DD	FLAT:??_R3Transformable@sf@@8
rdata$r	ENDS
;	COMDAT ??_R2Transformable@sf@@8
rdata$r	SEGMENT
??_R2Transformable@sf@@8 DD FLAT:??_R1A@?0A@EA@Transformable@sf@@8 ; sf::Transformable::`RTTI Base Class Array'
rdata$r	ENDS
;	COMDAT ??_R3Transformable@sf@@8
rdata$r	SEGMENT
??_R3Transformable@sf@@8 DD 00H				; sf::Transformable::`RTTI Class Hierarchy Descriptor'
	DD	00H
	DD	01H
	DD	FLAT:??_R2Transformable@sf@@8
rdata$r	ENDS
;	COMDAT ??_R0?AVTransformable@sf@@@8
data$rs	SEGMENT
??_R0?AVTransformable@sf@@@8 DD FLAT:??_7type_info@@6B@	; sf::Transformable `RTTI Type Descriptor'
	DD	00H
	DB	'.?AVTransformable@sf@@', 00H
data$rs	ENDS
;	COMDAT ??_R13?0A@EA@Transformable@sf@@8
rdata$r	SEGMENT
??_R13?0A@EA@Transformable@sf@@8 DD FLAT:??_R0?AVTransformable@sf@@@8 ; sf::Transformable::`RTTI Base Class Descriptor at (4,-1,0,64)'
	DD	00H
	DD	04H
	DD	0ffffffffH
	DD	00H
	DD	040H
	DD	FLAT:??_R3Transformable@sf@@8
rdata$r	ENDS
;	COMDAT ??_R2Drawable@sf@@8
rdata$r	SEGMENT
??_R2Drawable@sf@@8 DD FLAT:??_R1A@?0A@EA@Drawable@sf@@8 ; sf::Drawable::`RTTI Base Class Array'
rdata$r	ENDS
;	COMDAT ??_R3Drawable@sf@@8
rdata$r	SEGMENT
??_R3Drawable@sf@@8 DD 00H				; sf::Drawable::`RTTI Class Hierarchy Descriptor'
	DD	00H
	DD	01H
	DD	FLAT:??_R2Drawable@sf@@8
rdata$r	ENDS
;	COMDAT ??_R0?AVDrawable@sf@@@8
data$rs	SEGMENT
??_R0?AVDrawable@sf@@@8 DD FLAT:??_7type_info@@6B@	; sf::Drawable `RTTI Type Descriptor'
	DD	00H
	DB	'.?AVDrawable@sf@@', 00H
data$rs	ENDS
;	COMDAT ??_R1A@?0A@EA@Drawable@sf@@8
rdata$r	SEGMENT
??_R1A@?0A@EA@Drawable@sf@@8 DD FLAT:??_R0?AVDrawable@sf@@@8 ; sf::Drawable::`RTTI Base Class Descriptor at (0,-1,0,64)'
	DD	00H
	DD	00H
	DD	0ffffffffH
	DD	00H
	DD	040H
	DD	FLAT:??_R3Drawable@sf@@8
rdata$r	ENDS
;	COMDAT ??_R1A@?0A@EA@Sprite@sf@@8
rdata$r	SEGMENT
??_R1A@?0A@EA@Sprite@sf@@8 DD FLAT:??_R0?AVSprite@sf@@@8 ; sf::Sprite::`RTTI Base Class Descriptor at (0,-1,0,64)'
	DD	02H
	DD	00H
	DD	0ffffffffH
	DD	00H
	DD	040H
	DD	FLAT:??_R3Sprite@sf@@8
rdata$r	ENDS
;	COMDAT ??_R2Sprite@sf@@8
rdata$r	SEGMENT
??_R2Sprite@sf@@8 DD FLAT:??_R1A@?0A@EA@Sprite@sf@@8	; sf::Sprite::`RTTI Base Class Array'
	DD	FLAT:??_R1A@?0A@EA@Drawable@sf@@8
	DD	FLAT:??_R13?0A@EA@Transformable@sf@@8
rdata$r	ENDS
;	COMDAT ??_R3Sprite@sf@@8
rdata$r	SEGMENT
??_R3Sprite@sf@@8 DD 00H				; sf::Sprite::`RTTI Class Hierarchy Descriptor'
	DD	01H
	DD	03H
	DD	FLAT:??_R2Sprite@sf@@8
rdata$r	ENDS
;	COMDAT ??_R0?AVSprite@sf@@@8
data$rs	SEGMENT
??_R0?AVSprite@sf@@@8 DD FLAT:??_7type_info@@6B@	; sf::Sprite `RTTI Type Descriptor'
	DD	00H
	DB	'.?AVSprite@sf@@', 00H
data$rs	ENDS
;	COMDAT ??_R4Sprite@sf@@6BDrawable@1@@
rdata$r	SEGMENT
??_R4Sprite@sf@@6BDrawable@1@@ DD 00H			; sf::Sprite::`RTTI Complete Object Locator'
	DD	00H
	DD	00H
	DD	FLAT:??_R0?AVSprite@sf@@@8
	DD	FLAT:??_R3Sprite@sf@@8
rdata$r	ENDS
;	COMDAT ??_R1A@?0A@EA@bad_array_new_length@std@@8
rdata$r	SEGMENT
??_R1A@?0A@EA@bad_array_new_length@std@@8 DD FLAT:??_R0?AVbad_array_new_length@std@@@8 ; std::bad_array_new_length::`RTTI Base Class Descriptor at (0,-1,0,64)'
	DD	02H
	DD	00H
	DD	0ffffffffH
	DD	00H
	DD	040H
	DD	FLAT:??_R3bad_array_new_length@std@@8
rdata$r	ENDS
;	COMDAT ??_R2bad_array_new_length@std@@8
rdata$r	SEGMENT
??_R2bad_array_new_length@std@@8 DD FLAT:??_R1A@?0A@EA@bad_array_new_length@std@@8 ; std::bad_array_new_length::`RTTI Base Class Array'
	DD	FLAT:??_R1A@?0A@EA@bad_alloc@std@@8
	DD	FLAT:??_R1A@?0A@EA@exception@std@@8
rdata$r	ENDS
;	COMDAT ??_R3bad_array_new_length@std@@8
rdata$r	SEGMENT
??_R3bad_array_new_length@std@@8 DD 00H			; std::bad_array_new_length::`RTTI Class Hierarchy Descriptor'
	DD	00H
	DD	03H
	DD	FLAT:??_R2bad_array_new_length@std@@8
rdata$r	ENDS
;	COMDAT ??_R4bad_array_new_length@std@@6B@
rdata$r	SEGMENT
??_R4bad_array_new_length@std@@6B@ DD 00H		; std::bad_array_new_length::`RTTI Complete Object Locator'
	DD	00H
	DD	00H
	DD	FLAT:??_R0?AVbad_array_new_length@std@@@8
	DD	FLAT:??_R3bad_array_new_length@std@@8
rdata$r	ENDS
;	COMDAT ??_R1A@?0A@EA@bad_alloc@std@@8
rdata$r	SEGMENT
??_R1A@?0A@EA@bad_alloc@std@@8 DD FLAT:??_R0?AVbad_alloc@std@@@8 ; std::bad_alloc::`RTTI Base Class Descriptor at (0,-1,0,64)'
	DD	01H
	DD	00H
	DD	0ffffffffH
	DD	00H
	DD	040H
	DD	FLAT:??_R3bad_alloc@std@@8
rdata$r	ENDS
;	COMDAT ??_R2bad_alloc@std@@8
rdata$r	SEGMENT
??_R2bad_alloc@std@@8 DD FLAT:??_R1A@?0A@EA@bad_alloc@std@@8 ; std::bad_alloc::`RTTI Base Class Array'
	DD	FLAT:??_R1A@?0A@EA@exception@std@@8
rdata$r	ENDS
;	COMDAT ??_R3bad_alloc@std@@8
rdata$r	SEGMENT
??_R3bad_alloc@std@@8 DD 00H				; std::bad_alloc::`RTTI Class Hierarchy Descriptor'
	DD	00H
	DD	02H
	DD	FLAT:??_R2bad_alloc@std@@8
rdata$r	ENDS
;	COMDAT ??_R4bad_alloc@std@@6B@
rdata$r	SEGMENT
??_R4bad_alloc@std@@6B@ DD 00H				; std::bad_alloc::`RTTI Complete Object Locator'
	DD	00H
	DD	00H
	DD	FLAT:??_R0?AVbad_alloc@std@@@8
	DD	FLAT:??_R3bad_alloc@std@@8
rdata$r	ENDS
;	COMDAT ??_R1A@?0A@EA@exception@std@@8
rdata$r	SEGMENT
??_R1A@?0A@EA@exception@std@@8 DD FLAT:??_R0?AVexception@std@@@8 ; std::exception::`RTTI Base Class Descriptor at (0,-1,0,64)'
	DD	00H
	DD	00H
	DD	0ffffffffH
	DD	00H
	DD	040H
	DD	FLAT:??_R3exception@std@@8
rdata$r	ENDS
;	COMDAT ??_R2exception@std@@8
rdata$r	SEGMENT
??_R2exception@std@@8 DD FLAT:??_R1A@?0A@EA@exception@std@@8 ; std::exception::`RTTI Base Class Array'
rdata$r	ENDS
;	COMDAT ??_R3exception@std@@8
rdata$r	SEGMENT
??_R3exception@std@@8 DD 00H				; std::exception::`RTTI Class Hierarchy Descriptor'
	DD	00H
	DD	01H
	DD	FLAT:??_R2exception@std@@8
rdata$r	ENDS
;	COMDAT ??_R4exception@std@@6B@
rdata$r	SEGMENT
??_R4exception@std@@6B@ DD 00H				; std::exception::`RTTI Complete Object Locator'
	DD	00H
	DD	00H
	DD	FLAT:??_R0?AVexception@std@@@8
	DD	FLAT:??_R3exception@std@@8
rdata$r	ENDS
;	COMDAT ??_C@_0BA@FOIKENOD@vector?5too?5long@
CONST	SEGMENT
??_C@_0BA@FOIKENOD@vector?5too?5long@ DB 'vector too long', 00H ; `string'
CONST	ENDS
;	COMDAT ??_C@_1BK@MHIKGOKE@?$AA?3?$AAA?$AAM?$AA?3?$AAa?$AAm?$AA?3?$AAP?$AAM?$AA?3?$AAp?$AAm@
CONST	SEGMENT
??_C@_1BK@MHIKGOKE@?$AA?3?$AAA?$AAM?$AA?3?$AAa?$AAm?$AA?3?$AAP?$AAM?$AA?3?$AAp?$AAm@ DB ':'
	DB	00H, 'A', 00H, 'M', 00H, ':', 00H, 'a', 00H, 'm', 00H, ':', 00H
	DB	'P', 00H, 'M', 00H, ':', 00H, 'p', 00H, 'm', 00H, 00H, 00H ; `string'
CONST	ENDS
;	COMDAT ??_C@_0BJ@DHFDPMIM@invalid?5vector?5subscript@
CONST	SEGMENT
??_C@_0BJ@DHFDPMIM@invalid?5vector?5subscript@ DB 'invalid vector subscri'
	DB	'pt', 00H					; `string'
CONST	ENDS
;	COMDAT ??_C@_0BP@BKHLLOGL@invalid?5vector?$DMbool?$DO?5subscript@
CONST	SEGMENT
??_C@_0BP@BKHLLOGL@invalid?5vector?$DMbool?$DO?5subscript@ DB 'invalid ve'
	DB	'ctor<bool> subscript', 00H			; `string'
CONST	ENDS
;	COMDAT ??_C@_1LG@CHICOEJ@?$AAs?$AAt?$AAd?$AA?3?$AA?3?$AA_?$AAV?$AAb?$AA_?$AAr?$AAe?$AAf?$AAe?$AAr?$AAe@
CONST	SEGMENT
??_C@_1LG@CHICOEJ@?$AAs?$AAt?$AAd?$AA?3?$AA?3?$AA_?$AAV?$AAb?$AA_?$AAr?$AAe?$AAf?$AAe?$AAr?$AAe@ DB 's'
	DB	00H, 't', 00H, 'd', 00H, ':', 00H, ':', 00H, '_', 00H, 'V', 00H
	DB	'b', 00H, '_', 00H, 'r', 00H, 'e', 00H, 'f', 00H, 'e', 00H, 'r'
	DB	00H, 'e', 00H, 'n', 00H, 'c', 00H, 'e', 00H, '<', 00H, 's', 00H
	DB	't', 00H, 'r', 00H, 'u', 00H, 'c', 00H, 't', 00H, ' ', 00H, 's'
	DB	00H, 't', 00H, 'd', 00H, ':', 00H, ':', 00H, '_', 00H, 'W', 00H
	DB	'r', 00H, 'a', 00H, 'p', 00H, '_', 00H, 'a', 00H, 'l', 00H, 'l'
	DB	00H, 'o', 00H, 'c', 00H, '<', 00H, 'c', 00H, 'l', 00H, 'a', 00H
	DB	's', 00H, 's', 00H, ' ', 00H, 's', 00H, 't', 00H, 'd', 00H, ':'
	DB	00H, ':', 00H, 'a', 00H, 'l', 00H, 'l', 00H, 'o', 00H, 'c', 00H
	DB	'a', 00H, 't', 00H, 'o', 00H, 'r', 00H, '<', 00H, 'u', 00H, 'n'
	DB	00H, 's', 00H, 'i', 00H, 'g', 00H, 'n', 00H, 'e', 00H, 'd', 00H
	DB	' ', 00H, 'i', 00H, 'n', 00H, 't', 00H, '>', 00H, ' ', 00H, '>'
	DB	00H, ' ', 00H, '>', 00H, ':', 00H, ':', 00H, '_', 00H, 'G', 00H
	DB	'e', 00H, 't', 00H, 'p', 00H, 't', 00H, 'r', 00H, 00H, 00H ; `string'
CONST	ENDS
;	COMDAT ??_C@_1FI@IBAHAGLP@?$AA?$CC?$AAv?$AAe?$AAc?$AAt?$AAo?$AAr?$AA?$DM?$AAb?$AAo?$AAo?$AAl?$AA?$DO?$AA?5?$AAi@
CONST	SEGMENT
??_C@_1FI@IBAHAGLP@?$AA?$CC?$AAv?$AAe?$AAc?$AAt?$AAo?$AAr?$AA?$DM?$AAb?$AAo?$AAo?$AAl?$AA?$DO?$AA?5?$AAi@ DB '"'
	DB	00H, 'v', 00H, 'e', 00H, 'c', 00H, 't', 00H, 'o', 00H, 'r', 00H
	DB	'<', 00H, 'b', 00H, 'o', 00H, 'o', 00H, 'l', 00H, '>', 00H, ' '
	DB	00H, 'i', 00H, 't', 00H, 'e', 00H, 'r', 00H, 'a', 00H, 't', 00H
	DB	'o', 00H, 'r', 00H, ' ', 00H, 'n', 00H, 'o', 00H, 't', 00H, ' '
	DB	00H, 'd', 00H, 'e', 00H, 'r', 00H, 'e', 00H, 'f', 00H, 'e', 00H
	DB	'r', 00H, 'e', 00H, 'n', 00H, 'c', 00H, 'e', 00H, 'a', 00H, 'b'
	DB	00H, 'l', 00H, 'e', 00H, '"', 00H, 00H, 00H	; `string'
CONST	ENDS
;	COMDAT ??_C@_0CK@FLJLFEAD@vector?$DMbool?$DO?5iterator?5not?5deref@
CONST	SEGMENT
??_C@_0CK@FLJLFEAD@vector?$DMbool?$DO?5iterator?5not?5deref@ DB 'vector<b'
	DB	'ool> iterator not dereferenceable', 00H	; `string'
CONST	ENDS
;	COMDAT ??_C@_1HK@NLJEKNBE@?$AA?$CC?$AAc?$AAa?$AAn?$AAn?$AAo?$AAt?$AA?5?$AAd?$AAe?$AAr?$AAe?$AAf?$AAe?$AAr@
CONST	SEGMENT
??_C@_1HK@NLJEKNBE@?$AA?$CC?$AAc?$AAa?$AAn?$AAn?$AAo?$AAt?$AA?5?$AAd?$AAe?$AAr?$AAe?$AAf?$AAe?$AAr@ DB '"'
	DB	00H, 'c', 00H, 'a', 00H, 'n', 00H, 'n', 00H, 'o', 00H, 't', 00H
	DB	' ', 00H, 'd', 00H, 'e', 00H, 'r', 00H, 'e', 00H, 'f', 00H, 'e'
	DB	00H, 'r', 00H, 'e', 00H, 'n', 00H, 'c', 00H, 'e', 00H, ' ', 00H
	DB	'v', 00H, 'a', 00H, 'l', 00H, 'u', 00H, 'e', 00H, '-', 00H, 'i'
	DB	00H, 'n', 00H, 'i', 00H, 't', 00H, 'i', 00H, 'a', 00H, 'l', 00H
	DB	'i', 00H, 'z', 00H, 'e', 00H, 'd', 00H, ' ', 00H, 'v', 00H, 'e'
	DB	00H, 'c', 00H, 't', 00H, 'o', 00H, 'r', 00H, '<', 00H, 'b', 00H
	DB	'o', 00H, 'o', 00H, 'l', 00H, '>', 00H, ' ', 00H, 'i', 00H, 't'
	DB	00H, 'e', 00H, 'r', 00H, 'a', 00H, 't', 00H, 'o', 00H, 'r', 00H
	DB	'"', 00H, 00H, 00H				; `string'
CONST	ENDS
;	COMDAT ??_C@_1LK@OCBBIODL@?$AAs?$AAt?$AAd?$AA?3?$AA?3?$AA_?$AAV?$AAb?$AA_?$AAi?$AAt?$AAe?$AAr?$AAa?$AAt@
CONST	SEGMENT
??_C@_1LK@OCBBIODL@?$AAs?$AAt?$AAd?$AA?3?$AA?3?$AA_?$AAV?$AAb?$AA_?$AAi?$AAt?$AAe?$AAr?$AAa?$AAt@ DB 's'
	DB	00H, 't', 00H, 'd', 00H, ':', 00H, ':', 00H, '_', 00H, 'V', 00H
	DB	'b', 00H, '_', 00H, 'i', 00H, 't', 00H, 'e', 00H, 'r', 00H, 'a'
	DB	00H, 't', 00H, 'o', 00H, 'r', 00H, '<', 00H, 's', 00H, 't', 00H
	DB	'r', 00H, 'u', 00H, 'c', 00H, 't', 00H, ' ', 00H, 's', 00H, 't'
	DB	00H, 'd', 00H, ':', 00H, ':', 00H, '_', 00H, 'W', 00H, 'r', 00H
	DB	'a', 00H, 'p', 00H, '_', 00H, 'a', 00H, 'l', 00H, 'l', 00H, 'o'
	DB	00H, 'c', 00H, '<', 00H, 'c', 00H, 'l', 00H, 'a', 00H, 's', 00H
	DB	's', 00H, ' ', 00H, 's', 00H, 't', 00H, 'd', 00H, ':', 00H, ':'
	DB	00H, 'a', 00H, 'l', 00H, 'l', 00H, 'o', 00H, 'c', 00H, 'a', 00H
	DB	't', 00H, 'o', 00H, 'r', 00H, '<', 00H, 'u', 00H, 'n', 00H, 's'
	DB	00H, 'i', 00H, 'g', 00H, 'n', 00H, 'e', 00H, 'd', 00H, ' ', 00H
	DB	'i', 00H, 'n', 00H, 't', 00H, '>', 00H, ' ', 00H, '>', 00H, ' '
	DB	00H, '>', 00H, ':', 00H, ':', 00H, 'o', 00H, 'p', 00H, 'e', 00H
	DB	'r', 00H, 'a', 00H, 't', 00H, 'o', 00H, 'r', 00H, ' ', 00H, '*'
	DB	00H, 00H, 00H				; `string'
CONST	ENDS
;	COMDAT ??_C@_0DL@EIIPGNKA@cannot?5dereference?5value?9initia@
CONST	SEGMENT
??_C@_0DL@EIIPGNKA@cannot?5dereference?5value?9initia@ DB 'cannot derefer'
	DB	'ence value-initialized vector<bool> iterator', 00H ; `string'
CONST	ENDS
;	COMDAT ??_C@_0N@LPFKKEBD@?3AM?3am?3PM?3pm@
CONST	SEGMENT
??_C@_0N@LPFKKEBD@?3AM?3am?3PM?3pm@ DB ':AM:am:PM:pm', 00H ; `string'
CONST	ENDS
;	COMDAT ??_C@_1EM@HCHFCCIP@?$AA?$CC?$AAv?$AAe?$AAc?$AAt?$AAo?$AAr?$AA?$DM?$AAb?$AAo?$AAo?$AAl?$AA?$DO?$AA?5?$AAs@
CONST	SEGMENT
??_C@_1EM@HCHFCCIP@?$AA?$CC?$AAv?$AAe?$AAc?$AAt?$AAo?$AAr?$AA?$DM?$AAb?$AAo?$AAo?$AAl?$AA?$DO?$AA?5?$AAs@ DB '"'
	DB	00H, 'v', 00H, 'e', 00H, 'c', 00H, 't', 00H, 'o', 00H, 'r', 00H
	DB	'<', 00H, 'b', 00H, 'o', 00H, 'o', 00H, 'l', 00H, '>', 00H, ' '
	DB	00H, 's', 00H, 'u', 00H, 'b', 00H, 's', 00H, 'c', 00H, 'r', 00H
	DB	'i', 00H, 'p', 00H, 't', 00H, ' ', 00H, 'o', 00H, 'u', 00H, 't'
	DB	00H, ' ', 00H, 'o', 00H, 'f', 00H, ' ', 00H, 'r', 00H, 'a', 00H
	DB	'n', 00H, 'g', 00H, 'e', 00H, '"', 00H, 00H, 00H ; `string'
CONST	ENDS
;	COMDAT ??_C@_1HG@KMENFMCO@?$AAs?$AAt?$AAd?$AA?3?$AA?3?$AAv?$AAe?$AAc?$AAt?$AAo?$AAr?$AA?$DM?$AAb?$AAo?$AAo@
CONST	SEGMENT
??_C@_1HG@KMENFMCO@?$AAs?$AAt?$AAd?$AA?3?$AA?3?$AAv?$AAe?$AAc?$AAt?$AAo?$AAr?$AA?$DM?$AAb?$AAo?$AAo@ DB 's'
	DB	00H, 't', 00H, 'd', 00H, ':', 00H, ':', 00H, 'v', 00H, 'e', 00H
	DB	'c', 00H, 't', 00H, 'o', 00H, 'r', 00H, '<', 00H, 'b', 00H, 'o'
	DB	00H, 'o', 00H, 'l', 00H, ',', 00H, 'c', 00H, 'l', 00H, 'a', 00H
	DB	's', 00H, 's', 00H, ' ', 00H, 's', 00H, 't', 00H, 'd', 00H, ':'
	DB	00H, ':', 00H, 'a', 00H, 'l', 00H, 'l', 00H, 'o', 00H, 'c', 00H
	DB	'a', 00H, 't', 00H, 'o', 00H, 'r', 00H, '<', 00H, 'b', 00H, 'o'
	DB	00H, 'o', 00H, 'l', 00H, '>', 00H, ' ', 00H, '>', 00H, ':', 00H
	DB	':', 00H, 'o', 00H, 'p', 00H, 'e', 00H, 'r', 00H, 'a', 00H, 't'
	DB	00H, 'o', 00H, 'r', 00H, ' ', 00H, '[', 00H, ']', 00H, 00H, 00H ; `string'
CONST	ENDS
;	COMDAT ??_C@_1MO@NOHEJINP@?$AAC?$AA?3?$AA?2?$AAP?$AAr?$AAo?$AAg?$AAr?$AAa?$AAm?$AA?5?$AAF?$AAi?$AAl?$AAe@
CONST	SEGMENT
??_C@_1MO@NOHEJINP@?$AAC?$AA?3?$AA?2?$AAP?$AAr?$AAo?$AAg?$AAr?$AAa?$AAm?$AA?5?$AAF?$AAi?$AAl?$AAe@ DB 'C'
	DB	00H, ':', 00H, '\', 00H, 'P', 00H, 'r', 00H, 'o', 00H, 'g', 00H
	DB	'r', 00H, 'a', 00H, 'm', 00H, ' ', 00H, 'F', 00H, 'i', 00H, 'l'
	DB	00H, 'e', 00H, 's', 00H, ' ', 00H, '(', 00H, 'x', 00H, '8', 00H
	DB	'6', 00H, ')', 00H, '\', 00H, 'M', 00H, 'i', 00H, 'c', 00H, 'r'
	DB	00H, 'o', 00H, 's', 00H, 'o', 00H, 'f', 00H, 't', 00H, ' ', 00H
	DB	'V', 00H, 'i', 00H, 's', 00H, 'u', 00H, 'a', 00H, 'l', 00H, ' '
	DB	00H, 'S', 00H, 't', 00H, 'u', 00H, 'd', 00H, 'i', 00H, 'o', 00H
	DB	'\', 00H, '2', 00H, '0', 00H, '1', 00H, '9', 00H, '\', 00H, 'C'
	DB	00H, 'o', 00H, 'm', 00H, 'm', 00H, 'u', 00H, 'n', 00H, 'i', 00H
	DB	't', 00H, 'y', 00H, '\', 00H, 'V', 00H, 'C', 00H, '\', 00H, 'T'
	DB	00H, 'o', 00H, 'o', 00H, 'l', 00H, 's', 00H, '\', 00H, 'M', 00H
	DB	'S', 00H, 'V', 00H, 'C', 00H, '\', 00H, '1', 00H, '4', 00H, '.'
	DB	00H, '2', 00H, '9', 00H, '.', 00H, '3', 00H, '0', 00H, '1', 00H
	DB	'3', 00H, '3', 00H, '\', 00H, 'i', 00H, 'n', 00H, 'c', 00H, 'l'
	DB	00H, 'u', 00H, 'd', 00H, 'e', 00H, '\', 00H, 'v', 00H, 'e', 00H
	DB	'c', 00H, 't', 00H, 'o', 00H, 'r', 00H, 00H, 00H ; `string'
CONST	ENDS
;	COMDAT ??_C@_0GH@KMHDIFOI@C?3?2Program?5Files?5?$CIx86?$CJ?2Microsof@
CONST	SEGMENT
??_C@_0GH@KMHDIFOI@C?3?2Program?5Files?5?$CIx86?$CJ?2Microsof@ DB 'C:\Pro'
	DB	'gram Files (x86)\Microsoft Visual Studio\2019\Community\VC\To'
	DB	'ols\MSVC\14.29.30133\include\vector', 00H	; `string'
CONST	ENDS
;	COMDAT ??_C@_0CE@FFEOOBMH@vector?$DMbool?$DO?5subscript?5out?5of?5r@
CONST	SEGMENT
??_C@_0CE@FFEOOBMH@vector?$DMbool?$DO?5subscript?5out?5of?5r@ DB 'vector<'
	DB	'bool> subscript out of range', 00H		; `string'
CONST	ENDS
;	COMDAT ??_SSprite@sf@@6BTransformable@1@@
CONST	SEGMENT
??_SSprite@sf@@6BTransformable@1@@ DD FLAT:??_R4Sprite@sf@@6BTransformable@1@@ ; sf::Sprite::`local vftable'
	DD	FLAT:??_ESprite@sf@@W3AEPAXI@Z
CONST	ENDS
;	COMDAT ??_SSprite@sf@@6BDrawable@1@@
CONST	SEGMENT
??_SSprite@sf@@6BDrawable@1@@ DD FLAT:??_R4Sprite@sf@@6BDrawable@1@@ ; sf::Sprite::`local vftable'
	DD	FLAT:??_ESprite@sf@@UAEPAXI@Z
	DD	FLAT:?draw@Sprite@sf@@EBEXAAVRenderTarget@2@VRenderStates@2@@Z
CONST	ENDS
;	COMDAT ??_C@_0GI@OGMNKBMN@C?3?2Program?5Files?5?$CIx86?$CJ?2Microsof@
CONST	SEGMENT
??_C@_0GI@OGMNKBMN@C?3?2Program?5Files?5?$CIx86?$CJ?2Microsof@ DB 'C:\Pro'
	DB	'gram Files (x86)\Microsoft Visual Studio\2019\Community\VC\To'
	DB	'ols\MSVC\14.29.30133\include\xlocnum', 00H	; `string'
CONST	ENDS
;	COMDAT ??_C@_0GI@GFIAKDGM@C?3?2Program?5Files?5?$CIx86?$CJ?2Microsof@
CONST	SEGMENT
??_C@_0GI@GFIAKDGM@C?3?2Program?5Files?5?$CIx86?$CJ?2Microsof@ DB 'C:\Pro'
	DB	'gram Files (x86)\Microsoft Visual Studio\2019\Community\VC\To'
	DB	'ols\MSVC\14.29.30133\include\xlocale', 00H	; `string'
CONST	ENDS
;	COMDAT ??_C@_1DG@PLBPCAEM@?$AA?$CC?$AAI?$AAT?$AAE?$AAR?$AAA?$AAT?$AAO?$AAR?$AA?5?$AAL?$AAI?$AAS?$AAT?$AA?5@
CONST	SEGMENT
??_C@_1DG@PLBPCAEM@?$AA?$CC?$AAI?$AAT?$AAE?$AAR?$AAA?$AAT?$AAO?$AAR?$AA?5?$AAL?$AAI?$AAS?$AAT?$AA?5@ DB '"'
	DB	00H, 'I', 00H, 'T', 00H, 'E', 00H, 'R', 00H, 'A', 00H, 'T', 00H
	DB	'O', 00H, 'R', 00H, ' ', 00H, 'L', 00H, 'I', 00H, 'S', 00H, 'T'
	DB	00H, ' ', 00H, 'C', 00H, 'O', 00H, 'R', 00H, 'R', 00H, 'U', 00H
	DB	'P', 00H, 'T', 00H, 'E', 00H, 'D', 00H, '!', 00H, '"', 00H, 00H
	DB	00H						; `string'
CONST	ENDS
;	COMDAT ??_C@_1FM@FOFDAEGI@?$AAs?$AAt?$AAd?$AA?3?$AA?3?$AA_?$AAI?$AAt?$AAe?$AAr?$AAa?$AAt?$AAo?$AAr?$AA_@
CONST	SEGMENT
??_C@_1FM@FOFDAEGI@?$AAs?$AAt?$AAd?$AA?3?$AA?3?$AA_?$AAI?$AAt?$AAe?$AAr?$AAa?$AAt?$AAo?$AAr?$AA_@ DB 's'
	DB	00H, 't', 00H, 'd', 00H, ':', 00H, ':', 00H, '_', 00H, 'I', 00H
	DB	't', 00H, 'e', 00H, 'r', 00H, 'a', 00H, 't', 00H, 'o', 00H, 'r'
	DB	00H, '_', 00H, 'b', 00H, 'a', 00H, 's', 00H, 'e', 00H, '1', 00H
	DB	'2', 00H, ':', 00H, ':', 00H, '_', 00H, 'O', 00H, 'r', 00H, 'p'
	DB	00H, 'h', 00H, 'a', 00H, 'n', 00H, '_', 00H, 'm', 00H, 'e', 00H
	DB	'_', 00H, 'u', 00H, 'n', 00H, 'l', 00H, 'o', 00H, 'c', 00H, 'k'
	DB	00H, 'e', 00H, 'd', 00H, '_', 00H, 'v', 00H, '3', 00H, 00H, 00H ; `string'
CONST	ENDS
;	COMDAT ??_C@_0BJ@LFDBABJJ@ITERATOR?5LIST?5CORRUPTED?$CB@
CONST	SEGMENT
??_C@_0BJ@LFDBABJJ@ITERATOR?5LIST?5CORRUPTED?$CB@ DB 'ITERATOR LIST CORRU'
	DB	'PTED!', 00H					; `string'
CONST	ENDS
;	COMDAT ??_C@_1CG@JNLFBNGN@?$AA?$CC?$AAi?$AAn?$AAv?$AAa?$AAl?$AAi?$AAd?$AA?5?$AAa?$AAr?$AAg?$AAu?$AAm?$AAe@
CONST	SEGMENT
??_C@_1CG@JNLFBNGN@?$AA?$CC?$AAi?$AAn?$AAv?$AAa?$AAl?$AAi?$AAd?$AA?5?$AAa?$AAr?$AAg?$AAu?$AAm?$AAe@ DB '"'
	DB	00H, 'i', 00H, 'n', 00H, 'v', 00H, 'a', 00H, 'l', 00H, 'i', 00H
	DB	'd', 00H, ' ', 00H, 'a', 00H, 'r', 00H, 'g', 00H, 'u', 00H, 'm'
	DB	00H, 'e', 00H, 'n', 00H, 't', 00H, '"', 00H, 00H, 00H ; `string'
CONST	ENDS
;	COMDAT ??_C@_1EK@NIFDJFDG@?$AAs?$AAt?$AAd?$AA?3?$AA?3?$AA_?$AAA?$AAd?$AAj?$AAu?$AAs?$AAt?$AA_?$AAm?$AAa@
CONST	SEGMENT
??_C@_1EK@NIFDJFDG@?$AAs?$AAt?$AAd?$AA?3?$AA?3?$AA_?$AAA?$AAd?$AAj?$AAu?$AAs?$AAt?$AA_?$AAm?$AAa@ DB 's'
	DB	00H, 't', 00H, 'd', 00H, ':', 00H, ':', 00H, '_', 00H, 'A', 00H
	DB	'd', 00H, 'j', 00H, 'u', 00H, 's', 00H, 't', 00H, '_', 00H, 'm'
	DB	00H, 'a', 00H, 'n', 00H, 'u', 00H, 'a', 00H, 'l', 00H, 'l', 00H
	DB	'y', 00H, '_', 00H, 'v', 00H, 'e', 00H, 'c', 00H, 't', 00H, 'o'
	DB	00H, 'r', 00H, '_', 00H, 'a', 00H, 'l', 00H, 'i', 00H, 'g', 00H
	DB	'n', 00H, 'e', 00H, 'd', 00H, 00H, 00H	; `string'
CONST	ENDS
;	COMDAT ??_C@_1NA@MJBOBEJL@?$AAC?$AA?3?$AA?2?$AAP?$AAr?$AAo?$AAg?$AAr?$AAa?$AAm?$AA?5?$AAF?$AAi?$AAl?$AAe@
CONST	SEGMENT
??_C@_1NA@MJBOBEJL@?$AAC?$AA?3?$AA?2?$AAP?$AAr?$AAo?$AAg?$AAr?$AAa?$AAm?$AA?5?$AAF?$AAi?$AAl?$AAe@ DB 'C'
	DB	00H, ':', 00H, '\', 00H, 'P', 00H, 'r', 00H, 'o', 00H, 'g', 00H
	DB	'r', 00H, 'a', 00H, 'm', 00H, ' ', 00H, 'F', 00H, 'i', 00H, 'l'
	DB	00H, 'e', 00H, 's', 00H, ' ', 00H, '(', 00H, 'x', 00H, '8', 00H
	DB	'6', 00H, ')', 00H, '\', 00H, 'M', 00H, 'i', 00H, 'c', 00H, 'r'
	DB	00H, 'o', 00H, 's', 00H, 'o', 00H, 'f', 00H, 't', 00H, ' ', 00H
	DB	'V', 00H, 'i', 00H, 's', 00H, 'u', 00H, 'a', 00H, 'l', 00H, ' '
	DB	00H, 'S', 00H, 't', 00H, 'u', 00H, 'd', 00H, 'i', 00H, 'o', 00H
	DB	'\', 00H, '2', 00H, '0', 00H, '1', 00H, '9', 00H, '\', 00H, 'C'
	DB	00H, 'o', 00H, 'm', 00H, 'm', 00H, 'u', 00H, 'n', 00H, 'i', 00H
	DB	't', 00H, 'y', 00H, '\', 00H, 'V', 00H, 'C', 00H, '\', 00H, 'T'
	DB	00H, 'o', 00H, 'o', 00H, 'l', 00H, 's', 00H, '\', 00H, 'M', 00H
	DB	'S', 00H, 'V', 00H, 'C', 00H, '\', 00H, '1', 00H, '4', 00H, '.'
	DB	00H, '2', 00H, '9', 00H, '.', 00H, '3', 00H, '0', 00H, '1', 00H
	DB	'3', 00H, '3', 00H, '\', 00H, 'i', 00H, 'n', 00H, 'c', 00H, 'l'
	DB	00H, 'u', 00H, 'd', 00H, 'e', 00H, '\', 00H, 'x', 00H, 'm', 00H
	DB	'e', 00H, 'm', 00H, 'o', 00H, 'r', 00H, 'y', 00H, 00H, 00H ; `string'
CONST	ENDS
;	COMDAT ??_C@_0GI@MNEMJBML@C?3?2Program?5Files?5?$CIx86?$CJ?2Microsof@
CONST	SEGMENT
??_C@_0GI@MNEMJBML@C?3?2Program?5Files?5?$CIx86?$CJ?2Microsof@ DB 'C:\Pro'
	DB	'gram Files (x86)\Microsoft Visual Studio\2019\Community\VC\To'
	DB	'ols\MSVC\14.29.30133\include\xmemory', 00H	; `string'
CONST	ENDS
;	COMDAT ??_C@_02DKCKIIND@?$CFs@
CONST	SEGMENT
??_C@_02DKCKIIND@?$CFs@ DB '%s', 00H			; `string'
CONST	ENDS
;	COMDAT ??_C@_0BB@FCMFBGOM@invalid?5argument@
CONST	SEGMENT
??_C@_0BB@FCMFBGOM@invalid?5argument@ DB 'invalid argument', 00H ; `string'
CONST	ENDS
;	COMDAT __CT??_R0?AVexception@std@@@8??0exception@std@@QAE@ABV01@@Z12
xdata$x	SEGMENT
__CT??_R0?AVexception@std@@@8??0exception@std@@QAE@ABV01@@Z12 DD 00H
	DD	FLAT:??_R0?AVexception@std@@@8
	DD	00H
	DD	0ffffffffH
	ORG $+4
	DD	0cH
	DD	FLAT:??0exception@std@@QAE@ABV01@@Z
xdata$x	ENDS
;	COMDAT ??_R0?AVexception@std@@@8
data$r	SEGMENT
??_R0?AVexception@std@@@8 DD FLAT:??_7type_info@@6B@	; std::exception `RTTI Type Descriptor'
	DD	00H
	DB	'.?AVexception@std@@', 00H
data$r	ENDS
;	COMDAT __CT??_R0?AVbad_alloc@std@@@8??0bad_alloc@std@@QAE@ABV01@@Z12
xdata$x	SEGMENT
__CT??_R0?AVbad_alloc@std@@@8??0bad_alloc@std@@QAE@ABV01@@Z12 DD 010H
	DD	FLAT:??_R0?AVbad_alloc@std@@@8
	DD	00H
	DD	0ffffffffH
	ORG $+4
	DD	0cH
	DD	FLAT:??0bad_alloc@std@@QAE@ABV01@@Z
xdata$x	ENDS
;	COMDAT ??_R0?AVbad_alloc@std@@@8
data$r	SEGMENT
??_R0?AVbad_alloc@std@@@8 DD FLAT:??_7type_info@@6B@	; std::bad_alloc `RTTI Type Descriptor'
	DD	00H
	DB	'.?AVbad_alloc@std@@', 00H
data$r	ENDS
;	COMDAT __CT??_R0?AVbad_array_new_length@std@@@8??0bad_array_new_length@std@@QAE@ABV01@@Z12
xdata$x	SEGMENT
__CT??_R0?AVbad_array_new_length@std@@@8??0bad_array_new_length@std@@QAE@ABV01@@Z12 DD 00H
	DD	FLAT:??_R0?AVbad_array_new_length@std@@@8
	DD	00H
	DD	0ffffffffH
	ORG $+4
	DD	0cH
	DD	FLAT:??0bad_array_new_length@std@@QAE@ABV01@@Z
xdata$x	ENDS
;	COMDAT ??_R0?AVbad_array_new_length@std@@@8
data$r	SEGMENT
??_R0?AVbad_array_new_length@std@@@8 DD FLAT:??_7type_info@@6B@ ; std::bad_array_new_length `RTTI Type Descriptor'
	DD	00H
	DB	'.?AVbad_array_new_length@std@@', 00H
data$r	ENDS
;	COMDAT __CTA3?AVbad_array_new_length@std@@
xdata$x	SEGMENT
__CTA3?AVbad_array_new_length@std@@ DD 03H
	DD	FLAT:__CT??_R0?AVbad_array_new_length@std@@@8??0bad_array_new_length@std@@QAE@ABV01@@Z12
	DD	FLAT:__CT??_R0?AVbad_alloc@std@@@8??0bad_alloc@std@@QAE@ABV01@@Z12
	DD	FLAT:__CT??_R0?AVexception@std@@@8??0exception@std@@QAE@ABV01@@Z12
xdata$x	ENDS
;	COMDAT __TI3?AVbad_array_new_length@std@@
xdata$x	SEGMENT
__TI3?AVbad_array_new_length@std@@ DD 00H
	DD	FLAT:??1bad_array_new_length@std@@UAE@XZ
	DD	00H
	DD	FLAT:__CTA3?AVbad_array_new_length@std@@
xdata$x	ENDS
;	COMDAT ??_C@_0BF@KINCDENJ@bad?5array?5new?5length@
CONST	SEGMENT
??_C@_0BF@KINCDENJ@bad?5array?5new?5length@ DB 'bad array new length', 00H ; `string'
CONST	ENDS
;	COMDAT ??_7bad_array_new_length@std@@6B@
CONST	SEGMENT
??_7bad_array_new_length@std@@6B@ DD FLAT:??_R4bad_array_new_length@std@@6B@ ; std::bad_array_new_length::`vftable'
	DD	FLAT:??_Ebad_array_new_length@std@@UAEPAXI@Z
	DD	FLAT:?what@exception@std@@UBEPBDXZ
CONST	ENDS
;	COMDAT ??_7bad_alloc@std@@6B@
CONST	SEGMENT
??_7bad_alloc@std@@6B@ DD FLAT:??_R4bad_alloc@std@@6B@	; std::bad_alloc::`vftable'
	DD	FLAT:??_Ebad_alloc@std@@UAEPAXI@Z
	DD	FLAT:?what@exception@std@@UBEPBDXZ
CONST	ENDS
;	COMDAT ??_C@_0BC@EOODALEL@Unknown?5exception@
CONST	SEGMENT
??_C@_0BC@EOODALEL@Unknown?5exception@ DB 'Unknown exception', 00H ; `string'
CONST	ENDS
;	COMDAT ??_7exception@std@@6B@
CONST	SEGMENT
??_7exception@std@@6B@ DD FLAT:??_R4exception@std@@6B@	; std::exception::`vftable'
	DD	FLAT:??_Eexception@std@@UAEPAXI@Z
	DD	FLAT:?what@exception@std@@UBEPBDXZ
CONST	ENDS
;	COMDAT voltbl
voltbl	SEGMENT
_volmd	DB	016H
	DB	020H
voltbl	ENDS
;	COMDAT voltbl
voltbl	SEGMENT
_volmd	DW	038H
	DW	0100H
voltbl	ENDS
;	COMDAT xdata$x
xdata$x	SEGMENT
__unwindtable$??$_Uninitialized_value_construct_n@V?$allocator@PAVSprite@sf@@@std@@@std@@YAPAPAVSprite@sf@@PAPAV12@IAAV?$allocator@PAVSprite@sf@@@0@@Z DD 0ffffffffH
	DD	FLAT:__unwindfunclet$??$_Uninitialized_value_construct_n@V?$allocator@PAVSprite@sf@@@std@@@std@@YAPAPAVSprite@sf@@PAPAV12@IAAV?$allocator@PAVSprite@sf@@@0@@Z$0
__ehfuncinfo$??$_Uninitialized_value_construct_n@V?$allocator@PAVSprite@sf@@@std@@@std@@YAPAPAVSprite@sf@@PAPAV12@IAAV?$allocator@PAVSprite@sf@@@0@@Z DD 019930522H
	DD	01H
	DD	FLAT:__unwindtable$??$_Uninitialized_value_construct_n@V?$allocator@PAVSprite@sf@@@std@@@std@@YAPAPAVSprite@sf@@PAPAV12@IAAV?$allocator@PAVSprite@sf@@@0@@Z
	DD	2 DUP(00H)
	DD	2 DUP(00H)
	DD	00H
	DD	01H
xdata$x	ENDS
;	COMDAT voltbl
voltbl	SEGMENT
_volmd	DB	016H
	DB	020H
voltbl	ENDS
;	COMDAT voltbl
voltbl	SEGMENT
_volmd	DW	03bH
	DW	012eH
voltbl	ENDS
;	COMDAT xdata$x
xdata$x	SEGMENT
__unwindtable$??$_Uninitialized_move@PAPAVTexture@sf@@V?$allocator@PAVTexture@sf@@@std@@@std@@YAPAPAVTexture@sf@@QAPAV12@0PAPAV12@AAV?$allocator@PAVTexture@sf@@@0@@Z DD 0ffffffffH
	DD	FLAT:__unwindfunclet$??$_Uninitialized_move@PAPAVTexture@sf@@V?$allocator@PAVTexture@sf@@@std@@@std@@YAPAPAVTexture@sf@@QAPAV12@0PAPAV12@AAV?$allocator@PAVTexture@sf@@@0@@Z$0
__ehfuncinfo$??$_Uninitialized_move@PAPAVTexture@sf@@V?$allocator@PAVTexture@sf@@@std@@@std@@YAPAPAVTexture@sf@@QAPAV12@0PAPAV12@AAV?$allocator@PAVTexture@sf@@@0@@Z DD 019930522H
	DD	01H
	DD	FLAT:__unwindtable$??$_Uninitialized_move@PAPAVTexture@sf@@V?$allocator@PAVTexture@sf@@@std@@@std@@YAPAPAVTexture@sf@@QAPAV12@0PAPAV12@AAV?$allocator@PAVTexture@sf@@@0@@Z
	DD	2 DUP(00H)
	DD	2 DUP(00H)
	DD	00H
	DD	01H
xdata$x	ENDS
;	COMDAT voltbl
voltbl	SEGMENT
_volmd	DB	09H
voltbl	ENDS
;	COMDAT xdata$x
xdata$x	SEGMENT
__ehfuncinfo$??$_Deallocate_plain@V?$allocator@U_Container_proxy@std@@@std@@@std@@YAXAAV?$allocator@U_Container_proxy@std@@@0@QAU_Container_proxy@0@@Z DD 019930522H
	DD	00H
	DD	00H
	DD	2 DUP(00H)
	DD	2 DUP(00H)
	DD	00H
	DD	05H
xdata$x	ENDS
;	COMDAT voltbl
voltbl	SEGMENT
_volmd	DB	09H
voltbl	ENDS
;	COMDAT xdata$x
xdata$x	SEGMENT
__ehfuncinfo$??$_Deallocate@$07$0A@@std@@YAXPAXI@Z DD 019930522H
	DD	00H
	DD	00H
	DD	2 DUP(00H)
	DD	2 DUP(00H)
	DD	00H
	DD	05H
xdata$x	ENDS
;	COMDAT voltbl
voltbl	SEGMENT
_volmd	DB	01eH
	DB	028H
voltbl	ENDS
;	COMDAT voltbl
voltbl	SEGMENT
_volmd	DB	02dH
	DB	0feH
voltbl	ENDS
;	COMDAT xdata$x
xdata$x	SEGMENT
__unwindtable$??$_Construct_n_copies_of_ty@U_Value_init_tag@std@@@?$vector@PAVSprite@sf@@V?$allocator@PAVSprite@sf@@@std@@@std@@AAEXIABU_Value_init_tag@1@@Z DD 0ffffffffH
	DD	FLAT:__unwindfunclet$??$_Construct_n_copies_of_ty@U_Value_init_tag@std@@@?$vector@PAVSprite@sf@@V?$allocator@PAVSprite@sf@@@std@@@std@@AAEXIABU_Value_init_tag@1@@Z$0
	DD	00H
	DD	FLAT:__unwindfunclet$??$_Construct_n_copies_of_ty@U_Value_init_tag@std@@@?$vector@PAVSprite@sf@@V?$allocator@PAVSprite@sf@@@std@@@std@@AAEXIABU_Value_init_tag@1@@Z$1
__ehfuncinfo$??$_Construct_n_copies_of_ty@U_Value_init_tag@std@@@?$vector@PAVSprite@sf@@V?$allocator@PAVSprite@sf@@@std@@@std@@AAEXIABU_Value_init_tag@1@@Z DD 019930522H
	DD	02H
	DD	FLAT:__unwindtable$??$_Construct_n_copies_of_ty@U_Value_init_tag@std@@@?$vector@PAVSprite@sf@@V?$allocator@PAVSprite@sf@@@std@@@std@@AAEXIABU_Value_init_tag@1@@Z
	DD	2 DUP(00H)
	DD	2 DUP(00H)
	DD	00H
	DD	01H
xdata$x	ENDS
;	COMDAT voltbl
voltbl	SEGMENT
_volmd	DB	09H
voltbl	ENDS
;	COMDAT xdata$x
xdata$x	SEGMENT
__catchsym$??$_Emplace_reallocate@ABQAVTexture@sf@@@?$vector@PAVTexture@sf@@V?$allocator@PAVTexture@sf@@@std@@@std@@QAEPAPAVTexture@sf@@QAPAV23@ABQAV23@@Z$2 DD 040H
	DD	00H
	DD	00H
	DD	FLAT:__catch$??$_Emplace_reallocate@ABQAVTexture@sf@@@?$vector@PAVTexture@sf@@V?$allocator@PAVTexture@sf@@@std@@@std@@QAEPAPAVTexture@sf@@QAPAV23@ABQAV23@@Z$0
__unwindtable$??$_Emplace_reallocate@ABQAVTexture@sf@@@?$vector@PAVTexture@sf@@V?$allocator@PAVTexture@sf@@@std@@@std@@QAEPAPAVTexture@sf@@QAPAV23@ABQAV23@@Z DD 0ffffffffH
	DD	00H
	DD	0ffffffffH
	DD	00H
__tryblocktable$??$_Emplace_reallocate@ABQAVTexture@sf@@@?$vector@PAVTexture@sf@@V?$allocator@PAVTexture@sf@@@std@@@std@@QAEPAPAVTexture@sf@@QAPAV23@ABQAV23@@Z DD 00H
	DD	00H
	DD	01H
	DD	01H
	DD	FLAT:__catchsym$??$_Emplace_reallocate@ABQAVTexture@sf@@@?$vector@PAVTexture@sf@@V?$allocator@PAVTexture@sf@@@std@@@std@@QAEPAPAVTexture@sf@@QAPAV23@ABQAV23@@Z$2
__ehfuncinfo$??$_Emplace_reallocate@ABQAVTexture@sf@@@?$vector@PAVTexture@sf@@V?$allocator@PAVTexture@sf@@@std@@@std@@QAEPAPAVTexture@sf@@QAPAV23@ABQAV23@@Z DD 019930522H
	DD	02H
	DD	FLAT:__unwindtable$??$_Emplace_reallocate@ABQAVTexture@sf@@@?$vector@PAVTexture@sf@@V?$allocator@PAVTexture@sf@@@std@@@std@@QAEPAPAVTexture@sf@@QAPAV23@ABQAV23@@Z
	DD	01H
	DD	FLAT:__tryblocktable$??$_Emplace_reallocate@ABQAVTexture@sf@@@?$vector@PAVTexture@sf@@V?$allocator@PAVTexture@sf@@@std@@@std@@QAEPAPAVTexture@sf@@QAPAV23@ABQAV23@@Z
	DD	2 DUP(00H)
	DD	00H
	DD	01H
xdata$x	ENDS
;	COMDAT voltbl
voltbl	SEGMENT
_volmd	DB	02bH
	DB	0f3H
voltbl	ENDS
;	COMDAT voltbl
voltbl	SEGMENT
_volmd	DB	09H
voltbl	ENDS
;	COMDAT xdata$x
xdata$x	SEGMENT
__ehfuncinfo$?_Tidy@?$vector@IV?$allocator@I@std@@@std@@AAEXXZ DD 019930522H
	DD	00H
	DD	00H
	DD	2 DUP(00H)
	DD	2 DUP(00H)
	DD	00H
	DD	05H
xdata$x	ENDS
;	COMDAT voltbl
voltbl	SEGMENT
_volmd	DB	027H
	DB	08bH
voltbl	ENDS
;	COMDAT voltbl
voltbl	SEGMENT
_volmd	DB	027H
	DB	096H
voltbl	ENDS
;	COMDAT voltbl
voltbl	SEGMENT
_volmd	DB	020H
	DB	02aH
voltbl	ENDS
;	COMDAT voltbl
voltbl	SEGMENT
_volmd	DB	030H
	DB	0abH
voltbl	ENDS
;	COMDAT xdata$x
xdata$x	SEGMENT
__unwindtable$?_Orphan_range_locked@?$vector@PAVTexture@sf@@V?$allocator@PAVTexture@sf@@@std@@@std@@ABEXPAPAVTexture@sf@@0@Z DD 0ffffffffH
	DD	FLAT:__unwindfunclet$?_Orphan_range_locked@?$vector@PAVTexture@sf@@V?$allocator@PAVTexture@sf@@@std@@@std@@ABEXPAPAVTexture@sf@@0@Z$0
__ehfuncinfo$?_Orphan_range_locked@?$vector@PAVTexture@sf@@V?$allocator@PAVTexture@sf@@@std@@@std@@ABEXPAPAVTexture@sf@@0@Z DD 019930522H
	DD	01H
	DD	FLAT:__unwindtable$?_Orphan_range_locked@?$vector@PAVTexture@sf@@V?$allocator@PAVTexture@sf@@@std@@@std@@ABEXPAPAVTexture@sf@@0@Z
	DD	2 DUP(00H)
	DD	2 DUP(00H)
	DD	00H
	DD	01H
xdata$x	ENDS
;	COMDAT voltbl
voltbl	SEGMENT
_volmd	DB	09H
voltbl	ENDS
;	COMDAT xdata$x
xdata$x	SEGMENT
__ehfuncinfo$?_Tidy@?$vector@PAVTexture@sf@@V?$allocator@PAVTexture@sf@@@std@@@std@@AAEXXZ DD 019930522H
	DD	00H
	DD	00H
	DD	2 DUP(00H)
	DD	2 DUP(00H)
	DD	00H
	DD	05H
xdata$x	ENDS
;	COMDAT voltbl
voltbl	SEGMENT
_volmd	DB	027H
	DB	08bH
voltbl	ENDS
;	COMDAT voltbl
voltbl	SEGMENT
_volmd	DB	09H
voltbl	ENDS
;	COMDAT xdata$x
xdata$x	SEGMENT
__ehfuncinfo$??0?$vector@PAVTexture@sf@@V?$allocator@PAVTexture@sf@@@std@@@std@@QAE@XZ DD 019930522H
	DD	00H
	DD	00H
	DD	2 DUP(00H)
	DD	2 DUP(00H)
	DD	00H
	DD	05H
xdata$x	ENDS
;	COMDAT voltbl
voltbl	SEGMENT
_volmd	DB	09H
voltbl	ENDS
;	COMDAT xdata$x
xdata$x	SEGMENT
__ehfuncinfo$?_Tidy@?$vector@PAVSprite@sf@@V?$allocator@PAVSprite@sf@@@std@@@std@@AAEXXZ DD 019930522H
	DD	00H
	DD	00H
	DD	2 DUP(00H)
	DD	2 DUP(00H)
	DD	00H
	DD	05H
xdata$x	ENDS
;	COMDAT voltbl
voltbl	SEGMENT
_volmd	DB	027H
	DB	08bH
voltbl	ENDS
voltbl	SEGMENT
_volmd	DD	0ffffffffH
	DDSymXIndex: 	FLAT:__unwindfunclet$?move@Player@@QAEXV?$tuple@W4DIRDEP@@W41@@std@@V?$vector@_NV?$allocator@_N@std@@@3@@Z$0
	DD	016H
_volmd	DD	0ffffffffH
	DDSymXIndex: 	FLAT:__unwindfunclet$??0Player@@QAE@HHPAV?$vector@PAVImage@sf@@V?$allocator@PAVImage@sf@@@std@@@std@@@Z$0
	DD	05cH
	DD	069H
_volmd	DD	0ffffffffH
	DDSymXIndex: 	FLAT:??0Player@@QAE@HHPAV?$vector@PAVImage@sf@@V?$allocator@PAVImage@sf@@@std@@@std@@@Z
	DD	034H
	DD	03cdH
voltbl	ENDS
xdata$x	SEGMENT
__unwindtable$?move@Player@@QAEXV?$tuple@W4DIRDEP@@W41@@std@@V?$vector@_NV?$allocator@_N@std@@@3@@Z DD 0ffffffffH
	DD	FLAT:__unwindfunclet$?move@Player@@QAEXV?$tuple@W4DIRDEP@@W41@@std@@V?$vector@_NV?$allocator@_N@std@@@3@@Z$0
__ehfuncinfo$?move@Player@@QAEXV?$tuple@W4DIRDEP@@W41@@std@@V?$vector@_NV?$allocator@_N@std@@@3@@Z DD 019930522H
	DD	01H
	DD	FLAT:__unwindtable$?move@Player@@QAEXV?$tuple@W4DIRDEP@@W41@@std@@V?$vector@_NV?$allocator@_N@std@@@3@@Z
	DD	2 DUP(00H)
	DD	2 DUP(00H)
	DD	00H
	DD	01H
__ehfuncinfo$??0Player@@QAE@HHPAV?$vector@PAVImage@sf@@V?$allocator@PAVImage@sf@@@std@@@std@@@Z DD 019930522H
	DD	05H
	DD	FLAT:__unwindtable$??0Player@@QAE@HHPAV?$vector@PAVImage@sf@@V?$allocator@PAVImage@sf@@@std@@@std@@@Z
	DD	2 DUP(00H)
	DD	2 DUP(00H)
	DD	00H
	DD	01H
__unwindtable$??0Player@@QAE@HHPAV?$vector@PAVImage@sf@@V?$allocator@PAVImage@sf@@@std@@@std@@@Z DD 0ffffffffH
	DD	FLAT:__unwindfunclet$??0Player@@QAE@HHPAV?$vector@PAVImage@sf@@V?$allocator@PAVImage@sf@@@std@@@std@@@Z$0
	DD	0ffffffffH
	DD	FLAT:__unwindfunclet$??0Player@@QAE@HHPAV?$vector@PAVImage@sf@@V?$allocator@PAVImage@sf@@@std@@@std@@@Z$1
	DD	0ffffffffH
	DD	FLAT:__unwindfunclet$??0Player@@QAE@HHPAV?$vector@PAVImage@sf@@V?$allocator@PAVImage@sf@@@std@@@std@@@Z$2
	DD	0ffffffffH
	DD	FLAT:__unwindfunclet$??0Player@@QAE@HHPAV?$vector@PAVImage@sf@@V?$allocator@PAVImage@sf@@@std@@@std@@@Z$3
	DD	0ffffffffH
	DD	FLAT:__unwindfunclet$??0Player@@QAE@HHPAV?$vector@PAVImage@sf@@V?$allocator@PAVImage@sf@@@std@@@std@@@Z$4
xdata$x	ENDS
;	COMDAT voltbl
voltbl	SEGMENT
_volmd	DW	01eH
	DW	0160H
voltbl	ENDS
;	COMDAT voltbl
voltbl	SEGMENT
_volmd	DB	022H
	DB	072H
voltbl	ENDS
;	COMDAT voltbl
voltbl	SEGMENT
_volmd	DB	022H
	DB	076H
voltbl	ENDS
;	COMDAT voltbl
voltbl	SEGMENT
_volmd	DB	022H
	DB	072H
voltbl	ENDS
; Function compile flags: /Odt
;	COMDAT __JustMyCode_Default
_TEXT	SEGMENT
__JustMyCode_Default PROC				; COMDAT
  00000	55		 push	 ebp
  00001	8b ec		 mov	 ebp, esp
  00003	5d		 pop	 ebp
  00004	c3		 ret	 0
__JustMyCode_Default ENDP
_TEXT	ENDS
; Function compile flags: /Odsp /RTCsu
;	COMDAT ??_ESprite@sf@@W3AEPAXI@Z
_TEXT	SEGMENT
??_ESprite@sf@@W3AEPAXI@Z PROC				; [thunk]:sf::Sprite::`vector deleting destructor', COMDAT
  00000	83 e9 04	 sub	 ecx, 4
  00003	e9 00 00 00 00	 jmp	 ??_ESprite@sf@@UAEPAXI@Z
??_ESprite@sf@@W3AEPAXI@Z ENDP				; [thunk]:sf::Sprite::`vector deleting destructor'
_TEXT	ENDS
; Function compile flags: /Odtp /RTCsu
; File C:\Program Files (x86)\Microsoft Visual Studio\2019\Community\VC\Tools\MSVC\14.29.30133\include\xutility
;	COMDAT ??$_Voidify_iter@PAPAVSprite@sf@@@std@@YAPAXPAPAVSprite@sf@@@Z
_TEXT	SEGMENT
__It$ = 8						; size = 4
??$_Voidify_iter@PAPAVSprite@sf@@@std@@YAPAXPAPAVSprite@sf@@@Z PROC ; std::_Voidify_iter<sf::Sprite * *>, COMDAT

; 130  : _NODISCARD constexpr void* _Voidify_iter(_Iter _It) noexcept {

  00000	55		 push	 ebp
  00001	8b ec		 mov	 ebp, esp
  00003	b9 00 00 00 00	 mov	 ecx, OFFSET __12269DE6_xutility
  00008	e8 00 00 00 00	 call	 @__CheckForDebuggerJustMyCode@4

; 131  :     if constexpr (is_pointer_v<_Iter>) {
; 132  :         return const_cast<void*>(static_cast<const volatile void*>(_It));

  0000d	8b 45 08	 mov	 eax, DWORD PTR __It$[ebp]

; 133  :     } else {
; 134  :         return const_cast<void*>(static_cast<const volatile void*>(_STD addressof(*_It)));
; 135  :     }
; 136  : }

  00010	3b ec		 cmp	 ebp, esp
  00012	e8 00 00 00 00	 call	 __RTC_CheckEsp
  00017	5d		 pop	 ebp
  00018	c3		 ret	 0
??$_Voidify_iter@PAPAVSprite@sf@@@std@@YAPAXPAPAVSprite@sf@@@Z ENDP ; std::_Voidify_iter<sf::Sprite * *>
_TEXT	ENDS
; Function compile flags: /Odtp /RTCsu
; File C:\Program Files (x86)\Microsoft Visual Studio\2019\Community\VC\Tools\MSVC\14.29.30133\include\xutility
;	COMDAT ??$construct_at@PAVSprite@sf@@$$VX@std@@YAPAPAVSprite@sf@@QAPAV12@@Z
_TEXT	SEGMENT
tv72 = -16						; size = 4
tv74 = -12						; size = 4
$T1 = -8						; size = 4
$T2 = -4						; size = 4
__Location$ = 8						; size = 4
??$construct_at@PAVSprite@sf@@$$VX@std@@YAPAPAVSprite@sf@@QAPAV12@@Z PROC ; std::construct_at<sf::Sprite *,void>, COMDAT

; 143  :     noexcept(::new (_Voidify_iter(_Location)) _Ty(_STD forward<_Types>(_Args)...))) /* strengthened */ {

  00000	55		 push	 ebp
  00001	8b ec		 mov	 ebp, esp
  00003	83 ec 10	 sub	 esp, 16			; 00000010H
  00006	b8 cc cc cc cc	 mov	 eax, -858993460		; ccccccccH
  0000b	89 45 f0	 mov	 DWORD PTR [ebp-16], eax
  0000e	89 45 f4	 mov	 DWORD PTR [ebp-12], eax
  00011	89 45 f8	 mov	 DWORD PTR [ebp-8], eax
  00014	89 45 fc	 mov	 DWORD PTR [ebp-4], eax
  00017	b9 00 00 00 00	 mov	 ecx, OFFSET __12269DE6_xutility
  0001c	e8 00 00 00 00	 call	 @__CheckForDebuggerJustMyCode@4

; 144  :     return ::new (_Voidify_iter(_Location)) _Ty(_STD forward<_Types>(_Args)...);

  00021	c7 45 fc 04 00
	00 00		 mov	 DWORD PTR $T2[ebp], 4
  00028	8b 45 08	 mov	 eax, DWORD PTR __Location$[ebp]
  0002b	50		 push	 eax
  0002c	e8 00 00 00 00	 call	 ??$_Voidify_iter@PAPAVSprite@sf@@@std@@YAPAXPAPAVSprite@sf@@@Z ; std::_Voidify_iter<sf::Sprite * *>
  00031	83 c4 04	 add	 esp, 4
  00034	89 45 f4	 mov	 DWORD PTR tv74[ebp], eax
  00037	8b 4d fc	 mov	 ecx, DWORD PTR $T2[ebp]
  0003a	89 4d f0	 mov	 DWORD PTR tv72[ebp], ecx
  0003d	8b 55 f4	 mov	 edx, DWORD PTR tv74[ebp]
  00040	52		 push	 edx
  00041	8b 45 f0	 mov	 eax, DWORD PTR tv72[ebp]
  00044	50		 push	 eax
  00045	e8 00 00 00 00	 call	 ??2@YAPAXIPAX@Z		; operator new
  0004a	83 c4 08	 add	 esp, 8
  0004d	89 45 f8	 mov	 DWORD PTR $T1[ebp], eax
  00050	8b 4d fc	 mov	 ecx, DWORD PTR $T2[ebp]
  00053	51		 push	 ecx
  00054	6a 00		 push	 0
  00056	8b 55 f8	 mov	 edx, DWORD PTR $T1[ebp]
  00059	52		 push	 edx
  0005a	e8 00 00 00 00	 call	 _memset
  0005f	83 c4 0c	 add	 esp, 12			; 0000000cH
  00062	8b 45 f8	 mov	 eax, DWORD PTR $T1[ebp]

; 145  : }

  00065	83 c4 10	 add	 esp, 16			; 00000010H
  00068	3b ec		 cmp	 ebp, esp
  0006a	e8 00 00 00 00	 call	 __RTC_CheckEsp
  0006f	8b e5		 mov	 esp, ebp
  00071	5d		 pop	 ebp
  00072	c3		 ret	 0
??$construct_at@PAVSprite@sf@@$$VX@std@@YAPAPAVSprite@sf@@QAPAV12@@Z ENDP ; std::construct_at<sf::Sprite *,void>
_TEXT	ENDS
; Function compile flags: /Odtp /RTCsu
; File C:\Program Files (x86)\Microsoft Visual Studio\2019\Community\VC\Tools\MSVC\14.29.30133\include\xutility
;	COMDAT ??$construct_at@PAVTexture@sf@@PAV12@X@std@@YAPAPAVTexture@sf@@QAPAV12@$$QAPAV12@@Z
_TEXT	SEGMENT
$T1 = -4						; size = 4
__Location$ = 8						; size = 4
_<_Args_0>$ = 12					; size = 4
??$construct_at@PAVTexture@sf@@PAV12@X@std@@YAPAPAVTexture@sf@@QAPAV12@$$QAPAV12@@Z PROC ; std::construct_at<sf::Texture *,sf::Texture *,void>, COMDAT

; 143  :     noexcept(::new (_Voidify_iter(_Location)) _Ty(_STD forward<_Types>(_Args)...))) /* strengthened */ {

  00000	55		 push	 ebp
  00001	8b ec		 mov	 ebp, esp
  00003	51		 push	 ecx
  00004	c7 45 fc cc cc
	cc cc		 mov	 DWORD PTR [ebp-4], -858993460 ; ccccccccH
  0000b	b9 00 00 00 00	 mov	 ecx, OFFSET __12269DE6_xutility
  00010	e8 00 00 00 00	 call	 @__CheckForDebuggerJustMyCode@4

; 144  :     return ::new (_Voidify_iter(_Location)) _Ty(_STD forward<_Types>(_Args)...);

  00015	8b 45 08	 mov	 eax, DWORD PTR __Location$[ebp]
  00018	50		 push	 eax
  00019	e8 00 00 00 00	 call	 ??$_Voidify_iter@PAPAVTexture@sf@@@std@@YAPAXPAPAVTexture@sf@@@Z ; std::_Voidify_iter<sf::Texture * *>
  0001e	83 c4 04	 add	 esp, 4
  00021	50		 push	 eax
  00022	6a 04		 push	 4
  00024	e8 00 00 00 00	 call	 ??2@YAPAXIPAX@Z		; operator new
  00029	83 c4 08	 add	 esp, 8
  0002c	89 45 fc	 mov	 DWORD PTR $T1[ebp], eax
  0002f	8b 4d 0c	 mov	 ecx, DWORD PTR _<_Args_0>$[ebp]
  00032	51		 push	 ecx
  00033	e8 00 00 00 00	 call	 ??$forward@PAVTexture@sf@@@std@@YA$$QAPAVTexture@sf@@AAPAV12@@Z ; std::forward<sf::Texture *>
  00038	83 c4 04	 add	 esp, 4
  0003b	8b 55 fc	 mov	 edx, DWORD PTR $T1[ebp]
  0003e	8b 00		 mov	 eax, DWORD PTR [eax]
  00040	89 02		 mov	 DWORD PTR [edx], eax
  00042	8b 45 fc	 mov	 eax, DWORD PTR $T1[ebp]

; 145  : }

  00045	83 c4 04	 add	 esp, 4
  00048	3b ec		 cmp	 ebp, esp
  0004a	e8 00 00 00 00	 call	 __RTC_CheckEsp
  0004f	8b e5		 mov	 esp, ebp
  00051	5d		 pop	 ebp
  00052	c3		 ret	 0
??$construct_at@PAVTexture@sf@@PAV12@X@std@@YAPAPAVTexture@sf@@QAPAV12@$$QAPAV12@@Z ENDP ; std::construct_at<sf::Texture *,sf::Texture *,void>
_TEXT	ENDS
; Function compile flags: /Odtp /RTCsu
; File C:\Program Files (x86)\Microsoft Visual Studio\2019\Community\VC\Tools\MSVC\14.29.30133\include\xmemory
;	COMDAT ??$construct@PAVSprite@sf@@$$V@?$_Default_allocator_traits@V?$allocator@PAVSprite@sf@@@std@@@std@@SAXAAV?$allocator@PAVSprite@sf@@@1@QAPAVSprite@sf@@@Z
_TEXT	SEGMENT
tv76 = -16						; size = 4
tv78 = -12						; size = 4
$T1 = -8						; size = 4
$T2 = -4						; size = 4
___formal$ = 8						; size = 4
__Ptr$ = 12						; size = 4
??$construct@PAVSprite@sf@@$$V@?$_Default_allocator_traits@V?$allocator@PAVSprite@sf@@@std@@@std@@SAXAAV?$allocator@PAVSprite@sf@@@1@QAPAVSprite@sf@@@Z PROC ; std::_Default_allocator_traits<std::allocator<sf::Sprite *> >::construct<sf::Sprite *>, COMDAT

; 707  :     static _CONSTEXPR20_DYNALLOC void construct(_Alloc&, _Objty* const _Ptr, _Types&&... _Args) {

  00000	55		 push	 ebp
  00001	8b ec		 mov	 ebp, esp
  00003	83 ec 10	 sub	 esp, 16			; 00000010H
  00006	b8 cc cc cc cc	 mov	 eax, -858993460		; ccccccccH
  0000b	89 45 f0	 mov	 DWORD PTR [ebp-16], eax
  0000e	89 45 f4	 mov	 DWORD PTR [ebp-12], eax
  00011	89 45 f8	 mov	 DWORD PTR [ebp-8], eax
  00014	89 45 fc	 mov	 DWORD PTR [ebp-4], eax
  00017	b9 00 00 00 00	 mov	 ecx, OFFSET __79D216CD_xmemory
  0001c	e8 00 00 00 00	 call	 @__CheckForDebuggerJustMyCode@4

; 708  : #ifdef __cpp_lib_constexpr_dynamic_alloc
; 709  :         if (_STD is_constant_evaluated()) {

  00021	e8 00 00 00 00	 call	 ?is_constant_evaluated@std@@YA_NXZ ; std::is_constant_evaluated
  00026	0f b6 c0	 movzx	 eax, al
  00029	85 c0		 test	 eax, eax
  0002b	74 0e		 je	 SHORT $LN2@construct

; 710  :             _STD construct_at(_Ptr, _STD forward<_Types>(_Args)...);

  0002d	8b 4d 0c	 mov	 ecx, DWORD PTR __Ptr$[ebp]
  00030	51		 push	 ecx
  00031	e8 00 00 00 00	 call	 ??$construct_at@PAVSprite@sf@@$$VX@std@@YAPAPAVSprite@sf@@QAPAV12@@Z ; std::construct_at<sf::Sprite *,void>
  00036	83 c4 04	 add	 esp, 4

; 711  :         } else

  00039	eb 41		 jmp	 SHORT $LN1@construct
$LN2@construct:

; 707  :     static _CONSTEXPR20_DYNALLOC void construct(_Alloc&, _Objty* const _Ptr, _Types&&... _Args) {

  0003b	c7 45 fc 04 00
	00 00		 mov	 DWORD PTR $T2[ebp], 4
  00042	8b 55 0c	 mov	 edx, DWORD PTR __Ptr$[ebp]
  00045	52		 push	 edx
  00046	e8 00 00 00 00	 call	 ??$_Voidify_iter@PAPAVSprite@sf@@@std@@YAPAXPAPAVSprite@sf@@@Z ; std::_Voidify_iter<sf::Sprite * *>
  0004b	83 c4 04	 add	 esp, 4
  0004e	89 45 f4	 mov	 DWORD PTR tv78[ebp], eax
  00051	8b 45 fc	 mov	 eax, DWORD PTR $T2[ebp]
  00054	89 45 f0	 mov	 DWORD PTR tv76[ebp], eax
  00057	8b 4d f4	 mov	 ecx, DWORD PTR tv78[ebp]
  0005a	51		 push	 ecx
  0005b	8b 55 f0	 mov	 edx, DWORD PTR tv76[ebp]
  0005e	52		 push	 edx
  0005f	e8 00 00 00 00	 call	 ??2@YAPAXIPAX@Z		; operator new
  00064	83 c4 08	 add	 esp, 8
  00067	89 45 f8	 mov	 DWORD PTR $T1[ebp], eax
  0006a	8b 45 fc	 mov	 eax, DWORD PTR $T2[ebp]
  0006d	50		 push	 eax
  0006e	6a 00		 push	 0
  00070	8b 4d f8	 mov	 ecx, DWORD PTR $T1[ebp]
  00073	51		 push	 ecx
  00074	e8 00 00 00 00	 call	 _memset
  00079	83 c4 0c	 add	 esp, 12			; 0000000cH
$LN1@construct:

; 712  : #endif // __cpp_lib_constexpr_dynamic_alloc
; 713  :         {
; 714  :             ::new (_Voidify_iter(_Ptr)) _Objty(_STD forward<_Types>(_Args)...);
; 715  :         }
; 716  :     }

  0007c	83 c4 10	 add	 esp, 16			; 00000010H
  0007f	3b ec		 cmp	 ebp, esp
  00081	e8 00 00 00 00	 call	 __RTC_CheckEsp
  00086	8b e5		 mov	 esp, ebp
  00088	5d		 pop	 ebp
  00089	c3		 ret	 0
??$construct@PAVSprite@sf@@$$V@?$_Default_allocator_traits@V?$allocator@PAVSprite@sf@@@std@@@std@@SAXAAV?$allocator@PAVSprite@sf@@@1@QAPAVSprite@sf@@@Z ENDP ; std::_Default_allocator_traits<std::allocator<sf::Sprite *> >::construct<sf::Sprite *>
_TEXT	ENDS
; Function compile flags: /Odtp /RTCsu
; File C:\Program Files (x86)\Microsoft Visual Studio\2019\Community\VC\Tools\MSVC\14.29.30133\include\xutility
;	COMDAT ??$_To_address@PAPAVSprite@sf@@@std@@YA?A_PABQAPAVSprite@sf@@@Z
_TEXT	SEGMENT
__Val$ = 8						; size = 4
??$_To_address@PAPAVSprite@sf@@@std@@YA?A_PABQAPAVSprite@sf@@@Z PROC ; std::_To_address<sf::Sprite * *>, COMDAT

; 4070 : _NODISCARD constexpr auto _To_address(const _Iter& _Val) noexcept {

  00000	55		 push	 ebp
  00001	8b ec		 mov	 ebp, esp
  00003	b9 00 00 00 00	 mov	 ecx, OFFSET __12269DE6_xutility
  00008	e8 00 00 00 00	 call	 @__CheckForDebuggerJustMyCode@4

; 4071 :     _STL_INTERNAL_STATIC_ASSERT(contiguous_iterator<_Iter>);
; 4072 :     return _STD to_address(_Val);

  0000d	8b 45 08	 mov	 eax, DWORD PTR __Val$[ebp]
  00010	8b 08		 mov	 ecx, DWORD PTR [eax]
  00012	51		 push	 ecx
  00013	e8 00 00 00 00	 call	 ??$to_address@PAVSprite@sf@@@std@@YAPAPAVSprite@sf@@QAPAV12@@Z ; std::to_address<sf::Sprite *>
  00018	83 c4 04	 add	 esp, 4

; 4073 : }

  0001b	3b ec		 cmp	 ebp, esp
  0001d	e8 00 00 00 00	 call	 __RTC_CheckEsp
  00022	5d		 pop	 ebp
  00023	c3		 ret	 0
??$_To_address@PAPAVSprite@sf@@@std@@YA?A_PABQAPAVSprite@sf@@@Z ENDP ; std::_To_address<sf::Sprite * *>
_TEXT	ENDS
; Function compile flags: /Odtp /RTCsu
; File C:\Program Files (x86)\Microsoft Visual Studio\2019\Community\VC\Tools\MSVC\14.29.30133\include\xmemory
;	COMDAT ??$construct@PAVTexture@sf@@PAV12@@?$_Default_allocator_traits@V?$allocator@PAVTexture@sf@@@std@@@std@@SAXAAV?$allocator@PAVTexture@sf@@@1@QAPAVTexture@sf@@$$QAPAV34@@Z
_TEXT	SEGMENT
$T1 = -4						; size = 4
___formal$ = 8						; size = 4
__Ptr$ = 12						; size = 4
_<_Args_0>$ = 16					; size = 4
??$construct@PAVTexture@sf@@PAV12@@?$_Default_allocator_traits@V?$allocator@PAVTexture@sf@@@std@@@std@@SAXAAV?$allocator@PAVTexture@sf@@@1@QAPAVTexture@sf@@$$QAPAV34@@Z PROC ; std::_Default_allocator_traits<std::allocator<sf::Texture *> >::construct<sf::Texture *,sf::Texture *>, COMDAT

; 707  :     static _CONSTEXPR20_DYNALLOC void construct(_Alloc&, _Objty* const _Ptr, _Types&&... _Args) {

  00000	55		 push	 ebp
  00001	8b ec		 mov	 ebp, esp
  00003	51		 push	 ecx
  00004	c7 45 fc cc cc
	cc cc		 mov	 DWORD PTR [ebp-4], -858993460 ; ccccccccH
  0000b	b9 00 00 00 00	 mov	 ecx, OFFSET __79D216CD_xmemory
  00010	e8 00 00 00 00	 call	 @__CheckForDebuggerJustMyCode@4

; 708  : #ifdef __cpp_lib_constexpr_dynamic_alloc
; 709  :         if (_STD is_constant_evaluated()) {

  00015	e8 00 00 00 00	 call	 ?is_constant_evaluated@std@@YA_NXZ ; std::is_constant_evaluated
  0001a	0f b6 c0	 movzx	 eax, al
  0001d	85 c0		 test	 eax, eax
  0001f	74 1b		 je	 SHORT $LN2@construct

; 710  :             _STD construct_at(_Ptr, _STD forward<_Types>(_Args)...);

  00021	8b 4d 10	 mov	 ecx, DWORD PTR _<_Args_0>$[ebp]
  00024	51		 push	 ecx
  00025	e8 00 00 00 00	 call	 ??$forward@PAVTexture@sf@@@std@@YA$$QAPAVTexture@sf@@AAPAV12@@Z ; std::forward<sf::Texture *>
  0002a	83 c4 04	 add	 esp, 4
  0002d	50		 push	 eax
  0002e	8b 55 0c	 mov	 edx, DWORD PTR __Ptr$[ebp]
  00031	52		 push	 edx
  00032	e8 00 00 00 00	 call	 ??$construct_at@PAVTexture@sf@@PAV12@X@std@@YAPAPAVTexture@sf@@QAPAV12@$$QAPAV12@@Z ; std::construct_at<sf::Texture *,sf::Texture *,void>
  00037	83 c4 08	 add	 esp, 8

; 711  :         } else

  0003a	eb 2d		 jmp	 SHORT $LN1@construct
$LN2@construct:

; 707  :     static _CONSTEXPR20_DYNALLOC void construct(_Alloc&, _Objty* const _Ptr, _Types&&... _Args) {

  0003c	8b 45 0c	 mov	 eax, DWORD PTR __Ptr$[ebp]
  0003f	50		 push	 eax
  00040	e8 00 00 00 00	 call	 ??$_Voidify_iter@PAPAVTexture@sf@@@std@@YAPAXPAPAVTexture@sf@@@Z ; std::_Voidify_iter<sf::Texture * *>
  00045	83 c4 04	 add	 esp, 4
  00048	50		 push	 eax
  00049	6a 04		 push	 4
  0004b	e8 00 00 00 00	 call	 ??2@YAPAXIPAX@Z		; operator new
  00050	83 c4 08	 add	 esp, 8
  00053	89 45 fc	 mov	 DWORD PTR $T1[ebp], eax
  00056	8b 4d 10	 mov	 ecx, DWORD PTR _<_Args_0>$[ebp]
  00059	51		 push	 ecx
  0005a	e8 00 00 00 00	 call	 ??$forward@PAVTexture@sf@@@std@@YA$$QAPAVTexture@sf@@AAPAV12@@Z ; std::forward<sf::Texture *>
  0005f	83 c4 04	 add	 esp, 4
  00062	8b 55 fc	 mov	 edx, DWORD PTR $T1[ebp]
  00065	8b 00		 mov	 eax, DWORD PTR [eax]
  00067	89 02		 mov	 DWORD PTR [edx], eax
$LN1@construct:

; 712  : #endif // __cpp_lib_constexpr_dynamic_alloc
; 713  :         {
; 714  :             ::new (_Voidify_iter(_Ptr)) _Objty(_STD forward<_Types>(_Args)...);
; 715  :         }
; 716  :     }

  00069	83 c4 04	 add	 esp, 4
  0006c	3b ec		 cmp	 ebp, esp
  0006e	e8 00 00 00 00	 call	 __RTC_CheckEsp
  00073	8b e5		 mov	 esp, ebp
  00075	5d		 pop	 ebp
  00076	c3		 ret	 0
??$construct@PAVTexture@sf@@PAV12@@?$_Default_allocator_traits@V?$allocator@PAVTexture@sf@@@std@@@std@@SAXAAV?$allocator@PAVTexture@sf@@@1@QAPAVTexture@sf@@$$QAPAV34@@Z ENDP ; std::_Default_allocator_traits<std::allocator<sf::Texture *> >::construct<sf::Texture *,sf::Texture *>
_TEXT	ENDS
; Function compile flags: /Odtp /RTCsu
; File C:\Program Files (x86)\Microsoft Visual Studio\2019\Community\VC\Tools\MSVC\14.29.30133\include\type_traits
;	COMDAT ??$forward@PAVTexture@sf@@@std@@YA$$QAPAVTexture@sf@@AAPAV12@@Z
_TEXT	SEGMENT
__Arg$ = 8						; size = 4
??$forward@PAVTexture@sf@@@std@@YA$$QAPAVTexture@sf@@AAPAV12@@Z PROC ; std::forward<sf::Texture *>, COMDAT

; 1443 :     remove_reference_t<_Ty>& _Arg) noexcept { // forward an lvalue as either an lvalue or an rvalue

  00000	55		 push	 ebp
  00001	8b ec		 mov	 ebp, esp
  00003	b9 00 00 00 00	 mov	 ecx, OFFSET __589FA321_type_traits
  00008	e8 00 00 00 00	 call	 @__CheckForDebuggerJustMyCode@4

; 1444 :     return static_cast<_Ty&&>(_Arg);

  0000d	8b 45 08	 mov	 eax, DWORD PTR __Arg$[ebp]

; 1445 : }

  00010	3b ec		 cmp	 ebp, esp
  00012	e8 00 00 00 00	 call	 __RTC_CheckEsp
  00017	5d		 pop	 ebp
  00018	c3		 ret	 0
??$forward@PAVTexture@sf@@@std@@YA$$QAPAVTexture@sf@@AAPAV12@@Z ENDP ; std::forward<sf::Texture *>
_TEXT	ENDS
; Function compile flags: /Odtp /RTCsu
; File C:\Program Files (x86)\Microsoft Visual Studio\2019\Community\VC\Tools\MSVC\14.29.30133\include\xutility
;	COMDAT ??$_To_address@PAPAVTexture@sf@@@std@@YA?A_PABQAPAVTexture@sf@@@Z
_TEXT	SEGMENT
__Val$ = 8						; size = 4
??$_To_address@PAPAVTexture@sf@@@std@@YA?A_PABQAPAVTexture@sf@@@Z PROC ; std::_To_address<sf::Texture * *>, COMDAT

; 4070 : _NODISCARD constexpr auto _To_address(const _Iter& _Val) noexcept {

  00000	55		 push	 ebp
  00001	8b ec		 mov	 ebp, esp
  00003	b9 00 00 00 00	 mov	 ecx, OFFSET __12269DE6_xutility
  00008	e8 00 00 00 00	 call	 @__CheckForDebuggerJustMyCode@4

; 4071 :     _STL_INTERNAL_STATIC_ASSERT(contiguous_iterator<_Iter>);
; 4072 :     return _STD to_address(_Val);

  0000d	8b 45 08	 mov	 eax, DWORD PTR __Val$[ebp]
  00010	8b 08		 mov	 ecx, DWORD PTR [eax]
  00012	51		 push	 ecx
  00013	e8 00 00 00 00	 call	 ??$to_address@PAVTexture@sf@@@std@@YAPAPAVTexture@sf@@QAPAV12@@Z ; std::to_address<sf::Texture *>
  00018	83 c4 04	 add	 esp, 4

; 4073 : }

  0001b	3b ec		 cmp	 ebp, esp
  0001d	e8 00 00 00 00	 call	 __RTC_CheckEsp
  00022	5d		 pop	 ebp
  00023	c3		 ret	 0
??$_To_address@PAPAVTexture@sf@@@std@@YA?A_PABQAPAVTexture@sf@@@Z ENDP ; std::_To_address<sf::Texture * *>
_TEXT	ENDS
; Function compile flags: /Odtp /RTCsu
; File C:\Program Files (x86)\Microsoft Visual Studio\2019\Community\VC\Tools\MSVC\14.29.30133\include\xmemory
;	COMDAT ??$_Emplace_back@$$V@?$_Uninitialized_backout_al@V?$allocator@PAVSprite@sf@@@std@@@std@@QAEXXZ
_TEXT	SEGMENT
tv71 = -12						; size = 4
tv73 = -8						; size = 4
_this$ = -4						; size = 4
??$_Emplace_back@$$V@?$_Uninitialized_backout_al@V?$allocator@PAVSprite@sf@@@std@@@std@@QAEXXZ PROC ; std::_Uninitialized_backout_al<std::allocator<sf::Sprite *> >::_Emplace_back<>, COMDAT
; _this$ = ecx

; 1630 :     _CONSTEXPR20_DYNALLOC void _Emplace_back(_Types&&... _Vals) { // construct a new element at *_Last and increment

  00000	55		 push	 ebp
  00001	8b ec		 mov	 ebp, esp
  00003	83 ec 0c	 sub	 esp, 12			; 0000000cH
  00006	c7 45 f4 cc cc
	cc cc		 mov	 DWORD PTR [ebp-12], -858993460 ; ccccccccH
  0000d	c7 45 f8 cc cc
	cc cc		 mov	 DWORD PTR [ebp-8], -858993460 ; ccccccccH
  00014	c7 45 fc cc cc
	cc cc		 mov	 DWORD PTR [ebp-4], -858993460 ; ccccccccH
  0001b	89 4d fc	 mov	 DWORD PTR _this$[ebp], ecx
  0001e	b9 00 00 00 00	 mov	 ecx, OFFSET __79D216CD_xmemory
  00023	e8 00 00 00 00	 call	 @__CheckForDebuggerJustMyCode@4

; 1631 :         allocator_traits<_Alloc>::construct(_Al, _Unfancy(_Last), _STD forward<_Types>(_Vals)...);

  00028	8b 45 fc	 mov	 eax, DWORD PTR _this$[ebp]
  0002b	8b 48 04	 mov	 ecx, DWORD PTR [eax+4]
  0002e	51		 push	 ecx
  0002f	e8 00 00 00 00	 call	 ??$_Unfancy@PAVSprite@sf@@@std@@YAPAPAVSprite@sf@@PAPAV12@@Z ; std::_Unfancy<sf::Sprite *>
  00034	83 c4 04	 add	 esp, 4
  00037	89 45 f8	 mov	 DWORD PTR tv73[ebp], eax
  0003a	8b 55 fc	 mov	 edx, DWORD PTR _this$[ebp]
  0003d	8b 42 08	 mov	 eax, DWORD PTR [edx+8]
  00040	89 45 f4	 mov	 DWORD PTR tv71[ebp], eax
  00043	8b 4d f8	 mov	 ecx, DWORD PTR tv73[ebp]
  00046	51		 push	 ecx
  00047	8b 55 f4	 mov	 edx, DWORD PTR tv71[ebp]
  0004a	52		 push	 edx
  0004b	e8 00 00 00 00	 call	 ??$construct@PAVSprite@sf@@$$V@?$_Default_allocator_traits@V?$allocator@PAVSprite@sf@@@std@@@std@@SAXAAV?$allocator@PAVSprite@sf@@@1@QAPAVSprite@sf@@@Z ; std::_Default_allocator_traits<std::allocator<sf::Sprite *> >::construct<sf::Sprite *>
  00050	83 c4 08	 add	 esp, 8

; 1632 :         ++_Last;

  00053	8b 45 fc	 mov	 eax, DWORD PTR _this$[ebp]
  00056	8b 48 04	 mov	 ecx, DWORD PTR [eax+4]
  00059	83 c1 04	 add	 ecx, 4
  0005c	8b 55 fc	 mov	 edx, DWORD PTR _this$[ebp]
  0005f	89 4a 04	 mov	 DWORD PTR [edx+4], ecx

; 1633 :     }

  00062	83 c4 0c	 add	 esp, 12			; 0000000cH
  00065	3b ec		 cmp	 ebp, esp
  00067	e8 00 00 00 00	 call	 __RTC_CheckEsp
  0006c	8b e5		 mov	 esp, ebp
  0006e	5d		 pop	 ebp
  0006f	c3		 ret	 0
??$_Emplace_back@$$V@?$_Uninitialized_backout_al@V?$allocator@PAVSprite@sf@@@std@@@std@@QAEXXZ ENDP ; std::_Uninitialized_backout_al<std::allocator<sf::Sprite *> >::_Emplace_back<>
_TEXT	ENDS
; Function compile flags: /Odtp /RTCsu
;	COMDAT ?__autoclassinit2@?$_Uninitialized_backout_al@V?$allocator@PAVSprite@sf@@@std@@@std@@QAEXI@Z
_TEXT	SEGMENT
_this$ = -4						; size = 4
_classSize$ = 8						; size = 4
?__autoclassinit2@?$_Uninitialized_backout_al@V?$allocator@PAVSprite@sf@@@std@@@std@@QAEXI@Z PROC ; std::_Uninitialized_backout_al<std::allocator<sf::Sprite *> >::__autoclassinit2, COMDAT
; _this$ = ecx
  00000	55		 push	 ebp
  00001	8b ec		 mov	 ebp, esp
  00003	51		 push	 ecx
  00004	c7 45 fc cc cc
	cc cc		 mov	 DWORD PTR [ebp-4], -858993460 ; ccccccccH
  0000b	89 4d fc	 mov	 DWORD PTR _this$[ebp], ecx
  0000e	8b 45 08	 mov	 eax, DWORD PTR _classSize$[ebp]
  00011	50		 push	 eax
  00012	6a 00		 push	 0
  00014	8b 4d fc	 mov	 ecx, DWORD PTR _this$[ebp]
  00017	51		 push	 ecx
  00018	e8 00 00 00 00	 call	 _memset
  0001d	83 c4 0c	 add	 esp, 12			; 0000000cH
  00020	83 c4 04	 add	 esp, 4
  00023	3b ec		 cmp	 ebp, esp
  00025	e8 00 00 00 00	 call	 __RTC_CheckEsp
  0002a	8b e5		 mov	 esp, ebp
  0002c	5d		 pop	 ebp
  0002d	c2 04 00	 ret	 4
?__autoclassinit2@?$_Uninitialized_backout_al@V?$allocator@PAVSprite@sf@@@std@@@std@@QAEXI@Z ENDP ; std::_Uninitialized_backout_al<std::allocator<sf::Sprite *> >::__autoclassinit2
_TEXT	ENDS
; Function compile flags: /Odtp /RTCsu
; File C:\Program Files (x86)\Microsoft Visual Studio\2019\Community\VC\Tools\MSVC\14.29.30133\include\xmemory
;	COMDAT ?_Release@?$_Uninitialized_backout_al@V?$allocator@PAVSprite@sf@@@std@@@std@@QAEPAPAVSprite@sf@@XZ
_TEXT	SEGMENT
_this$ = -4						; size = 4
?_Release@?$_Uninitialized_backout_al@V?$allocator@PAVSprite@sf@@@std@@@std@@QAEPAPAVSprite@sf@@XZ PROC ; std::_Uninitialized_backout_al<std::allocator<sf::Sprite *> >::_Release, COMDAT
; _this$ = ecx

; 1635 :     constexpr pointer _Release() { // suppress any exception handling backout and return _Last

  00000	55		 push	 ebp
  00001	8b ec		 mov	 ebp, esp
  00003	51		 push	 ecx
  00004	c7 45 fc cc cc
	cc cc		 mov	 DWORD PTR [ebp-4], -858993460 ; ccccccccH
  0000b	89 4d fc	 mov	 DWORD PTR _this$[ebp], ecx
  0000e	b9 00 00 00 00	 mov	 ecx, OFFSET __79D216CD_xmemory
  00013	e8 00 00 00 00	 call	 @__CheckForDebuggerJustMyCode@4

; 1636 :         _First = _Last;

  00018	8b 45 fc	 mov	 eax, DWORD PTR _this$[ebp]
  0001b	8b 4d fc	 mov	 ecx, DWORD PTR _this$[ebp]
  0001e	8b 51 04	 mov	 edx, DWORD PTR [ecx+4]
  00021	89 10		 mov	 DWORD PTR [eax], edx

; 1637 :         return _Last;

  00023	8b 45 fc	 mov	 eax, DWORD PTR _this$[ebp]
  00026	8b 40 04	 mov	 eax, DWORD PTR [eax+4]

; 1638 :     }

  00029	83 c4 04	 add	 esp, 4
  0002c	3b ec		 cmp	 ebp, esp
  0002e	e8 00 00 00 00	 call	 __RTC_CheckEsp
  00033	8b e5		 mov	 esp, ebp
  00035	5d		 pop	 ebp
  00036	c3		 ret	 0
?_Release@?$_Uninitialized_backout_al@V?$allocator@PAVSprite@sf@@@std@@@std@@QAEPAPAVSprite@sf@@XZ ENDP ; std::_Uninitialized_backout_al<std::allocator<sf::Sprite *> >::_Release
_TEXT	ENDS
; Function compile flags: /Odtp /RTCsu
; File C:\Program Files (x86)\Microsoft Visual Studio\2019\Community\VC\Tools\MSVC\14.29.30133\include\xmemory
;	COMDAT ??1?$_Uninitialized_backout_al@V?$allocator@PAVSprite@sf@@@std@@@std@@QAE@XZ
_TEXT	SEGMENT
_this$ = -4						; size = 4
??1?$_Uninitialized_backout_al@V?$allocator@PAVSprite@sf@@@std@@@std@@QAE@XZ PROC ; std::_Uninitialized_backout_al<std::allocator<sf::Sprite *> >::~_Uninitialized_backout_al<std::allocator<sf::Sprite *> >, COMDAT
; _this$ = ecx

; 1625 :     _CONSTEXPR20_DYNALLOC ~_Uninitialized_backout_al() {

  00000	55		 push	 ebp
  00001	8b ec		 mov	 ebp, esp
  00003	51		 push	 ecx
  00004	c7 45 fc cc cc
	cc cc		 mov	 DWORD PTR [ebp-4], -858993460 ; ccccccccH
  0000b	89 4d fc	 mov	 DWORD PTR _this$[ebp], ecx
  0000e	b9 00 00 00 00	 mov	 ecx, OFFSET __79D216CD_xmemory
  00013	e8 00 00 00 00	 call	 @__CheckForDebuggerJustMyCode@4

; 1626 :         _Destroy_range(_First, _Last, _Al);

  00018	8b 45 fc	 mov	 eax, DWORD PTR _this$[ebp]
  0001b	8b 48 08	 mov	 ecx, DWORD PTR [eax+8]
  0001e	51		 push	 ecx
  0001f	8b 55 fc	 mov	 edx, DWORD PTR _this$[ebp]
  00022	8b 42 04	 mov	 eax, DWORD PTR [edx+4]
  00025	50		 push	 eax
  00026	8b 4d fc	 mov	 ecx, DWORD PTR _this$[ebp]
  00029	8b 11		 mov	 edx, DWORD PTR [ecx]
  0002b	52		 push	 edx
  0002c	e8 00 00 00 00	 call	 ??$_Destroy_range@V?$allocator@PAVSprite@sf@@@std@@@std@@YAXPAPAVSprite@sf@@QAPAV12@AAV?$allocator@PAVSprite@sf@@@0@@Z ; std::_Destroy_range<std::allocator<sf::Sprite *> >
  00031	83 c4 0c	 add	 esp, 12			; 0000000cH

; 1627 :     }

  00034	83 c4 04	 add	 esp, 4
  00037	3b ec		 cmp	 ebp, esp
  00039	e8 00 00 00 00	 call	 __RTC_CheckEsp
  0003e	8b e5		 mov	 esp, ebp
  00040	5d		 pop	 ebp
  00041	c3		 ret	 0
??1?$_Uninitialized_backout_al@V?$allocator@PAVSprite@sf@@@std@@@std@@QAE@XZ ENDP ; std::_Uninitialized_backout_al<std::allocator<sf::Sprite *> >::~_Uninitialized_backout_al<std::allocator<sf::Sprite *> >
_TEXT	ENDS
; Function compile flags: /Odtp /RTCsu
; File C:\Program Files (x86)\Microsoft Visual Studio\2019\Community\VC\Tools\MSVC\14.29.30133\include\xmemory
;	COMDAT ??0?$_Uninitialized_backout_al@V?$allocator@PAVSprite@sf@@@std@@@std@@QAE@PAPAVSprite@sf@@AAV?$allocator@PAVSprite@sf@@@1@@Z
_TEXT	SEGMENT
_this$ = -4						; size = 4
__Dest$ = 8						; size = 4
__Al_$ = 12						; size = 4
??0?$_Uninitialized_backout_al@V?$allocator@PAVSprite@sf@@@std@@@std@@QAE@PAPAVSprite@sf@@AAV?$allocator@PAVSprite@sf@@@1@@Z PROC ; std::_Uninitialized_backout_al<std::allocator<sf::Sprite *> >::_Uninitialized_backout_al<std::allocator<sf::Sprite *> >, COMDAT
; _this$ = ecx

; 1620 :         : _First(_Dest), _Last(_Dest), _Al(_Al_) {}

  00000	55		 push	 ebp
  00001	8b ec		 mov	 ebp, esp
  00003	51		 push	 ecx
  00004	c7 45 fc cc cc
	cc cc		 mov	 DWORD PTR [ebp-4], -858993460 ; ccccccccH
  0000b	89 4d fc	 mov	 DWORD PTR _this$[ebp], ecx
  0000e	b9 00 00 00 00	 mov	 ecx, OFFSET __79D216CD_xmemory
  00013	e8 00 00 00 00	 call	 @__CheckForDebuggerJustMyCode@4
  00018	8b 45 fc	 mov	 eax, DWORD PTR _this$[ebp]
  0001b	8b 4d 08	 mov	 ecx, DWORD PTR __Dest$[ebp]
  0001e	89 08		 mov	 DWORD PTR [eax], ecx
  00020	8b 55 fc	 mov	 edx, DWORD PTR _this$[ebp]
  00023	8b 45 08	 mov	 eax, DWORD PTR __Dest$[ebp]
  00026	89 42 04	 mov	 DWORD PTR [edx+4], eax
  00029	8b 4d fc	 mov	 ecx, DWORD PTR _this$[ebp]
  0002c	8b 55 0c	 mov	 edx, DWORD PTR __Al_$[ebp]
  0002f	89 51 08	 mov	 DWORD PTR [ecx+8], edx
  00032	8b 45 fc	 mov	 eax, DWORD PTR _this$[ebp]
  00035	83 c4 04	 add	 esp, 4
  00038	3b ec		 cmp	 ebp, esp
  0003a	e8 00 00 00 00	 call	 __RTC_CheckEsp
  0003f	8b e5		 mov	 esp, ebp
  00041	5d		 pop	 ebp
  00042	c2 08 00	 ret	 8
??0?$_Uninitialized_backout_al@V?$allocator@PAVSprite@sf@@@std@@@std@@QAE@PAPAVSprite@sf@@AAV?$allocator@PAVSprite@sf@@@1@@Z ENDP ; std::_Uninitialized_backout_al<std::allocator<sf::Sprite *> >::_Uninitialized_backout_al<std::allocator<sf::Sprite *> >
_TEXT	ENDS
; Function compile flags: /Odtp /RTCsu
; File C:\Program Files (x86)\Microsoft Visual Studio\2019\Community\VC\Tools\MSVC\14.29.30133\include\xmemory
;	COMDAT ??$_Zero_range@PAPAVSprite@sf@@@std@@YAPAPAVSprite@sf@@QAPAV12@0@Z
_TEXT	SEGMENT
__Last_ch$ = -8						; size = 4
__First_ch$ = -4					; size = 4
__First$ = 8						; size = 4
__Last$ = 12						; size = 4
??$_Zero_range@PAPAVSprite@sf@@@std@@YAPAPAVSprite@sf@@QAPAV12@0@Z PROC ; std::_Zero_range<sf::Sprite * *>, COMDAT

; 1806 : _Ptr _Zero_range(const _Ptr _First, const _Ptr _Last) { // fill [_First, _Last) with zeroes

  00000	55		 push	 ebp
  00001	8b ec		 mov	 ebp, esp
  00003	83 ec 08	 sub	 esp, 8
  00006	c7 45 f8 cc cc
	cc cc		 mov	 DWORD PTR [ebp-8], -858993460 ; ccccccccH
  0000d	c7 45 fc cc cc
	cc cc		 mov	 DWORD PTR [ebp-4], -858993460 ; ccccccccH
  00014	b9 00 00 00 00	 mov	 ecx, OFFSET __79D216CD_xmemory
  00019	e8 00 00 00 00	 call	 @__CheckForDebuggerJustMyCode@4

; 1807 :     char* const _First_ch = reinterpret_cast<char*>(_To_address(_First));

  0001e	8d 45 08	 lea	 eax, DWORD PTR __First$[ebp]
  00021	50		 push	 eax
  00022	e8 00 00 00 00	 call	 ??$_To_address@PAPAVSprite@sf@@@std@@YA?A_PABQAPAVSprite@sf@@@Z ; std::_To_address<sf::Sprite * *>
  00027	83 c4 04	 add	 esp, 4
  0002a	89 45 fc	 mov	 DWORD PTR __First_ch$[ebp], eax

; 1808 :     char* const _Last_ch  = reinterpret_cast<char*>(_To_address(_Last));

  0002d	8d 4d 0c	 lea	 ecx, DWORD PTR __Last$[ebp]
  00030	51		 push	 ecx
  00031	e8 00 00 00 00	 call	 ??$_To_address@PAPAVSprite@sf@@@std@@YA?A_PABQAPAVSprite@sf@@@Z ; std::_To_address<sf::Sprite * *>
  00036	83 c4 04	 add	 esp, 4
  00039	89 45 f8	 mov	 DWORD PTR __Last_ch$[ebp], eax

; 1809 :     _CSTD memset(_First_ch, 0, static_cast<size_t>(_Last_ch - _First_ch));

  0003c	8b 55 f8	 mov	 edx, DWORD PTR __Last_ch$[ebp]
  0003f	2b 55 fc	 sub	 edx, DWORD PTR __First_ch$[ebp]
  00042	52		 push	 edx
  00043	6a 00		 push	 0
  00045	8b 45 fc	 mov	 eax, DWORD PTR __First_ch$[ebp]
  00048	50		 push	 eax
  00049	e8 00 00 00 00	 call	 _memset
  0004e	83 c4 0c	 add	 esp, 12			; 0000000cH

; 1810 :     return _Last;

  00051	8b 45 0c	 mov	 eax, DWORD PTR __Last$[ebp]

; 1811 : }

  00054	83 c4 08	 add	 esp, 8
  00057	3b ec		 cmp	 ebp, esp
  00059	e8 00 00 00 00	 call	 __RTC_CheckEsp
  0005e	8b e5		 mov	 esp, ebp
  00060	5d		 pop	 ebp
  00061	c3		 ret	 0
??$_Zero_range@PAPAVSprite@sf@@@std@@YAPAPAVSprite@sf@@QAPAV12@0@Z ENDP ; std::_Zero_range<sf::Sprite * *>
_TEXT	ENDS
; Function compile flags: /Odtp /RTCsu
; File C:\Program Files (x86)\Microsoft Visual Studio\2019\Community\VC\Tools\MSVC\14.29.30133\include\xstddef
;	COMDAT ??$_Unfancy@PAVSprite@sf@@@std@@YAPAPAVSprite@sf@@PAPAV12@@Z
_TEXT	SEGMENT
__Ptr$ = 8						; size = 4
??$_Unfancy@PAVSprite@sf@@@std@@YAPAPAVSprite@sf@@PAPAV12@@Z PROC ; std::_Unfancy<sf::Sprite *>, COMDAT

; 288  : _NODISCARD constexpr _Ty* _Unfancy(_Ty* _Ptr) noexcept { // do nothing for plain pointers

  00000	55		 push	 ebp
  00001	8b ec		 mov	 ebp, esp
  00003	b9 00 00 00 00	 mov	 ecx, OFFSET __E458E21C_xstddef
  00008	e8 00 00 00 00	 call	 @__CheckForDebuggerJustMyCode@4

; 289  :     return _Ptr;

  0000d	8b 45 08	 mov	 eax, DWORD PTR __Ptr$[ebp]

; 290  : }

  00010	3b ec		 cmp	 ebp, esp
  00012	e8 00 00 00 00	 call	 __RTC_CheckEsp
  00017	5d		 pop	 ebp
  00018	c3		 ret	 0
??$_Unfancy@PAVSprite@sf@@@std@@YAPAPAVSprite@sf@@PAPAV12@@Z ENDP ; std::_Unfancy<sf::Sprite *>
_TEXT	ENDS
; Function compile flags: /Odtp /RTCsu
; File C:\Program Files (x86)\Microsoft Visual Studio\2019\Community\VC\Tools\MSVC\14.29.30133\include\xutility
;	COMDAT ??$to_address@PAVSprite@sf@@@std@@YAPAPAVSprite@sf@@QAPAV12@@Z
_TEXT	SEGMENT
__Val$ = 8						; size = 4
??$to_address@PAVSprite@sf@@@std@@YAPAPAVSprite@sf@@QAPAV12@@Z PROC ; std::to_address<sf::Sprite *>, COMDAT

; 211  : _NODISCARD constexpr _Ty* to_address(_Ty* const _Val) noexcept {

  00000	55		 push	 ebp
  00001	8b ec		 mov	 ebp, esp
  00003	b9 00 00 00 00	 mov	 ecx, OFFSET __12269DE6_xutility
  00008	e8 00 00 00 00	 call	 @__CheckForDebuggerJustMyCode@4

; 212  :     static_assert(!is_function_v<_Ty>,
; 213  :         "N4810 20.10.4 [pointer.conversion]/2: The program is ill-formed if T is a function type.");
; 214  :     return _Val;

  0000d	8b 45 08	 mov	 eax, DWORD PTR __Val$[ebp]

; 215  : }

  00010	3b ec		 cmp	 ebp, esp
  00012	e8 00 00 00 00	 call	 __RTC_CheckEsp
  00017	5d		 pop	 ebp
  00018	c3		 ret	 0
??$to_address@PAVSprite@sf@@@std@@YAPAPAVSprite@sf@@QAPAV12@@Z ENDP ; std::to_address<sf::Sprite *>
_TEXT	ENDS
; Function compile flags: /Odtp /RTCsu
; File C:\Program Files (x86)\Microsoft Visual Studio\2019\Community\VC\Tools\MSVC\14.29.30133\include\xmemory
;	COMDAT ??$_Emplace_back@PAVTexture@sf@@@?$_Uninitialized_backout_al@V?$allocator@PAVTexture@sf@@@std@@@std@@QAEX$$QAPAVTexture@sf@@@Z
_TEXT	SEGMENT
tv74 = -16						; size = 4
tv76 = -12						; size = 4
tv78 = -8						; size = 4
_this$ = -4						; size = 4
_<_Vals_0>$ = 8						; size = 4
??$_Emplace_back@PAVTexture@sf@@@?$_Uninitialized_backout_al@V?$allocator@PAVTexture@sf@@@std@@@std@@QAEX$$QAPAVTexture@sf@@@Z PROC ; std::_Uninitialized_backout_al<std::allocator<sf::Texture *> >::_Emplace_back<sf::Texture *>, COMDAT
; _this$ = ecx

; 1630 :     _CONSTEXPR20_DYNALLOC void _Emplace_back(_Types&&... _Vals) { // construct a new element at *_Last and increment

  00000	55		 push	 ebp
  00001	8b ec		 mov	 ebp, esp
  00003	83 ec 10	 sub	 esp, 16			; 00000010H
  00006	b8 cc cc cc cc	 mov	 eax, -858993460		; ccccccccH
  0000b	89 45 f0	 mov	 DWORD PTR [ebp-16], eax
  0000e	89 45 f4	 mov	 DWORD PTR [ebp-12], eax
  00011	89 45 f8	 mov	 DWORD PTR [ebp-8], eax
  00014	89 45 fc	 mov	 DWORD PTR [ebp-4], eax
  00017	89 4d fc	 mov	 DWORD PTR _this$[ebp], ecx
  0001a	b9 00 00 00 00	 mov	 ecx, OFFSET __79D216CD_xmemory
  0001f	e8 00 00 00 00	 call	 @__CheckForDebuggerJustMyCode@4

; 1631 :         allocator_traits<_Alloc>::construct(_Al, _Unfancy(_Last), _STD forward<_Types>(_Vals)...);

  00024	8b 45 08	 mov	 eax, DWORD PTR _<_Vals_0>$[ebp]
  00027	50		 push	 eax
  00028	e8 00 00 00 00	 call	 ??$forward@PAVTexture@sf@@@std@@YA$$QAPAVTexture@sf@@AAPAV12@@Z ; std::forward<sf::Texture *>
  0002d	83 c4 04	 add	 esp, 4
  00030	89 45 f8	 mov	 DWORD PTR tv78[ebp], eax
  00033	8b 4d fc	 mov	 ecx, DWORD PTR _this$[ebp]
  00036	8b 51 04	 mov	 edx, DWORD PTR [ecx+4]
  00039	52		 push	 edx
  0003a	e8 00 00 00 00	 call	 ??$_Unfancy@PAVTexture@sf@@@std@@YAPAPAVTexture@sf@@PAPAV12@@Z ; std::_Unfancy<sf::Texture *>
  0003f	83 c4 04	 add	 esp, 4
  00042	89 45 f4	 mov	 DWORD PTR tv76[ebp], eax
  00045	8b 45 fc	 mov	 eax, DWORD PTR _this$[ebp]
  00048	8b 48 08	 mov	 ecx, DWORD PTR [eax+8]
  0004b	89 4d f0	 mov	 DWORD PTR tv74[ebp], ecx
  0004e	8b 55 f8	 mov	 edx, DWORD PTR tv78[ebp]
  00051	52		 push	 edx
  00052	8b 45 f4	 mov	 eax, DWORD PTR tv76[ebp]
  00055	50		 push	 eax
  00056	8b 4d f0	 mov	 ecx, DWORD PTR tv74[ebp]
  00059	51		 push	 ecx
  0005a	e8 00 00 00 00	 call	 ??$construct@PAVTexture@sf@@PAV12@@?$_Default_allocator_traits@V?$allocator@PAVTexture@sf@@@std@@@std@@SAXAAV?$allocator@PAVTexture@sf@@@1@QAPAVTexture@sf@@$$QAPAV34@@Z ; std::_Default_allocator_traits<std::allocator<sf::Texture *> >::construct<sf::Texture *,sf::Texture *>
  0005f	83 c4 0c	 add	 esp, 12			; 0000000cH

; 1632 :         ++_Last;

  00062	8b 55 fc	 mov	 edx, DWORD PTR _this$[ebp]
  00065	8b 42 04	 mov	 eax, DWORD PTR [edx+4]
  00068	83 c0 04	 add	 eax, 4
  0006b	8b 4d fc	 mov	 ecx, DWORD PTR _this$[ebp]
  0006e	89 41 04	 mov	 DWORD PTR [ecx+4], eax

; 1633 :     }

  00071	83 c4 10	 add	 esp, 16			; 00000010H
  00074	3b ec		 cmp	 ebp, esp
  00076	e8 00 00 00 00	 call	 __RTC_CheckEsp
  0007b	8b e5		 mov	 esp, ebp
  0007d	5d		 pop	 ebp
  0007e	c2 04 00	 ret	 4
??$_Emplace_back@PAVTexture@sf@@@?$_Uninitialized_backout_al@V?$allocator@PAVTexture@sf@@@std@@@std@@QAEX$$QAPAVTexture@sf@@@Z ENDP ; std::_Uninitialized_backout_al<std::allocator<sf::Texture *> >::_Emplace_back<sf::Texture *>
_TEXT	ENDS
; Function compile flags: /Odtp /RTCsu
;	COMDAT ?__autoclassinit2@?$_Uninitialized_backout_al@V?$allocator@PAVTexture@sf@@@std@@@std@@QAEXI@Z
_TEXT	SEGMENT
_this$ = -4						; size = 4
_classSize$ = 8						; size = 4
?__autoclassinit2@?$_Uninitialized_backout_al@V?$allocator@PAVTexture@sf@@@std@@@std@@QAEXI@Z PROC ; std::_Uninitialized_backout_al<std::allocator<sf::Texture *> >::__autoclassinit2, COMDAT
; _this$ = ecx
  00000	55		 push	 ebp
  00001	8b ec		 mov	 ebp, esp
  00003	51		 push	 ecx
  00004	c7 45 fc cc cc
	cc cc		 mov	 DWORD PTR [ebp-4], -858993460 ; ccccccccH
  0000b	89 4d fc	 mov	 DWORD PTR _this$[ebp], ecx
  0000e	8b 45 08	 mov	 eax, DWORD PTR _classSize$[ebp]
  00011	50		 push	 eax
  00012	6a 00		 push	 0
  00014	8b 4d fc	 mov	 ecx, DWORD PTR _this$[ebp]
  00017	51		 push	 ecx
  00018	e8 00 00 00 00	 call	 _memset
  0001d	83 c4 0c	 add	 esp, 12			; 0000000cH
  00020	83 c4 04	 add	 esp, 4
  00023	3b ec		 cmp	 ebp, esp
  00025	e8 00 00 00 00	 call	 __RTC_CheckEsp
  0002a	8b e5		 mov	 esp, ebp
  0002c	5d		 pop	 ebp
  0002d	c2 04 00	 ret	 4
?__autoclassinit2@?$_Uninitialized_backout_al@V?$allocator@PAVTexture@sf@@@std@@@std@@QAEXI@Z ENDP ; std::_Uninitialized_backout_al<std::allocator<sf::Texture *> >::__autoclassinit2
_TEXT	ENDS
; Function compile flags: /Odtp /RTCsu
; File C:\Program Files (x86)\Microsoft Visual Studio\2019\Community\VC\Tools\MSVC\14.29.30133\include\xmemory
;	COMDAT ?_Release@?$_Uninitialized_backout_al@V?$allocator@PAVTexture@sf@@@std@@@std@@QAEPAPAVTexture@sf@@XZ
_TEXT	SEGMENT
_this$ = -4						; size = 4
?_Release@?$_Uninitialized_backout_al@V?$allocator@PAVTexture@sf@@@std@@@std@@QAEPAPAVTexture@sf@@XZ PROC ; std::_Uninitialized_backout_al<std::allocator<sf::Texture *> >::_Release, COMDAT
; _this$ = ecx

; 1635 :     constexpr pointer _Release() { // suppress any exception handling backout and return _Last

  00000	55		 push	 ebp
  00001	8b ec		 mov	 ebp, esp
  00003	51		 push	 ecx
  00004	c7 45 fc cc cc
	cc cc		 mov	 DWORD PTR [ebp-4], -858993460 ; ccccccccH
  0000b	89 4d fc	 mov	 DWORD PTR _this$[ebp], ecx
  0000e	b9 00 00 00 00	 mov	 ecx, OFFSET __79D216CD_xmemory
  00013	e8 00 00 00 00	 call	 @__CheckForDebuggerJustMyCode@4

; 1636 :         _First = _Last;

  00018	8b 45 fc	 mov	 eax, DWORD PTR _this$[ebp]
  0001b	8b 4d fc	 mov	 ecx, DWORD PTR _this$[ebp]
  0001e	8b 51 04	 mov	 edx, DWORD PTR [ecx+4]
  00021	89 10		 mov	 DWORD PTR [eax], edx

; 1637 :         return _Last;

  00023	8b 45 fc	 mov	 eax, DWORD PTR _this$[ebp]
  00026	8b 40 04	 mov	 eax, DWORD PTR [eax+4]

; 1638 :     }

  00029	83 c4 04	 add	 esp, 4
  0002c	3b ec		 cmp	 ebp, esp
  0002e	e8 00 00 00 00	 call	 __RTC_CheckEsp
  00033	8b e5		 mov	 esp, ebp
  00035	5d		 pop	 ebp
  00036	c3		 ret	 0
?_Release@?$_Uninitialized_backout_al@V?$allocator@PAVTexture@sf@@@std@@@std@@QAEPAPAVTexture@sf@@XZ ENDP ; std::_Uninitialized_backout_al<std::allocator<sf::Texture *> >::_Release
_TEXT	ENDS
; Function compile flags: /Odtp /RTCsu
; File C:\Program Files (x86)\Microsoft Visual Studio\2019\Community\VC\Tools\MSVC\14.29.30133\include\xmemory
;	COMDAT ??1?$_Uninitialized_backout_al@V?$allocator@PAVTexture@sf@@@std@@@std@@QAE@XZ
_TEXT	SEGMENT
_this$ = -4						; size = 4
??1?$_Uninitialized_backout_al@V?$allocator@PAVTexture@sf@@@std@@@std@@QAE@XZ PROC ; std::_Uninitialized_backout_al<std::allocator<sf::Texture *> >::~_Uninitialized_backout_al<std::allocator<sf::Texture *> >, COMDAT
; _this$ = ecx

; 1625 :     _CONSTEXPR20_DYNALLOC ~_Uninitialized_backout_al() {

  00000	55		 push	 ebp
  00001	8b ec		 mov	 ebp, esp
  00003	51		 push	 ecx
  00004	c7 45 fc cc cc
	cc cc		 mov	 DWORD PTR [ebp-4], -858993460 ; ccccccccH
  0000b	89 4d fc	 mov	 DWORD PTR _this$[ebp], ecx
  0000e	b9 00 00 00 00	 mov	 ecx, OFFSET __79D216CD_xmemory
  00013	e8 00 00 00 00	 call	 @__CheckForDebuggerJustMyCode@4

; 1626 :         _Destroy_range(_First, _Last, _Al);

  00018	8b 45 fc	 mov	 eax, DWORD PTR _this$[ebp]
  0001b	8b 48 08	 mov	 ecx, DWORD PTR [eax+8]
  0001e	51		 push	 ecx
  0001f	8b 55 fc	 mov	 edx, DWORD PTR _this$[ebp]
  00022	8b 42 04	 mov	 eax, DWORD PTR [edx+4]
  00025	50		 push	 eax
  00026	8b 4d fc	 mov	 ecx, DWORD PTR _this$[ebp]
  00029	8b 11		 mov	 edx, DWORD PTR [ecx]
  0002b	52		 push	 edx
  0002c	e8 00 00 00 00	 call	 ??$_Destroy_range@V?$allocator@PAVTexture@sf@@@std@@@std@@YAXPAPAVTexture@sf@@QAPAV12@AAV?$allocator@PAVTexture@sf@@@0@@Z ; std::_Destroy_range<std::allocator<sf::Texture *> >
  00031	83 c4 0c	 add	 esp, 12			; 0000000cH

; 1627 :     }

  00034	83 c4 04	 add	 esp, 4
  00037	3b ec		 cmp	 ebp, esp
  00039	e8 00 00 00 00	 call	 __RTC_CheckEsp
  0003e	8b e5		 mov	 esp, ebp
  00040	5d		 pop	 ebp
  00041	c3		 ret	 0
??1?$_Uninitialized_backout_al@V?$allocator@PAVTexture@sf@@@std@@@std@@QAE@XZ ENDP ; std::_Uninitialized_backout_al<std::allocator<sf::Texture *> >::~_Uninitialized_backout_al<std::allocator<sf::Texture *> >
_TEXT	ENDS
; Function compile flags: /Odtp /RTCsu
; File C:\Program Files (x86)\Microsoft Visual Studio\2019\Community\VC\Tools\MSVC\14.29.30133\include\xmemory
;	COMDAT ??0?$_Uninitialized_backout_al@V?$allocator@PAVTexture@sf@@@std@@@std@@QAE@PAPAVTexture@sf@@AAV?$allocator@PAVTexture@sf@@@1@@Z
_TEXT	SEGMENT
_this$ = -4						; size = 4
__Dest$ = 8						; size = 4
__Al_$ = 12						; size = 4
??0?$_Uninitialized_backout_al@V?$allocator@PAVTexture@sf@@@std@@@std@@QAE@PAPAVTexture@sf@@AAV?$allocator@PAVTexture@sf@@@1@@Z PROC ; std::_Uninitialized_backout_al<std::allocator<sf::Texture *> >::_Uninitialized_backout_al<std::allocator<sf::Texture *> >, COMDAT
; _this$ = ecx

; 1620 :         : _First(_Dest), _Last(_Dest), _Al(_Al_) {}

  00000	55		 push	 ebp
  00001	8b ec		 mov	 ebp, esp
  00003	51		 push	 ecx
  00004	c7 45 fc cc cc
	cc cc		 mov	 DWORD PTR [ebp-4], -858993460 ; ccccccccH
  0000b	89 4d fc	 mov	 DWORD PTR _this$[ebp], ecx
  0000e	b9 00 00 00 00	 mov	 ecx, OFFSET __79D216CD_xmemory
  00013	e8 00 00 00 00	 call	 @__CheckForDebuggerJustMyCode@4
  00018	8b 45 fc	 mov	 eax, DWORD PTR _this$[ebp]
  0001b	8b 4d 08	 mov	 ecx, DWORD PTR __Dest$[ebp]
  0001e	89 08		 mov	 DWORD PTR [eax], ecx
  00020	8b 55 fc	 mov	 edx, DWORD PTR _this$[ebp]
  00023	8b 45 08	 mov	 eax, DWORD PTR __Dest$[ebp]
  00026	89 42 04	 mov	 DWORD PTR [edx+4], eax
  00029	8b 4d fc	 mov	 ecx, DWORD PTR _this$[ebp]
  0002c	8b 55 0c	 mov	 edx, DWORD PTR __Al_$[ebp]
  0002f	89 51 08	 mov	 DWORD PTR [ecx+8], edx
  00032	8b 45 fc	 mov	 eax, DWORD PTR _this$[ebp]
  00035	83 c4 04	 add	 esp, 4
  00038	3b ec		 cmp	 ebp, esp
  0003a	e8 00 00 00 00	 call	 __RTC_CheckEsp
  0003f	8b e5		 mov	 esp, ebp
  00041	5d		 pop	 ebp
  00042	c2 08 00	 ret	 8
??0?$_Uninitialized_backout_al@V?$allocator@PAVTexture@sf@@@std@@@std@@QAE@PAPAVTexture@sf@@AAV?$allocator@PAVTexture@sf@@@1@@Z ENDP ; std::_Uninitialized_backout_al<std::allocator<sf::Texture *> >::_Uninitialized_backout_al<std::allocator<sf::Texture *> >
_TEXT	ENDS
; Function compile flags: /Odtp /RTCsu
; File C:\Program Files (x86)\Microsoft Visual Studio\2019\Community\VC\Tools\MSVC\14.29.30133\include\xutility
;	COMDAT ??$_Copy_memmove@PAPAVTexture@sf@@PAPAV12@@std@@YAPAPAVTexture@sf@@PAPAV12@00@Z
_TEXT	SEGMENT
__Count$ = -28						; size = 4
__Dest_ch$ = -24					; size = 4
__Last_ch$ = -20					; size = 4
__First_ch$ = -16					; size = 4
__DestPtr$ = -12					; size = 4
__LastPtr$ = -8						; size = 4
__FirstPtr$ = -4					; size = 4
__First$ = 8						; size = 4
__Last$ = 12						; size = 4
__Dest$ = 16						; size = 4
??$_Copy_memmove@PAPAVTexture@sf@@PAPAV12@@std@@YAPAPAVTexture@sf@@PAPAV12@00@Z PROC ; std::_Copy_memmove<sf::Texture * *,sf::Texture * *>, COMDAT

; 4159 : _OutCtgIt _Copy_memmove(_CtgIt _First, _CtgIt _Last, _OutCtgIt _Dest) {

  00000	55		 push	 ebp
  00001	8b ec		 mov	 ebp, esp
  00003	83 ec 1c	 sub	 esp, 28			; 0000001cH
  00006	b8 cc cc cc cc	 mov	 eax, -858993460		; ccccccccH
  0000b	89 45 e4	 mov	 DWORD PTR [ebp-28], eax
  0000e	89 45 e8	 mov	 DWORD PTR [ebp-24], eax
  00011	89 45 ec	 mov	 DWORD PTR [ebp-20], eax
  00014	89 45 f0	 mov	 DWORD PTR [ebp-16], eax
  00017	89 45 f4	 mov	 DWORD PTR [ebp-12], eax
  0001a	89 45 f8	 mov	 DWORD PTR [ebp-8], eax
  0001d	89 45 fc	 mov	 DWORD PTR [ebp-4], eax
  00020	b9 00 00 00 00	 mov	 ecx, OFFSET __12269DE6_xutility
  00025	e8 00 00 00 00	 call	 @__CheckForDebuggerJustMyCode@4

; 4160 :     auto _FirstPtr              = _To_address(_First);

  0002a	8d 45 08	 lea	 eax, DWORD PTR __First$[ebp]
  0002d	50		 push	 eax
  0002e	e8 00 00 00 00	 call	 ??$_To_address@PAPAVTexture@sf@@@std@@YA?A_PABQAPAVTexture@sf@@@Z ; std::_To_address<sf::Texture * *>
  00033	83 c4 04	 add	 esp, 4
  00036	89 45 fc	 mov	 DWORD PTR __FirstPtr$[ebp], eax

; 4161 :     auto _LastPtr               = _To_address(_Last);

  00039	8d 4d 0c	 lea	 ecx, DWORD PTR __Last$[ebp]
  0003c	51		 push	 ecx
  0003d	e8 00 00 00 00	 call	 ??$_To_address@PAPAVTexture@sf@@@std@@YA?A_PABQAPAVTexture@sf@@@Z ; std::_To_address<sf::Texture * *>
  00042	83 c4 04	 add	 esp, 4
  00045	89 45 f8	 mov	 DWORD PTR __LastPtr$[ebp], eax

; 4162 :     auto _DestPtr               = _To_address(_Dest);

  00048	8d 55 10	 lea	 edx, DWORD PTR __Dest$[ebp]
  0004b	52		 push	 edx
  0004c	e8 00 00 00 00	 call	 ??$_To_address@PAPAVTexture@sf@@@std@@YA?A_PABQAPAVTexture@sf@@@Z ; std::_To_address<sf::Texture * *>
  00051	83 c4 04	 add	 esp, 4
  00054	89 45 f4	 mov	 DWORD PTR __DestPtr$[ebp], eax

; 4163 :     const char* const _First_ch = const_cast<const char*>(reinterpret_cast<const volatile char*>(_FirstPtr));

  00057	8b 45 fc	 mov	 eax, DWORD PTR __FirstPtr$[ebp]
  0005a	89 45 f0	 mov	 DWORD PTR __First_ch$[ebp], eax

; 4164 :     const char* const _Last_ch  = const_cast<const char*>(reinterpret_cast<const volatile char*>(_LastPtr));

  0005d	8b 4d f8	 mov	 ecx, DWORD PTR __LastPtr$[ebp]
  00060	89 4d ec	 mov	 DWORD PTR __Last_ch$[ebp], ecx

; 4165 :     char* const _Dest_ch        = const_cast<char*>(reinterpret_cast<const volatile char*>(_DestPtr));

  00063	8b 55 f4	 mov	 edx, DWORD PTR __DestPtr$[ebp]
  00066	89 55 e8	 mov	 DWORD PTR __Dest_ch$[ebp], edx

; 4166 :     const auto _Count           = static_cast<size_t>(_Last_ch - _First_ch);

  00069	8b 45 ec	 mov	 eax, DWORD PTR __Last_ch$[ebp]
  0006c	2b 45 f0	 sub	 eax, DWORD PTR __First_ch$[ebp]
  0006f	89 45 e4	 mov	 DWORD PTR __Count$[ebp], eax

; 4167 :     _CSTD memmove(_Dest_ch, _First_ch, _Count);

  00072	8b 4d e4	 mov	 ecx, DWORD PTR __Count$[ebp]
  00075	51		 push	 ecx
  00076	8b 55 f0	 mov	 edx, DWORD PTR __First_ch$[ebp]
  00079	52		 push	 edx
  0007a	8b 45 e8	 mov	 eax, DWORD PTR __Dest_ch$[ebp]
  0007d	50		 push	 eax
  0007e	e8 00 00 00 00	 call	 _memmove
  00083	83 c4 0c	 add	 esp, 12			; 0000000cH

; 4168 :     if constexpr (is_pointer_v<_OutCtgIt>) {
; 4169 :         return reinterpret_cast<_OutCtgIt>(_Dest_ch + _Count);

  00086	8b 45 e8	 mov	 eax, DWORD PTR __Dest_ch$[ebp]
  00089	03 45 e4	 add	 eax, DWORD PTR __Count$[ebp]

; 4170 :     } else {
; 4171 :         return _Dest + (_LastPtr - _FirstPtr);
; 4172 :     }
; 4173 : }

  0008c	83 c4 1c	 add	 esp, 28			; 0000001cH
  0008f	3b ec		 cmp	 ebp, esp
  00091	e8 00 00 00 00	 call	 __RTC_CheckEsp
  00096	8b e5		 mov	 esp, ebp
  00098	5d		 pop	 ebp
  00099	c3		 ret	 0
??$_Copy_memmove@PAPAVTexture@sf@@PAPAV12@@std@@YAPAPAVTexture@sf@@PAPAV12@00@Z ENDP ; std::_Copy_memmove<sf::Texture * *,sf::Texture * *>
_TEXT	ENDS
; Function compile flags: /Odtp /RTCsu
; File C:\Program Files (x86)\Microsoft Visual Studio\2019\Community\VC\Tools\MSVC\14.29.30133\include\xutility
;	COMDAT ??$to_address@PAVTexture@sf@@@std@@YAPAPAVTexture@sf@@QAPAV12@@Z
_TEXT	SEGMENT
__Val$ = 8						; size = 4
??$to_address@PAVTexture@sf@@@std@@YAPAPAVTexture@sf@@QAPAV12@@Z PROC ; std::to_address<sf::Texture *>, COMDAT

; 211  : _NODISCARD constexpr _Ty* to_address(_Ty* const _Val) noexcept {

  00000	55		 push	 ebp
  00001	8b ec		 mov	 ebp, esp
  00003	b9 00 00 00 00	 mov	 ecx, OFFSET __12269DE6_xutility
  00008	e8 00 00 00 00	 call	 @__CheckForDebuggerJustMyCode@4

; 212  :     static_assert(!is_function_v<_Ty>,
; 213  :         "N4810 20.10.4 [pointer.conversion]/2: The program is ill-formed if T is a function type.");
; 214  :     return _Val;

  0000d	8b 45 08	 mov	 eax, DWORD PTR __Val$[ebp]

; 215  : }

  00010	3b ec		 cmp	 ebp, esp
  00012	e8 00 00 00 00	 call	 __RTC_CheckEsp
  00017	5d		 pop	 ebp
  00018	c3		 ret	 0
??$to_address@PAVTexture@sf@@@std@@YAPAPAVTexture@sf@@QAPAV12@@Z ENDP ; std::to_address<sf::Texture *>
_TEXT	ENDS
; Function compile flags: /Odtp /RTCsu
; File C:\Program Files (x86)\Microsoft Visual Studio\2019\Community\VC\Tools\MSVC\14.29.30133\include\type_traits
;	COMDAT ??$move@AAPAVTexture@sf@@@std@@YA$$QAPAVTexture@sf@@AAPAV12@@Z
_TEXT	SEGMENT
__Arg$ = 8						; size = 4
??$move@AAPAVTexture@sf@@@std@@YA$$QAPAVTexture@sf@@AAPAV12@@Z PROC ; std::move<sf::Texture * &>, COMDAT

; 1455 : _NODISCARD constexpr remove_reference_t<_Ty>&& move(_Ty&& _Arg) noexcept { // forward _Arg as movable

  00000	55		 push	 ebp
  00001	8b ec		 mov	 ebp, esp
  00003	b9 00 00 00 00	 mov	 ecx, OFFSET __589FA321_type_traits
  00008	e8 00 00 00 00	 call	 @__CheckForDebuggerJustMyCode@4

; 1456 :     return static_cast<remove_reference_t<_Ty>&&>(_Arg);

  0000d	8b 45 08	 mov	 eax, DWORD PTR __Arg$[ebp]

; 1457 : }

  00010	3b ec		 cmp	 ebp, esp
  00012	e8 00 00 00 00	 call	 __RTC_CheckEsp
  00017	5d		 pop	 ebp
  00018	c3		 ret	 0
??$move@AAPAVTexture@sf@@@std@@YA$$QAPAVTexture@sf@@AAPAV12@@Z ENDP ; std::move<sf::Texture * &>
_TEXT	ENDS
; Function compile flags: /Odtp /RTCsu
; File C:\Program Files (x86)\Microsoft Visual Studio\2019\Community\VC\Tools\MSVC\14.29.30133\include\xutility
;	COMDAT ??$_Get_unwrapped@ABQAPAVTexture@sf@@@std@@YA?A_TABQAPAVTexture@sf@@@Z
_TEXT	SEGMENT
__It$ = 8						; size = 4
??$_Get_unwrapped@ABQAPAVTexture@sf@@@std@@YA?A_TABQAPAVTexture@sf@@@Z PROC ; std::_Get_unwrapped<sf::Texture * * const &>, COMDAT

; 1324 : _NODISCARD constexpr decltype(auto) _Get_unwrapped(_Iter&& _It) {

  00000	55		 push	 ebp
  00001	8b ec		 mov	 ebp, esp
  00003	b9 00 00 00 00	 mov	 ecx, OFFSET __12269DE6_xutility
  00008	e8 00 00 00 00	 call	 @__CheckForDebuggerJustMyCode@4

; 1325 :     // unwrap an iterator previously subjected to _Adl_verify_range or otherwise validated
; 1326 :     if constexpr (is_pointer_v<decay_t<_Iter>>) { // special-case pointers and arrays
; 1327 :         return _It + 0;

  0000d	8b 45 08	 mov	 eax, DWORD PTR __It$[ebp]
  00010	8b 00		 mov	 eax, DWORD PTR [eax]

; 1328 :     } else if constexpr (_Unwrappable_v<_Iter>) {
; 1329 :         return static_cast<_Iter&&>(_It)._Unwrapped();
; 1330 :     } else {
; 1331 :         return static_cast<_Iter&&>(_It);
; 1332 :     }
; 1333 : }

  00012	3b ec		 cmp	 ebp, esp
  00014	e8 00 00 00 00	 call	 __RTC_CheckEsp
  00019	5d		 pop	 ebp
  0001a	c3		 ret	 0
??$_Get_unwrapped@ABQAPAVTexture@sf@@@std@@YA?A_TABQAPAVTexture@sf@@@Z ENDP ; std::_Get_unwrapped<sf::Texture * * const &>
_TEXT	ENDS
; Function compile flags: /Odtp /RTCsu
; File C:\Program Files (x86)\Microsoft Visual Studio\2019\Community\VC\Tools\MSVC\14.29.30133\include\xmemory
;	COMDAT ?deallocate@?$_Default_allocator_traits@V?$allocator@U_Container_proxy@std@@@std@@@std@@SAXAAV?$allocator@U_Container_proxy@std@@@2@QAU_Container_proxy@2@I@Z
_TEXT	SEGMENT
__Al$ = 8						; size = 4
__Ptr$ = 12						; size = 4
__Count$ = 16						; size = 4
?deallocate@?$_Default_allocator_traits@V?$allocator@U_Container_proxy@std@@@std@@@std@@SAXAAV?$allocator@U_Container_proxy@std@@@2@QAU_Container_proxy@2@I@Z PROC ; std::_Default_allocator_traits<std::allocator<std::_Container_proxy> >::deallocate, COMDAT

; 693  :     static _CONSTEXPR20_DYNALLOC void deallocate(_Alloc& _Al, const pointer _Ptr, const size_type _Count) {

  00000	55		 push	 ebp
  00001	8b ec		 mov	 ebp, esp
  00003	b9 00 00 00 00	 mov	 ecx, OFFSET __79D216CD_xmemory
  00008	e8 00 00 00 00	 call	 @__CheckForDebuggerJustMyCode@4

; 694  :         // no overflow check on the following multiply; we assume _Allocate did that check
; 695  : #ifdef __cpp_lib_constexpr_dynamic_alloc // TRANSITION, GH-1532
; 696  :         if (_STD is_constant_evaluated()) {

  0000d	e8 00 00 00 00	 call	 ?is_constant_evaluated@std@@YA_NXZ ; std::is_constant_evaluated
  00012	0f b6 c0	 movzx	 eax, al
  00015	85 c0		 test	 eax, eax
  00017	74 12		 je	 SHORT $LN2@deallocate

; 697  :             _Al.deallocate(_Ptr, _Count);

  00019	8b 4d 10	 mov	 ecx, DWORD PTR __Count$[ebp]
  0001c	51		 push	 ecx
  0001d	8b 55 0c	 mov	 edx, DWORD PTR __Ptr$[ebp]
  00020	52		 push	 edx
  00021	8b 4d 08	 mov	 ecx, DWORD PTR __Al$[ebp]
  00024	e8 00 00 00 00	 call	 ?deallocate@?$allocator@U_Container_proxy@std@@@std@@QAEXQAU_Container_proxy@2@I@Z ; std::allocator<std::_Container_proxy>::deallocate

; 698  :         } else

  00029	eb 13		 jmp	 SHORT $LN1@deallocate
$LN2@deallocate:

; 699  : #endif // __cpp_lib_constexpr_dynamic_alloc
; 700  :         {
; 701  :             (void) _Al;
; 702  :             _Deallocate<_New_alignof<value_type>>(_Ptr, sizeof(value_type) * _Count);

  0002b	8b 45 10	 mov	 eax, DWORD PTR __Count$[ebp]
  0002e	c1 e0 03	 shl	 eax, 3
  00031	50		 push	 eax
  00032	8b 4d 0c	 mov	 ecx, DWORD PTR __Ptr$[ebp]
  00035	51		 push	 ecx
  00036	e8 00 00 00 00	 call	 ??$_Deallocate@$07$0A@@std@@YAXPAXI@Z ; std::_Deallocate<8,0>
  0003b	83 c4 08	 add	 esp, 8
$LN1@deallocate:

; 703  :         }
; 704  :     }

  0003e	3b ec		 cmp	 ebp, esp
  00040	e8 00 00 00 00	 call	 __RTC_CheckEsp
  00045	5d		 pop	 ebp
  00046	c3		 ret	 0
?deallocate@?$_Default_allocator_traits@V?$allocator@U_Container_proxy@std@@@std@@@std@@SAXAAV?$allocator@U_Container_proxy@std@@@2@QAU_Container_proxy@2@I@Z ENDP ; std::_Default_allocator_traits<std::allocator<std::_Container_proxy> >::deallocate
_TEXT	ENDS
; Function compile flags: /Odtp /RTCsu
; File C:\Program Files (x86)\Microsoft Visual Studio\2019\Community\VC\Tools\MSVC\14.29.30133\include\xmemory
;	COMDAT ??$_Uninitialized_value_construct_n@V?$allocator@PAVSprite@sf@@@std@@@std@@YAPAPAVSprite@sf@@PAPAV12@IAAV?$allocator@PAVSprite@sf@@@0@@Z
_TEXT	SEGMENT
$T2 = -44						; size = 4
__Backout$ = -36					; size = 12
__PFirst$3 = -20					; size = 4
__$ArrayPad$ = -16					; size = 4
__$EHRec$ = -12						; size = 12
__First$ = 8						; size = 4
__Count$ = 12						; size = 4
__Al$ = 16						; size = 4
??$_Uninitialized_value_construct_n@V?$allocator@PAVSprite@sf@@@std@@@std@@YAPAPAVSprite@sf@@PAPAV12@IAAV?$allocator@PAVSprite@sf@@@0@@Z PROC ; std::_Uninitialized_value_construct_n<std::allocator<sf::Sprite *> >, COMDAT

; 1815 :     _Alloc_ptr_t<_Alloc> _First, _Alloc_size_t<_Alloc> _Count, _Alloc& _Al) {

  00000	55		 push	 ebp
  00001	8b ec		 mov	 ebp, esp
  00003	6a ff		 push	 -1
  00005	68 00 00 00 00	 push	 __ehhandler$??$_Uninitialized_value_construct_n@V?$allocator@PAVSprite@sf@@@std@@@std@@YAPAPAVSprite@sf@@PAPAV12@IAAV?$allocator@PAVSprite@sf@@@0@@Z
  0000a	64 a1 00 00 00
	00		 mov	 eax, DWORD PTR fs:0
  00010	50		 push	 eax
  00011	83 ec 20	 sub	 esp, 32			; 00000020H
  00014	b8 cc cc cc cc	 mov	 eax, -858993460		; ccccccccH
  00019	89 45 d4	 mov	 DWORD PTR [ebp-44], eax
  0001c	89 45 d8	 mov	 DWORD PTR [ebp-40], eax
  0001f	89 45 dc	 mov	 DWORD PTR [ebp-36], eax
  00022	89 45 e0	 mov	 DWORD PTR [ebp-32], eax
  00025	89 45 e4	 mov	 DWORD PTR [ebp-28], eax
  00028	89 45 e8	 mov	 DWORD PTR [ebp-24], eax
  0002b	89 45 ec	 mov	 DWORD PTR [ebp-20], eax
  0002e	89 45 f0	 mov	 DWORD PTR [ebp-16], eax
  00031	a1 00 00 00 00	 mov	 eax, DWORD PTR ___security_cookie
  00036	33 c5		 xor	 eax, ebp
  00038	89 45 f0	 mov	 DWORD PTR __$ArrayPad$[ebp], eax
  0003b	50		 push	 eax
  0003c	8d 45 f4	 lea	 eax, DWORD PTR __$EHRec$[ebp]
  0003f	64 a3 00 00 00
	00		 mov	 DWORD PTR fs:0, eax
  00045	b9 00 00 00 00	 mov	 ecx, OFFSET __79D216CD_xmemory
  0004a	e8 00 00 00 00	 call	 @__CheckForDebuggerJustMyCode@4

; 1816 :     // value-initialize _Count objects to raw _First, using _Al
; 1817 :     using _Ptrty = typename _Alloc::value_type*;
; 1818 :     if constexpr (_Use_memset_value_construct_v<_Ptrty> && _Uses_default_construct<_Alloc, _Ptrty>::value) {
; 1819 : #ifdef __cpp_lib_constexpr_dynamic_alloc
; 1820 :         if (!_STD is_constant_evaluated())

  0004f	e8 00 00 00 00	 call	 ?is_constant_evaluated@std@@YA_NXZ ; std::is_constant_evaluated
  00054	0f b6 c0	 movzx	 eax, al
  00057	85 c0		 test	 eax, eax
  00059	75 30		 jne	 SHORT $LN5@Uninitiali

; 1821 : #endif // __cpp_lib_constexpr_dynamic_alloc
; 1822 :         {
; 1823 :             auto _PFirst = _Unfancy(_First);

  0005b	8b 4d 08	 mov	 ecx, DWORD PTR __First$[ebp]
  0005e	51		 push	 ecx
  0005f	e8 00 00 00 00	 call	 ??$_Unfancy@PAVSprite@sf@@@std@@YAPAPAVSprite@sf@@PAPAV12@@Z ; std::_Unfancy<sf::Sprite *>
  00064	83 c4 04	 add	 esp, 4
  00067	89 45 ec	 mov	 DWORD PTR __PFirst$3[ebp], eax

; 1824 :             _Zero_range(_PFirst, _PFirst + _Count);

  0006a	8b 55 0c	 mov	 edx, DWORD PTR __Count$[ebp]
  0006d	8b 45 ec	 mov	 eax, DWORD PTR __PFirst$3[ebp]
  00070	8d 0c 90	 lea	 ecx, DWORD PTR [eax+edx*4]
  00073	51		 push	 ecx
  00074	8b 55 ec	 mov	 edx, DWORD PTR __PFirst$3[ebp]
  00077	52		 push	 edx
  00078	e8 00 00 00 00	 call	 ??$_Zero_range@PAPAVSprite@sf@@@std@@YAPAPAVSprite@sf@@QAPAV12@0@Z ; std::_Zero_range<sf::Sprite * *>
  0007d	83 c4 08	 add	 esp, 8

; 1825 :             return _First + _Count;

  00080	8b 45 0c	 mov	 eax, DWORD PTR __Count$[ebp]
  00083	8b 4d 08	 mov	 ecx, DWORD PTR __First$[ebp]
  00086	8d 04 81	 lea	 eax, DWORD PTR [ecx+eax*4]
  00089	eb 59		 jmp	 SHORT $LN1@Uninitiali
$LN5@Uninitiali:

; 1826 :         }
; 1827 :     }
; 1828 : 
; 1829 :     _Uninitialized_backout_al<_Alloc> _Backout{_First, _Al};

  0008b	6a 0c		 push	 12			; 0000000cH
  0008d	8d 4d dc	 lea	 ecx, DWORD PTR __Backout$[ebp]
  00090	e8 00 00 00 00	 call	 ?__autoclassinit2@?$_Uninitialized_backout_al@V?$allocator@PAVSprite@sf@@@std@@@std@@QAEXI@Z
  00095	8b 55 10	 mov	 edx, DWORD PTR __Al$[ebp]
  00098	52		 push	 edx
  00099	8b 45 08	 mov	 eax, DWORD PTR __First$[ebp]
  0009c	50		 push	 eax
  0009d	8d 4d dc	 lea	 ecx, DWORD PTR __Backout$[ebp]
  000a0	e8 00 00 00 00	 call	 ??0?$_Uninitialized_backout_al@V?$allocator@PAVSprite@sf@@@std@@@std@@QAE@PAPAVSprite@sf@@AAV?$allocator@PAVSprite@sf@@@1@@Z ; std::_Uninitialized_backout_al<std::allocator<sf::Sprite *> >::_Uninitialized_backout_al<std::allocator<sf::Sprite *> >
  000a5	c7 45 fc 00 00
	00 00		 mov	 DWORD PTR __$EHRec$[ebp+8], 0

; 1830 :     for (; 0 < _Count; --_Count) {

  000ac	eb 09		 jmp	 SHORT $LN4@Uninitiali
$LN2@Uninitiali:
  000ae	8b 4d 0c	 mov	 ecx, DWORD PTR __Count$[ebp]
  000b1	83 e9 01	 sub	 ecx, 1
  000b4	89 4d 0c	 mov	 DWORD PTR __Count$[ebp], ecx
$LN4@Uninitiali:
  000b7	83 7d 0c 00	 cmp	 DWORD PTR __Count$[ebp], 0
  000bb	76 0a		 jbe	 SHORT $LN3@Uninitiali

; 1831 :         _Backout._Emplace_back();

  000bd	8d 4d dc	 lea	 ecx, DWORD PTR __Backout$[ebp]
  000c0	e8 00 00 00 00	 call	 ??$_Emplace_back@$$V@?$_Uninitialized_backout_al@V?$allocator@PAVSprite@sf@@@std@@@std@@QAEXXZ ; std::_Uninitialized_backout_al<std::allocator<sf::Sprite *> >::_Emplace_back<>

; 1832 :     }

  000c5	eb e7		 jmp	 SHORT $LN2@Uninitiali
$LN3@Uninitiali:

; 1833 : 
; 1834 :     return _Backout._Release();

  000c7	8d 4d dc	 lea	 ecx, DWORD PTR __Backout$[ebp]
  000ca	e8 00 00 00 00	 call	 ?_Release@?$_Uninitialized_backout_al@V?$allocator@PAVSprite@sf@@@std@@@std@@QAEPAPAVSprite@sf@@XZ ; std::_Uninitialized_backout_al<std::allocator<sf::Sprite *> >::_Release
  000cf	89 45 d4	 mov	 DWORD PTR $T2[ebp], eax
  000d2	c7 45 fc ff ff
	ff ff		 mov	 DWORD PTR __$EHRec$[ebp+8], -1
  000d9	8d 4d dc	 lea	 ecx, DWORD PTR __Backout$[ebp]
  000dc	e8 00 00 00 00	 call	 ??1?$_Uninitialized_backout_al@V?$allocator@PAVSprite@sf@@@std@@@std@@QAE@XZ ; std::_Uninitialized_backout_al<std::allocator<sf::Sprite *> >::~_Uninitialized_backout_al<std::allocator<sf::Sprite *> >
  000e1	8b 45 d4	 mov	 eax, DWORD PTR $T2[ebp]
$LN1@Uninitiali:

; 1835 : }

  000e4	52		 push	 edx
  000e5	8b cd		 mov	 ecx, ebp
  000e7	50		 push	 eax
  000e8	8d 15 00 00 00
	00		 lea	 edx, DWORD PTR $LN11@Uninitiali
  000ee	e8 00 00 00 00	 call	 @_RTC_CheckStackVars@8
  000f3	58		 pop	 eax
  000f4	5a		 pop	 edx
  000f5	8b 4d f4	 mov	 ecx, DWORD PTR __$EHRec$[ebp]
  000f8	64 89 0d 00 00
	00 00		 mov	 DWORD PTR fs:0, ecx
  000ff	59		 pop	 ecx
  00100	8b 4d f0	 mov	 ecx, DWORD PTR __$ArrayPad$[ebp]
  00103	33 cd		 xor	 ecx, ebp
  00105	e8 00 00 00 00	 call	 @__security_check_cookie@4
  0010a	83 c4 2c	 add	 esp, 44			; 0000002cH
  0010d	3b ec		 cmp	 ebp, esp
  0010f	e8 00 00 00 00	 call	 __RTC_CheckEsp
  00114	8b e5		 mov	 esp, ebp
  00116	5d		 pop	 ebp
  00117	c3		 ret	 0
$LN11@Uninitiali:
  00118	01 00 00 00	 DD	 1
  0011c	00 00 00 00	 DD	 $LN10@Uninitiali
$LN10@Uninitiali:
  00120	dc ff ff ff	 DD	 -36			; ffffffdcH
  00124	0c 00 00 00	 DD	 12			; 0000000cH
  00128	00 00 00 00	 DD	 $LN8@Uninitiali
$LN8@Uninitiali:
  0012c	5f		 DB	 95			; 0000005fH
  0012d	42		 DB	 66			; 00000042H
  0012e	61		 DB	 97			; 00000061H
  0012f	63		 DB	 99			; 00000063H
  00130	6b		 DB	 107			; 0000006bH
  00131	6f		 DB	 111			; 0000006fH
  00132	75		 DB	 117			; 00000075H
  00133	74		 DB	 116			; 00000074H
  00134	00		 DB	 0
_TEXT	ENDS
;	COMDAT text$x
text$x	SEGMENT
__unwindfunclet$??$_Uninitialized_value_construct_n@V?$allocator@PAVSprite@sf@@@std@@@std@@YAPAPAVSprite@sf@@PAPAV12@IAAV?$allocator@PAVSprite@sf@@@0@@Z$0:
  00000	8d 4d dc	 lea	 ecx, DWORD PTR __Backout$[ebp]
  00003	e9 00 00 00 00	 jmp	 ??1?$_Uninitialized_backout_al@V?$allocator@PAVSprite@sf@@@std@@@std@@QAE@XZ ; std::_Uninitialized_backout_al<std::allocator<sf::Sprite *> >::~_Uninitialized_backout_al<std::allocator<sf::Sprite *> >
  00008	cc		 int	 3
  00009	cc		 int	 3
  0000a	cc		 int	 3
  0000b	cc		 int	 3
  0000c	cc		 int	 3
__ehhandler$??$_Uninitialized_value_construct_n@V?$allocator@PAVSprite@sf@@@std@@@std@@YAPAPAVSprite@sf@@PAPAV12@IAAV?$allocator@PAVSprite@sf@@@0@@Z:
  0000d	90		 npad	 1
  0000e	90		 npad	 1
  0000f	8b 54 24 08	 mov	 edx, DWORD PTR [esp+8]
  00013	8d 42 0c	 lea	 eax, DWORD PTR [edx+12]
  00016	8b 4a dc	 mov	 ecx, DWORD PTR [edx-36]
  00019	33 c8		 xor	 ecx, eax
  0001b	e8 00 00 00 00	 call	 @__security_check_cookie@4
  00020	8b 4a fc	 mov	 ecx, DWORD PTR [edx-4]
  00023	33 c8		 xor	 ecx, eax
  00025	e8 00 00 00 00	 call	 @__security_check_cookie@4
  0002a	b8 00 00 00 00	 mov	 eax, OFFSET __ehfuncinfo$??$_Uninitialized_value_construct_n@V?$allocator@PAVSprite@sf@@@std@@@std@@YAPAPAVSprite@sf@@PAPAV12@IAAV?$allocator@PAVSprite@sf@@@0@@Z
  0002f	e9 00 00 00 00	 jmp	 ___CxxFrameHandler3
text$x	ENDS
??$_Uninitialized_value_construct_n@V?$allocator@PAVSprite@sf@@@std@@@std@@YAPAPAVSprite@sf@@PAPAV12@IAAV?$allocator@PAVSprite@sf@@@0@@Z ENDP ; std::_Uninitialized_value_construct_n<std::allocator<sf::Sprite *> >
; Function compile flags: /Odtp /RTCsu
; File C:\Program Files (x86)\Microsoft Visual Studio\2019\Community\VC\Tools\MSVC\14.29.30133\include\xmemory
;	COMDAT ??$_Uninitialized_move@PAPAVTexture@sf@@V?$allocator@PAVTexture@sf@@@std@@@std@@YAPAPAVTexture@sf@@QAPAV12@0PAPAV12@AAV?$allocator@PAVTexture@sf@@@0@@Z
_TEXT	SEGMENT
$T2 = -48						; size = 4
__Backout$ = -40					; size = 12
__ULast$ = -24						; size = 4
__UFirst$ = -20						; size = 4
__$ArrayPad$ = -16					; size = 4
__$EHRec$ = -12						; size = 12
__First$ = 8						; size = 4
__Last$ = 12						; size = 4
__Dest$ = 16						; size = 4
__Al$ = 20						; size = 4
??$_Uninitialized_move@PAPAVTexture@sf@@V?$allocator@PAVTexture@sf@@@std@@@std@@YAPAPAVTexture@sf@@QAPAV12@0PAPAV12@AAV?$allocator@PAVTexture@sf@@@0@@Z PROC ; std::_Uninitialized_move<sf::Texture * *,std::allocator<sf::Texture *> >, COMDAT

; 1713 :     const _InIt _First, const _InIt _Last, _Alloc_ptr_t<_Alloc> _Dest, _Alloc& _Al) {

  00000	55		 push	 ebp
  00001	8b ec		 mov	 ebp, esp
  00003	6a ff		 push	 -1
  00005	68 00 00 00 00	 push	 __ehhandler$??$_Uninitialized_move@PAPAVTexture@sf@@V?$allocator@PAVTexture@sf@@@std@@@std@@YAPAPAVTexture@sf@@QAPAV12@0PAPAV12@AAV?$allocator@PAVTexture@sf@@@0@@Z
  0000a	64 a1 00 00 00
	00		 mov	 eax, DWORD PTR fs:0
  00010	50		 push	 eax
  00011	83 ec 24	 sub	 esp, 36			; 00000024H
  00014	b8 cc cc cc cc	 mov	 eax, -858993460		; ccccccccH
  00019	89 45 d0	 mov	 DWORD PTR [ebp-48], eax
  0001c	89 45 d4	 mov	 DWORD PTR [ebp-44], eax
  0001f	89 45 d8	 mov	 DWORD PTR [ebp-40], eax
  00022	89 45 dc	 mov	 DWORD PTR [ebp-36], eax
  00025	89 45 e0	 mov	 DWORD PTR [ebp-32], eax
  00028	89 45 e4	 mov	 DWORD PTR [ebp-28], eax
  0002b	89 45 e8	 mov	 DWORD PTR [ebp-24], eax
  0002e	89 45 ec	 mov	 DWORD PTR [ebp-20], eax
  00031	89 45 f0	 mov	 DWORD PTR [ebp-16], eax
  00034	a1 00 00 00 00	 mov	 eax, DWORD PTR ___security_cookie
  00039	33 c5		 xor	 eax, ebp
  0003b	89 45 f0	 mov	 DWORD PTR __$ArrayPad$[ebp], eax
  0003e	50		 push	 eax
  0003f	8d 45 f4	 lea	 eax, DWORD PTR __$EHRec$[ebp]
  00042	64 a3 00 00 00
	00		 mov	 DWORD PTR fs:0, eax
  00048	b9 00 00 00 00	 mov	 ecx, OFFSET __79D216CD_xmemory
  0004d	e8 00 00 00 00	 call	 @__CheckForDebuggerJustMyCode@4

; 1714 :     // move [_First, _Last) to raw _Dest, using _Al
; 1715 :     // note: only called internally from elsewhere in the STL
; 1716 :     using _Ptrval     = typename _Alloc::value_type*;
; 1717 :     auto _UFirst      = _Get_unwrapped(_First);

  00052	8d 45 08	 lea	 eax, DWORD PTR __First$[ebp]
  00055	50		 push	 eax
  00056	e8 00 00 00 00	 call	 ??$_Get_unwrapped@ABQAPAVTexture@sf@@@std@@YA?A_TABQAPAVTexture@sf@@@Z ; std::_Get_unwrapped<sf::Texture * * const &>
  0005b	83 c4 04	 add	 esp, 4
  0005e	89 45 ec	 mov	 DWORD PTR __UFirst$[ebp], eax

; 1718 :     const auto _ULast = _Get_unwrapped(_Last);

  00061	8d 4d 0c	 lea	 ecx, DWORD PTR __Last$[ebp]
  00064	51		 push	 ecx
  00065	e8 00 00 00 00	 call	 ??$_Get_unwrapped@ABQAPAVTexture@sf@@@std@@YA?A_TABQAPAVTexture@sf@@@Z ; std::_Get_unwrapped<sf::Texture * * const &>
  0006a	83 c4 04	 add	 esp, 4
  0006d	89 45 e8	 mov	 DWORD PTR __ULast$[ebp], eax

; 1719 :     if constexpr (conjunction_v<bool_constant<_Ptr_move_cat<decltype(_UFirst), _Ptrval>::_Really_trivial>,
; 1720 :                       _Uses_default_construct<_Alloc, _Ptrval, decltype(_STD move(*_UFirst))>>) {
; 1721 : #ifdef __cpp_lib_constexpr_dynamic_alloc
; 1722 :         if (!_STD is_constant_evaluated())

  00070	e8 00 00 00 00	 call	 ?is_constant_evaluated@std@@YA_NXZ ; std::is_constant_evaluated
  00075	0f b6 d0	 movzx	 edx, al
  00078	85 d2		 test	 edx, edx
  0007a	75 2e		 jne	 SHORT $LN5@Uninitiali

; 1723 : #endif // __cpp_lib_constexpr_dynamic_alloc
; 1724 :         {
; 1725 :             _Copy_memmove(_UFirst, _ULast, _Unfancy(_Dest));

  0007c	8b 45 10	 mov	 eax, DWORD PTR __Dest$[ebp]
  0007f	50		 push	 eax
  00080	e8 00 00 00 00	 call	 ??$_Unfancy@PAVTexture@sf@@@std@@YAPAPAVTexture@sf@@PAPAV12@@Z ; std::_Unfancy<sf::Texture *>
  00085	83 c4 04	 add	 esp, 4
  00088	50		 push	 eax
  00089	8b 4d e8	 mov	 ecx, DWORD PTR __ULast$[ebp]
  0008c	51		 push	 ecx
  0008d	8b 55 ec	 mov	 edx, DWORD PTR __UFirst$[ebp]
  00090	52		 push	 edx
  00091	e8 00 00 00 00	 call	 ??$_Copy_memmove@PAPAVTexture@sf@@PAPAV12@@std@@YAPAPAVTexture@sf@@PAPAV12@00@Z ; std::_Copy_memmove<sf::Texture * *,sf::Texture * *>
  00096	83 c4 0c	 add	 esp, 12			; 0000000cH

; 1726 :             return _Dest + (_ULast - _UFirst);

  00099	8b 45 e8	 mov	 eax, DWORD PTR __ULast$[ebp]
  0009c	2b 45 ec	 sub	 eax, DWORD PTR __UFirst$[ebp]
  0009f	c1 f8 02	 sar	 eax, 2
  000a2	8b 4d 10	 mov	 ecx, DWORD PTR __Dest$[ebp]
  000a5	8d 04 81	 lea	 eax, DWORD PTR [ecx+eax*4]
  000a8	eb 68		 jmp	 SHORT $LN1@Uninitiali
$LN5@Uninitiali:

; 1727 :         }
; 1728 :     }
; 1729 : 
; 1730 :     _Uninitialized_backout_al<_Alloc> _Backout{_Dest, _Al};

  000aa	6a 0c		 push	 12			; 0000000cH
  000ac	8d 4d d8	 lea	 ecx, DWORD PTR __Backout$[ebp]
  000af	e8 00 00 00 00	 call	 ?__autoclassinit2@?$_Uninitialized_backout_al@V?$allocator@PAVTexture@sf@@@std@@@std@@QAEXI@Z
  000b4	8b 55 14	 mov	 edx, DWORD PTR __Al$[ebp]
  000b7	52		 push	 edx
  000b8	8b 45 10	 mov	 eax, DWORD PTR __Dest$[ebp]
  000bb	50		 push	 eax
  000bc	8d 4d d8	 lea	 ecx, DWORD PTR __Backout$[ebp]
  000bf	e8 00 00 00 00	 call	 ??0?$_Uninitialized_backout_al@V?$allocator@PAVTexture@sf@@@std@@@std@@QAE@PAPAVTexture@sf@@AAV?$allocator@PAVTexture@sf@@@1@@Z ; std::_Uninitialized_backout_al<std::allocator<sf::Texture *> >::_Uninitialized_backout_al<std::allocator<sf::Texture *> >
  000c4	c7 45 fc 00 00
	00 00		 mov	 DWORD PTR __$EHRec$[ebp+8], 0

; 1731 :     for (; _UFirst != _ULast; ++_UFirst) {

  000cb	eb 09		 jmp	 SHORT $LN4@Uninitiali
$LN2@Uninitiali:
  000cd	8b 4d ec	 mov	 ecx, DWORD PTR __UFirst$[ebp]
  000d0	83 c1 04	 add	 ecx, 4
  000d3	89 4d ec	 mov	 DWORD PTR __UFirst$[ebp], ecx
$LN4@Uninitiali:
  000d6	8b 55 ec	 mov	 edx, DWORD PTR __UFirst$[ebp]
  000d9	3b 55 e8	 cmp	 edx, DWORD PTR __ULast$[ebp]
  000dc	74 17		 je	 SHORT $LN3@Uninitiali

; 1732 :         _Backout._Emplace_back(_STD move(*_UFirst));

  000de	8b 45 ec	 mov	 eax, DWORD PTR __UFirst$[ebp]
  000e1	50		 push	 eax
  000e2	e8 00 00 00 00	 call	 ??$move@AAPAVTexture@sf@@@std@@YA$$QAPAVTexture@sf@@AAPAV12@@Z ; std::move<sf::Texture * &>
  000e7	83 c4 04	 add	 esp, 4
  000ea	50		 push	 eax
  000eb	8d 4d d8	 lea	 ecx, DWORD PTR __Backout$[ebp]
  000ee	e8 00 00 00 00	 call	 ??$_Emplace_back@PAVTexture@sf@@@?$_Uninitialized_backout_al@V?$allocator@PAVTexture@sf@@@std@@@std@@QAEX$$QAPAVTexture@sf@@@Z ; std::_Uninitialized_backout_al<std::allocator<sf::Texture *> >::_Emplace_back<sf::Texture *>

; 1733 :     }

  000f3	eb d8		 jmp	 SHORT $LN2@Uninitiali
$LN3@Uninitiali:

; 1734 : 
; 1735 :     return _Backout._Release();

  000f5	8d 4d d8	 lea	 ecx, DWORD PTR __Backout$[ebp]
  000f8	e8 00 00 00 00	 call	 ?_Release@?$_Uninitialized_backout_al@V?$allocator@PAVTexture@sf@@@std@@@std@@QAEPAPAVTexture@sf@@XZ ; std::_Uninitialized_backout_al<std::allocator<sf::Texture *> >::_Release
  000fd	89 45 d0	 mov	 DWORD PTR $T2[ebp], eax
  00100	c7 45 fc ff ff
	ff ff		 mov	 DWORD PTR __$EHRec$[ebp+8], -1
  00107	8d 4d d8	 lea	 ecx, DWORD PTR __Backout$[ebp]
  0010a	e8 00 00 00 00	 call	 ??1?$_Uninitialized_backout_al@V?$allocator@PAVTexture@sf@@@std@@@std@@QAE@XZ ; std::_Uninitialized_backout_al<std::allocator<sf::Texture *> >::~_Uninitialized_backout_al<std::allocator<sf::Texture *> >
  0010f	8b 45 d0	 mov	 eax, DWORD PTR $T2[ebp]
$LN1@Uninitiali:

; 1736 : }

  00112	52		 push	 edx
  00113	8b cd		 mov	 ecx, ebp
  00115	50		 push	 eax
  00116	8d 15 00 00 00
	00		 lea	 edx, DWORD PTR $LN11@Uninitiali
  0011c	e8 00 00 00 00	 call	 @_RTC_CheckStackVars@8
  00121	58		 pop	 eax
  00122	5a		 pop	 edx
  00123	8b 4d f4	 mov	 ecx, DWORD PTR __$EHRec$[ebp]
  00126	64 89 0d 00 00
	00 00		 mov	 DWORD PTR fs:0, ecx
  0012d	59		 pop	 ecx
  0012e	8b 4d f0	 mov	 ecx, DWORD PTR __$ArrayPad$[ebp]
  00131	33 cd		 xor	 ecx, ebp
  00133	e8 00 00 00 00	 call	 @__security_check_cookie@4
  00138	83 c4 30	 add	 esp, 48			; 00000030H
  0013b	3b ec		 cmp	 ebp, esp
  0013d	e8 00 00 00 00	 call	 __RTC_CheckEsp
  00142	8b e5		 mov	 esp, ebp
  00144	5d		 pop	 ebp
  00145	c3		 ret	 0
  00146	66 90		 npad	 2
$LN11@Uninitiali:
  00148	01 00 00 00	 DD	 1
  0014c	00 00 00 00	 DD	 $LN10@Uninitiali
$LN10@Uninitiali:
  00150	d8 ff ff ff	 DD	 -40			; ffffffd8H
  00154	0c 00 00 00	 DD	 12			; 0000000cH
  00158	00 00 00 00	 DD	 $LN8@Uninitiali
$LN8@Uninitiali:
  0015c	5f		 DB	 95			; 0000005fH
  0015d	42		 DB	 66			; 00000042H
  0015e	61		 DB	 97			; 00000061H
  0015f	63		 DB	 99			; 00000063H
  00160	6b		 DB	 107			; 0000006bH
  00161	6f		 DB	 111			; 0000006fH
  00162	75		 DB	 117			; 00000075H
  00163	74		 DB	 116			; 00000074H
  00164	00		 DB	 0
_TEXT	ENDS
;	COMDAT text$x
text$x	SEGMENT
__unwindfunclet$??$_Uninitialized_move@PAPAVTexture@sf@@V?$allocator@PAVTexture@sf@@@std@@@std@@YAPAPAVTexture@sf@@QAPAV12@0PAPAV12@AAV?$allocator@PAVTexture@sf@@@0@@Z$0:
  00000	8d 4d d8	 lea	 ecx, DWORD PTR __Backout$[ebp]
  00003	e9 00 00 00 00	 jmp	 ??1?$_Uninitialized_backout_al@V?$allocator@PAVTexture@sf@@@std@@@std@@QAE@XZ ; std::_Uninitialized_backout_al<std::allocator<sf::Texture *> >::~_Uninitialized_backout_al<std::allocator<sf::Texture *> >
  00008	cc		 int	 3
  00009	cc		 int	 3
  0000a	cc		 int	 3
  0000b	cc		 int	 3
  0000c	cc		 int	 3
__ehhandler$??$_Uninitialized_move@PAPAVTexture@sf@@V?$allocator@PAVTexture@sf@@@std@@@std@@YAPAPAVTexture@sf@@QAPAV12@0PAPAV12@AAV?$allocator@PAVTexture@sf@@@0@@Z:
  0000d	90		 npad	 1
  0000e	90		 npad	 1
  0000f	8b 54 24 08	 mov	 edx, DWORD PTR [esp+8]
  00013	8d 42 0c	 lea	 eax, DWORD PTR [edx+12]
  00016	8b 4a d8	 mov	 ecx, DWORD PTR [edx-40]
  00019	33 c8		 xor	 ecx, eax
  0001b	e8 00 00 00 00	 call	 @__security_check_cookie@4
  00020	8b 4a fc	 mov	 ecx, DWORD PTR [edx-4]
  00023	33 c8		 xor	 ecx, eax
  00025	e8 00 00 00 00	 call	 @__security_check_cookie@4
  0002a	b8 00 00 00 00	 mov	 eax, OFFSET __ehfuncinfo$??$_Uninitialized_move@PAPAVTexture@sf@@V?$allocator@PAVTexture@sf@@@std@@@std@@YAPAPAVTexture@sf@@QAPAV12@0PAPAV12@AAV?$allocator@PAVTexture@sf@@@0@@Z
  0002f	e9 00 00 00 00	 jmp	 ___CxxFrameHandler3
text$x	ENDS
??$_Uninitialized_move@PAPAVTexture@sf@@V?$allocator@PAVTexture@sf@@@std@@@std@@YAPAPAVTexture@sf@@QAPAV12@0PAPAV12@AAV?$allocator@PAVTexture@sf@@@0@@Z ENDP ; std::_Uninitialized_move<sf::Texture * *,std::allocator<sf::Texture *> >
; Function compile flags: /Odtp /RTCsu
; File C:\Program Files (x86)\Microsoft Visual Studio\2019\Community\VC\Tools\MSVC\14.29.30133\include\xmemory
;	COMDAT ??$_Allocate_manually_vector_aligned@U_Default_allocate_traits@std@@@std@@YAPAXI@Z
_TEXT	SEGMENT
__Ptr$ = -12						; size = 4
__Ptr_container$ = -8					; size = 4
__Block_size$ = -4					; size = 4
__Bytes$ = 8						; size = 4
??$_Allocate_manually_vector_aligned@U_Default_allocate_traits@std@@@std@@YAPAXI@Z PROC ; std::_Allocate_manually_vector_aligned<std::_Default_allocate_traits>, COMDAT

; 134  : __declspec(allocator) void* _Allocate_manually_vector_aligned(const size_t _Bytes) {

  00000	55		 push	 ebp
  00001	8b ec		 mov	 ebp, esp
  00003	83 ec 0c	 sub	 esp, 12			; 0000000cH
  00006	56		 push	 esi
  00007	c7 45 f4 cc cc
	cc cc		 mov	 DWORD PTR [ebp-12], -858993460 ; ccccccccH
  0000e	c7 45 f8 cc cc
	cc cc		 mov	 DWORD PTR [ebp-8], -858993460 ; ccccccccH
  00015	c7 45 fc cc cc
	cc cc		 mov	 DWORD PTR [ebp-4], -858993460 ; ccccccccH
  0001c	b9 00 00 00 00	 mov	 ecx, OFFSET __79D216CD_xmemory
  00021	e8 00 00 00 00	 call	 @__CheckForDebuggerJustMyCode@4

; 135  :     // allocate _Bytes manually aligned to at least _Big_allocation_alignment
; 136  :     const size_t _Block_size = _Non_user_size + _Bytes;

  00026	8b 45 08	 mov	 eax, DWORD PTR __Bytes$[ebp]
  00029	83 c0 27	 add	 eax, 39			; 00000027H
  0002c	89 45 fc	 mov	 DWORD PTR __Block_size$[ebp], eax

; 137  :     if (_Block_size <= _Bytes) {

  0002f	8b 4d fc	 mov	 ecx, DWORD PTR __Block_size$[ebp]
  00032	3b 4d 08	 cmp	 ecx, DWORD PTR __Bytes$[ebp]
  00035	77 05		 ja	 SHORT $LN8@Allocate_m

; 138  :         _Throw_bad_array_new_length(); // add overflow

  00037	e8 00 00 00 00	 call	 ?_Throw_bad_array_new_length@std@@YAXXZ ; std::_Throw_bad_array_new_length
$LN8@Allocate_m:

; 139  :     }
; 140  : 
; 141  :     const uintptr_t _Ptr_container = reinterpret_cast<uintptr_t>(_Traits::_Allocate(_Block_size));

  0003c	8b 55 fc	 mov	 edx, DWORD PTR __Block_size$[ebp]
  0003f	52		 push	 edx
  00040	e8 00 00 00 00	 call	 ?_Allocate@_Default_allocate_traits@std@@SAPAXI@Z ; std::_Default_allocate_traits::_Allocate
  00045	83 c4 04	 add	 esp, 4
  00048	89 45 f8	 mov	 DWORD PTR __Ptr_container$[ebp], eax
$LN4@Allocate_m:

; 142  :     _STL_VERIFY(_Ptr_container != 0, "invalid argument"); // validate even in release since we're doing p[-1]

  0004b	83 7d f8 00	 cmp	 DWORD PTR __Ptr_container$[ebp], 0
  0004f	74 02		 je	 SHORT $LN7@Allocate_m
  00051	eb 5c		 jmp	 SHORT $LN2@Allocate_m
$LN7@Allocate_m:
  00053	8b f4		 mov	 esi, esp
  00055	68 00 00 00 00	 push	 OFFSET $SG92591
  0005a	68 00 00 00 00	 push	 OFFSET $SG92592
  0005f	6a 00		 push	 0
  00061	68 8e 00 00 00	 push	 142			; 0000008eH
  00066	68 00 00 00 00	 push	 OFFSET $SG92593
  0006b	6a 02		 push	 2
  0006d	ff 15 00 00 00
	00		 call	 DWORD PTR __imp___CrtDbgReport
  00073	83 c4 18	 add	 esp, 24			; 00000018H
  00076	3b f4		 cmp	 esi, esp
  00078	e8 00 00 00 00	 call	 __RTC_CheckEsp
  0007d	83 f8 01	 cmp	 eax, 1
  00080	75 01		 jne	 SHORT $LN12@Allocate_m
  00082	cc		 int	 3
$LN12@Allocate_m:
  00083	8b f4		 mov	 esi, esp
  00085	6a 00		 push	 0
  00087	68 8e 00 00 00	 push	 142			; 0000008eH
  0008c	68 00 00 00 00	 push	 OFFSET $SG92594
  00091	68 00 00 00 00	 push	 OFFSET $SG92595
  00096	68 00 00 00 00	 push	 OFFSET $SG92596
  0009b	ff 15 00 00 00
	00		 call	 DWORD PTR __imp___invalid_parameter
  000a1	83 c4 14	 add	 esp, 20			; 00000014H
  000a4	3b f4		 cmp	 esi, esp
  000a6	e8 00 00 00 00	 call	 __RTC_CheckEsp
  000ab	33 c9		 xor	 ecx, ecx
  000ad	75 a4		 jne	 SHORT $LN7@Allocate_m
$LN2@Allocate_m:
  000af	33 d2		 xor	 edx, edx
  000b1	75 98		 jne	 SHORT $LN4@Allocate_m

; 143  :     void* const _Ptr = reinterpret_cast<void*>((_Ptr_container + _Non_user_size) & ~(_Big_allocation_alignment - 1));

  000b3	8b 45 f8	 mov	 eax, DWORD PTR __Ptr_container$[ebp]
  000b6	83 c0 27	 add	 eax, 39			; 00000027H
  000b9	83 e0 e0	 and	 eax, -32		; ffffffe0H
  000bc	89 45 f4	 mov	 DWORD PTR __Ptr$[ebp], eax

; 144  :     static_cast<uintptr_t*>(_Ptr)[-1] = _Ptr_container;

  000bf	b9 04 00 00 00	 mov	 ecx, 4
  000c4	6b d1 ff	 imul	 edx, ecx, -1
  000c7	8b 45 f4	 mov	 eax, DWORD PTR __Ptr$[ebp]
  000ca	8b 4d f8	 mov	 ecx, DWORD PTR __Ptr_container$[ebp]
  000cd	89 0c 10	 mov	 DWORD PTR [eax+edx], ecx

; 145  : 
; 146  : #ifdef _DEBUG
; 147  :     static_cast<uintptr_t*>(_Ptr)[-2] = _Big_allocation_sentinel;

  000d0	ba 04 00 00 00	 mov	 edx, 4
  000d5	6b c2 fe	 imul	 eax, edx, -2
  000d8	8b 4d f4	 mov	 ecx, DWORD PTR __Ptr$[ebp]
  000db	c7 04 01 fa fa
	fa fa		 mov	 DWORD PTR [ecx+eax], -84215046 ; fafafafaH

; 148  : #endif // _DEBUG
; 149  :     return _Ptr;

  000e2	8b 45 f4	 mov	 eax, DWORD PTR __Ptr$[ebp]
$LN11@Allocate_m:

; 150  : }

  000e5	5e		 pop	 esi
  000e6	83 c4 0c	 add	 esp, 12			; 0000000cH
  000e9	3b ec		 cmp	 ebp, esp
  000eb	e8 00 00 00 00	 call	 __RTC_CheckEsp
  000f0	8b e5		 mov	 esp, ebp
  000f2	5d		 pop	 ebp
  000f3	c3		 ret	 0
??$_Allocate_manually_vector_aligned@U_Default_allocate_traits@std@@@std@@YAPAXI@Z ENDP ; std::_Allocate_manually_vector_aligned<std::_Default_allocate_traits>
_TEXT	ENDS
; Function compile flags: /Odtp /RTCsu
; File C:\Program Files (x86)\Microsoft Visual Studio\2019\Community\VC\Tools\MSVC\14.29.30133\include\xmemory
;	COMDAT ??1?$_Tidy_guard@V?$vector@PAVSprite@sf@@V?$allocator@PAVSprite@sf@@@std@@@std@@@std@@QAE@XZ
_TEXT	SEGMENT
_this$ = -4						; size = 4
??1?$_Tidy_guard@V?$vector@PAVSprite@sf@@V?$allocator@PAVSprite@sf@@@std@@@std@@@std@@QAE@XZ PROC ; std::_Tidy_guard<std::vector<sf::Sprite *,std::allocator<sf::Sprite *> > >::~_Tidy_guard<std::vector<sf::Sprite *,std::allocator<sf::Sprite *> > >, COMDAT
; _this$ = ecx

; 34   :     _CONSTEXPR20_DYNALLOC ~_Tidy_guard() {

  00000	55		 push	 ebp
  00001	8b ec		 mov	 ebp, esp
  00003	51		 push	 ecx
  00004	c7 45 fc cc cc
	cc cc		 mov	 DWORD PTR [ebp-4], -858993460 ; ccccccccH
  0000b	89 4d fc	 mov	 DWORD PTR _this$[ebp], ecx
  0000e	b9 00 00 00 00	 mov	 ecx, OFFSET __79D216CD_xmemory
  00013	e8 00 00 00 00	 call	 @__CheckForDebuggerJustMyCode@4

; 35   :         if (_Target) {

  00018	8b 45 fc	 mov	 eax, DWORD PTR _this$[ebp]
  0001b	83 38 00	 cmp	 DWORD PTR [eax], 0
  0001e	74 0a		 je	 SHORT $LN3@Tidy_guard

; 36   :             _Target->_Tidy();

  00020	8b 4d fc	 mov	 ecx, DWORD PTR _this$[ebp]
  00023	8b 09		 mov	 ecx, DWORD PTR [ecx]
  00025	e8 00 00 00 00	 call	 ?_Tidy@?$vector@PAVSprite@sf@@V?$allocator@PAVSprite@sf@@@std@@@std@@AAEXXZ ; std::vector<sf::Sprite *,std::allocator<sf::Sprite *> >::_Tidy
$LN3@Tidy_guard:

; 37   :         }
; 38   :     }

  0002a	83 c4 04	 add	 esp, 4
  0002d	3b ec		 cmp	 ebp, esp
  0002f	e8 00 00 00 00	 call	 __RTC_CheckEsp
  00034	8b e5		 mov	 esp, ebp
  00036	5d		 pop	 ebp
  00037	c3		 ret	 0
??1?$_Tidy_guard@V?$vector@PAVSprite@sf@@V?$allocator@PAVSprite@sf@@@std@@@std@@@std@@QAE@XZ ENDP ; std::_Tidy_guard<std::vector<sf::Sprite *,std::allocator<sf::Sprite *> > >::~_Tidy_guard<std::vector<sf::Sprite *,std::allocator<sf::Sprite *> > >
_TEXT	ENDS
; Function compile flags: /Odtp /RTCsu
; File C:\Program Files (x86)\Microsoft Visual Studio\2019\Community\VC\Tools\MSVC\14.29.30133\include\type_traits
;	COMDAT ??$forward@ABV?$allocator@PAVSprite@sf@@@std@@@std@@YAABV?$allocator@PAVSprite@sf@@@0@ABV10@@Z
_TEXT	SEGMENT
__Arg$ = 8						; size = 4
??$forward@ABV?$allocator@PAVSprite@sf@@@std@@@std@@YAABV?$allocator@PAVSprite@sf@@@0@ABV10@@Z PROC ; std::forward<std::allocator<sf::Sprite *> const &>, COMDAT

; 1443 :     remove_reference_t<_Ty>& _Arg) noexcept { // forward an lvalue as either an lvalue or an rvalue

  00000	55		 push	 ebp
  00001	8b ec		 mov	 ebp, esp
  00003	b9 00 00 00 00	 mov	 ecx, OFFSET __589FA321_type_traits
  00008	e8 00 00 00 00	 call	 @__CheckForDebuggerJustMyCode@4

; 1444 :     return static_cast<_Ty&&>(_Arg);

  0000d	8b 45 08	 mov	 eax, DWORD PTR __Arg$[ebp]

; 1445 : }

  00010	3b ec		 cmp	 ebp, esp
  00012	e8 00 00 00 00	 call	 __RTC_CheckEsp
  00017	5d		 pop	 ebp
  00018	c3		 ret	 0
??$forward@ABV?$allocator@PAVSprite@sf@@@std@@@std@@YAABV?$allocator@PAVSprite@sf@@@0@ABV10@@Z ENDP ; std::forward<std::allocator<sf::Sprite *> const &>
_TEXT	ENDS
; Function compile flags: /Odtp /RTCsu
; File C:\Program Files (x86)\Microsoft Visual Studio\2019\Community\VC\Tools\MSVC\14.29.30133\include\xmemory
;	COMDAT ??$_Deallocate_plain@V?$allocator@U_Container_proxy@std@@@std@@@std@@YAXAAV?$allocator@U_Container_proxy@std@@@0@QAU_Container_proxy@0@@Z
_TEXT	SEGMENT
__$EHRec$ = -12						; size = 12
__Al$ = 8						; size = 4
__Ptr$ = 12						; size = 4
??$_Deallocate_plain@V?$allocator@U_Container_proxy@std@@@std@@@std@@YAXAAV?$allocator@U_Container_proxy@std@@@0@QAU_Container_proxy@0@@Z PROC ; std::_Deallocate_plain<std::allocator<std::_Container_proxy> >, COMDAT

; 985  : _CONSTEXPR20_DYNALLOC void _Deallocate_plain(_Alloc& _Al, typename _Alloc::value_type* const _Ptr) noexcept {

  00000	55		 push	 ebp
  00001	8b ec		 mov	 ebp, esp
  00003	6a ff		 push	 -1
  00005	68 00 00 00 00	 push	 __ehhandler$??$_Deallocate_plain@V?$allocator@U_Container_proxy@std@@@std@@@std@@YAXAAV?$allocator@U_Container_proxy@std@@@0@QAU_Container_proxy@0@@Z
  0000a	64 a1 00 00 00
	00		 mov	 eax, DWORD PTR fs:0
  00010	50		 push	 eax
  00011	a1 00 00 00 00	 mov	 eax, DWORD PTR ___security_cookie
  00016	33 c5		 xor	 eax, ebp
  00018	50		 push	 eax
  00019	8d 45 f4	 lea	 eax, DWORD PTR __$EHRec$[ebp]
  0001c	64 a3 00 00 00
	00		 mov	 DWORD PTR fs:0, eax
  00022	b9 00 00 00 00	 mov	 ecx, OFFSET __79D216CD_xmemory
  00027	e8 00 00 00 00	 call	 @__CheckForDebuggerJustMyCode@4

; 986  :     // deallocate a plain pointer using an allocator
; 987  :     using _Alloc_traits = allocator_traits<_Alloc>;
; 988  :     if constexpr (is_same_v<_Alloc_ptr_t<_Alloc>, typename _Alloc::value_type*>) {
; 989  :         _Alloc_traits::deallocate(_Al, _Ptr, 1);

  0002c	6a 01		 push	 1
  0002e	8b 45 0c	 mov	 eax, DWORD PTR __Ptr$[ebp]
  00031	50		 push	 eax
  00032	8b 4d 08	 mov	 ecx, DWORD PTR __Al$[ebp]
  00035	51		 push	 ecx
  00036	e8 00 00 00 00	 call	 ?deallocate@?$_Default_allocator_traits@V?$allocator@U_Container_proxy@std@@@std@@@std@@SAXAAV?$allocator@U_Container_proxy@std@@@2@QAU_Container_proxy@2@I@Z ; std::_Default_allocator_traits<std::allocator<std::_Container_proxy> >::deallocate
  0003b	83 c4 0c	 add	 esp, 12			; 0000000cH

; 990  :     } else {
; 991  :         using _Ptr_traits = pointer_traits<_Alloc_ptr_t<_Alloc>>;
; 992  :         _Alloc_traits::deallocate(_Al, _Ptr_traits::pointer_to(*_Ptr), 1);
; 993  :     }
; 994  : }

  0003e	8b 4d f4	 mov	 ecx, DWORD PTR __$EHRec$[ebp]
  00041	64 89 0d 00 00
	00 00		 mov	 DWORD PTR fs:0, ecx
  00048	59		 pop	 ecx
  00049	83 c4 0c	 add	 esp, 12			; 0000000cH
  0004c	3b ec		 cmp	 ebp, esp
  0004e	e8 00 00 00 00	 call	 __RTC_CheckEsp
  00053	8b e5		 mov	 esp, ebp
  00055	5d		 pop	 ebp
  00056	c3		 ret	 0
  00057	cc		 int	 3
  00058	cc		 int	 3
  00059	cc		 int	 3
  0005a	cc		 int	 3
  0005b	cc		 int	 3
_TEXT	ENDS
;	COMDAT text$x
text$x	SEGMENT
__ehhandler$??$_Deallocate_plain@V?$allocator@U_Container_proxy@std@@@std@@@std@@YAXAAV?$allocator@U_Container_proxy@std@@@0@QAU_Container_proxy@0@@Z:
  00000	90		 npad	 1
  00001	90		 npad	 1
  00002	8b 54 24 08	 mov	 edx, DWORD PTR [esp+8]
  00006	8d 42 0c	 lea	 eax, DWORD PTR [edx+12]
  00009	8b 4a fc	 mov	 ecx, DWORD PTR [edx-4]
  0000c	33 c8		 xor	 ecx, eax
  0000e	e8 00 00 00 00	 call	 @__security_check_cookie@4
  00013	b8 00 00 00 00	 mov	 eax, OFFSET __ehfuncinfo$??$_Deallocate_plain@V?$allocator@U_Container_proxy@std@@@std@@@std@@YAXAAV?$allocator@U_Container_proxy@std@@@0@QAU_Container_proxy@0@@Z
  00018	e9 00 00 00 00	 jmp	 ___CxxFrameHandler3
text$x	ENDS
??$_Deallocate_plain@V?$allocator@U_Container_proxy@std@@@std@@@std@@YAXAAV?$allocator@U_Container_proxy@std@@@0@QAU_Container_proxy@0@@Z ENDP ; std::_Deallocate_plain<std::allocator<std::_Container_proxy> >
; Function compile flags: /Odtp /RTCsu
; File C:\Program Files (x86)\Microsoft Visual Studio\2019\Community\VC\Tools\MSVC\14.29.30133\include\xutility
;	COMDAT ??$_Voidify_iter@PAPAVTexture@sf@@@std@@YAPAXPAPAVTexture@sf@@@Z
_TEXT	SEGMENT
__It$ = 8						; size = 4
??$_Voidify_iter@PAPAVTexture@sf@@@std@@YAPAXPAPAVTexture@sf@@@Z PROC ; std::_Voidify_iter<sf::Texture * *>, COMDAT

; 130  : _NODISCARD constexpr void* _Voidify_iter(_Iter _It) noexcept {

  00000	55		 push	 ebp
  00001	8b ec		 mov	 ebp, esp
  00003	b9 00 00 00 00	 mov	 ecx, OFFSET __12269DE6_xutility
  00008	e8 00 00 00 00	 call	 @__CheckForDebuggerJustMyCode@4

; 131  :     if constexpr (is_pointer_v<_Iter>) {
; 132  :         return const_cast<void*>(static_cast<const volatile void*>(_It));

  0000d	8b 45 08	 mov	 eax, DWORD PTR __It$[ebp]

; 133  :     } else {
; 134  :         return const_cast<void*>(static_cast<const volatile void*>(_STD addressof(*_It)));
; 135  :     }
; 136  : }

  00010	3b ec		 cmp	 ebp, esp
  00012	e8 00 00 00 00	 call	 __RTC_CheckEsp
  00017	5d		 pop	 ebp
  00018	c3		 ret	 0
??$_Voidify_iter@PAPAVTexture@sf@@@std@@YAPAXPAPAVTexture@sf@@@Z ENDP ; std::_Voidify_iter<sf::Texture * *>
_TEXT	ENDS
; Function compile flags: /Odtp /RTCsu
; File C:\Program Files (x86)\Microsoft Visual Studio\2019\Community\VC\Tools\MSVC\14.29.30133\include\xutility
;	COMDAT ??$construct_at@PAVTexture@sf@@ABQAV12@X@std@@YAPAPAVTexture@sf@@QAPAV12@ABQAV12@@Z
_TEXT	SEGMENT
$T1 = -4						; size = 4
__Location$ = 8						; size = 4
_<_Args_0>$ = 12					; size = 4
??$construct_at@PAVTexture@sf@@ABQAV12@X@std@@YAPAPAVTexture@sf@@QAPAV12@ABQAV12@@Z PROC ; std::construct_at<sf::Texture *,sf::Texture * const &,void>, COMDAT

; 143  :     noexcept(::new (_Voidify_iter(_Location)) _Ty(_STD forward<_Types>(_Args)...))) /* strengthened */ {

  00000	55		 push	 ebp
  00001	8b ec		 mov	 ebp, esp
  00003	51		 push	 ecx
  00004	c7 45 fc cc cc
	cc cc		 mov	 DWORD PTR [ebp-4], -858993460 ; ccccccccH
  0000b	b9 00 00 00 00	 mov	 ecx, OFFSET __12269DE6_xutility
  00010	e8 00 00 00 00	 call	 @__CheckForDebuggerJustMyCode@4

; 144  :     return ::new (_Voidify_iter(_Location)) _Ty(_STD forward<_Types>(_Args)...);

  00015	8b 45 08	 mov	 eax, DWORD PTR __Location$[ebp]
  00018	50		 push	 eax
  00019	e8 00 00 00 00	 call	 ??$_Voidify_iter@PAPAVTexture@sf@@@std@@YAPAXPAPAVTexture@sf@@@Z ; std::_Voidify_iter<sf::Texture * *>
  0001e	83 c4 04	 add	 esp, 4
  00021	50		 push	 eax
  00022	6a 04		 push	 4
  00024	e8 00 00 00 00	 call	 ??2@YAPAXIPAX@Z		; operator new
  00029	83 c4 08	 add	 esp, 8
  0002c	89 45 fc	 mov	 DWORD PTR $T1[ebp], eax
  0002f	8b 4d 0c	 mov	 ecx, DWORD PTR _<_Args_0>$[ebp]
  00032	51		 push	 ecx
  00033	e8 00 00 00 00	 call	 ??$forward@ABQAVTexture@sf@@@std@@YAABQAVTexture@sf@@ABQAV12@@Z ; std::forward<sf::Texture * const &>
  00038	83 c4 04	 add	 esp, 4
  0003b	8b 55 fc	 mov	 edx, DWORD PTR $T1[ebp]
  0003e	8b 00		 mov	 eax, DWORD PTR [eax]
  00040	89 02		 mov	 DWORD PTR [edx], eax
  00042	8b 45 fc	 mov	 eax, DWORD PTR $T1[ebp]

; 145  : }

  00045	83 c4 04	 add	 esp, 4
  00048	3b ec		 cmp	 ebp, esp
  0004a	e8 00 00 00 00	 call	 __RTC_CheckEsp
  0004f	8b e5		 mov	 esp, ebp
  00051	5d		 pop	 ebp
  00052	c3		 ret	 0
??$construct_at@PAVTexture@sf@@ABQAV12@X@std@@YAPAPAVTexture@sf@@QAPAV12@ABQAV12@@Z ENDP ; std::construct_at<sf::Texture *,sf::Texture * const &,void>
_TEXT	ENDS
; Function compile flags: /Odtp /RTCsu
; File C:\Program Files (x86)\Microsoft Visual Studio\2019\Community\VC\Tools\MSVC\14.29.30133\include\xutility
;	COMDAT ??$_Voidify_iter@PAU_Container_proxy@std@@@std@@YAPAXPAU_Container_proxy@0@@Z
_TEXT	SEGMENT
__It$ = 8						; size = 4
??$_Voidify_iter@PAU_Container_proxy@std@@@std@@YAPAXPAU_Container_proxy@0@@Z PROC ; std::_Voidify_iter<std::_Container_proxy *>, COMDAT

; 130  : _NODISCARD constexpr void* _Voidify_iter(_Iter _It) noexcept {

  00000	55		 push	 ebp
  00001	8b ec		 mov	 ebp, esp
  00003	b9 00 00 00 00	 mov	 ecx, OFFSET __12269DE6_xutility
  00008	e8 00 00 00 00	 call	 @__CheckForDebuggerJustMyCode@4

; 131  :     if constexpr (is_pointer_v<_Iter>) {
; 132  :         return const_cast<void*>(static_cast<const volatile void*>(_It));

  0000d	8b 45 08	 mov	 eax, DWORD PTR __It$[ebp]

; 133  :     } else {
; 134  :         return const_cast<void*>(static_cast<const volatile void*>(_STD addressof(*_It)));
; 135  :     }
; 136  : }

  00010	3b ec		 cmp	 ebp, esp
  00012	e8 00 00 00 00	 call	 __RTC_CheckEsp
  00017	5d		 pop	 ebp
  00018	c3		 ret	 0
??$_Voidify_iter@PAU_Container_proxy@std@@@std@@YAPAXPAU_Container_proxy@0@@Z ENDP ; std::_Voidify_iter<std::_Container_proxy *>
_TEXT	ENDS
; Function compile flags: /Odtp /RTCsu
; File C:\Program Files (x86)\Microsoft Visual Studio\2019\Community\VC\Tools\MSVC\14.29.30133\include\xutility
;	COMDAT ??$construct_at@U_Container_proxy@std@@PAU_Container_base12@2@X@std@@YAPAU_Container_proxy@0@QAU10@$$QAPAU_Container_base12@0@@Z
_TEXT	SEGMENT
tv78 = -8						; size = 4
$T1 = -4						; size = 4
__Location$ = 8						; size = 4
_<_Args_0>$ = 12					; size = 4
??$construct_at@U_Container_proxy@std@@PAU_Container_base12@2@X@std@@YAPAU_Container_proxy@0@QAU10@$$QAPAU_Container_base12@0@@Z PROC ; std::construct_at<std::_Container_proxy,std::_Container_base12 *,void>, COMDAT

; 143  :     noexcept(::new (_Voidify_iter(_Location)) _Ty(_STD forward<_Types>(_Args)...))) /* strengthened */ {

  00000	55		 push	 ebp
  00001	8b ec		 mov	 ebp, esp
  00003	83 ec 08	 sub	 esp, 8
  00006	c7 45 f8 cc cc
	cc cc		 mov	 DWORD PTR [ebp-8], -858993460 ; ccccccccH
  0000d	c7 45 fc cc cc
	cc cc		 mov	 DWORD PTR [ebp-4], -858993460 ; ccccccccH
  00014	b9 00 00 00 00	 mov	 ecx, OFFSET __12269DE6_xutility
  00019	e8 00 00 00 00	 call	 @__CheckForDebuggerJustMyCode@4

; 144  :     return ::new (_Voidify_iter(_Location)) _Ty(_STD forward<_Types>(_Args)...);

  0001e	8b 45 08	 mov	 eax, DWORD PTR __Location$[ebp]
  00021	50		 push	 eax
  00022	e8 00 00 00 00	 call	 ??$_Voidify_iter@PAU_Container_proxy@std@@@std@@YAPAXPAU_Container_proxy@0@@Z ; std::_Voidify_iter<std::_Container_proxy *>
  00027	83 c4 04	 add	 esp, 4
  0002a	50		 push	 eax
  0002b	6a 08		 push	 8
  0002d	e8 00 00 00 00	 call	 ??2@YAPAXIPAX@Z		; operator new
  00032	83 c4 08	 add	 esp, 8
  00035	89 45 fc	 mov	 DWORD PTR $T1[ebp], eax
  00038	8b 4d 0c	 mov	 ecx, DWORD PTR _<_Args_0>$[ebp]
  0003b	51		 push	 ecx
  0003c	e8 00 00 00 00	 call	 ??$forward@PAU_Container_base12@std@@@std@@YA$$QAPAU_Container_base12@0@AAPAU10@@Z ; std::forward<std::_Container_base12 *>
  00041	83 c4 04	 add	 esp, 4
  00044	8b 10		 mov	 edx, DWORD PTR [eax]
  00046	89 55 f8	 mov	 DWORD PTR tv78[ebp], edx
  00049	8b 45 f8	 mov	 eax, DWORD PTR tv78[ebp]
  0004c	50		 push	 eax
  0004d	8b 4d fc	 mov	 ecx, DWORD PTR $T1[ebp]
  00050	e8 00 00 00 00	 call	 ??0_Container_proxy@std@@QAE@PAU_Container_base12@1@@Z ; std::_Container_proxy::_Container_proxy

; 145  : }

  00055	83 c4 08	 add	 esp, 8
  00058	3b ec		 cmp	 ebp, esp
  0005a	e8 00 00 00 00	 call	 __RTC_CheckEsp
  0005f	8b e5		 mov	 esp, ebp
  00061	5d		 pop	 ebp
  00062	c3		 ret	 0
??$construct_at@U_Container_proxy@std@@PAU_Container_base12@2@X@std@@YAPAU_Container_proxy@0@QAU10@$$QAPAU_Container_base12@0@@Z ENDP ; std::construct_at<std::_Container_proxy,std::_Container_base12 *,void>
_TEXT	ENDS
; Function compile flags: /Odtp /RTCsu
; File C:\Program Files (x86)\Microsoft Visual Studio\2019\Community\VC\Tools\MSVC\14.29.30133\include\type_traits
;	COMDAT ??$forward@PAU_Container_base12@std@@@std@@YA$$QAPAU_Container_base12@0@AAPAU10@@Z
_TEXT	SEGMENT
__Arg$ = 8						; size = 4
??$forward@PAU_Container_base12@std@@@std@@YA$$QAPAU_Container_base12@0@AAPAU10@@Z PROC ; std::forward<std::_Container_base12 *>, COMDAT

; 1443 :     remove_reference_t<_Ty>& _Arg) noexcept { // forward an lvalue as either an lvalue or an rvalue

  00000	55		 push	 ebp
  00001	8b ec		 mov	 ebp, esp
  00003	b9 00 00 00 00	 mov	 ecx, OFFSET __589FA321_type_traits
  00008	e8 00 00 00 00	 call	 @__CheckForDebuggerJustMyCode@4

; 1444 :     return static_cast<_Ty&&>(_Arg);

  0000d	8b 45 08	 mov	 eax, DWORD PTR __Arg$[ebp]

; 1445 : }

  00010	3b ec		 cmp	 ebp, esp
  00012	e8 00 00 00 00	 call	 __RTC_CheckEsp
  00017	5d		 pop	 ebp
  00018	c3		 ret	 0
??$forward@PAU_Container_base12@std@@@std@@YA$$QAPAU_Container_base12@0@AAPAU10@@Z ENDP ; std::forward<std::_Container_base12 *>
_TEXT	ENDS
; Function compile flags: /Odtp /RTCsu
; File C:\Program Files (x86)\Microsoft Visual Studio\2019\Community\VC\Tools\MSVC\14.29.30133\include\xstddef
;	COMDAT ??$addressof@U_Container_proxy@std@@@std@@YAPAU_Container_proxy@0@AAU10@@Z
_TEXT	SEGMENT
__Val$ = 8						; size = 4
??$addressof@U_Container_proxy@std@@@std@@YAPAU_Container_proxy@0@AAU10@@Z PROC ; std::addressof<std::_Container_proxy>, COMDAT

; 274  : _NODISCARD constexpr _Ty* addressof(_Ty& _Val) noexcept {

  00000	55		 push	 ebp
  00001	8b ec		 mov	 ebp, esp
  00003	b9 00 00 00 00	 mov	 ecx, OFFSET __E458E21C_xstddef
  00008	e8 00 00 00 00	 call	 @__CheckForDebuggerJustMyCode@4

; 275  :     return __builtin_addressof(_Val);

  0000d	8b 45 08	 mov	 eax, DWORD PTR __Val$[ebp]

; 276  : }

  00010	3b ec		 cmp	 ebp, esp
  00012	e8 00 00 00 00	 call	 __RTC_CheckEsp
  00017	5d		 pop	 ebp
  00018	c3		 ret	 0
??$addressof@U_Container_proxy@std@@@std@@YAPAU_Container_proxy@0@AAU10@@Z ENDP ; std::addressof<std::_Container_proxy>
_TEXT	ENDS
; Function compile flags: /Odtp /RTCsu
; File C:\Program Files (x86)\Microsoft Visual Studio\2019\Community\VC\Tools\MSVC\14.29.30133\include\xmemory
;	COMDAT ??$_Destroy_range@V?$allocator@I@std@@@std@@YAXPAIQAIAAV?$allocator@I@0@@Z
_TEXT	SEGMENT
__First$ = 8						; size = 4
__Last$ = 12						; size = 4
__Al$ = 16						; size = 4
??$_Destroy_range@V?$allocator@I@std@@@std@@YAXPAIQAIAAV?$allocator@I@0@@Z PROC ; std::_Destroy_range<std::allocator<unsigned int> >, COMDAT

; 945  :     _Alloc_ptr_t<_Alloc> _First, const _Alloc_ptr_t<_Alloc> _Last, _Alloc& _Al) noexcept {

  00000	55		 push	 ebp
  00001	8b ec		 mov	 ebp, esp
  00003	b9 00 00 00 00	 mov	 ecx, OFFSET __79D216CD_xmemory
  00008	e8 00 00 00 00	 call	 @__CheckForDebuggerJustMyCode@4

; 946  :     // note that this is an optimization for debug mode codegen; in release mode the BE removes all of this
; 947  :     using _Ty = typename _Alloc::value_type;
; 948  :     if constexpr (!conjunction_v<is_trivially_destructible<_Ty>, _Uses_default_destroy<_Alloc, _Ty*>>) {
; 949  :         for (; _First != _Last; ++_First) {
; 950  :             allocator_traits<_Alloc>::destroy(_Al, _Unfancy(_First));
; 951  :         }
; 952  :     }
; 953  : }

  0000d	3b ec		 cmp	 ebp, esp
  0000f	e8 00 00 00 00	 call	 __RTC_CheckEsp
  00014	5d		 pop	 ebp
  00015	c3		 ret	 0
??$_Destroy_range@V?$allocator@I@std@@@std@@YAXPAIQAIAAV?$allocator@I@0@@Z ENDP ; std::_Destroy_range<std::allocator<unsigned int> >
_TEXT	ENDS
; Function compile flags: /Odtp /RTCsu
; File C:\Program Files (x86)\Microsoft Visual Studio\2019\Community\VC\Tools\MSVC\14.29.30133\include\xmemory
;	COMDAT ??$_Get_size_of_n@$03@std@@YAII@Z
_TEXT	SEGMENT
__Max_possible$1 = -8					; size = 4
__Overflow_is_possible$ = -1				; size = 1
__Count$ = 8						; size = 4
??$_Get_size_of_n@$03@std@@YAII@Z PROC			; std::_Get_size_of_n<4>, COMDAT

; 59   : _NODISCARD constexpr size_t _Get_size_of_n(const size_t _Count) {

  00000	55		 push	 ebp
  00001	8b ec		 mov	 ebp, esp
  00003	83 ec 08	 sub	 esp, 8
  00006	c7 45 f8 cc cc
	cc cc		 mov	 DWORD PTR [ebp-8], -858993460 ; ccccccccH
  0000d	c7 45 fc cc cc
	cc cc		 mov	 DWORD PTR [ebp-4], -858993460 ; ccccccccH
  00014	b9 00 00 00 00	 mov	 ecx, OFFSET __79D216CD_xmemory
  00019	e8 00 00 00 00	 call	 @__CheckForDebuggerJustMyCode@4

; 60   :     constexpr bool _Overflow_is_possible = _Ty_size > 1;

  0001e	c6 45 ff 01	 mov	 BYTE PTR __Overflow_is_possible$[ebp], 1

; 61   : 
; 62   :     if constexpr (_Overflow_is_possible) {
; 63   :         constexpr size_t _Max_possible = static_cast<size_t>(-1) / _Ty_size;

  00022	c7 45 f8 ff ff
	ff 3f		 mov	 DWORD PTR __Max_possible$1[ebp], 1073741823 ; 3fffffffH

; 64   :         if (_Count > _Max_possible) {

  00029	81 7d 08 ff ff
	ff 3f		 cmp	 DWORD PTR __Count$[ebp], 1073741823 ; 3fffffffH
  00030	76 05		 jbe	 SHORT $LN2@Get_size_o

; 65   :             _Throw_bad_array_new_length(); // multiply overflow

  00032	e8 00 00 00 00	 call	 ?_Throw_bad_array_new_length@std@@YAXXZ ; std::_Throw_bad_array_new_length
$LN2@Get_size_o:

; 66   :         }
; 67   :     }
; 68   : 
; 69   :     return _Count * _Ty_size;

  00037	8b 45 08	 mov	 eax, DWORD PTR __Count$[ebp]
  0003a	c1 e0 02	 shl	 eax, 2
$LN3@Get_size_o:

; 70   : }

  0003d	83 c4 08	 add	 esp, 8
  00040	3b ec		 cmp	 ebp, esp
  00042	e8 00 00 00 00	 call	 __RTC_CheckEsp
  00047	8b e5		 mov	 esp, ebp
  00049	5d		 pop	 ebp
  0004a	c3		 ret	 0
??$_Get_size_of_n@$03@std@@YAII@Z ENDP			; std::_Get_size_of_n<4>
_TEXT	ENDS
; Function compile flags: /Odtp /RTCsu
; File C:\Program Files (x86)\Microsoft Visual Studio\2019\Community\VC\Tools\MSVC\14.29.30133\include\xmemory
;	COMDAT ??$_Destroy_range@V?$allocator@PAVSprite@sf@@@std@@@std@@YAXPAPAVSprite@sf@@QAPAV12@AAV?$allocator@PAVSprite@sf@@@0@@Z
_TEXT	SEGMENT
__First$ = 8						; size = 4
__Last$ = 12						; size = 4
__Al$ = 16						; size = 4
??$_Destroy_range@V?$allocator@PAVSprite@sf@@@std@@@std@@YAXPAPAVSprite@sf@@QAPAV12@AAV?$allocator@PAVSprite@sf@@@0@@Z PROC ; std::_Destroy_range<std::allocator<sf::Sprite *> >, COMDAT

; 945  :     _Alloc_ptr_t<_Alloc> _First, const _Alloc_ptr_t<_Alloc> _Last, _Alloc& _Al) noexcept {

  00000	55		 push	 ebp
  00001	8b ec		 mov	 ebp, esp
  00003	b9 00 00 00 00	 mov	 ecx, OFFSET __79D216CD_xmemory
  00008	e8 00 00 00 00	 call	 @__CheckForDebuggerJustMyCode@4

; 946  :     // note that this is an optimization for debug mode codegen; in release mode the BE removes all of this
; 947  :     using _Ty = typename _Alloc::value_type;
; 948  :     if constexpr (!conjunction_v<is_trivially_destructible<_Ty>, _Uses_default_destroy<_Alloc, _Ty*>>) {
; 949  :         for (; _First != _Last; ++_First) {
; 950  :             allocator_traits<_Alloc>::destroy(_Al, _Unfancy(_First));
; 951  :         }
; 952  :     }
; 953  : }

  0000d	3b ec		 cmp	 ebp, esp
  0000f	e8 00 00 00 00	 call	 __RTC_CheckEsp
  00014	5d		 pop	 ebp
  00015	c3		 ret	 0
??$_Destroy_range@V?$allocator@PAVSprite@sf@@@std@@@std@@YAXPAPAVSprite@sf@@QAPAV12@AAV?$allocator@PAVSprite@sf@@@0@@Z ENDP ; std::_Destroy_range<std::allocator<sf::Sprite *> >
_TEXT	ENDS
; Function compile flags: /Odtp /RTCsu
; File C:\Program Files (x86)\Microsoft Visual Studio\2019\Community\VC\Tools\MSVC\14.29.30133\include\xmemory
;	COMDAT ??$_Deallocate@$07$0A@@std@@YAXPAXI@Z
_TEXT	SEGMENT
__$EHRec$ = -12						; size = 12
__Ptr$ = 8						; size = 4
__Bytes$ = 12						; size = 4
??$_Deallocate@$07$0A@@std@@YAXPAXI@Z PROC		; std::_Deallocate<8,0>, COMDAT

; 251  : _CONSTEXPR20_DYNALLOC void _Deallocate(void* _Ptr, size_t _Bytes) noexcept {

  00000	55		 push	 ebp
  00001	8b ec		 mov	 ebp, esp
  00003	6a ff		 push	 -1
  00005	68 00 00 00 00	 push	 __ehhandler$??$_Deallocate@$07$0A@@std@@YAXPAXI@Z
  0000a	64 a1 00 00 00
	00		 mov	 eax, DWORD PTR fs:0
  00010	50		 push	 eax
  00011	a1 00 00 00 00	 mov	 eax, DWORD PTR ___security_cookie
  00016	33 c5		 xor	 eax, ebp
  00018	50		 push	 eax
  00019	8d 45 f4	 lea	 eax, DWORD PTR __$EHRec$[ebp]
  0001c	64 a3 00 00 00
	00		 mov	 DWORD PTR fs:0, eax
  00022	b9 00 00 00 00	 mov	 ecx, OFFSET __79D216CD_xmemory
  00027	e8 00 00 00 00	 call	 @__CheckForDebuggerJustMyCode@4

; 252  :     // deallocate storage allocated by _Allocate when !_HAS_ALIGNED_NEW || _Align <= __STDCPP_DEFAULT_NEW_ALIGNMENT__
; 253  : #ifdef __cpp_lib_constexpr_dynamic_alloc // TRANSITION, GH-1532
; 254  :     if (_STD is_constant_evaluated()) {

  0002c	e8 00 00 00 00	 call	 ?is_constant_evaluated@std@@YA_NXZ ; std::is_constant_evaluated
  00031	0f b6 c0	 movzx	 eax, al
  00034	85 c0		 test	 eax, eax
  00036	74 0e		 je	 SHORT $LN2@Deallocate

; 255  :         ::operator delete(_Ptr);

  00038	8b 4d 08	 mov	 ecx, DWORD PTR __Ptr$[ebp]
  0003b	51		 push	 ecx
  0003c	e8 00 00 00 00	 call	 ??3@YAXPAX@Z		; operator delete
  00041	83 c4 04	 add	 esp, 4

; 256  :     } else

  00044	eb 29		 jmp	 SHORT $LN5@Deallocate
$LN2@Deallocate:

; 257  : #endif // __cpp_lib_constexpr_dynamic_alloc
; 258  :     {
; 259  : #if defined(_M_IX86) || defined(_M_X64)
; 260  :         if (_Bytes >= _Big_allocation_threshold) { // boost the alignment of big allocations to help autovectorization

  00046	81 7d 0c 00 10
	00 00		 cmp	 DWORD PTR __Bytes$[ebp], 4096 ; 00001000H
  0004d	72 10		 jb	 SHORT $LN4@Deallocate

; 261  :             _Adjust_manually_vector_aligned(_Ptr, _Bytes);

  0004f	8d 55 0c	 lea	 edx, DWORD PTR __Bytes$[ebp]
  00052	52		 push	 edx
  00053	8d 45 08	 lea	 eax, DWORD PTR __Ptr$[ebp]
  00056	50		 push	 eax
  00057	e8 00 00 00 00	 call	 ?_Adjust_manually_vector_aligned@std@@YAXAAPAXAAI@Z ; std::_Adjust_manually_vector_aligned
  0005c	83 c4 08	 add	 esp, 8
$LN4@Deallocate:

; 262  :         }
; 263  : #endif // defined(_M_IX86) || defined(_M_X64)
; 264  :         ::operator delete(_Ptr, _Bytes);

  0005f	8b 4d 0c	 mov	 ecx, DWORD PTR __Bytes$[ebp]
  00062	51		 push	 ecx
  00063	8b 55 08	 mov	 edx, DWORD PTR __Ptr$[ebp]
  00066	52		 push	 edx
  00067	e8 00 00 00 00	 call	 ??3@YAXPAXI@Z		; operator delete
  0006c	83 c4 08	 add	 esp, 8
$LN5@Deallocate:

; 265  :     }
; 266  : }

  0006f	8b 4d f4	 mov	 ecx, DWORD PTR __$EHRec$[ebp]
  00072	64 89 0d 00 00
	00 00		 mov	 DWORD PTR fs:0, ecx
  00079	59		 pop	 ecx
  0007a	83 c4 0c	 add	 esp, 12			; 0000000cH
  0007d	3b ec		 cmp	 ebp, esp
  0007f	e8 00 00 00 00	 call	 __RTC_CheckEsp
  00084	8b e5		 mov	 esp, ebp
  00086	5d		 pop	 ebp
  00087	c3		 ret	 0
  00088	cc		 int	 3
  00089	cc		 int	 3
  0008a	cc		 int	 3
  0008b	cc		 int	 3
  0008c	cc		 int	 3
_TEXT	ENDS
;	COMDAT text$x
text$x	SEGMENT
__ehhandler$??$_Deallocate@$07$0A@@std@@YAXPAXI@Z:
  00000	90		 npad	 1
  00001	90		 npad	 1
  00002	8b 54 24 08	 mov	 edx, DWORD PTR [esp+8]
  00006	8d 42 0c	 lea	 eax, DWORD PTR [edx+12]
  00009	8b 4a fc	 mov	 ecx, DWORD PTR [edx-4]
  0000c	33 c8		 xor	 ecx, eax
  0000e	e8 00 00 00 00	 call	 @__security_check_cookie@4
  00013	b8 00 00 00 00	 mov	 eax, OFFSET __ehfuncinfo$??$_Deallocate@$07$0A@@std@@YAXPAXI@Z
  00018	e9 00 00 00 00	 jmp	 ___CxxFrameHandler3
text$x	ENDS
??$_Deallocate@$07$0A@@std@@YAXPAXI@Z ENDP		; std::_Deallocate<8,0>
; Function compile flags: /Odtp /RTCsu
; File C:\Program Files (x86)\Microsoft Visual Studio\2019\Community\VC\Tools\MSVC\14.29.30133\include\xmemory
;	COMDAT ??$_Destroy_range@V?$allocator@PAVTexture@sf@@@std@@@std@@YAXPAPAVTexture@sf@@QAPAV12@AAV?$allocator@PAVTexture@sf@@@0@@Z
_TEXT	SEGMENT
__First$ = 8						; size = 4
__Last$ = 12						; size = 4
__Al$ = 16						; size = 4
??$_Destroy_range@V?$allocator@PAVTexture@sf@@@std@@@std@@YAXPAPAVTexture@sf@@QAPAV12@AAV?$allocator@PAVTexture@sf@@@0@@Z PROC ; std::_Destroy_range<std::allocator<sf::Texture *> >, COMDAT

; 945  :     _Alloc_ptr_t<_Alloc> _First, const _Alloc_ptr_t<_Alloc> _Last, _Alloc& _Al) noexcept {

  00000	55		 push	 ebp
  00001	8b ec		 mov	 ebp, esp
  00003	b9 00 00 00 00	 mov	 ecx, OFFSET __79D216CD_xmemory
  00008	e8 00 00 00 00	 call	 @__CheckForDebuggerJustMyCode@4

; 946  :     // note that this is an optimization for debug mode codegen; in release mode the BE removes all of this
; 947  :     using _Ty = typename _Alloc::value_type;
; 948  :     if constexpr (!conjunction_v<is_trivially_destructible<_Ty>, _Uses_default_destroy<_Alloc, _Ty*>>) {
; 949  :         for (; _First != _Last; ++_First) {
; 950  :             allocator_traits<_Alloc>::destroy(_Al, _Unfancy(_First));
; 951  :         }
; 952  :     }
; 953  : }

  0000d	3b ec		 cmp	 ebp, esp
  0000f	e8 00 00 00 00	 call	 __RTC_CheckEsp
  00014	5d		 pop	 ebp
  00015	c3		 ret	 0
??$_Destroy_range@V?$allocator@PAVTexture@sf@@@std@@@std@@YAXPAPAVTexture@sf@@QAPAV12@AAV?$allocator@PAVTexture@sf@@@0@@Z ENDP ; std::_Destroy_range<std::allocator<sf::Texture *> >
_TEXT	ENDS
; Function compile flags: /Odtp /RTCsu
; File C:\Program Files (x86)\Microsoft Visual Studio\2019\Community\VC\Tools\MSVC\14.29.30133\include\vector
;	COMDAT ??$_Unfancy_maybe_null@I@std@@YAPAIPAI@Z
_TEXT	SEGMENT
__Ptr$ = 8						; size = 4
??$_Unfancy_maybe_null@I@std@@YAPAIPAI@Z PROC		; std::_Unfancy_maybe_null<unsigned int>, COMDAT

; 437  : constexpr _Ty* _Unfancy_maybe_null(_Ty* _Ptr) noexcept { // do nothing for plain pointers

  00000	55		 push	 ebp
  00001	8b ec		 mov	 ebp, esp
  00003	b9 00 00 00 00	 mov	 ecx, OFFSET __324884E2_vector
  00008	e8 00 00 00 00	 call	 @__CheckForDebuggerJustMyCode@4

; 438  :     return _Ptr;

  0000d	8b 45 08	 mov	 eax, DWORD PTR __Ptr$[ebp]

; 439  : }

  00010	3b ec		 cmp	 ebp, esp
  00012	e8 00 00 00 00	 call	 __RTC_CheckEsp
  00017	5d		 pop	 ebp
  00018	c3		 ret	 0
??$_Unfancy_maybe_null@I@std@@YAPAIPAI@Z ENDP		; std::_Unfancy_maybe_null<unsigned int>
_TEXT	ENDS
; Function compile flags: /Odtp /RTCsu
; File C:\Program Files (x86)\Microsoft Visual Studio\2019\Community\VC\Tools\MSVC\14.29.30133\include\xmemory
;	COMDAT ??$_Allocate@$07U_Default_allocate_traits@std@@$0A@@std@@YAPAXI@Z
_TEXT	SEGMENT
__Bytes$ = 8						; size = 4
??$_Allocate@$07U_Default_allocate_traits@std@@$0A@@std@@YAPAXI@Z PROC ; std::_Allocate<8,std::_Default_allocate_traits,0>, COMDAT

; 230  : __declspec(allocator) _CONSTEXPR20_DYNALLOC void* _Allocate(const size_t _Bytes) {

  00000	55		 push	 ebp
  00001	8b ec		 mov	 ebp, esp
  00003	b9 00 00 00 00	 mov	 ecx, OFFSET __79D216CD_xmemory
  00008	e8 00 00 00 00	 call	 @__CheckForDebuggerJustMyCode@4

; 231  :     // allocate _Bytes when !_HAS_ALIGNED_NEW || _Align <= __STDCPP_DEFAULT_NEW_ALIGNMENT__
; 232  : #if defined(_M_IX86) || defined(_M_X64)
; 233  : #ifdef __cpp_lib_constexpr_dynamic_alloc // TRANSITION, GH-1532
; 234  :     if (!_STD is_constant_evaluated())

  0000d	e8 00 00 00 00	 call	 ?is_constant_evaluated@std@@YA_NXZ ; std::is_constant_evaluated
  00012	0f b6 c0	 movzx	 eax, al
  00015	85 c0		 test	 eax, eax
  00017	75 17		 jne	 SHORT $LN2@Allocate

; 235  : #endif // __cpp_lib_constexpr_dynamic_alloc
; 236  :     {
; 237  :         if (_Bytes >= _Big_allocation_threshold) { // boost the alignment of big allocations to help autovectorization

  00019	81 7d 08 00 10
	00 00		 cmp	 DWORD PTR __Bytes$[ebp], 4096 ; 00001000H
  00020	72 0e		 jb	 SHORT $LN2@Allocate

; 238  :             return _Allocate_manually_vector_aligned<_Traits>(_Bytes);

  00022	8b 4d 08	 mov	 ecx, DWORD PTR __Bytes$[ebp]
  00025	51		 push	 ecx
  00026	e8 00 00 00 00	 call	 ??$_Allocate_manually_vector_aligned@U_Default_allocate_traits@std@@@std@@YAPAXI@Z ; std::_Allocate_manually_vector_aligned<std::_Default_allocate_traits>
  0002b	83 c4 04	 add	 esp, 4
  0002e	eb 16		 jmp	 SHORT $LN1@Allocate
$LN2@Allocate:

; 239  :         }
; 240  :     }
; 241  : #endif // defined(_M_IX86) || defined(_M_X64)
; 242  : 
; 243  :     if (_Bytes != 0) {

  00030	83 7d 08 00	 cmp	 DWORD PTR __Bytes$[ebp], 0
  00034	74 0e		 je	 SHORT $LN4@Allocate

; 244  :         return _Traits::_Allocate(_Bytes);

  00036	8b 55 08	 mov	 edx, DWORD PTR __Bytes$[ebp]
  00039	52		 push	 edx
  0003a	e8 00 00 00 00	 call	 ?_Allocate@_Default_allocate_traits@std@@SAPAXI@Z ; std::_Default_allocate_traits::_Allocate
  0003f	83 c4 04	 add	 esp, 4
  00042	eb 02		 jmp	 SHORT $LN1@Allocate
$LN4@Allocate:

; 245  :     }
; 246  : 
; 247  :     return nullptr;

  00044	33 c0		 xor	 eax, eax
$LN1@Allocate:

; 248  : }

  00046	3b ec		 cmp	 ebp, esp
  00048	e8 00 00 00 00	 call	 __RTC_CheckEsp
  0004d	5d		 pop	 ebp
  0004e	c3		 ret	 0
??$_Allocate@$07U_Default_allocate_traits@std@@$0A@@std@@YAPAXI@Z ENDP ; std::_Allocate<8,std::_Default_allocate_traits,0>
_TEXT	ENDS
; Function compile flags: /Odtp /RTCsu
; File C:\Program Files (x86)\Microsoft Visual Studio\2019\Community\VC\Tools\MSVC\14.29.30133\include\xmemory
;	COMDAT ??$_Get_size_of_n@$07@std@@YAII@Z
_TEXT	SEGMENT
__Max_possible$1 = -8					; size = 4
__Overflow_is_possible$ = -1				; size = 1
__Count$ = 8						; size = 4
??$_Get_size_of_n@$07@std@@YAII@Z PROC			; std::_Get_size_of_n<8>, COMDAT

; 59   : _NODISCARD constexpr size_t _Get_size_of_n(const size_t _Count) {

  00000	55		 push	 ebp
  00001	8b ec		 mov	 ebp, esp
  00003	83 ec 08	 sub	 esp, 8
  00006	c7 45 f8 cc cc
	cc cc		 mov	 DWORD PTR [ebp-8], -858993460 ; ccccccccH
  0000d	c7 45 fc cc cc
	cc cc		 mov	 DWORD PTR [ebp-4], -858993460 ; ccccccccH
  00014	b9 00 00 00 00	 mov	 ecx, OFFSET __79D216CD_xmemory
  00019	e8 00 00 00 00	 call	 @__CheckForDebuggerJustMyCode@4

; 60   :     constexpr bool _Overflow_is_possible = _Ty_size > 1;

  0001e	c6 45 ff 01	 mov	 BYTE PTR __Overflow_is_possible$[ebp], 1

; 61   : 
; 62   :     if constexpr (_Overflow_is_possible) {
; 63   :         constexpr size_t _Max_possible = static_cast<size_t>(-1) / _Ty_size;

  00022	c7 45 f8 ff ff
	ff 1f		 mov	 DWORD PTR __Max_possible$1[ebp], 536870911 ; 1fffffffH

; 64   :         if (_Count > _Max_possible) {

  00029	81 7d 08 ff ff
	ff 1f		 cmp	 DWORD PTR __Count$[ebp], 536870911 ; 1fffffffH
  00030	76 05		 jbe	 SHORT $LN2@Get_size_o

; 65   :             _Throw_bad_array_new_length(); // multiply overflow

  00032	e8 00 00 00 00	 call	 ?_Throw_bad_array_new_length@std@@YAXXZ ; std::_Throw_bad_array_new_length
$LN2@Get_size_o:

; 66   :         }
; 67   :     }
; 68   : 
; 69   :     return _Count * _Ty_size;

  00037	8b 45 08	 mov	 eax, DWORD PTR __Count$[ebp]
  0003a	c1 e0 03	 shl	 eax, 3
$LN3@Get_size_o:

; 70   : }

  0003d	83 c4 08	 add	 esp, 8
  00040	3b ec		 cmp	 ebp, esp
  00042	e8 00 00 00 00	 call	 __RTC_CheckEsp
  00047	8b e5		 mov	 esp, ebp
  00049	5d		 pop	 ebp
  0004a	c3		 ret	 0
??$_Get_size_of_n@$07@std@@YAII@Z ENDP			; std::_Get_size_of_n<8>
_TEXT	ENDS
; Function compile flags: /Odtp /RTCsu
; File C:\Program Files (x86)\Microsoft Visual Studio\2019\Community\VC\Tools\MSVC\14.29.30133\include\xmemory
;	COMDAT ??$?0I@?$allocator@U_Container_proxy@std@@@std@@QAE@ABV?$allocator@I@1@@Z
_TEXT	SEGMENT
_this$ = -4						; size = 4
___formal$ = 8						; size = 4
??$?0I@?$allocator@U_Container_proxy@std@@@std@@QAE@ABV?$allocator@I@1@@Z PROC ; std::allocator<std::_Container_proxy>::allocator<std::_Container_proxy><unsigned int>, COMDAT
; _this$ = ecx

; 829  :     constexpr allocator(const allocator<_Other>&) noexcept {}

  00000	55		 push	 ebp
  00001	8b ec		 mov	 ebp, esp
  00003	51		 push	 ecx
  00004	c7 45 fc cc cc
	cc cc		 mov	 DWORD PTR [ebp-4], -858993460 ; ccccccccH
  0000b	89 4d fc	 mov	 DWORD PTR _this$[ebp], ecx
  0000e	b9 00 00 00 00	 mov	 ecx, OFFSET __79D216CD_xmemory
  00013	e8 00 00 00 00	 call	 @__CheckForDebuggerJustMyCode@4
  00018	8b 45 fc	 mov	 eax, DWORD PTR _this$[ebp]
  0001b	83 c4 04	 add	 esp, 4
  0001e	3b ec		 cmp	 ebp, esp
  00020	e8 00 00 00 00	 call	 __RTC_CheckEsp
  00025	8b e5		 mov	 esp, ebp
  00027	5d		 pop	 ebp
  00028	c2 04 00	 ret	 4
??$?0I@?$allocator@U_Container_proxy@std@@@std@@QAE@ABV?$allocator@I@1@@Z ENDP ; std::allocator<std::_Container_proxy>::allocator<std::_Container_proxy><unsigned int>
_TEXT	ENDS
; Function compile flags: /Odtp /RTCsu
; File C:\Program Files (x86)\Microsoft Visual Studio\2019\Community\VC\Tools\MSVC\14.29.30133\include\xstddef
;	COMDAT ??$_Unfancy@U_Container_proxy@std@@@std@@YAPAU_Container_proxy@0@PAU10@@Z
_TEXT	SEGMENT
__Ptr$ = 8						; size = 4
??$_Unfancy@U_Container_proxy@std@@@std@@YAPAU_Container_proxy@0@PAU10@@Z PROC ; std::_Unfancy<std::_Container_proxy>, COMDAT

; 288  : _NODISCARD constexpr _Ty* _Unfancy(_Ty* _Ptr) noexcept { // do nothing for plain pointers

  00000	55		 push	 ebp
  00001	8b ec		 mov	 ebp, esp
  00003	b9 00 00 00 00	 mov	 ecx, OFFSET __E458E21C_xstddef
  00008	e8 00 00 00 00	 call	 @__CheckForDebuggerJustMyCode@4

; 289  :     return _Ptr;

  0000d	8b 45 08	 mov	 eax, DWORD PTR __Ptr$[ebp]

; 290  : }

  00010	3b ec		 cmp	 ebp, esp
  00012	e8 00 00 00 00	 call	 __RTC_CheckEsp
  00017	5d		 pop	 ebp
  00018	c3		 ret	 0
??$_Unfancy@U_Container_proxy@std@@@std@@YAPAU_Container_proxy@0@PAU10@@Z ENDP ; std::_Unfancy<std::_Container_proxy>
_TEXT	ENDS
; Function compile flags: /Odtp /RTCsu
; File C:\Program Files (x86)\Microsoft Visual Studio\2019\Community\VC\Tools\MSVC\14.29.30133\include\xmemory
;	COMDAT ??1?$_Container_proxy_ptr12@V?$allocator@U_Container_proxy@std@@@std@@@std@@QAE@XZ
_TEXT	SEGMENT
_this$ = -4						; size = 4
??1?$_Container_proxy_ptr12@V?$allocator@U_Container_proxy@std@@@std@@@std@@QAE@XZ PROC ; std::_Container_proxy_ptr12<std::allocator<std::_Container_proxy> >::~_Container_proxy_ptr12<std::allocator<std::_Container_proxy> >, COMDAT
; _this$ = ecx

; 1353 :     _CONSTEXPR20_CONTAINER ~_Container_proxy_ptr12() {

  00000	55		 push	 ebp
  00001	8b ec		 mov	 ebp, esp
  00003	51		 push	 ecx
  00004	c7 45 fc cc cc
	cc cc		 mov	 DWORD PTR [ebp-4], -858993460 ; ccccccccH
  0000b	89 4d fc	 mov	 DWORD PTR _this$[ebp], ecx
  0000e	b9 00 00 00 00	 mov	 ecx, OFFSET __79D216CD_xmemory
  00013	e8 00 00 00 00	 call	 @__CheckForDebuggerJustMyCode@4

; 1354 :         if (_Ptr) {

  00018	8b 45 fc	 mov	 eax, DWORD PTR _this$[ebp]
  0001b	83 38 00	 cmp	 DWORD PTR [eax], 0
  0001e	74 15		 je	 SHORT $LN3@Container_

; 1355 :             _Delete_plain_internal(_Al, _Ptr);

  00020	8b 4d fc	 mov	 ecx, DWORD PTR _this$[ebp]
  00023	8b 11		 mov	 edx, DWORD PTR [ecx]
  00025	52		 push	 edx
  00026	8b 45 fc	 mov	 eax, DWORD PTR _this$[ebp]
  00029	8b 48 04	 mov	 ecx, DWORD PTR [eax+4]
  0002c	51		 push	 ecx
  0002d	e8 00 00 00 00	 call	 ??$_Delete_plain_internal@V?$allocator@U_Container_proxy@std@@@std@@@std@@YAXAAV?$allocator@U_Container_proxy@std@@@0@QAU_Container_proxy@0@@Z ; std::_Delete_plain_internal<std::allocator<std::_Container_proxy> >
  00032	83 c4 08	 add	 esp, 8
$LN3@Container_:

; 1356 :         }
; 1357 :     }

  00035	83 c4 04	 add	 esp, 4
  00038	3b ec		 cmp	 ebp, esp
  0003a	e8 00 00 00 00	 call	 __RTC_CheckEsp
  0003f	8b e5		 mov	 esp, ebp
  00041	5d		 pop	 ebp
  00042	c3		 ret	 0
??1?$_Container_proxy_ptr12@V?$allocator@U_Container_proxy@std@@@std@@@std@@QAE@XZ ENDP ; std::_Container_proxy_ptr12<std::allocator<std::_Container_proxy> >::~_Container_proxy_ptr12<std::allocator<std::_Container_proxy> >
_TEXT	ENDS
; Function compile flags: /Odtp /RTCsu
; File C:\Program Files (x86)\Microsoft Visual Studio\2019\Community\VC\Tools\MSVC\14.29.30133\include\xmemory
;	COMDAT ??0?$_Container_proxy_ptr12@V?$allocator@U_Container_proxy@std@@@std@@@std@@QAE@AAV?$allocator@U_Container_proxy@std@@@1@AAU_Container_base12@1@@Z
_TEXT	SEGMENT
$T1 = -8						; size = 4
_this$ = -4						; size = 4
__Al_$ = 8						; size = 4
__Mycont$ = 12						; size = 4
??0?$_Container_proxy_ptr12@V?$allocator@U_Container_proxy@std@@@std@@@std@@QAE@AAV?$allocator@U_Container_proxy@std@@@1@AAU_Container_base12@1@@Z PROC ; std::_Container_proxy_ptr12<std::allocator<std::_Container_proxy> >::_Container_proxy_ptr12<std::allocator<std::_Container_proxy> >, COMDAT
; _this$ = ecx

; 1339 :     _CONSTEXPR20_CONTAINER _Container_proxy_ptr12(_Alloc& _Al_, _Container_base12& _Mycont) : _Al(_Al_) {

  00000	55		 push	 ebp
  00001	8b ec		 mov	 ebp, esp
  00003	83 ec 08	 sub	 esp, 8
  00006	c7 45 f8 cc cc
	cc cc		 mov	 DWORD PTR [ebp-8], -858993460 ; ccccccccH
  0000d	c7 45 fc cc cc
	cc cc		 mov	 DWORD PTR [ebp-4], -858993460 ; ccccccccH
  00014	89 4d fc	 mov	 DWORD PTR _this$[ebp], ecx
  00017	b9 00 00 00 00	 mov	 ecx, OFFSET __79D216CD_xmemory
  0001c	e8 00 00 00 00	 call	 @__CheckForDebuggerJustMyCode@4
  00021	8b 4d fc	 mov	 ecx, DWORD PTR _this$[ebp]
  00024	e8 00 00 00 00	 call	 ??0_Basic_container_proxy_ptr12@std@@IAE@XZ ; std::_Basic_container_proxy_ptr12::_Basic_container_proxy_ptr12
  00029	8b 45 fc	 mov	 eax, DWORD PTR _this$[ebp]
  0002c	8b 4d 08	 mov	 ecx, DWORD PTR __Al_$[ebp]
  0002f	89 48 04	 mov	 DWORD PTR [eax+4], ecx

; 1340 :         // create a new _Container_proxy pointing at _Mycont
; 1341 :         _Ptr = _Unfancy(_Al_.allocate(1));

  00032	6a 01		 push	 1
  00034	8b 4d 08	 mov	 ecx, DWORD PTR __Al_$[ebp]
  00037	e8 00 00 00 00	 call	 ?allocate@?$allocator@U_Container_proxy@std@@@std@@QAEPAU_Container_proxy@2@I@Z ; std::allocator<std::_Container_proxy>::allocate
  0003c	50		 push	 eax
  0003d	e8 00 00 00 00	 call	 ??$_Unfancy@U_Container_proxy@std@@@std@@YAPAU_Container_proxy@0@PAU10@@Z ; std::_Unfancy<std::_Container_proxy>
  00042	83 c4 04	 add	 esp, 4
  00045	8b 55 fc	 mov	 edx, DWORD PTR _this$[ebp]
  00048	89 02		 mov	 DWORD PTR [edx], eax

; 1342 :         _Construct_in_place(*_Ptr, _STD addressof(_Mycont));

  0004a	8b 45 0c	 mov	 eax, DWORD PTR __Mycont$[ebp]
  0004d	50		 push	 eax
  0004e	e8 00 00 00 00	 call	 ??$addressof@U_Container_base12@std@@@std@@YAPAU_Container_base12@0@AAU10@@Z ; std::addressof<std::_Container_base12>
  00053	83 c4 04	 add	 esp, 4
  00056	89 45 f8	 mov	 DWORD PTR $T1[ebp], eax
  00059	8d 4d f8	 lea	 ecx, DWORD PTR $T1[ebp]
  0005c	51		 push	 ecx
  0005d	8b 55 fc	 mov	 edx, DWORD PTR _this$[ebp]
  00060	8b 02		 mov	 eax, DWORD PTR [edx]
  00062	50		 push	 eax
  00063	e8 00 00 00 00	 call	 ??$_Construct_in_place@U_Container_proxy@std@@PAU_Container_base12@2@@std@@YAXAAU_Container_proxy@0@$$QAPAU_Container_base12@0@@Z ; std::_Construct_in_place<std::_Container_proxy,std::_Container_base12 *>
  00068	83 c4 08	 add	 esp, 8

; 1343 :         _Mycont._Myproxy = _Ptr;

  0006b	8b 4d 0c	 mov	 ecx, DWORD PTR __Mycont$[ebp]
  0006e	8b 55 fc	 mov	 edx, DWORD PTR _this$[ebp]
  00071	8b 02		 mov	 eax, DWORD PTR [edx]
  00073	89 01		 mov	 DWORD PTR [ecx], eax

; 1344 :     }

  00075	8b 45 fc	 mov	 eax, DWORD PTR _this$[ebp]
  00078	83 c4 08	 add	 esp, 8
  0007b	3b ec		 cmp	 ebp, esp
  0007d	e8 00 00 00 00	 call	 __RTC_CheckEsp
  00082	8b e5		 mov	 esp, ebp
  00084	5d		 pop	 ebp
  00085	c2 08 00	 ret	 8
??0?$_Container_proxy_ptr12@V?$allocator@U_Container_proxy@std@@@std@@@std@@QAE@AAV?$allocator@U_Container_proxy@std@@@1@AAU_Container_base12@1@@Z ENDP ; std::_Container_proxy_ptr12<std::allocator<std::_Container_proxy> >::_Container_proxy_ptr12<std::allocator<std::_Container_proxy> >
_TEXT	ENDS
; Function compile flags: /Odtp /RTCsu
; File C:\Program Files (x86)\Microsoft Visual Studio\2019\Community\VC\Tools\MSVC\14.29.30133\include\utility
;	COMDAT ??$min@I@std@@YAABIABI0@Z
_TEXT	SEGMENT
tv65 = -8						; size = 4
$T1 = -4						; size = 4
__Left$ = 8						; size = 4
__Right$ = 12						; size = 4
??$min@I@std@@YAABIABI0@Z PROC				; std::min<unsigned int>, COMDAT

; 66   :     const _Ty& _Left, const _Ty& _Right) noexcept(noexcept(_Right < _Left)) /* strengthened */ {

  00000	55		 push	 ebp
  00001	8b ec		 mov	 ebp, esp
  00003	83 ec 08	 sub	 esp, 8
  00006	c7 45 f8 cc cc
	cc cc		 mov	 DWORD PTR [ebp-8], -858993460 ; ccccccccH
  0000d	c7 45 fc cc cc
	cc cc		 mov	 DWORD PTR [ebp-4], -858993460 ; ccccccccH
  00014	b9 00 00 00 00	 mov	 ecx, OFFSET __1347750E_utility
  00019	e8 00 00 00 00	 call	 @__CheckForDebuggerJustMyCode@4

; 67   :     // return smaller of _Left and _Right
; 68   :     return _Right < _Left ? _Right : _Left;

  0001e	8b 45 0c	 mov	 eax, DWORD PTR __Right$[ebp]
  00021	8b 4d 08	 mov	 ecx, DWORD PTR __Left$[ebp]
  00024	8b 10		 mov	 edx, DWORD PTR [eax]
  00026	3b 11		 cmp	 edx, DWORD PTR [ecx]
  00028	73 08		 jae	 SHORT $LN3@min
  0002a	8b 45 0c	 mov	 eax, DWORD PTR __Right$[ebp]
  0002d	89 45 f8	 mov	 DWORD PTR tv65[ebp], eax
  00030	eb 06		 jmp	 SHORT $LN4@min
$LN3@min:
  00032	8b 4d 08	 mov	 ecx, DWORD PTR __Left$[ebp]
  00035	89 4d f8	 mov	 DWORD PTR tv65[ebp], ecx
$LN4@min:
  00038	8b 55 f8	 mov	 edx, DWORD PTR tv65[ebp]
  0003b	89 55 fc	 mov	 DWORD PTR $T1[ebp], edx
  0003e	8b 45 fc	 mov	 eax, DWORD PTR $T1[ebp]

; 69   : }

  00041	83 c4 08	 add	 esp, 8
  00044	3b ec		 cmp	 ebp, esp
  00046	e8 00 00 00 00	 call	 __RTC_CheckEsp
  0004b	8b e5		 mov	 esp, ebp
  0004d	5d		 pop	 ebp
  0004e	c3		 ret	 0
??$min@I@std@@YAABIABI0@Z ENDP				; std::min<unsigned int>
_TEXT	ENDS
; Function compile flags: /Odtp /RTCsu
; File C:\Program Files (x86)\Microsoft Visual Studio\2019\Community\VC\Tools\MSVC\14.29.30133\include\vector
;	COMDAT ??$_Construct_n_copies_of_ty@U_Value_init_tag@std@@@?$vector@PAVSprite@sf@@V?$allocator@PAVSprite@sf@@@std@@@std@@AAEXIABU_Value_init_tag@1@@Z
_TEXT	SEGMENT
__Guard$2 = -64						; size = 4
__Proxy$ = -52						; size = 8
__My_data$ = -40					; size = 4
_$S21$ = -29						; size = 1
__Alproxy$ = -24					; size = 4
_this$ = -20						; size = 4
__$ArrayPad$ = -16					; size = 4
__$EHRec$ = -12						; size = 12
__Count$ = 8						; size = 4
__Val$ = 12						; size = 4
??$_Construct_n_copies_of_ty@U_Value_init_tag@std@@@?$vector@PAVSprite@sf@@V?$allocator@PAVSprite@sf@@@std@@@std@@AAEXIABU_Value_init_tag@1@@Z PROC ; std::vector<sf::Sprite *,std::allocator<sf::Sprite *> >::_Construct_n_copies_of_ty<std::_Value_init_tag>, COMDAT
; _this$ = ecx

; 486  :     _CONSTEXPR20_CONTAINER void _Construct_n_copies_of_ty(_CRT_GUARDOVERFLOW const size_type _Count, const _Ty2& _Val) {

  00000	55		 push	 ebp
  00001	8b ec		 mov	 ebp, esp
  00003	6a ff		 push	 -1
  00005	68 00 00 00 00	 push	 __ehhandler$??$_Construct_n_copies_of_ty@U_Value_init_tag@std@@@?$vector@PAVSprite@sf@@V?$allocator@PAVSprite@sf@@@std@@@std@@AAEXIABU_Value_init_tag@1@@Z
  0000a	64 a1 00 00 00
	00		 mov	 eax, DWORD PTR fs:0
  00010	50		 push	 eax
  00011	83 ec 38	 sub	 esp, 56			; 00000038H
  00014	57		 push	 edi
  00015	51		 push	 ecx
  00016	8d 7d bc	 lea	 edi, DWORD PTR [ebp-68]
  00019	b9 0e 00 00 00	 mov	 ecx, 14			; 0000000eH
  0001e	b8 cc cc cc cc	 mov	 eax, -858993460		; ccccccccH
  00023	f3 ab		 rep stosd
  00025	59		 pop	 ecx
  00026	a1 00 00 00 00	 mov	 eax, DWORD PTR ___security_cookie
  0002b	33 c5		 xor	 eax, ebp
  0002d	89 45 f0	 mov	 DWORD PTR __$ArrayPad$[ebp], eax
  00030	50		 push	 eax
  00031	8d 45 f4	 lea	 eax, DWORD PTR __$EHRec$[ebp]
  00034	64 a3 00 00 00
	00		 mov	 DWORD PTR fs:0, eax
  0003a	89 4d ec	 mov	 DWORD PTR _this$[ebp], ecx
  0003d	b9 00 00 00 00	 mov	 ecx, OFFSET __324884E2_vector
  00042	e8 00 00 00 00	 call	 @__CheckForDebuggerJustMyCode@4

; 487  :         auto&& _Alproxy = _GET_PROXY_ALLOCATOR(_Alty, _Getal());

  00047	8b 4d ec	 mov	 ecx, DWORD PTR _this$[ebp]
  0004a	e8 00 00 00 00	 call	 ?_Getal@?$vector@PAVSprite@sf@@V?$allocator@PAVSprite@sf@@@std@@@std@@AAEAAV?$allocator@PAVSprite@sf@@@2@XZ ; std::vector<sf::Sprite *,std::allocator<sf::Sprite *> >::_Getal
  0004f	50		 push	 eax
  00050	8d 4d e3	 lea	 ecx, DWORD PTR _$S21$[ebp]
  00053	e8 00 00 00 00	 call	 ??$?0PAVSprite@sf@@@?$allocator@U_Container_proxy@std@@@std@@QAE@ABV?$allocator@PAVSprite@sf@@@1@@Z ; std::allocator<std::_Container_proxy>::allocator<std::_Container_proxy><sf::Sprite *>
  00058	8d 45 e3	 lea	 eax, DWORD PTR _$S21$[ebp]
  0005b	89 45 e8	 mov	 DWORD PTR __Alproxy$[ebp], eax

; 488  :         auto& _My_data  = _Mypair._Myval2;

  0005e	8b 4d ec	 mov	 ecx, DWORD PTR _this$[ebp]
  00061	89 4d d8	 mov	 DWORD PTR __My_data$[ebp], ecx

; 489  :         _Container_proxy_ptr<_Alty> _Proxy(_Alproxy, _My_data);

  00064	8b 55 d8	 mov	 edx, DWORD PTR __My_data$[ebp]
  00067	52		 push	 edx
  00068	8b 45 e8	 mov	 eax, DWORD PTR __Alproxy$[ebp]
  0006b	50		 push	 eax
  0006c	8d 4d cc	 lea	 ecx, DWORD PTR __Proxy$[ebp]
  0006f	e8 00 00 00 00	 call	 ??0?$_Container_proxy_ptr12@V?$allocator@U_Container_proxy@std@@@std@@@std@@QAE@AAV?$allocator@U_Container_proxy@std@@@1@AAU_Container_base12@1@@Z ; std::_Container_proxy_ptr12<std::allocator<std::_Container_proxy> >::_Container_proxy_ptr12<std::allocator<std::_Container_proxy> >
  00074	c7 45 fc 00 00
	00 00		 mov	 DWORD PTR __$EHRec$[ebp+8], 0

; 490  :         if (_Count != 0) {

  0007b	83 7d 08 00	 cmp	 DWORD PTR __Count$[ebp], 0
  0007f	74 49		 je	 SHORT $LN2@Construct_

; 491  :             _Buy_nonzero(_Count);

  00081	8b 4d 08	 mov	 ecx, DWORD PTR __Count$[ebp]
  00084	51		 push	 ecx
  00085	8b 4d ec	 mov	 ecx, DWORD PTR _this$[ebp]
  00088	e8 00 00 00 00	 call	 ?_Buy_nonzero@?$vector@PAVSprite@sf@@V?$allocator@PAVSprite@sf@@@std@@@std@@AAEXI@Z ; std::vector<sf::Sprite *,std::allocator<sf::Sprite *> >::_Buy_nonzero

; 492  :             _Tidy_guard<vector> _Guard{this};

  0008d	8b 55 ec	 mov	 edx, DWORD PTR _this$[ebp]
  00090	89 55 c0	 mov	 DWORD PTR __Guard$2[ebp], edx
  00093	c6 45 fc 01	 mov	 BYTE PTR __$EHRec$[ebp+8], 1

; 493  :             _My_data._Mylast = _Ufill(_My_data._Myfirst, _Count, _Val);

  00097	8b 45 0c	 mov	 eax, DWORD PTR __Val$[ebp]
  0009a	0f b6 08	 movzx	 ecx, BYTE PTR [eax]
  0009d	51		 push	 ecx
  0009e	8b 55 08	 mov	 edx, DWORD PTR __Count$[ebp]
  000a1	52		 push	 edx
  000a2	8b 45 d8	 mov	 eax, DWORD PTR __My_data$[ebp]
  000a5	8b 48 04	 mov	 ecx, DWORD PTR [eax+4]
  000a8	51		 push	 ecx
  000a9	8b 4d ec	 mov	 ecx, DWORD PTR _this$[ebp]
  000ac	e8 00 00 00 00	 call	 ?_Ufill@?$vector@PAVSprite@sf@@V?$allocator@PAVSprite@sf@@@std@@@std@@AAEPAPAVSprite@sf@@PAPAV34@IU_Value_init_tag@2@@Z ; std::vector<sf::Sprite *,std::allocator<sf::Sprite *> >::_Ufill
  000b1	8b 55 d8	 mov	 edx, DWORD PTR __My_data$[ebp]
  000b4	89 42 08	 mov	 DWORD PTR [edx+8], eax

; 494  :             _Guard._Target   = nullptr;

  000b7	c7 45 c0 00 00
	00 00		 mov	 DWORD PTR __Guard$2[ebp], 0

; 495  :         }

  000be	c6 45 fc 00	 mov	 BYTE PTR __$EHRec$[ebp+8], 0
  000c2	8d 4d c0	 lea	 ecx, DWORD PTR __Guard$2[ebp]
  000c5	e8 00 00 00 00	 call	 ??1?$_Tidy_guard@V?$vector@PAVSprite@sf@@V?$allocator@PAVSprite@sf@@@std@@@std@@@std@@QAE@XZ ; std::_Tidy_guard<std::vector<sf::Sprite *,std::allocator<sf::Sprite *> > >::~_Tidy_guard<std::vector<sf::Sprite *,std::allocator<sf::Sprite *> > >
$LN2@Construct_:

; 496  : 
; 497  :         _Proxy._Release();

  000ca	8d 4d cc	 lea	 ecx, DWORD PTR __Proxy$[ebp]
  000cd	e8 00 00 00 00	 call	 ?_Release@_Basic_container_proxy_ptr12@std@@QAEXXZ ; std::_Basic_container_proxy_ptr12::_Release

; 498  :     }

  000d2	c7 45 fc ff ff
	ff ff		 mov	 DWORD PTR __$EHRec$[ebp+8], -1
  000d9	8d 4d cc	 lea	 ecx, DWORD PTR __Proxy$[ebp]
  000dc	e8 00 00 00 00	 call	 ??1?$_Container_proxy_ptr12@V?$allocator@U_Container_proxy@std@@@std@@@std@@QAE@XZ ; std::_Container_proxy_ptr12<std::allocator<std::_Container_proxy> >::~_Container_proxy_ptr12<std::allocator<std::_Container_proxy> >
  000e1	52		 push	 edx
  000e2	8b cd		 mov	 ecx, ebp
  000e4	50		 push	 eax
  000e5	8d 15 00 00 00
	00		 lea	 edx, DWORD PTR $LN11@Construct_
  000eb	e8 00 00 00 00	 call	 @_RTC_CheckStackVars@8
  000f0	58		 pop	 eax
  000f1	5a		 pop	 edx
  000f2	8b 4d f4	 mov	 ecx, DWORD PTR __$EHRec$[ebp]
  000f5	64 89 0d 00 00
	00 00		 mov	 DWORD PTR fs:0, ecx
  000fc	59		 pop	 ecx
  000fd	5f		 pop	 edi
  000fe	8b 4d f0	 mov	 ecx, DWORD PTR __$ArrayPad$[ebp]
  00101	33 cd		 xor	 ecx, ebp
  00103	e8 00 00 00 00	 call	 @__security_check_cookie@4
  00108	83 c4 44	 add	 esp, 68			; 00000044H
  0010b	3b ec		 cmp	 ebp, esp
  0010d	e8 00 00 00 00	 call	 __RTC_CheckEsp
  00112	8b e5		 mov	 esp, ebp
  00114	5d		 pop	 ebp
  00115	c2 08 00	 ret	 8
$LN11@Construct_:
  00118	03 00 00 00	 DD	 3
  0011c	00 00 00 00	 DD	 $LN10@Construct_
$LN10@Construct_:
  00120	e3 ff ff ff	 DD	 -29			; ffffffe3H
  00124	01 00 00 00	 DD	 1
  00128	00 00 00 00	 DD	 $LN6@Construct_
  0012c	cc ff ff ff	 DD	 -52			; ffffffccH
  00130	08 00 00 00	 DD	 8
  00134	00 00 00 00	 DD	 $LN7@Construct_
  00138	c0 ff ff ff	 DD	 -64			; ffffffc0H
  0013c	04 00 00 00	 DD	 4
  00140	00 00 00 00	 DD	 $LN8@Construct_
$LN8@Construct_:
  00144	5f		 DB	 95			; 0000005fH
  00145	47		 DB	 71			; 00000047H
  00146	75		 DB	 117			; 00000075H
  00147	61		 DB	 97			; 00000061H
  00148	72		 DB	 114			; 00000072H
  00149	64		 DB	 100			; 00000064H
  0014a	00		 DB	 0
$LN7@Construct_:
  0014b	5f		 DB	 95			; 0000005fH
  0014c	50		 DB	 80			; 00000050H
  0014d	72		 DB	 114			; 00000072H
  0014e	6f		 DB	 111			; 0000006fH
  0014f	78		 DB	 120			; 00000078H
  00150	79		 DB	 121			; 00000079H
  00151	00		 DB	 0
$LN6@Construct_:
  00152	24		 DB	 36			; 00000024H
  00153	53		 DB	 83			; 00000053H
  00154	32		 DB	 50			; 00000032H
  00155	31		 DB	 49			; 00000031H
  00156	00		 DB	 0
_TEXT	ENDS
;	COMDAT text$x
text$x	SEGMENT
__unwindfunclet$??$_Construct_n_copies_of_ty@U_Value_init_tag@std@@@?$vector@PAVSprite@sf@@V?$allocator@PAVSprite@sf@@@std@@@std@@AAEXIABU_Value_init_tag@1@@Z$0:
  00000	8d 4d cc	 lea	 ecx, DWORD PTR __Proxy$[ebp]
  00003	e9 00 00 00 00	 jmp	 ??1?$_Container_proxy_ptr12@V?$allocator@U_Container_proxy@std@@@std@@@std@@QAE@XZ ; std::_Container_proxy_ptr12<std::allocator<std::_Container_proxy> >::~_Container_proxy_ptr12<std::allocator<std::_Container_proxy> >
__unwindfunclet$??$_Construct_n_copies_of_ty@U_Value_init_tag@std@@@?$vector@PAVSprite@sf@@V?$allocator@PAVSprite@sf@@@std@@@std@@AAEXIABU_Value_init_tag@1@@Z$1:
  00008	8d 4d c0	 lea	 ecx, DWORD PTR __Guard$2[ebp]
  0000b	e9 00 00 00 00	 jmp	 ??1?$_Tidy_guard@V?$vector@PAVSprite@sf@@V?$allocator@PAVSprite@sf@@@std@@@std@@@std@@QAE@XZ ; std::_Tidy_guard<std::vector<sf::Sprite *,std::allocator<sf::Sprite *> > >::~_Tidy_guard<std::vector<sf::Sprite *,std::allocator<sf::Sprite *> > >
  00010	cc		 int	 3
  00011	cc		 int	 3
  00012	cc		 int	 3
  00013	cc		 int	 3
  00014	cc		 int	 3
__ehhandler$??$_Construct_n_copies_of_ty@U_Value_init_tag@std@@@?$vector@PAVSprite@sf@@V?$allocator@PAVSprite@sf@@@std@@@std@@AAEXIABU_Value_init_tag@1@@Z:
  00015	90		 npad	 1
  00016	90		 npad	 1
  00017	8b 54 24 08	 mov	 edx, DWORD PTR [esp+8]
  0001b	8d 42 0c	 lea	 eax, DWORD PTR [edx+12]
  0001e	8b 4a c0	 mov	 ecx, DWORD PTR [edx-64]
  00021	33 c8		 xor	 ecx, eax
  00023	e8 00 00 00 00	 call	 @__security_check_cookie@4
  00028	8b 4a fc	 mov	 ecx, DWORD PTR [edx-4]
  0002b	33 c8		 xor	 ecx, eax
  0002d	e8 00 00 00 00	 call	 @__security_check_cookie@4
  00032	b8 00 00 00 00	 mov	 eax, OFFSET __ehfuncinfo$??$_Construct_n_copies_of_ty@U_Value_init_tag@std@@@?$vector@PAVSprite@sf@@V?$allocator@PAVSprite@sf@@@std@@@std@@AAEXIABU_Value_init_tag@1@@Z
  00037	e9 00 00 00 00	 jmp	 ___CxxFrameHandler3
text$x	ENDS
??$_Construct_n_copies_of_ty@U_Value_init_tag@std@@@?$vector@PAVSprite@sf@@V?$allocator@PAVSprite@sf@@@std@@@std@@AAEXIABU_Value_init_tag@1@@Z ENDP ; std::vector<sf::Sprite *,std::allocator<sf::Sprite *> >::_Construct_n_copies_of_ty<std::_Value_init_tag>
; Function compile flags: /Odtp /RTCsu
; File C:\Program Files (x86)\Microsoft Visual Studio\2019\Community\VC\Tools\MSVC\14.29.30133\include\xmemory
;	COMDAT ??$?0ABV?$allocator@PAVSprite@sf@@@std@@$$V@?$_Compressed_pair@V?$allocator@PAVSprite@sf@@@std@@V?$_Vector_val@U?$_Simple_types@PAVSprite@sf@@@std@@@2@$00@std@@QAE@U_One_then_variadic_args_t@1@ABV?$allocator@PAVSprite@sf@@@1@@Z
_TEXT	SEGMENT
_this$ = -4						; size = 4
___formal$ = 8						; size = 1
__Val1$ = 12						; size = 4
??$?0ABV?$allocator@PAVSprite@sf@@@std@@$$V@?$_Compressed_pair@V?$allocator@PAVSprite@sf@@@std@@V?$_Vector_val@U?$_Simple_types@PAVSprite@sf@@@std@@@2@$00@std@@QAE@U_One_then_variadic_args_t@1@ABV?$allocator@PAVSprite@sf@@@1@@Z PROC ; std::_Compressed_pair<std::allocator<sf::Sprite *>,std::_Vector_val<std::_Simple_types<sf::Sprite *> >,1>::_Compressed_pair<std::allocator<sf::Sprite *>,std::_Vector_val<std::_Simple_types<sf::Sprite *> >,1><std::allocator<sf::Sprite *> const &>, COMDAT
; _this$ = ecx

; 1395 :         : _Ty1(_STD forward<_Other1>(_Val1)), _Myval2(_STD forward<_Other2>(_Val2)...) {}

  00000	55		 push	 ebp
  00001	8b ec		 mov	 ebp, esp
  00003	51		 push	 ecx
  00004	c7 45 fc cc cc
	cc cc		 mov	 DWORD PTR [ebp-4], -858993460 ; ccccccccH
  0000b	89 4d fc	 mov	 DWORD PTR _this$[ebp], ecx
  0000e	b9 00 00 00 00	 mov	 ecx, OFFSET __79D216CD_xmemory
  00013	e8 00 00 00 00	 call	 @__CheckForDebuggerJustMyCode@4
  00018	8b 45 0c	 mov	 eax, DWORD PTR __Val1$[ebp]
  0001b	50		 push	 eax
  0001c	e8 00 00 00 00	 call	 ??$forward@ABV?$allocator@PAVSprite@sf@@@std@@@std@@YAABV?$allocator@PAVSprite@sf@@@0@ABV10@@Z ; std::forward<std::allocator<sf::Sprite *> const &>
  00021	83 c4 04	 add	 esp, 4
  00024	8b 4d fc	 mov	 ecx, DWORD PTR _this$[ebp]
  00027	e8 00 00 00 00	 call	 ??0?$_Vector_val@U?$_Simple_types@PAVSprite@sf@@@std@@@std@@QAE@XZ ; std::_Vector_val<std::_Simple_types<sf::Sprite *> >::_Vector_val<std::_Simple_types<sf::Sprite *> >
  0002c	8b 45 fc	 mov	 eax, DWORD PTR _this$[ebp]
  0002f	83 c4 04	 add	 esp, 4
  00032	3b ec		 cmp	 ebp, esp
  00034	e8 00 00 00 00	 call	 __RTC_CheckEsp
  00039	8b e5		 mov	 esp, ebp
  0003b	5d		 pop	 ebp
  0003c	c2 08 00	 ret	 8
??$?0ABV?$allocator@PAVSprite@sf@@@std@@$$V@?$_Compressed_pair@V?$allocator@PAVSprite@sf@@@std@@V?$_Vector_val@U?$_Simple_types@PAVSprite@sf@@@std@@@2@$00@std@@QAE@U_One_then_variadic_args_t@1@ABV?$allocator@PAVSprite@sf@@@1@@Z ENDP ; std::_Compressed_pair<std::allocator<sf::Sprite *>,std::_Vector_val<std::_Simple_types<sf::Sprite *> >,1>::_Compressed_pair<std::allocator<sf::Sprite *>,std::_Vector_val<std::_Simple_types<sf::Sprite *> >,1><std::allocator<sf::Sprite *> const &>
_TEXT	ENDS
; Function compile flags: /Odtp /RTCsu
; File C:\Program Files (x86)\Microsoft Visual Studio\2019\Community\VC\Tools\MSVC\14.29.30133\include\xmemory
;	COMDAT ??$?0PAVSprite@sf@@@?$allocator@U_Container_proxy@std@@@std@@QAE@ABV?$allocator@PAVSprite@sf@@@1@@Z
_TEXT	SEGMENT
_this$ = -4						; size = 4
___formal$ = 8						; size = 4
??$?0PAVSprite@sf@@@?$allocator@U_Container_proxy@std@@@std@@QAE@ABV?$allocator@PAVSprite@sf@@@1@@Z PROC ; std::allocator<std::_Container_proxy>::allocator<std::_Container_proxy><sf::Sprite *>, COMDAT
; _this$ = ecx

; 829  :     constexpr allocator(const allocator<_Other>&) noexcept {}

  00000	55		 push	 ebp
  00001	8b ec		 mov	 ebp, esp
  00003	51		 push	 ecx
  00004	c7 45 fc cc cc
	cc cc		 mov	 DWORD PTR [ebp-4], -858993460 ; ccccccccH
  0000b	89 4d fc	 mov	 DWORD PTR _this$[ebp], ecx
  0000e	b9 00 00 00 00	 mov	 ecx, OFFSET __79D216CD_xmemory
  00013	e8 00 00 00 00	 call	 @__CheckForDebuggerJustMyCode@4
  00018	8b 45 fc	 mov	 eax, DWORD PTR _this$[ebp]
  0001b	83 c4 04	 add	 esp, 4
  0001e	3b ec		 cmp	 ebp, esp
  00020	e8 00 00 00 00	 call	 __RTC_CheckEsp
  00025	8b e5		 mov	 esp, ebp
  00027	5d		 pop	 ebp
  00028	c2 04 00	 ret	 4
??$?0PAVSprite@sf@@@?$allocator@U_Container_proxy@std@@@std@@QAE@ABV?$allocator@PAVSprite@sf@@@1@@Z ENDP ; std::allocator<std::_Container_proxy>::allocator<std::_Container_proxy><sf::Sprite *>
_TEXT	ENDS
; Function compile flags: /Odtp /RTCsu
; File C:\Program Files (x86)\Microsoft Visual Studio\2019\Community\VC\Tools\MSVC\14.29.30133\include\xmemory
;	COMDAT ??$_Alloc_proxy@V?$allocator@U_Container_proxy@std@@@std@@@_Container_base12@std@@QAEX$$QAV?$allocator@U_Container_proxy@std@@@1@@Z
_TEXT	SEGMENT
$T1 = -12						; size = 4
__New_proxy$ = -8					; size = 4
_this$ = -4						; size = 4
__Al$ = 8						; size = 4
??$_Alloc_proxy@V?$allocator@U_Container_proxy@std@@@std@@@_Container_base12@std@@QAEX$$QAV?$allocator@U_Container_proxy@std@@@1@@Z PROC ; std::_Container_base12::_Alloc_proxy<std::allocator<std::_Container_proxy> >, COMDAT
; _this$ = ecx

; 1073 :     _CONSTEXPR20_CONTAINER void _Alloc_proxy(_Alloc&& _Al) {

  00000	55		 push	 ebp
  00001	8b ec		 mov	 ebp, esp
  00003	83 ec 0c	 sub	 esp, 12			; 0000000cH
  00006	c7 45 f4 cc cc
	cc cc		 mov	 DWORD PTR [ebp-12], -858993460 ; ccccccccH
  0000d	c7 45 f8 cc cc
	cc cc		 mov	 DWORD PTR [ebp-8], -858993460 ; ccccccccH
  00014	c7 45 fc cc cc
	cc cc		 mov	 DWORD PTR [ebp-4], -858993460 ; ccccccccH
  0001b	89 4d fc	 mov	 DWORD PTR _this$[ebp], ecx
  0001e	b9 00 00 00 00	 mov	 ecx, OFFSET __79D216CD_xmemory
  00023	e8 00 00 00 00	 call	 @__CheckForDebuggerJustMyCode@4

; 1074 :         _Container_proxy* const _New_proxy = _Unfancy(_Al.allocate(1));

  00028	6a 01		 push	 1
  0002a	8b 4d 08	 mov	 ecx, DWORD PTR __Al$[ebp]
  0002d	e8 00 00 00 00	 call	 ?allocate@?$allocator@U_Container_proxy@std@@@std@@QAEPAU_Container_proxy@2@I@Z ; std::allocator<std::_Container_proxy>::allocate
  00032	50		 push	 eax
  00033	e8 00 00 00 00	 call	 ??$_Unfancy@U_Container_proxy@std@@@std@@YAPAU_Container_proxy@0@PAU10@@Z ; std::_Unfancy<std::_Container_proxy>
  00038	83 c4 04	 add	 esp, 4
  0003b	89 45 f8	 mov	 DWORD PTR __New_proxy$[ebp], eax

; 1075 :         _Construct_in_place(*_New_proxy, this);

  0003e	8b 45 fc	 mov	 eax, DWORD PTR _this$[ebp]
  00041	89 45 f4	 mov	 DWORD PTR $T1[ebp], eax
  00044	8d 4d f4	 lea	 ecx, DWORD PTR $T1[ebp]
  00047	51		 push	 ecx
  00048	8b 55 f8	 mov	 edx, DWORD PTR __New_proxy$[ebp]
  0004b	52		 push	 edx
  0004c	e8 00 00 00 00	 call	 ??$_Construct_in_place@U_Container_proxy@std@@PAU_Container_base12@2@@std@@YAXAAU_Container_proxy@0@$$QAPAU_Container_base12@0@@Z ; std::_Construct_in_place<std::_Container_proxy,std::_Container_base12 *>
  00051	83 c4 08	 add	 esp, 8

; 1076 :         _Myproxy            = _New_proxy;

  00054	8b 45 fc	 mov	 eax, DWORD PTR _this$[ebp]
  00057	8b 4d f8	 mov	 ecx, DWORD PTR __New_proxy$[ebp]
  0005a	89 08		 mov	 DWORD PTR [eax], ecx

; 1077 :         _New_proxy->_Mycont = this;

  0005c	8b 55 f8	 mov	 edx, DWORD PTR __New_proxy$[ebp]
  0005f	8b 45 fc	 mov	 eax, DWORD PTR _this$[ebp]
  00062	89 02		 mov	 DWORD PTR [edx], eax

; 1078 :     }

  00064	83 c4 0c	 add	 esp, 12			; 0000000cH
  00067	3b ec		 cmp	 ebp, esp
  00069	e8 00 00 00 00	 call	 __RTC_CheckEsp
  0006e	8b e5		 mov	 esp, ebp
  00070	5d		 pop	 ebp
  00071	c2 04 00	 ret	 4
??$_Alloc_proxy@V?$allocator@U_Container_proxy@std@@@std@@@_Container_base12@std@@QAEX$$QAV?$allocator@U_Container_proxy@std@@@1@@Z ENDP ; std::_Container_base12::_Alloc_proxy<std::allocator<std::_Container_proxy> >
_TEXT	ENDS
; Function compile flags: /Odtp /RTCsu
; File C:\Program Files (x86)\Microsoft Visual Studio\2019\Community\VC\Tools\MSVC\14.29.30133\include\xmemory
;	COMDAT ??$?0$$V@?$_Compressed_pair@V?$allocator@PAVTexture@sf@@@std@@V?$_Vector_val@U?$_Simple_types@PAVTexture@sf@@@std@@@2@$00@std@@QAE@U_Zero_then_variadic_args_t@1@@Z
_TEXT	SEGMENT
_this$ = -4						; size = 4
___formal$ = 8						; size = 1
??$?0$$V@?$_Compressed_pair@V?$allocator@PAVTexture@sf@@@std@@V?$_Vector_val@U?$_Simple_types@PAVTexture@sf@@@std@@@2@$00@std@@QAE@U_Zero_then_variadic_args_t@1@@Z PROC ; std::_Compressed_pair<std::allocator<sf::Texture *>,std::_Vector_val<std::_Simple_types<sf::Texture *> >,1>::_Compressed_pair<std::allocator<sf::Texture *>,std::_Vector_val<std::_Simple_types<sf::Texture *> >,1><>, COMDAT
; _this$ = ecx

; 1390 :         : _Ty1(), _Myval2(_STD forward<_Other2>(_Val2)...) {}

  00000	55		 push	 ebp
  00001	8b ec		 mov	 ebp, esp
  00003	51		 push	 ecx
  00004	c7 45 fc cc cc
	cc cc		 mov	 DWORD PTR [ebp-4], -858993460 ; ccccccccH
  0000b	89 4d fc	 mov	 DWORD PTR _this$[ebp], ecx
  0000e	b9 00 00 00 00	 mov	 ecx, OFFSET __79D216CD_xmemory
  00013	e8 00 00 00 00	 call	 @__CheckForDebuggerJustMyCode@4
  00018	8b 4d fc	 mov	 ecx, DWORD PTR _this$[ebp]
  0001b	e8 00 00 00 00	 call	 ??0?$allocator@PAVTexture@sf@@@std@@QAE@XZ ; std::allocator<sf::Texture *>::allocator<sf::Texture *>
  00020	8b 4d fc	 mov	 ecx, DWORD PTR _this$[ebp]
  00023	e8 00 00 00 00	 call	 ??0?$_Vector_val@U?$_Simple_types@PAVTexture@sf@@@std@@@std@@QAE@XZ ; std::_Vector_val<std::_Simple_types<sf::Texture *> >::_Vector_val<std::_Simple_types<sf::Texture *> >
  00028	8b 45 fc	 mov	 eax, DWORD PTR _this$[ebp]
  0002b	83 c4 04	 add	 esp, 4
  0002e	3b ec		 cmp	 ebp, esp
  00030	e8 00 00 00 00	 call	 __RTC_CheckEsp
  00035	8b e5		 mov	 esp, ebp
  00037	5d		 pop	 ebp
  00038	c2 04 00	 ret	 4
??$?0$$V@?$_Compressed_pair@V?$allocator@PAVTexture@sf@@@std@@V?$_Vector_val@U?$_Simple_types@PAVTexture@sf@@@std@@@2@$00@std@@QAE@U_Zero_then_variadic_args_t@1@@Z ENDP ; std::_Compressed_pair<std::allocator<sf::Texture *>,std::_Vector_val<std::_Simple_types<sf::Texture *> >,1>::_Compressed_pair<std::allocator<sf::Texture *>,std::_Vector_val<std::_Simple_types<sf::Texture *> >,1><>
_TEXT	ENDS
; Function compile flags: /Odtp /RTCsu
; File C:\Program Files (x86)\Microsoft Visual Studio\2019\Community\VC\Tools\MSVC\14.29.30133\include\xmemory
;	COMDAT ??$_Delete_plain_internal@V?$allocator@U_Container_proxy@std@@@std@@@std@@YAXAAV?$allocator@U_Container_proxy@std@@@0@QAU_Container_proxy@0@@Z
_TEXT	SEGMENT
__Al$ = 8						; size = 4
__Ptr$ = 12						; size = 4
??$_Delete_plain_internal@V?$allocator@U_Container_proxy@std@@@std@@@std@@YAXAAV?$allocator@U_Container_proxy@std@@@0@QAU_Container_proxy@0@@Z PROC ; std::_Delete_plain_internal<std::allocator<std::_Container_proxy> >, COMDAT

; 998  : _CONSTEXPR20_DYNALLOC void _Delete_plain_internal(_Alloc& _Al, typename _Alloc::value_type* const _Ptr) noexcept {

  00000	55		 push	 ebp
  00001	8b ec		 mov	 ebp, esp
  00003	b9 00 00 00 00	 mov	 ecx, OFFSET __79D216CD_xmemory
  00008	e8 00 00 00 00	 call	 @__CheckForDebuggerJustMyCode@4

; 999  :     // destroy *_Ptr in place, then deallocate _Ptr using _Al; used for internal container types the user didn't name
; 1000 :     using _Ty = typename _Alloc::value_type;
; 1001 :     _Ptr->~_Ty();
; 1002 :     _Deallocate_plain(_Al, _Ptr);

  0000d	8b 45 0c	 mov	 eax, DWORD PTR __Ptr$[ebp]
  00010	50		 push	 eax
  00011	8b 4d 08	 mov	 ecx, DWORD PTR __Al$[ebp]
  00014	51		 push	 ecx
  00015	e8 00 00 00 00	 call	 ??$_Deallocate_plain@V?$allocator@U_Container_proxy@std@@@std@@@std@@YAXAAV?$allocator@U_Container_proxy@std@@@0@QAU_Container_proxy@0@@Z ; std::_Deallocate_plain<std::allocator<std::_Container_proxy> >
  0001a	83 c4 08	 add	 esp, 8

; 1003 : }

  0001d	3b ec		 cmp	 ebp, esp
  0001f	e8 00 00 00 00	 call	 __RTC_CheckEsp
  00024	5d		 pop	 ebp
  00025	c3		 ret	 0
??$_Delete_plain_internal@V?$allocator@U_Container_proxy@std@@@std@@@std@@YAXAAV?$allocator@U_Container_proxy@std@@@0@QAU_Container_proxy@0@@Z ENDP ; std::_Delete_plain_internal<std::allocator<std::_Container_proxy> >
_TEXT	ENDS
; Function compile flags: /Odtp /RTCsu
; File C:\Program Files (x86)\Microsoft Visual Studio\2019\Community\VC\Tools\MSVC\14.29.30133\include\utility
;	COMDAT ??$exchange@PAU_Container_proxy@std@@$$T@std@@YAPAU_Container_proxy@0@AAPAU10@$$QA$$T@Z
_TEXT	SEGMENT
__Old_val$ = -4						; size = 4
__Val$ = 8						; size = 4
__New_val$ = 12						; size = 4
??$exchange@PAU_Container_proxy@std@@$$T@std@@YAPAU_Container_proxy@0@AAPAU10@$$QA$$T@Z PROC ; std::exchange<std::_Container_proxy *,std::nullptr_t>, COMDAT

; 614  :     conjunction_v<is_nothrow_move_constructible<_Ty>, is_nothrow_assignable<_Ty&, _Other>>) /* strengthened */ {

  00000	55		 push	 ebp
  00001	8b ec		 mov	 ebp, esp
  00003	51		 push	 ecx
  00004	c7 45 fc cc cc
	cc cc		 mov	 DWORD PTR [ebp-4], -858993460 ; ccccccccH
  0000b	b9 00 00 00 00	 mov	 ecx, OFFSET __1347750E_utility
  00010	e8 00 00 00 00	 call	 @__CheckForDebuggerJustMyCode@4

; 615  :     // assign _New_val to _Val, return previous _Val
; 616  :     _Ty _Old_val = static_cast<_Ty&&>(_Val);

  00015	8b 45 08	 mov	 eax, DWORD PTR __Val$[ebp]
  00018	8b 08		 mov	 ecx, DWORD PTR [eax]
  0001a	89 4d fc	 mov	 DWORD PTR __Old_val$[ebp], ecx

; 617  :     _Val         = static_cast<_Other&&>(_New_val);

  0001d	8b 55 08	 mov	 edx, DWORD PTR __Val$[ebp]
  00020	8b 45 0c	 mov	 eax, DWORD PTR __New_val$[ebp]
  00023	8b 08		 mov	 ecx, DWORD PTR [eax]
  00025	89 0a		 mov	 DWORD PTR [edx], ecx

; 618  :     return _Old_val;

  00027	8b 45 fc	 mov	 eax, DWORD PTR __Old_val$[ebp]

; 619  : }

  0002a	83 c4 04	 add	 esp, 4
  0002d	3b ec		 cmp	 ebp, esp
  0002f	e8 00 00 00 00	 call	 __RTC_CheckEsp
  00034	8b e5		 mov	 esp, ebp
  00036	5d		 pop	 ebp
  00037	c3		 ret	 0
??$exchange@PAU_Container_proxy@std@@$$T@std@@YAPAU_Container_proxy@0@AAPAU10@$$QA$$T@Z ENDP ; std::exchange<std::_Container_proxy *,std::nullptr_t>
_TEXT	ENDS
; Function compile flags: /Odtp /RTCsu
; File C:\Program Files (x86)\Microsoft Visual Studio\2019\Community\VC\Tools\MSVC\14.29.30133\include\xmemory
;	COMDAT ??$?0PAVTexture@sf@@@?$allocator@U_Container_proxy@std@@@std@@QAE@ABV?$allocator@PAVTexture@sf@@@1@@Z
_TEXT	SEGMENT
_this$ = -4						; size = 4
___formal$ = 8						; size = 4
??$?0PAVTexture@sf@@@?$allocator@U_Container_proxy@std@@@std@@QAE@ABV?$allocator@PAVTexture@sf@@@1@@Z PROC ; std::allocator<std::_Container_proxy>::allocator<std::_Container_proxy><sf::Texture *>, COMDAT
; _this$ = ecx

; 829  :     constexpr allocator(const allocator<_Other>&) noexcept {}

  00000	55		 push	 ebp
  00001	8b ec		 mov	 ebp, esp
  00003	51		 push	 ecx
  00004	c7 45 fc cc cc
	cc cc		 mov	 DWORD PTR [ebp-4], -858993460 ; ccccccccH
  0000b	89 4d fc	 mov	 DWORD PTR _this$[ebp], ecx
  0000e	b9 00 00 00 00	 mov	 ecx, OFFSET __79D216CD_xmemory
  00013	e8 00 00 00 00	 call	 @__CheckForDebuggerJustMyCode@4
  00018	8b 45 fc	 mov	 eax, DWORD PTR _this$[ebp]
  0001b	83 c4 04	 add	 esp, 4
  0001e	3b ec		 cmp	 ebp, esp
  00020	e8 00 00 00 00	 call	 __RTC_CheckEsp
  00025	8b e5		 mov	 esp, ebp
  00027	5d		 pop	 ebp
  00028	c2 04 00	 ret	 4
??$?0PAVTexture@sf@@@?$allocator@U_Container_proxy@std@@@std@@QAE@ABV?$allocator@PAVTexture@sf@@@1@@Z ENDP ; std::allocator<std::_Container_proxy>::allocator<std::_Container_proxy><sf::Texture *>
_TEXT	ENDS
; Function compile flags: /Odtp /RTCsu
; File C:\Program Files (x86)\Microsoft Visual Studio\2019\Community\VC\Tools\MSVC\14.29.30133\include\xmemory
;	COMDAT ?allocate@?$allocator@U_Container_proxy@std@@@std@@QAEPAU_Container_proxy@2@I@Z
_TEXT	SEGMENT
_this$ = -4						; size = 4
__Count$ = 8						; size = 4
?allocate@?$allocator@U_Container_proxy@std@@@std@@QAEPAU_Container_proxy@2@I@Z PROC ; std::allocator<std::_Container_proxy>::allocate, COMDAT
; _this$ = ecx

; 838  :     _NODISCARD _CONSTEXPR20_DYNALLOC __declspec(allocator) _Ty* allocate(_CRT_GUARDOVERFLOW const size_t _Count) {

  00000	55		 push	 ebp
  00001	8b ec		 mov	 ebp, esp
  00003	51		 push	 ecx
  00004	c7 45 fc cc cc
	cc cc		 mov	 DWORD PTR [ebp-4], -858993460 ; ccccccccH
  0000b	89 4d fc	 mov	 DWORD PTR _this$[ebp], ecx
  0000e	b9 00 00 00 00	 mov	 ecx, OFFSET __79D216CD_xmemory
  00013	e8 00 00 00 00	 call	 @__CheckForDebuggerJustMyCode@4

; 839  :         return static_cast<_Ty*>(_Allocate<_New_alignof<_Ty>>(_Get_size_of_n<sizeof(_Ty)>(_Count)));

  00018	8b 45 08	 mov	 eax, DWORD PTR __Count$[ebp]
  0001b	50		 push	 eax
  0001c	e8 00 00 00 00	 call	 ??$_Get_size_of_n@$07@std@@YAII@Z ; std::_Get_size_of_n<8>
  00021	83 c4 04	 add	 esp, 4
  00024	50		 push	 eax
  00025	e8 00 00 00 00	 call	 ??$_Allocate@$07U_Default_allocate_traits@std@@$0A@@std@@YAPAXI@Z ; std::_Allocate<8,std::_Default_allocate_traits,0>
  0002a	83 c4 04	 add	 esp, 4

; 840  :     }

  0002d	83 c4 04	 add	 esp, 4
  00030	3b ec		 cmp	 ebp, esp
  00032	e8 00 00 00 00	 call	 __RTC_CheckEsp
  00037	8b e5		 mov	 esp, ebp
  00039	5d		 pop	 ebp
  0003a	c2 04 00	 ret	 4
?allocate@?$allocator@U_Container_proxy@std@@@std@@QAEPAU_Container_proxy@2@I@Z ENDP ; std::allocator<std::_Container_proxy>::allocate
_TEXT	ENDS
; Function compile flags: /Odtp /RTCsu
; File C:\Program Files (x86)\Microsoft Visual Studio\2019\Community\VC\Tools\MSVC\14.29.30133\include\xmemory
;	COMDAT ?deallocate@?$allocator@U_Container_proxy@std@@@std@@QAEXQAU_Container_proxy@2@I@Z
_TEXT	SEGMENT
_this$ = -4						; size = 4
__Ptr$ = 8						; size = 4
__Count$ = 12						; size = 4
?deallocate@?$allocator@U_Container_proxy@std@@@std@@QAEXQAU_Container_proxy@2@I@Z PROC ; std::allocator<std::_Container_proxy>::deallocate, COMDAT
; _this$ = ecx

; 833  :     _CONSTEXPR20_DYNALLOC void deallocate(_Ty* const _Ptr, const size_t _Count) {

  00000	55		 push	 ebp
  00001	8b ec		 mov	 ebp, esp
  00003	51		 push	 ecx
  00004	c7 45 fc cc cc
	cc cc		 mov	 DWORD PTR [ebp-4], -858993460 ; ccccccccH
  0000b	89 4d fc	 mov	 DWORD PTR _this$[ebp], ecx
  0000e	b9 00 00 00 00	 mov	 ecx, OFFSET __79D216CD_xmemory
  00013	e8 00 00 00 00	 call	 @__CheckForDebuggerJustMyCode@4

; 834  :         // no overflow check on the following multiply; we assume _Allocate did that check
; 835  :         _Deallocate<_New_alignof<_Ty>>(_Ptr, sizeof(_Ty) * _Count);

  00018	8b 45 0c	 mov	 eax, DWORD PTR __Count$[ebp]
  0001b	c1 e0 03	 shl	 eax, 3
  0001e	50		 push	 eax
  0001f	8b 4d 08	 mov	 ecx, DWORD PTR __Ptr$[ebp]
  00022	51		 push	 ecx
  00023	e8 00 00 00 00	 call	 ??$_Deallocate@$07$0A@@std@@YAXPAXI@Z ; std::_Deallocate<8,0>
  00028	83 c4 08	 add	 esp, 8

; 836  :     }

  0002b	83 c4 04	 add	 esp, 4
  0002e	3b ec		 cmp	 ebp, esp
  00030	e8 00 00 00 00	 call	 __RTC_CheckEsp
  00035	8b e5		 mov	 esp, ebp
  00037	5d		 pop	 ebp
  00038	c2 08 00	 ret	 8
?deallocate@?$allocator@U_Container_proxy@std@@@std@@QAEXQAU_Container_proxy@2@I@Z ENDP ; std::allocator<std::_Container_proxy>::deallocate
_TEXT	ENDS
; Function compile flags: /Odtp /RTCsu
; File C:\Program Files (x86)\Microsoft Visual Studio\2019\Community\VC\Tools\MSVC\14.29.30133\include\vector
;	COMDAT ??$_Emplace_reallocate@ABQAVTexture@sf@@@?$vector@PAVTexture@sf@@V?$allocator@PAVTexture@sf@@@std@@@std@@QAEPAPAVTexture@sf@@QAPAV23@ABQAV23@@Z
_TEXT	SEGMENT
tv132 = -72						; size = 4
tv134 = -68						; size = 4
__Constructed_first$ = -64				; size = 4
__Constructed_last$ = -60				; size = 4
__Newvec$ = -56						; size = 4
__Newcapacity$ = -52					; size = 4
__Newsize$ = -48					; size = 4
__Oldsize$ = -44					; size = 4
__Whereoff$ = -40					; size = 4
__Mylast$ = -36						; size = 4
__Myfirst$ = -32					; size = 4
__My_data$ = -28					; size = 4
__Al$ = -24						; size = 4
_this$ = -20						; size = 4
__$EHRec$ = -16						; size = 16
__Whereptr$ = 8						; size = 4
_<_Val_0>$ = 12						; size = 4
??$_Emplace_reallocate@ABQAVTexture@sf@@@?$vector@PAVTexture@sf@@V?$allocator@PAVTexture@sf@@@std@@@std@@QAEPAPAVTexture@sf@@QAPAV23@ABQAV23@@Z PROC ; std::vector<sf::Texture *,std::allocator<sf::Texture *> >::_Emplace_reallocate<sf::Texture * const &>, COMDAT
; _this$ = ecx

; 765  :     _CONSTEXPR20_CONTAINER pointer _Emplace_reallocate(const pointer _Whereptr, _Valty&&... _Val) {

  00000	55		 push	 ebp
  00001	8b ec		 mov	 ebp, esp
  00003	6a ff		 push	 -1
  00005	68 00 00 00 00	 push	 __ehhandler$??$_Emplace_reallocate@ABQAVTexture@sf@@@?$vector@PAVTexture@sf@@V?$allocator@PAVTexture@sf@@@std@@@std@@QAEPAPAVTexture@sf@@QAPAV23@ABQAV23@@Z
  0000a	64 a1 00 00 00
	00		 mov	 eax, DWORD PTR fs:0
  00010	50		 push	 eax
  00011	51		 push	 ecx
  00012	83 ec 38	 sub	 esp, 56			; 00000038H
  00015	53		 push	 ebx
  00016	56		 push	 esi
  00017	57		 push	 edi
  00018	51		 push	 ecx
  00019	8d 7d b8	 lea	 edi, DWORD PTR [ebp-72]
  0001c	b9 0e 00 00 00	 mov	 ecx, 14			; 0000000eH
  00021	b8 cc cc cc cc	 mov	 eax, -858993460		; ccccccccH
  00026	f3 ab		 rep stosd
  00028	59		 pop	 ecx
  00029	a1 00 00 00 00	 mov	 eax, DWORD PTR ___security_cookie
  0002e	33 c5		 xor	 eax, ebp
  00030	50		 push	 eax
  00031	8d 45 f4	 lea	 eax, DWORD PTR __$EHRec$[ebp+4]
  00034	64 a3 00 00 00
	00		 mov	 DWORD PTR fs:0, eax
  0003a	89 65 f0	 mov	 DWORD PTR __$EHRec$[ebp], esp
  0003d	89 4d ec	 mov	 DWORD PTR _this$[ebp], ecx
  00040	b9 00 00 00 00	 mov	 ecx, OFFSET __324884E2_vector
  00045	e8 00 00 00 00	 call	 @__CheckForDebuggerJustMyCode@4

; 766  :         // reallocate and insert by perfectly forwarding _Val at _Whereptr
; 767  :         _Alty& _Al        = _Getal();

  0004a	8b 4d ec	 mov	 ecx, DWORD PTR _this$[ebp]
  0004d	e8 00 00 00 00	 call	 ?_Getal@?$vector@PAVTexture@sf@@V?$allocator@PAVTexture@sf@@@std@@@std@@AAEAAV?$allocator@PAVTexture@sf@@@2@XZ ; std::vector<sf::Texture *,std::allocator<sf::Texture *> >::_Getal
  00052	89 45 e8	 mov	 DWORD PTR __Al$[ebp], eax

; 768  :         auto& _My_data    = _Mypair._Myval2;

  00055	8b 45 ec	 mov	 eax, DWORD PTR _this$[ebp]
  00058	89 45 e4	 mov	 DWORD PTR __My_data$[ebp], eax

; 769  :         pointer& _Myfirst = _My_data._Myfirst;

  0005b	8b 4d e4	 mov	 ecx, DWORD PTR __My_data$[ebp]
  0005e	83 c1 04	 add	 ecx, 4
  00061	89 4d e0	 mov	 DWORD PTR __Myfirst$[ebp], ecx

; 770  :         pointer& _Mylast  = _My_data._Mylast;

  00064	8b 55 e4	 mov	 edx, DWORD PTR __My_data$[ebp]
  00067	83 c2 08	 add	 edx, 8
  0006a	89 55 dc	 mov	 DWORD PTR __Mylast$[ebp], edx

; 771  : 
; 772  :         _STL_INTERNAL_CHECK(_Mylast == _My_data._Myend); // check that we have no unused capacity
; 773  : 
; 774  :         const auto _Whereoff = static_cast<size_type>(_Whereptr - _Myfirst);

  0006d	8b 45 e0	 mov	 eax, DWORD PTR __Myfirst$[ebp]
  00070	8b 4d 08	 mov	 ecx, DWORD PTR __Whereptr$[ebp]
  00073	2b 08		 sub	 ecx, DWORD PTR [eax]
  00075	c1 f9 02	 sar	 ecx, 2
  00078	89 4d d8	 mov	 DWORD PTR __Whereoff$[ebp], ecx

; 775  :         const auto _Oldsize  = static_cast<size_type>(_Mylast - _Myfirst);

  0007b	8b 55 dc	 mov	 edx, DWORD PTR __Mylast$[ebp]
  0007e	8b 45 e0	 mov	 eax, DWORD PTR __Myfirst$[ebp]
  00081	8b 0a		 mov	 ecx, DWORD PTR [edx]
  00083	2b 08		 sub	 ecx, DWORD PTR [eax]
  00085	c1 f9 02	 sar	 ecx, 2
  00088	89 4d d4	 mov	 DWORD PTR __Oldsize$[ebp], ecx

; 776  : 
; 777  :         if (_Oldsize == max_size()) {

  0008b	8b 4d ec	 mov	 ecx, DWORD PTR _this$[ebp]
  0008e	e8 00 00 00 00	 call	 ?max_size@?$vector@PAVTexture@sf@@V?$allocator@PAVTexture@sf@@@std@@@std@@QBEIXZ ; std::vector<sf::Texture *,std::allocator<sf::Texture *> >::max_size
  00093	39 45 d4	 cmp	 DWORD PTR __Oldsize$[ebp], eax
  00096	75 05		 jne	 SHORT $LN2@Emplace_re

; 778  :             _Xlength();

  00098	e8 00 00 00 00	 call	 ?_Xlength@?$vector@PAVTexture@sf@@V?$allocator@PAVTexture@sf@@@std@@@std@@CAXXZ ; std::vector<sf::Texture *,std::allocator<sf::Texture *> >::_Xlength
$LN2@Emplace_re:

; 779  :         }
; 780  : 
; 781  :         const size_type _Newsize     = _Oldsize + 1;

  0009d	8b 55 d4	 mov	 edx, DWORD PTR __Oldsize$[ebp]
  000a0	83 c2 01	 add	 edx, 1
  000a3	89 55 d0	 mov	 DWORD PTR __Newsize$[ebp], edx

; 782  :         const size_type _Newcapacity = _Calculate_growth(_Newsize);

  000a6	8b 45 d0	 mov	 eax, DWORD PTR __Newsize$[ebp]
  000a9	50		 push	 eax
  000aa	8b 4d ec	 mov	 ecx, DWORD PTR _this$[ebp]
  000ad	e8 00 00 00 00	 call	 ?_Calculate_growth@?$vector@PAVTexture@sf@@V?$allocator@PAVTexture@sf@@@std@@@std@@ABEII@Z ; std::vector<sf::Texture *,std::allocator<sf::Texture *> >::_Calculate_growth
  000b2	89 45 cc	 mov	 DWORD PTR __Newcapacity$[ebp], eax

; 783  : 
; 784  :         const pointer _Newvec           = _Al.allocate(_Newcapacity);

  000b5	8b 4d cc	 mov	 ecx, DWORD PTR __Newcapacity$[ebp]
  000b8	51		 push	 ecx
  000b9	8b 4d e8	 mov	 ecx, DWORD PTR __Al$[ebp]
  000bc	e8 00 00 00 00	 call	 ?allocate@?$allocator@PAVTexture@sf@@@std@@QAEPAPAVTexture@sf@@I@Z ; std::allocator<sf::Texture *>::allocate
  000c1	89 45 c8	 mov	 DWORD PTR __Newvec$[ebp], eax

; 785  :         const pointer _Constructed_last = _Newvec + _Whereoff + 1;

  000c4	8b 55 d8	 mov	 edx, DWORD PTR __Whereoff$[ebp]
  000c7	8b 45 c8	 mov	 eax, DWORD PTR __Newvec$[ebp]
  000ca	8d 4c 90 04	 lea	 ecx, DWORD PTR [eax+edx*4+4]
  000ce	89 4d c4	 mov	 DWORD PTR __Constructed_last$[ebp], ecx

; 786  :         pointer _Constructed_first      = _Constructed_last;

  000d1	8b 55 c4	 mov	 edx, DWORD PTR __Constructed_last$[ebp]
  000d4	89 55 c0	 mov	 DWORD PTR __Constructed_first$[ebp], edx

; 787  : 
; 788  :         _TRY_BEGIN

  000d7	c7 45 fc 00 00
	00 00		 mov	 DWORD PTR __$EHRec$[ebp+12], 0

; 789  :         _Alty_traits::construct(_Al, _Unfancy(_Newvec + _Whereoff), _STD forward<_Valty>(_Val)...);

  000de	8b 45 0c	 mov	 eax, DWORD PTR _<_Val_0>$[ebp]
  000e1	50		 push	 eax
  000e2	e8 00 00 00 00	 call	 ??$forward@ABQAVTexture@sf@@@std@@YAABQAVTexture@sf@@ABQAV12@@Z ; std::forward<sf::Texture * const &>
  000e7	83 c4 04	 add	 esp, 4
  000ea	89 45 bc	 mov	 DWORD PTR tv134[ebp], eax
  000ed	8b 4d d8	 mov	 ecx, DWORD PTR __Whereoff$[ebp]
  000f0	8b 55 c8	 mov	 edx, DWORD PTR __Newvec$[ebp]
  000f3	8d 04 8a	 lea	 eax, DWORD PTR [edx+ecx*4]
  000f6	50		 push	 eax
  000f7	e8 00 00 00 00	 call	 ??$_Unfancy@PAVTexture@sf@@@std@@YAPAPAVTexture@sf@@PAPAV12@@Z ; std::_Unfancy<sf::Texture *>
  000fc	83 c4 04	 add	 esp, 4
  000ff	89 45 b8	 mov	 DWORD PTR tv132[ebp], eax
  00102	8b 4d bc	 mov	 ecx, DWORD PTR tv134[ebp]
  00105	51		 push	 ecx
  00106	8b 55 b8	 mov	 edx, DWORD PTR tv132[ebp]
  00109	52		 push	 edx
  0010a	8b 45 e8	 mov	 eax, DWORD PTR __Al$[ebp]
  0010d	50		 push	 eax
  0010e	e8 00 00 00 00	 call	 ??$construct@PAVTexture@sf@@ABQAV12@@?$_Default_allocator_traits@V?$allocator@PAVTexture@sf@@@std@@@std@@SAXAAV?$allocator@PAVTexture@sf@@@1@QAPAVTexture@sf@@ABQAV34@@Z ; std::_Default_allocator_traits<std::allocator<sf::Texture *> >::construct<sf::Texture *,sf::Texture * const &>
  00113	83 c4 0c	 add	 esp, 12			; 0000000cH

; 790  :         _Constructed_first = _Newvec + _Whereoff;

  00116	8b 4d d8	 mov	 ecx, DWORD PTR __Whereoff$[ebp]
  00119	8b 55 c8	 mov	 edx, DWORD PTR __Newvec$[ebp]
  0011c	8d 04 8a	 lea	 eax, DWORD PTR [edx+ecx*4]
  0011f	89 45 c0	 mov	 DWORD PTR __Constructed_first$[ebp], eax

; 791  : 
; 792  :         if (_Whereptr == _Mylast) { // at back, provide strong guarantee

  00122	8b 4d dc	 mov	 ecx, DWORD PTR __Mylast$[ebp]
  00125	8b 55 08	 mov	 edx, DWORD PTR __Whereptr$[ebp]
  00128	3b 11		 cmp	 edx, DWORD PTR [ecx]
  0012a	75 1a		 jne	 SHORT $LN4@Emplace_re

; 793  :             _Umove_if_noexcept(_Myfirst, _Mylast, _Newvec);

  0012c	8b 45 c8	 mov	 eax, DWORD PTR __Newvec$[ebp]
  0012f	50		 push	 eax
  00130	8b 4d dc	 mov	 ecx, DWORD PTR __Mylast$[ebp]
  00133	8b 11		 mov	 edx, DWORD PTR [ecx]
  00135	52		 push	 edx
  00136	8b 45 e0	 mov	 eax, DWORD PTR __Myfirst$[ebp]
  00139	8b 08		 mov	 ecx, DWORD PTR [eax]
  0013b	51		 push	 ecx
  0013c	8b 4d ec	 mov	 ecx, DWORD PTR _this$[ebp]
  0013f	e8 00 00 00 00	 call	 ?_Umove_if_noexcept@?$vector@PAVTexture@sf@@V?$allocator@PAVTexture@sf@@@std@@@std@@AAEXPAPAVTexture@sf@@00@Z ; std::vector<sf::Texture *,std::allocator<sf::Texture *> >::_Umove_if_noexcept

; 794  :         } else { // provide basic guarantee

  00144	eb 39		 jmp	 SHORT $LN5@Emplace_re
$LN4@Emplace_re:

; 795  :             _Umove(_Myfirst, _Whereptr, _Newvec);

  00146	8b 55 c8	 mov	 edx, DWORD PTR __Newvec$[ebp]
  00149	52		 push	 edx
  0014a	8b 45 08	 mov	 eax, DWORD PTR __Whereptr$[ebp]
  0014d	50		 push	 eax
  0014e	8b 4d e0	 mov	 ecx, DWORD PTR __Myfirst$[ebp]
  00151	8b 11		 mov	 edx, DWORD PTR [ecx]
  00153	52		 push	 edx
  00154	8b 4d ec	 mov	 ecx, DWORD PTR _this$[ebp]
  00157	e8 00 00 00 00	 call	 ?_Umove@?$vector@PAVTexture@sf@@V?$allocator@PAVTexture@sf@@@std@@@std@@AAEPAPAVTexture@sf@@PAPAV34@00@Z ; std::vector<sf::Texture *,std::allocator<sf::Texture *> >::_Umove

; 796  :             _Constructed_first = _Newvec;

  0015c	8b 45 c8	 mov	 eax, DWORD PTR __Newvec$[ebp]
  0015f	89 45 c0	 mov	 DWORD PTR __Constructed_first$[ebp], eax

; 797  :             _Umove(_Whereptr, _Mylast, _Newvec + _Whereoff + 1);

  00162	8b 4d d8	 mov	 ecx, DWORD PTR __Whereoff$[ebp]
  00165	8b 55 c8	 mov	 edx, DWORD PTR __Newvec$[ebp]
  00168	8d 44 8a 04	 lea	 eax, DWORD PTR [edx+ecx*4+4]
  0016c	50		 push	 eax
  0016d	8b 4d dc	 mov	 ecx, DWORD PTR __Mylast$[ebp]
  00170	8b 11		 mov	 edx, DWORD PTR [ecx]
  00172	52		 push	 edx
  00173	8b 45 08	 mov	 eax, DWORD PTR __Whereptr$[ebp]
  00176	50		 push	 eax
  00177	8b 4d ec	 mov	 ecx, DWORD PTR _this$[ebp]
  0017a	e8 00 00 00 00	 call	 ?_Umove@?$vector@PAVTexture@sf@@V?$allocator@PAVTexture@sf@@@std@@@std@@AAEPAPAVTexture@sf@@PAPAV34@00@Z ; std::vector<sf::Texture *,std::allocator<sf::Texture *> >::_Umove
$LN5@Emplace_re:
  0017f	eb 2f		 jmp	 SHORT $LN7@Emplace_re
__catch$??$_Emplace_reallocate@ABQAVTexture@sf@@@?$vector@PAVTexture@sf@@V?$allocator@PAVTexture@sf@@@std@@@std@@QAEPAPAVTexture@sf@@QAPAV23@ABQAV23@@Z$0:

; 798  :         }
; 799  :         _CATCH_ALL
; 800  :         _Destroy(_Constructed_first, _Constructed_last);

  00181	8b 4d c4	 mov	 ecx, DWORD PTR __Constructed_last$[ebp]
  00184	51		 push	 ecx
  00185	8b 55 c0	 mov	 edx, DWORD PTR __Constructed_first$[ebp]
  00188	52		 push	 edx
  00189	8b 4d ec	 mov	 ecx, DWORD PTR _this$[ebp]
  0018c	e8 00 00 00 00	 call	 ?_Destroy@?$vector@PAVTexture@sf@@V?$allocator@PAVTexture@sf@@@std@@@std@@AAEXPAPAVTexture@sf@@0@Z ; std::vector<sf::Texture *,std::allocator<sf::Texture *> >::_Destroy

; 801  :         _Al.deallocate(_Newvec, _Newcapacity);

  00191	8b 45 cc	 mov	 eax, DWORD PTR __Newcapacity$[ebp]
  00194	50		 push	 eax
  00195	8b 4d c8	 mov	 ecx, DWORD PTR __Newvec$[ebp]
  00198	51		 push	 ecx
  00199	8b 4d e8	 mov	 ecx, DWORD PTR __Al$[ebp]
  0019c	e8 00 00 00 00	 call	 ?deallocate@?$allocator@PAVTexture@sf@@@std@@QAEXQAPAVTexture@sf@@I@Z ; std::allocator<sf::Texture *>::deallocate

; 802  :         _RERAISE;

  001a1	6a 00		 push	 0
  001a3	6a 00		 push	 0
  001a5	e8 00 00 00 00	 call	 __CxxThrowException@8

; 803  :         _CATCH_END

  001aa	b8 00 00 00 00	 mov	 eax, $LN10@Emplace_re
  001af	c3		 ret	 0
$LN7@Emplace_re:
  001b0	c7 45 fc ff ff
	ff ff		 mov	 DWORD PTR __$EHRec$[ebp+12], -1
  001b7	eb 07		 jmp	 SHORT __tryend$??$_Emplace_reallocate@ABQAVTexture@sf@@@?$vector@PAVTexture@sf@@V?$allocator@PAVTexture@sf@@@std@@@std@@QAEPAPAVTexture@sf@@QAPAV23@ABQAV23@@Z$1
$LN10@Emplace_re:
  001b9	c7 45 fc ff ff
	ff ff		 mov	 DWORD PTR __$EHRec$[ebp+12], -1
__tryend$??$_Emplace_reallocate@ABQAVTexture@sf@@@?$vector@PAVTexture@sf@@V?$allocator@PAVTexture@sf@@@std@@@std@@QAEPAPAVTexture@sf@@QAPAV23@ABQAV23@@Z$1:

; 804  : 
; 805  :         _Change_array(_Newvec, _Newsize, _Newcapacity);

  001c0	8b 55 cc	 mov	 edx, DWORD PTR __Newcapacity$[ebp]
  001c3	52		 push	 edx
  001c4	8b 45 d0	 mov	 eax, DWORD PTR __Newsize$[ebp]
  001c7	50		 push	 eax
  001c8	8b 4d c8	 mov	 ecx, DWORD PTR __Newvec$[ebp]
  001cb	51		 push	 ecx
  001cc	8b 4d ec	 mov	 ecx, DWORD PTR _this$[ebp]
  001cf	e8 00 00 00 00	 call	 ?_Change_array@?$vector@PAVTexture@sf@@V?$allocator@PAVTexture@sf@@@std@@@std@@AAEXQAPAVTexture@sf@@II@Z ; std::vector<sf::Texture *,std::allocator<sf::Texture *> >::_Change_array

; 806  :         return _Newvec + _Whereoff;

  001d4	8b 55 d8	 mov	 edx, DWORD PTR __Whereoff$[ebp]
  001d7	8b 45 c8	 mov	 eax, DWORD PTR __Newvec$[ebp]
  001da	8d 04 90	 lea	 eax, DWORD PTR [eax+edx*4]
$LN6@Emplace_re:

; 807  :     }

  001dd	8b 4d f4	 mov	 ecx, DWORD PTR __$EHRec$[ebp+4]
  001e0	64 89 0d 00 00
	00 00		 mov	 DWORD PTR fs:0, ecx
  001e7	59		 pop	 ecx
  001e8	5f		 pop	 edi
  001e9	5e		 pop	 esi
  001ea	5b		 pop	 ebx
  001eb	83 c4 48	 add	 esp, 72			; 00000048H
  001ee	3b ec		 cmp	 ebp, esp
  001f0	e8 00 00 00 00	 call	 __RTC_CheckEsp
  001f5	8b e5		 mov	 esp, ebp
  001f7	5d		 pop	 ebp
  001f8	c2 08 00	 ret	 8
  001fb	cc		 int	 3
  001fc	cc		 int	 3
  001fd	cc		 int	 3
  001fe	cc		 int	 3
  001ff	cc		 int	 3
_TEXT	ENDS
;	COMDAT text$x
text$x	SEGMENT
__ehhandler$??$_Emplace_reallocate@ABQAVTexture@sf@@@?$vector@PAVTexture@sf@@V?$allocator@PAVTexture@sf@@@std@@@std@@QAEPAPAVTexture@sf@@QAPAV23@ABQAV23@@Z:
  00000	90		 npad	 1
  00001	90		 npad	 1
  00002	8b 54 24 08	 mov	 edx, DWORD PTR [esp+8]
  00006	8d 42 0c	 lea	 eax, DWORD PTR [edx+12]
  00009	8b 4a b4	 mov	 ecx, DWORD PTR [edx-76]
  0000c	33 c8		 xor	 ecx, eax
  0000e	e8 00 00 00 00	 call	 @__security_check_cookie@4
  00013	b8 00 00 00 00	 mov	 eax, OFFSET __ehfuncinfo$??$_Emplace_reallocate@ABQAVTexture@sf@@@?$vector@PAVTexture@sf@@V?$allocator@PAVTexture@sf@@@std@@@std@@QAEPAPAVTexture@sf@@QAPAV23@ABQAV23@@Z
  00018	e9 00 00 00 00	 jmp	 ___CxxFrameHandler3
text$x	ENDS
??$_Emplace_reallocate@ABQAVTexture@sf@@@?$vector@PAVTexture@sf@@V?$allocator@PAVTexture@sf@@@std@@@std@@QAEPAPAVTexture@sf@@QAPAV23@ABQAV23@@Z ENDP ; std::vector<sf::Texture *,std::allocator<sf::Texture *> >::_Emplace_reallocate<sf::Texture * const &>
; Function compile flags: /Odtp /RTCsu
; File C:\Program Files (x86)\Microsoft Visual Studio\2019\Community\VC\Tools\MSVC\14.29.30133\include\xmemory
;	COMDAT ??$construct@PAVTexture@sf@@ABQAV12@@?$_Default_allocator_traits@V?$allocator@PAVTexture@sf@@@std@@@std@@SAXAAV?$allocator@PAVTexture@sf@@@1@QAPAVTexture@sf@@ABQAV34@@Z
_TEXT	SEGMENT
$T1 = -4						; size = 4
___formal$ = 8						; size = 4
__Ptr$ = 12						; size = 4
_<_Args_0>$ = 16					; size = 4
??$construct@PAVTexture@sf@@ABQAV12@@?$_Default_allocator_traits@V?$allocator@PAVTexture@sf@@@std@@@std@@SAXAAV?$allocator@PAVTexture@sf@@@1@QAPAVTexture@sf@@ABQAV34@@Z PROC ; std::_Default_allocator_traits<std::allocator<sf::Texture *> >::construct<sf::Texture *,sf::Texture * const &>, COMDAT

; 707  :     static _CONSTEXPR20_DYNALLOC void construct(_Alloc&, _Objty* const _Ptr, _Types&&... _Args) {

  00000	55		 push	 ebp
  00001	8b ec		 mov	 ebp, esp
  00003	51		 push	 ecx
  00004	c7 45 fc cc cc
	cc cc		 mov	 DWORD PTR [ebp-4], -858993460 ; ccccccccH
  0000b	b9 00 00 00 00	 mov	 ecx, OFFSET __79D216CD_xmemory
  00010	e8 00 00 00 00	 call	 @__CheckForDebuggerJustMyCode@4

; 708  : #ifdef __cpp_lib_constexpr_dynamic_alloc
; 709  :         if (_STD is_constant_evaluated()) {

  00015	e8 00 00 00 00	 call	 ?is_constant_evaluated@std@@YA_NXZ ; std::is_constant_evaluated
  0001a	0f b6 c0	 movzx	 eax, al
  0001d	85 c0		 test	 eax, eax
  0001f	74 1b		 je	 SHORT $LN2@construct

; 710  :             _STD construct_at(_Ptr, _STD forward<_Types>(_Args)...);

  00021	8b 4d 10	 mov	 ecx, DWORD PTR _<_Args_0>$[ebp]
  00024	51		 push	 ecx
  00025	e8 00 00 00 00	 call	 ??$forward@ABQAVTexture@sf@@@std@@YAABQAVTexture@sf@@ABQAV12@@Z ; std::forward<sf::Texture * const &>
  0002a	83 c4 04	 add	 esp, 4
  0002d	50		 push	 eax
  0002e	8b 55 0c	 mov	 edx, DWORD PTR __Ptr$[ebp]
  00031	52		 push	 edx
  00032	e8 00 00 00 00	 call	 ??$construct_at@PAVTexture@sf@@ABQAV12@X@std@@YAPAPAVTexture@sf@@QAPAV12@ABQAV12@@Z ; std::construct_at<sf::Texture *,sf::Texture * const &,void>
  00037	83 c4 08	 add	 esp, 8

; 711  :         } else

  0003a	eb 2d		 jmp	 SHORT $LN1@construct
$LN2@construct:

; 707  :     static _CONSTEXPR20_DYNALLOC void construct(_Alloc&, _Objty* const _Ptr, _Types&&... _Args) {

  0003c	8b 45 0c	 mov	 eax, DWORD PTR __Ptr$[ebp]
  0003f	50		 push	 eax
  00040	e8 00 00 00 00	 call	 ??$_Voidify_iter@PAPAVTexture@sf@@@std@@YAPAXPAPAVTexture@sf@@@Z ; std::_Voidify_iter<sf::Texture * *>
  00045	83 c4 04	 add	 esp, 4
  00048	50		 push	 eax
  00049	6a 04		 push	 4
  0004b	e8 00 00 00 00	 call	 ??2@YAPAXIPAX@Z		; operator new
  00050	83 c4 08	 add	 esp, 8
  00053	89 45 fc	 mov	 DWORD PTR $T1[ebp], eax
  00056	8b 4d 10	 mov	 ecx, DWORD PTR _<_Args_0>$[ebp]
  00059	51		 push	 ecx
  0005a	e8 00 00 00 00	 call	 ??$forward@ABQAVTexture@sf@@@std@@YAABQAVTexture@sf@@ABQAV12@@Z ; std::forward<sf::Texture * const &>
  0005f	83 c4 04	 add	 esp, 4
  00062	8b 55 fc	 mov	 edx, DWORD PTR $T1[ebp]
  00065	8b 00		 mov	 eax, DWORD PTR [eax]
  00067	89 02		 mov	 DWORD PTR [edx], eax
$LN1@construct:

; 712  : #endif // __cpp_lib_constexpr_dynamic_alloc
; 713  :         {
; 714  :             ::new (_Voidify_iter(_Ptr)) _Objty(_STD forward<_Types>(_Args)...);
; 715  :         }
; 716  :     }

  00069	83 c4 04	 add	 esp, 4
  0006c	3b ec		 cmp	 ebp, esp
  0006e	e8 00 00 00 00	 call	 __RTC_CheckEsp
  00073	8b e5		 mov	 esp, ebp
  00075	5d		 pop	 ebp
  00076	c3		 ret	 0
??$construct@PAVTexture@sf@@ABQAV12@@?$_Default_allocator_traits@V?$allocator@PAVTexture@sf@@@std@@@std@@SAXAAV?$allocator@PAVTexture@sf@@@1@QAPAVTexture@sf@@ABQAV34@@Z ENDP ; std::_Default_allocator_traits<std::allocator<sf::Texture *> >::construct<sf::Texture *,sf::Texture * const &>
_TEXT	ENDS
; Function compile flags: /Odtp /RTCsu
; File C:\Program Files (x86)\Microsoft Visual Studio\2019\Community\VC\Tools\MSVC\14.29.30133\include\xstddef
;	COMDAT ??$_Unfancy@PAVTexture@sf@@@std@@YAPAPAVTexture@sf@@PAPAV12@@Z
_TEXT	SEGMENT
__Ptr$ = 8						; size = 4
??$_Unfancy@PAVTexture@sf@@@std@@YAPAPAVTexture@sf@@PAPAV12@@Z PROC ; std::_Unfancy<sf::Texture *>, COMDAT

; 288  : _NODISCARD constexpr _Ty* _Unfancy(_Ty* _Ptr) noexcept { // do nothing for plain pointers

  00000	55		 push	 ebp
  00001	8b ec		 mov	 ebp, esp
  00003	b9 00 00 00 00	 mov	 ecx, OFFSET __E458E21C_xstddef
  00008	e8 00 00 00 00	 call	 @__CheckForDebuggerJustMyCode@4

; 289  :     return _Ptr;

  0000d	8b 45 08	 mov	 eax, DWORD PTR __Ptr$[ebp]

; 290  : }

  00010	3b ec		 cmp	 ebp, esp
  00012	e8 00 00 00 00	 call	 __RTC_CheckEsp
  00017	5d		 pop	 ebp
  00018	c3		 ret	 0
??$_Unfancy@PAVTexture@sf@@@std@@YAPAPAVTexture@sf@@PAPAV12@@Z ENDP ; std::_Unfancy<sf::Texture *>
_TEXT	ENDS
; Function compile flags: /Odtp /RTCsu
; File C:\Program Files (x86)\Microsoft Visual Studio\2019\Community\VC\Tools\MSVC\14.29.30133\include\vector
;	COMDAT ??$_Emplace_back_with_unused_capacity@ABQAVTexture@sf@@@?$vector@PAVTexture@sf@@V?$allocator@PAVTexture@sf@@@std@@@std@@AAE?A_TABQAVTexture@sf@@@Z
_TEXT	SEGMENT
tv77 = -28						; size = 4
tv79 = -24						; size = 4
tv81 = -20						; size = 4
__Result$ = -16						; size = 4
__Mylast$ = -12						; size = 4
__My_data$ = -8						; size = 4
_this$ = -4						; size = 4
_<_Val_0>$ = 8						; size = 4
??$_Emplace_back_with_unused_capacity@ABQAVTexture@sf@@@?$vector@PAVTexture@sf@@V?$allocator@PAVTexture@sf@@@std@@@std@@AAE?A_TABQAVTexture@sf@@@Z PROC ; std::vector<sf::Texture *,std::allocator<sf::Texture *> >::_Emplace_back_with_unused_capacity<sf::Texture * const &>, COMDAT
; _this$ = ecx

; 721  :     _CONSTEXPR20_CONTAINER decltype(auto) _Emplace_back_with_unused_capacity(_Valty&&... _Val) {

  00000	55		 push	 ebp
  00001	8b ec		 mov	 ebp, esp
  00003	83 ec 1c	 sub	 esp, 28			; 0000001cH
  00006	b8 cc cc cc cc	 mov	 eax, -858993460		; ccccccccH
  0000b	89 45 e4	 mov	 DWORD PTR [ebp-28], eax
  0000e	89 45 e8	 mov	 DWORD PTR [ebp-24], eax
  00011	89 45 ec	 mov	 DWORD PTR [ebp-20], eax
  00014	89 45 f0	 mov	 DWORD PTR [ebp-16], eax
  00017	89 45 f4	 mov	 DWORD PTR [ebp-12], eax
  0001a	89 45 f8	 mov	 DWORD PTR [ebp-8], eax
  0001d	89 45 fc	 mov	 DWORD PTR [ebp-4], eax
  00020	89 4d fc	 mov	 DWORD PTR _this$[ebp], ecx
  00023	b9 00 00 00 00	 mov	 ecx, OFFSET __324884E2_vector
  00028	e8 00 00 00 00	 call	 @__CheckForDebuggerJustMyCode@4

; 722  :         // insert by perfectly forwarding into element at end, provide strong guarantee
; 723  :         auto& _My_data   = _Mypair._Myval2;

  0002d	8b 45 fc	 mov	 eax, DWORD PTR _this$[ebp]
  00030	89 45 f8	 mov	 DWORD PTR __My_data$[ebp], eax

; 724  :         pointer& _Mylast = _My_data._Mylast;

  00033	8b 4d f8	 mov	 ecx, DWORD PTR __My_data$[ebp]
  00036	83 c1 08	 add	 ecx, 8
  00039	89 4d f4	 mov	 DWORD PTR __Mylast$[ebp], ecx

; 725  :         _STL_INTERNAL_CHECK(_Mylast != _My_data._Myend); // check that we have unused capacity
; 726  :         _Alty_traits::construct(_Getal(), _Unfancy(_Mylast), _STD forward<_Valty>(_Val)...);

  0003c	8b 55 08	 mov	 edx, DWORD PTR _<_Val_0>$[ebp]
  0003f	52		 push	 edx
  00040	e8 00 00 00 00	 call	 ??$forward@ABQAVTexture@sf@@@std@@YAABQAVTexture@sf@@ABQAV12@@Z ; std::forward<sf::Texture * const &>
  00045	83 c4 04	 add	 esp, 4
  00048	89 45 ec	 mov	 DWORD PTR tv81[ebp], eax
  0004b	8b 45 f4	 mov	 eax, DWORD PTR __Mylast$[ebp]
  0004e	8b 08		 mov	 ecx, DWORD PTR [eax]
  00050	51		 push	 ecx
  00051	e8 00 00 00 00	 call	 ??$_Unfancy@PAVTexture@sf@@@std@@YAPAPAVTexture@sf@@PAPAV12@@Z ; std::_Unfancy<sf::Texture *>
  00056	83 c4 04	 add	 esp, 4
  00059	89 45 e8	 mov	 DWORD PTR tv79[ebp], eax
  0005c	8b 4d fc	 mov	 ecx, DWORD PTR _this$[ebp]
  0005f	e8 00 00 00 00	 call	 ?_Getal@?$vector@PAVTexture@sf@@V?$allocator@PAVTexture@sf@@@std@@@std@@AAEAAV?$allocator@PAVTexture@sf@@@2@XZ ; std::vector<sf::Texture *,std::allocator<sf::Texture *> >::_Getal
  00064	89 45 e4	 mov	 DWORD PTR tv77[ebp], eax
  00067	8b 55 ec	 mov	 edx, DWORD PTR tv81[ebp]
  0006a	52		 push	 edx
  0006b	8b 45 e8	 mov	 eax, DWORD PTR tv79[ebp]
  0006e	50		 push	 eax
  0006f	8b 4d e4	 mov	 ecx, DWORD PTR tv77[ebp]
  00072	51		 push	 ecx
  00073	e8 00 00 00 00	 call	 ??$construct@PAVTexture@sf@@ABQAV12@@?$_Default_allocator_traits@V?$allocator@PAVTexture@sf@@@std@@@std@@SAXAAV?$allocator@PAVTexture@sf@@@1@QAPAVTexture@sf@@ABQAV34@@Z ; std::_Default_allocator_traits<std::allocator<sf::Texture *> >::construct<sf::Texture *,sf::Texture * const &>
  00078	83 c4 0c	 add	 esp, 12			; 0000000cH

; 727  :         _Orphan_range(_Mylast, _Mylast);

  0007b	8b 55 f4	 mov	 edx, DWORD PTR __Mylast$[ebp]
  0007e	8b 02		 mov	 eax, DWORD PTR [edx]
  00080	50		 push	 eax
  00081	8b 4d f4	 mov	 ecx, DWORD PTR __Mylast$[ebp]
  00084	8b 11		 mov	 edx, DWORD PTR [ecx]
  00086	52		 push	 edx
  00087	8b 4d fc	 mov	 ecx, DWORD PTR _this$[ebp]
  0008a	e8 00 00 00 00	 call	 ?_Orphan_range@?$vector@PAVTexture@sf@@V?$allocator@PAVTexture@sf@@@std@@@std@@ABEXPAPAVTexture@sf@@0@Z ; std::vector<sf::Texture *,std::allocator<sf::Texture *> >::_Orphan_range

; 728  :         _Ty& _Result = *_Mylast;

  0008f	8b 45 f4	 mov	 eax, DWORD PTR __Mylast$[ebp]
  00092	8b 08		 mov	 ecx, DWORD PTR [eax]
  00094	89 4d f0	 mov	 DWORD PTR __Result$[ebp], ecx

; 729  :         ++_Mylast;

  00097	8b 55 f4	 mov	 edx, DWORD PTR __Mylast$[ebp]
  0009a	8b 02		 mov	 eax, DWORD PTR [edx]
  0009c	83 c0 04	 add	 eax, 4
  0009f	8b 4d f4	 mov	 ecx, DWORD PTR __Mylast$[ebp]
  000a2	89 01		 mov	 DWORD PTR [ecx], eax

; 730  : #if _HAS_CXX17
; 731  :         return _Result;

  000a4	8b 45 f0	 mov	 eax, DWORD PTR __Result$[ebp]

; 732  : #else // ^^^ _HAS_CXX17 ^^^ // vvv !_HAS_CXX17 vvv
; 733  :         (void) _Result;
; 734  : #endif // _HAS_CXX17
; 735  :     }

  000a7	83 c4 1c	 add	 esp, 28			; 0000001cH
  000aa	3b ec		 cmp	 ebp, esp
  000ac	e8 00 00 00 00	 call	 __RTC_CheckEsp
  000b1	8b e5		 mov	 esp, ebp
  000b3	5d		 pop	 ebp
  000b4	c2 04 00	 ret	 4
??$_Emplace_back_with_unused_capacity@ABQAVTexture@sf@@@?$vector@PAVTexture@sf@@V?$allocator@PAVTexture@sf@@@std@@@std@@AAE?A_TABQAVTexture@sf@@@Z ENDP ; std::vector<sf::Texture *,std::allocator<sf::Texture *> >::_Emplace_back_with_unused_capacity<sf::Texture * const &>
_TEXT	ENDS
; Function compile flags: /Odtp /RTCsu
; File C:\Program Files (x86)\Microsoft Visual Studio\2019\Community\VC\Tools\MSVC\14.29.30133\include\type_traits
;	COMDAT ??$forward@ABQAVTexture@sf@@@std@@YAABQAVTexture@sf@@ABQAV12@@Z
_TEXT	SEGMENT
__Arg$ = 8						; size = 4
??$forward@ABQAVTexture@sf@@@std@@YAABQAVTexture@sf@@ABQAV12@@Z PROC ; std::forward<sf::Texture * const &>, COMDAT

; 1443 :     remove_reference_t<_Ty>& _Arg) noexcept { // forward an lvalue as either an lvalue or an rvalue

  00000	55		 push	 ebp
  00001	8b ec		 mov	 ebp, esp
  00003	b9 00 00 00 00	 mov	 ecx, OFFSET __589FA321_type_traits
  00008	e8 00 00 00 00	 call	 @__CheckForDebuggerJustMyCode@4

; 1444 :     return static_cast<_Ty&&>(_Arg);

  0000d	8b 45 08	 mov	 eax, DWORD PTR __Arg$[ebp]

; 1445 : }

  00010	3b ec		 cmp	 ebp, esp
  00012	e8 00 00 00 00	 call	 __RTC_CheckEsp
  00017	5d		 pop	 ebp
  00018	c3		 ret	 0
??$forward@ABQAVTexture@sf@@@std@@YAABQAVTexture@sf@@ABQAV12@@Z ENDP ; std::forward<sf::Texture * const &>
_TEXT	ENDS
; Function compile flags: /Odtp /RTCsu
; File C:\Program Files (x86)\Microsoft Visual Studio\2019\Community\VC\Tools\MSVC\14.29.30133\include\vector
;	COMDAT ??$emplace_back@ABQAVTexture@sf@@@?$vector@PAVTexture@sf@@V?$allocator@PAVTexture@sf@@@std@@@std@@QAE?A_TABQAVTexture@sf@@@Z
_TEXT	SEGMENT
tv81 = -24						; size = 4
tv83 = -20						; size = 4
__Result$ = -16						; size = 4
__Mylast$ = -12						; size = 4
__My_data$ = -8						; size = 4
_this$ = -4						; size = 4
_<_Val_0>$ = 8						; size = 4
??$emplace_back@ABQAVTexture@sf@@@?$vector@PAVTexture@sf@@V?$allocator@PAVTexture@sf@@@std@@@std@@QAE?A_TABQAVTexture@sf@@@Z PROC ; std::vector<sf::Texture *,std::allocator<sf::Texture *> >::emplace_back<sf::Texture * const &>, COMDAT
; _this$ = ecx

; 739  :     _CONSTEXPR20_CONTAINER decltype(auto) emplace_back(_Valty&&... _Val) {

  00000	55		 push	 ebp
  00001	8b ec		 mov	 ebp, esp
  00003	83 ec 18	 sub	 esp, 24			; 00000018H
  00006	b8 cc cc cc cc	 mov	 eax, -858993460		; ccccccccH
  0000b	89 45 e8	 mov	 DWORD PTR [ebp-24], eax
  0000e	89 45 ec	 mov	 DWORD PTR [ebp-20], eax
  00011	89 45 f0	 mov	 DWORD PTR [ebp-16], eax
  00014	89 45 f4	 mov	 DWORD PTR [ebp-12], eax
  00017	89 45 f8	 mov	 DWORD PTR [ebp-8], eax
  0001a	89 45 fc	 mov	 DWORD PTR [ebp-4], eax
  0001d	89 4d fc	 mov	 DWORD PTR _this$[ebp], ecx
  00020	b9 00 00 00 00	 mov	 ecx, OFFSET __324884E2_vector
  00025	e8 00 00 00 00	 call	 @__CheckForDebuggerJustMyCode@4

; 740  :         // insert by perfectly forwarding into element at end, provide strong guarantee
; 741  :         auto& _My_data   = _Mypair._Myval2;

  0002a	8b 45 fc	 mov	 eax, DWORD PTR _this$[ebp]
  0002d	89 45 f8	 mov	 DWORD PTR __My_data$[ebp], eax

; 742  :         pointer& _Mylast = _My_data._Mylast;

  00030	8b 4d f8	 mov	 ecx, DWORD PTR __My_data$[ebp]
  00033	83 c1 08	 add	 ecx, 8
  00036	89 4d f4	 mov	 DWORD PTR __Mylast$[ebp], ecx

; 743  :         if (_Mylast != _My_data._Myend) {

  00039	8b 55 f4	 mov	 edx, DWORD PTR __Mylast$[ebp]
  0003c	8b 45 f8	 mov	 eax, DWORD PTR __My_data$[ebp]
  0003f	8b 0a		 mov	 ecx, DWORD PTR [edx]
  00041	3b 48 0c	 cmp	 ecx, DWORD PTR [eax+12]
  00044	74 17		 je	 SHORT $LN2@emplace_ba

; 744  :             return _Emplace_back_with_unused_capacity(_STD forward<_Valty>(_Val)...);

  00046	8b 55 08	 mov	 edx, DWORD PTR _<_Val_0>$[ebp]
  00049	52		 push	 edx
  0004a	e8 00 00 00 00	 call	 ??$forward@ABQAVTexture@sf@@@std@@YAABQAVTexture@sf@@ABQAV12@@Z ; std::forward<sf::Texture * const &>
  0004f	83 c4 04	 add	 esp, 4
  00052	50		 push	 eax
  00053	8b 4d fc	 mov	 ecx, DWORD PTR _this$[ebp]
  00056	e8 00 00 00 00	 call	 ??$_Emplace_back_with_unused_capacity@ABQAVTexture@sf@@@?$vector@PAVTexture@sf@@V?$allocator@PAVTexture@sf@@@std@@@std@@AAE?A_TABQAVTexture@sf@@@Z ; std::vector<sf::Texture *,std::allocator<sf::Texture *> >::_Emplace_back_with_unused_capacity<sf::Texture * const &>
  0005b	eb 2d		 jmp	 SHORT $LN1@emplace_ba
$LN2@emplace_ba:

; 745  :         }
; 746  : 
; 747  :         _Ty& _Result = *_Emplace_reallocate(_Mylast, _STD forward<_Valty>(_Val)...);

  0005d	8b 45 08	 mov	 eax, DWORD PTR _<_Val_0>$[ebp]
  00060	50		 push	 eax
  00061	e8 00 00 00 00	 call	 ??$forward@ABQAVTexture@sf@@@std@@YAABQAVTexture@sf@@ABQAV12@@Z ; std::forward<sf::Texture * const &>
  00066	83 c4 04	 add	 esp, 4
  00069	89 45 ec	 mov	 DWORD PTR tv83[ebp], eax
  0006c	8b 4d f4	 mov	 ecx, DWORD PTR __Mylast$[ebp]
  0006f	8b 11		 mov	 edx, DWORD PTR [ecx]
  00071	89 55 e8	 mov	 DWORD PTR tv81[ebp], edx
  00074	8b 45 ec	 mov	 eax, DWORD PTR tv83[ebp]
  00077	50		 push	 eax
  00078	8b 4d e8	 mov	 ecx, DWORD PTR tv81[ebp]
  0007b	51		 push	 ecx
  0007c	8b 4d fc	 mov	 ecx, DWORD PTR _this$[ebp]
  0007f	e8 00 00 00 00	 call	 ??$_Emplace_reallocate@ABQAVTexture@sf@@@?$vector@PAVTexture@sf@@V?$allocator@PAVTexture@sf@@@std@@@std@@QAEPAPAVTexture@sf@@QAPAV23@ABQAV23@@Z ; std::vector<sf::Texture *,std::allocator<sf::Texture *> >::_Emplace_reallocate<sf::Texture * const &>
  00084	89 45 f0	 mov	 DWORD PTR __Result$[ebp], eax

; 748  : #if _HAS_CXX17
; 749  :         return _Result;

  00087	8b 45 f0	 mov	 eax, DWORD PTR __Result$[ebp]
$LN1@emplace_ba:

; 750  : #else // ^^^ _HAS_CXX17 ^^^ // vvv !_HAS_CXX17 vvv
; 751  :         (void) _Result;
; 752  : #endif // _HAS_CXX17
; 753  :     }

  0008a	83 c4 18	 add	 esp, 24			; 00000018H
  0008d	3b ec		 cmp	 ebp, esp
  0008f	e8 00 00 00 00	 call	 __RTC_CheckEsp
  00094	8b e5		 mov	 esp, ebp
  00096	5d		 pop	 ebp
  00097	c2 04 00	 ret	 4
??$emplace_back@ABQAVTexture@sf@@@?$vector@PAVTexture@sf@@V?$allocator@PAVTexture@sf@@@std@@@std@@QAE?A_TABQAVTexture@sf@@@Z ENDP ; std::vector<sf::Texture *,std::allocator<sf::Texture *> >::emplace_back<sf::Texture * const &>
_TEXT	ENDS
; Function compile flags: /Odtp /RTCsu
;	COMDAT ??0?$_Vb_iterator@U?$_Wrap_alloc@V?$allocator@I@std@@@std@@@std@@QAE@PBIPBU_Container_base12@1@@Z
_TEXT	SEGMENT
_this$ = -4						; size = 4
___param0$ = 8						; size = 4
___param1$ = 12						; size = 4
??0?$_Vb_iterator@U?$_Wrap_alloc@V?$allocator@I@std@@@std@@@std@@QAE@PBIPBU_Container_base12@1@@Z PROC ; std::_Vb_iterator<std::_Wrap_alloc<std::allocator<unsigned int> > >::_Vb_iterator<std::_Wrap_alloc<std::allocator<unsigned int> > >, COMDAT
; _this$ = ecx
  00000	55		 push	 ebp
  00001	8b ec		 mov	 ebp, esp
  00003	51		 push	 ecx
  00004	c7 45 fc cc cc
	cc cc		 mov	 DWORD PTR [ebp-4], -858993460 ; ccccccccH
  0000b	89 4d fc	 mov	 DWORD PTR _this$[ebp], ecx
  0000e	8b 45 0c	 mov	 eax, DWORD PTR ___param1$[ebp]
  00011	50		 push	 eax
  00012	8b 4d 08	 mov	 ecx, DWORD PTR ___param0$[ebp]
  00015	51		 push	 ecx
  00016	8b 4d fc	 mov	 ecx, DWORD PTR _this$[ebp]
  00019	e8 00 00 00 00	 call	 ??0?$_Vb_const_iterator@U?$_Wrap_alloc@V?$allocator@I@std@@@std@@@std@@QAE@PBIPBU_Container_base12@1@@Z ; std::_Vb_const_iterator<std::_Wrap_alloc<std::allocator<unsigned int> > >::_Vb_const_iterator<std::_Wrap_alloc<std::allocator<unsigned int> > >
  0001e	8b 45 fc	 mov	 eax, DWORD PTR _this$[ebp]
  00021	83 c4 04	 add	 esp, 4
  00024	3b ec		 cmp	 ebp, esp
  00026	e8 00 00 00 00	 call	 __RTC_CheckEsp
  0002b	8b e5		 mov	 esp, ebp
  0002d	5d		 pop	 ebp
  0002e	c2 08 00	 ret	 8
??0?$_Vb_iterator@U?$_Wrap_alloc@V?$allocator@I@std@@@std@@@std@@QAE@PBIPBU_Container_base12@1@@Z ENDP ; std::_Vb_iterator<std::_Wrap_alloc<std::allocator<unsigned int> > >::_Vb_iterator<std::_Wrap_alloc<std::allocator<unsigned int> > >
_TEXT	ENDS
; Function compile flags: /Odtp /RTCsu
;	COMDAT ?__autoclassinit2@?$_Vb_iterator@U?$_Wrap_alloc@V?$allocator@I@std@@@std@@@std@@QAEXI@Z
_TEXT	SEGMENT
_this$ = -4						; size = 4
_classSize$ = 8						; size = 4
?__autoclassinit2@?$_Vb_iterator@U?$_Wrap_alloc@V?$allocator@I@std@@@std@@@std@@QAEXI@Z PROC ; std::_Vb_iterator<std::_Wrap_alloc<std::allocator<unsigned int> > >::__autoclassinit2, COMDAT
; _this$ = ecx
  00000	55		 push	 ebp
  00001	8b ec		 mov	 ebp, esp
  00003	51		 push	 ecx
  00004	c7 45 fc cc cc
	cc cc		 mov	 DWORD PTR [ebp-4], -858993460 ; ccccccccH
  0000b	89 4d fc	 mov	 DWORD PTR _this$[ebp], ecx
  0000e	8b 45 08	 mov	 eax, DWORD PTR _classSize$[ebp]
  00011	50		 push	 eax
  00012	6a 00		 push	 0
  00014	8b 4d fc	 mov	 ecx, DWORD PTR _this$[ebp]
  00017	51		 push	 ecx
  00018	e8 00 00 00 00	 call	 _memset
  0001d	83 c4 0c	 add	 esp, 12			; 0000000cH
  00020	83 c4 04	 add	 esp, 4
  00023	3b ec		 cmp	 ebp, esp
  00025	e8 00 00 00 00	 call	 __RTC_CheckEsp
  0002a	8b e5		 mov	 esp, ebp
  0002c	5d		 pop	 ebp
  0002d	c2 04 00	 ret	 4
?__autoclassinit2@?$_Vb_iterator@U?$_Wrap_alloc@V?$allocator@I@std@@@std@@@std@@QAEXI@Z ENDP ; std::_Vb_iterator<std::_Wrap_alloc<std::allocator<unsigned int> > >::__autoclassinit2
_TEXT	ENDS
; Function compile flags: /Odtp /RTCsu
;	COMDAT ??1?$_Vb_iterator@U?$_Wrap_alloc@V?$allocator@I@std@@@std@@@std@@QAE@XZ
_TEXT	SEGMENT
_this$ = -4						; size = 4
??1?$_Vb_iterator@U?$_Wrap_alloc@V?$allocator@I@std@@@std@@@std@@QAE@XZ PROC ; std::_Vb_iterator<std::_Wrap_alloc<std::allocator<unsigned int> > >::~_Vb_iterator<std::_Wrap_alloc<std::allocator<unsigned int> > >, COMDAT
; _this$ = ecx
  00000	55		 push	 ebp
  00001	8b ec		 mov	 ebp, esp
  00003	51		 push	 ecx
  00004	c7 45 fc cc cc
	cc cc		 mov	 DWORD PTR [ebp-4], -858993460 ; ccccccccH
  0000b	89 4d fc	 mov	 DWORD PTR _this$[ebp], ecx
  0000e	8b 4d fc	 mov	 ecx, DWORD PTR _this$[ebp]
  00011	e8 00 00 00 00	 call	 ??1?$_Vb_const_iterator@U?$_Wrap_alloc@V?$allocator@I@std@@@std@@@std@@QAE@XZ
  00016	83 c4 04	 add	 esp, 4
  00019	3b ec		 cmp	 ebp, esp
  0001b	e8 00 00 00 00	 call	 __RTC_CheckEsp
  00020	8b e5		 mov	 esp, ebp
  00022	5d		 pop	 ebp
  00023	c3		 ret	 0
??1?$_Vb_iterator@U?$_Wrap_alloc@V?$allocator@I@std@@@std@@@std@@QAE@XZ ENDP ; std::_Vb_iterator<std::_Wrap_alloc<std::allocator<unsigned int> > >::~_Vb_iterator<std::_Wrap_alloc<std::allocator<unsigned int> > >
_TEXT	ENDS
; Function compile flags: /Odtp /RTCsu
; File C:\Program Files (x86)\Microsoft Visual Studio\2019\Community\VC\Tools\MSVC\14.29.30133\include\vector
;	COMDAT ??D?$_Vb_iterator@U?$_Wrap_alloc@V?$allocator@I@std@@@std@@@std@@QBE?AV?$_Vb_reference@U?$_Wrap_alloc@V?$allocator@I@std@@@std@@@1@XZ
_TEXT	SEGMENT
__Cont$ = -8						; size = 4
_this$ = -4						; size = 4
___$ReturnUdt$ = 8					; size = 4
??D?$_Vb_iterator@U?$_Wrap_alloc@V?$allocator@I@std@@@std@@@std@@QBE?AV?$_Vb_reference@U?$_Wrap_alloc@V?$allocator@I@std@@@std@@@1@XZ PROC ; std::_Vb_iterator<std::_Wrap_alloc<std::allocator<unsigned int> > >::operator*, COMDAT
; _this$ = ecx

; 2329 :     _NODISCARD _CONSTEXPR20_CONTAINER reference operator*() const noexcept {

  00000	55		 push	 ebp
  00001	8b ec		 mov	 ebp, esp
  00003	83 ec 08	 sub	 esp, 8
  00006	56		 push	 esi
  00007	c7 45 f8 cc cc
	cc cc		 mov	 DWORD PTR [ebp-8], -858993460 ; ccccccccH
  0000e	c7 45 fc cc cc
	cc cc		 mov	 DWORD PTR [ebp-4], -858993460 ; ccccccccH
  00015	89 4d fc	 mov	 DWORD PTR _this$[ebp], ecx
  00018	b9 00 00 00 00	 mov	 ecx, OFFSET __324884E2_vector
  0001d	e8 00 00 00 00	 call	 @__CheckForDebuggerJustMyCode@4

; 2330 : #if _ITERATOR_DEBUG_LEVEL != 0
; 2331 :         const auto _Cont = static_cast<const _Mycont*>(this->_Getcont());

  00022	8b 4d fc	 mov	 ecx, DWORD PTR _this$[ebp]
  00025	e8 00 00 00 00	 call	 ?_Getcont@_Iterator_base12@std@@QBEPBU_Container_base12@2@XZ ; std::_Iterator_base12::_Getcont
  0002a	89 45 f8	 mov	 DWORD PTR __Cont$[ebp], eax
$LN4@operator:

; 2332 :         _STL_VERIFY(_Cont, "cannot dereference value-initialized vector<bool> iterator");

  0002d	83 7d f8 00	 cmp	 DWORD PTR __Cont$[ebp], 0
  00031	74 02		 je	 SHORT $LN7@operator
  00033	eb 5c		 jmp	 SHORT $LN2@operator
$LN7@operator:
  00035	8b f4		 mov	 esi, esp
  00037	68 00 00 00 00	 push	 OFFSET ??_C@_0DL@EIIPGNKA@cannot?5dereference?5value?9initia@
  0003c	68 00 00 00 00	 push	 OFFSET ??_C@_02DKCKIIND@?$CFs@
  00041	6a 00		 push	 0
  00043	68 1c 09 00 00	 push	 2332			; 0000091cH
  00048	68 00 00 00 00	 push	 OFFSET ??_C@_0GH@KMHDIFOI@C?3?2Program?5Files?5?$CIx86?$CJ?2Microsof@
  0004d	6a 02		 push	 2
  0004f	ff 15 00 00 00
	00		 call	 DWORD PTR __imp___CrtDbgReport
  00055	83 c4 18	 add	 esp, 24			; 00000018H
  00058	3b f4		 cmp	 esi, esp
  0005a	e8 00 00 00 00	 call	 __RTC_CheckEsp
  0005f	83 f8 01	 cmp	 eax, 1
  00062	75 01		 jne	 SHORT $LN19@operator
  00064	cc		 int	 3
$LN19@operator:
  00065	8b f4		 mov	 esi, esp
  00067	6a 00		 push	 0
  00069	68 1c 09 00 00	 push	 2332			; 0000091cH
  0006e	68 00 00 00 00	 push	 OFFSET ??_C@_1MO@NOHEJINP@?$AAC?$AA?3?$AA?2?$AAP?$AAr?$AAo?$AAg?$AAr?$AAa?$AAm?$AA?5?$AAF?$AAi?$AAl?$AAe@
  00073	68 00 00 00 00	 push	 OFFSET ??_C@_1LK@OCBBIODL@?$AAs?$AAt?$AAd?$AA?3?$AA?3?$AA_?$AAV?$AAb?$AA_?$AAi?$AAt?$AAe?$AAr?$AAa?$AAt@
  00078	68 00 00 00 00	 push	 OFFSET ??_C@_1HK@NLJEKNBE@?$AA?$CC?$AAc?$AAa?$AAn?$AAn?$AAo?$AAt?$AA?5?$AAd?$AAe?$AAr?$AAe?$AAf?$AAe?$AAr@
  0007d	ff 15 00 00 00
	00		 call	 DWORD PTR __imp___invalid_parameter
  00083	83 c4 14	 add	 esp, 20			; 00000014H
  00086	3b f4		 cmp	 esi, esp
  00088	e8 00 00 00 00	 call	 __RTC_CheckEsp
  0008d	33 c9		 xor	 ecx, ecx
  0008f	75 a4		 jne	 SHORT $LN7@operator
$LN2@operator:
  00091	33 d2		 xor	 edx, edx
  00093	75 98		 jne	 SHORT $LN4@operator
$LN10@operator:

; 2333 :         _STL_VERIFY(this->_Total_off(_Cont) < static_cast<_Difference_type>(_Cont->_Mysize),

  00095	8b 45 f8	 mov	 eax, DWORD PTR __Cont$[ebp]
  00098	50		 push	 eax
  00099	8b 4d fc	 mov	 ecx, DWORD PTR _this$[ebp]
  0009c	e8 00 00 00 00	 call	 ?_Total_off@?$_Vb_iter_base@U?$_Wrap_alloc@V?$allocator@I@std@@@std@@@std@@QBEHPBV?$vector@_NV?$allocator@_N@std@@@2@@Z ; std::_Vb_iter_base<std::_Wrap_alloc<std::allocator<unsigned int> > >::_Total_off
  000a1	8b 4d f8	 mov	 ecx, DWORD PTR __Cont$[ebp]
  000a4	3b 41 14	 cmp	 eax, DWORD PTR [ecx+20]
  000a7	7d 02		 jge	 SHORT $LN13@operator
  000a9	eb 5c		 jmp	 SHORT $LN8@operator
$LN13@operator:
  000ab	8b f4		 mov	 esi, esp
  000ad	68 00 00 00 00	 push	 OFFSET ??_C@_0CK@FLJLFEAD@vector?$DMbool?$DO?5iterator?5not?5deref@
  000b2	68 00 00 00 00	 push	 OFFSET ??_C@_02DKCKIIND@?$CFs@
  000b7	6a 00		 push	 0
  000b9	68 1e 09 00 00	 push	 2334			; 0000091eH
  000be	68 00 00 00 00	 push	 OFFSET ??_C@_0GH@KMHDIFOI@C?3?2Program?5Files?5?$CIx86?$CJ?2Microsof@
  000c3	6a 02		 push	 2
  000c5	ff 15 00 00 00
	00		 call	 DWORD PTR __imp___CrtDbgReport
  000cb	83 c4 18	 add	 esp, 24			; 00000018H
  000ce	3b f4		 cmp	 esi, esp
  000d0	e8 00 00 00 00	 call	 __RTC_CheckEsp
  000d5	83 f8 01	 cmp	 eax, 1
  000d8	75 01		 jne	 SHORT $LN20@operator
  000da	cc		 int	 3
$LN20@operator:
  000db	8b f4		 mov	 esi, esp
  000dd	6a 00		 push	 0
  000df	68 1e 09 00 00	 push	 2334			; 0000091eH
  000e4	68 00 00 00 00	 push	 OFFSET ??_C@_1MO@NOHEJINP@?$AAC?$AA?3?$AA?2?$AAP?$AAr?$AAo?$AAg?$AAr?$AAa?$AAm?$AA?5?$AAF?$AAi?$AAl?$AAe@
  000e9	68 00 00 00 00	 push	 OFFSET ??_C@_1LK@OCBBIODL@?$AAs?$AAt?$AAd?$AA?3?$AA?3?$AA_?$AAV?$AAb?$AA_?$AAi?$AAt?$AAe?$AAr?$AAa?$AAt@
  000ee	68 00 00 00 00	 push	 OFFSET ??_C@_1FI@IBAHAGLP@?$AA?$CC?$AAv?$AAe?$AAc?$AAt?$AAo?$AAr?$AA?$DM?$AAb?$AAo?$AAo?$AAl?$AA?$DO?$AA?5?$AAi@
  000f3	ff 15 00 00 00
	00		 call	 DWORD PTR __imp___invalid_parameter
  000f9	83 c4 14	 add	 esp, 20			; 00000014H
  000fc	3b f4		 cmp	 esi, esp
  000fe	e8 00 00 00 00	 call	 __RTC_CheckEsp
  00103	33 c0		 xor	 eax, eax
  00105	75 a4		 jne	 SHORT $LN13@operator
$LN8@operator:
  00107	33 c9		 xor	 ecx, ecx
  00109	75 8a		 jne	 SHORT $LN10@operator

; 2334 :             "vector<bool> iterator not dereferenceable");
; 2335 : #endif // _ITERATOR_DEBUG_LEVEL != 0
; 2336 : 
; 2337 :         return _Reft(*this);

  0010b	8b 55 fc	 mov	 edx, DWORD PTR _this$[ebp]
  0010e	52		 push	 edx
  0010f	8b 4d 08	 mov	 ecx, DWORD PTR ___$ReturnUdt$[ebp]
  00112	e8 00 00 00 00	 call	 ??0?$_Vb_reference@U?$_Wrap_alloc@V?$allocator@I@std@@@std@@@std@@QAE@ABV?$_Vb_iter_base@U?$_Wrap_alloc@V?$allocator@I@std@@@std@@@1@@Z ; std::_Vb_reference<std::_Wrap_alloc<std::allocator<unsigned int> > >::_Vb_reference<std::_Wrap_alloc<std::allocator<unsigned int> > >
  00117	8b 45 08	 mov	 eax, DWORD PTR ___$ReturnUdt$[ebp]

; 2338 :     }

  0011a	5e		 pop	 esi
  0011b	83 c4 08	 add	 esp, 8
  0011e	3b ec		 cmp	 ebp, esp
  00120	e8 00 00 00 00	 call	 __RTC_CheckEsp
  00125	8b e5		 mov	 esp, ebp
  00127	5d		 pop	 ebp
  00128	c2 04 00	 ret	 4
??D?$_Vb_iterator@U?$_Wrap_alloc@V?$allocator@I@std@@@std@@@std@@QBE?AV?$_Vb_reference@U?$_Wrap_alloc@V?$allocator@I@std@@@std@@@1@XZ ENDP ; std::_Vb_iterator<std::_Wrap_alloc<std::allocator<unsigned int> > >::operator*
_TEXT	ENDS
; Function compile flags: /Odtp /RTCsu
;	COMDAT ??1?$_Vb_const_iterator@U?$_Wrap_alloc@V?$allocator@I@std@@@std@@@std@@QAE@XZ
_TEXT	SEGMENT
_this$ = -4						; size = 4
??1?$_Vb_const_iterator@U?$_Wrap_alloc@V?$allocator@I@std@@@std@@@std@@QAE@XZ PROC ; std::_Vb_const_iterator<std::_Wrap_alloc<std::allocator<unsigned int> > >::~_Vb_const_iterator<std::_Wrap_alloc<std::allocator<unsigned int> > >, COMDAT
; _this$ = ecx
  00000	55		 push	 ebp
  00001	8b ec		 mov	 ebp, esp
  00003	51		 push	 ecx
  00004	c7 45 fc cc cc
	cc cc		 mov	 DWORD PTR [ebp-4], -858993460 ; ccccccccH
  0000b	89 4d fc	 mov	 DWORD PTR _this$[ebp], ecx
  0000e	8b 4d fc	 mov	 ecx, DWORD PTR _this$[ebp]
  00011	e8 00 00 00 00	 call	 ??1?$_Vb_iter_base@U?$_Wrap_alloc@V?$allocator@I@std@@@std@@@std@@QAE@XZ
  00016	83 c4 04	 add	 esp, 4
  00019	3b ec		 cmp	 ebp, esp
  0001b	e8 00 00 00 00	 call	 __RTC_CheckEsp
  00020	8b e5		 mov	 esp, ebp
  00022	5d		 pop	 ebp
  00023	c3		 ret	 0
??1?$_Vb_const_iterator@U?$_Wrap_alloc@V?$allocator@I@std@@@std@@@std@@QAE@XZ ENDP ; std::_Vb_const_iterator<std::_Wrap_alloc<std::allocator<unsigned int> > >::~_Vb_const_iterator<std::_Wrap_alloc<std::allocator<unsigned int> > >
_TEXT	ENDS
; Function compile flags: /Odtp /RTCsu
; File C:\Program Files (x86)\Microsoft Visual Studio\2019\Community\VC\Tools\MSVC\14.29.30133\include\vector
;	COMDAT ??0?$_Vb_const_iterator@U?$_Wrap_alloc@V?$allocator@I@std@@@std@@@std@@QAE@PBIPBU_Container_base12@1@@Z
_TEXT	SEGMENT
_this$ = -4						; size = 4
__Ptr$ = 8						; size = 4
__Mypvbool$ = 12					; size = 4
??0?$_Vb_const_iterator@U?$_Wrap_alloc@V?$allocator@I@std@@@std@@@std@@QAE@PBIPBU_Container_base12@1@@Z PROC ; std::_Vb_const_iterator<std::_Wrap_alloc<std::allocator<unsigned int> > >::_Vb_const_iterator<std::_Wrap_alloc<std::allocator<unsigned int> > >, COMDAT
; _this$ = ecx

; 2124 :     _CONSTEXPR20_CONTAINER _Vb_const_iterator(const _Vbase* _Ptr, const _Container_base* _Mypvbool) noexcept

  00000	55		 push	 ebp
  00001	8b ec		 mov	 ebp, esp
  00003	51		 push	 ecx
  00004	c7 45 fc cc cc
	cc cc		 mov	 DWORD PTR [ebp-4], -858993460 ; ccccccccH
  0000b	89 4d fc	 mov	 DWORD PTR _this$[ebp], ecx
  0000e	b9 00 00 00 00	 mov	 ecx, OFFSET __324884E2_vector
  00013	e8 00 00 00 00	 call	 @__CheckForDebuggerJustMyCode@4

; 2125 :         : _Mybase(_Ptr, 0, _Mypvbool) {}

  00018	8b 45 0c	 mov	 eax, DWORD PTR __Mypvbool$[ebp]
  0001b	50		 push	 eax
  0001c	6a 00		 push	 0
  0001e	8b 4d 08	 mov	 ecx, DWORD PTR __Ptr$[ebp]
  00021	51		 push	 ecx
  00022	8b 4d fc	 mov	 ecx, DWORD PTR _this$[ebp]
  00025	e8 00 00 00 00	 call	 ??0?$_Vb_iter_base@U?$_Wrap_alloc@V?$allocator@I@std@@@std@@@std@@QAE@PBIIPBU_Container_base12@1@@Z ; std::_Vb_iter_base<std::_Wrap_alloc<std::allocator<unsigned int> > >::_Vb_iter_base<std::_Wrap_alloc<std::allocator<unsigned int> > >
  0002a	8b 45 fc	 mov	 eax, DWORD PTR _this$[ebp]
  0002d	83 c4 04	 add	 esp, 4
  00030	3b ec		 cmp	 ebp, esp
  00032	e8 00 00 00 00	 call	 __RTC_CheckEsp
  00037	8b e5		 mov	 esp, ebp
  00039	5d		 pop	 ebp
  0003a	c2 08 00	 ret	 8
??0?$_Vb_const_iterator@U?$_Wrap_alloc@V?$allocator@I@std@@@std@@@std@@QAE@PBIPBU_Container_base12@1@@Z ENDP ; std::_Vb_const_iterator<std::_Wrap_alloc<std::allocator<unsigned int> > >::_Vb_const_iterator<std::_Wrap_alloc<std::allocator<unsigned int> > >
_TEXT	ENDS
; Function compile flags: /Odtp /RTCsu
; File C:\Program Files (x86)\Microsoft Visual Studio\2019\Community\VC\Tools\MSVC\14.29.30133\include\tuple
;	COMDAT ??$get@$00W4DIRDEP@@W41@@std@@YAAAW4DIRDEP@@AAV?$tuple@W4DIRDEP@@W41@@0@@Z
_TEXT	SEGMENT
__Tuple$ = 8						; size = 4
??$get@$00W4DIRDEP@@W41@@std@@YAAAW4DIRDEP@@AAV?$tuple@W4DIRDEP@@W41@@0@@Z PROC ; std::get<1,enum DIRDEP,enum DIRDEP>, COMDAT

; 816  : _NODISCARD constexpr tuple_element_t<_Index, tuple<_Types...>>& get(tuple<_Types...>& _Tuple) noexcept {

  00000	55		 push	 ebp
  00001	8b ec		 mov	 ebp, esp
  00003	b9 00 00 00 00	 mov	 ecx, OFFSET __C69F69CF_tuple
  00008	e8 00 00 00 00	 call	 @__CheckForDebuggerJustMyCode@4

; 817  :     using _Ttype = typename tuple_element<_Index, tuple<_Types...>>::_Ttype;
; 818  :     return static_cast<_Ttype&>(_Tuple)._Myfirst._Val;

  0000d	8b 45 08	 mov	 eax, DWORD PTR __Tuple$[ebp]

; 819  : }

  00010	3b ec		 cmp	 ebp, esp
  00012	e8 00 00 00 00	 call	 __RTC_CheckEsp
  00017	5d		 pop	 ebp
  00018	c3		 ret	 0
??$get@$00W4DIRDEP@@W41@@std@@YAAAW4DIRDEP@@AAV?$tuple@W4DIRDEP@@W41@@0@@Z ENDP ; std::get<1,enum DIRDEP,enum DIRDEP>
_TEXT	ENDS
; Function compile flags: /Odtp /RTCsu
; File C:\Program Files (x86)\Microsoft Visual Studio\2019\Community\VC\Tools\MSVC\14.29.30133\include\tuple
;	COMDAT ??$get@$0A@W4DIRDEP@@W41@@std@@YAAAW4DIRDEP@@AAV?$tuple@W4DIRDEP@@W41@@0@@Z
_TEXT	SEGMENT
__Tuple$ = 8						; size = 4
??$get@$0A@W4DIRDEP@@W41@@std@@YAAAW4DIRDEP@@AAV?$tuple@W4DIRDEP@@W41@@0@@Z PROC ; std::get<0,enum DIRDEP,enum DIRDEP>, COMDAT

; 816  : _NODISCARD constexpr tuple_element_t<_Index, tuple<_Types...>>& get(tuple<_Types...>& _Tuple) noexcept {

  00000	55		 push	 ebp
  00001	8b ec		 mov	 ebp, esp
  00003	b9 00 00 00 00	 mov	 ecx, OFFSET __C69F69CF_tuple
  00008	e8 00 00 00 00	 call	 @__CheckForDebuggerJustMyCode@4

; 817  :     using _Ttype = typename tuple_element<_Index, tuple<_Types...>>::_Ttype;
; 818  :     return static_cast<_Ttype&>(_Tuple)._Myfirst._Val;

  0000d	8b 45 08	 mov	 eax, DWORD PTR __Tuple$[ebp]
  00010	83 c0 04	 add	 eax, 4

; 819  : }

  00013	3b ec		 cmp	 ebp, esp
  00015	e8 00 00 00 00	 call	 __RTC_CheckEsp
  0001a	5d		 pop	 ebp
  0001b	c3		 ret	 0
??$get@$0A@W4DIRDEP@@W41@@std@@YAAAW4DIRDEP@@AAV?$tuple@W4DIRDEP@@W41@@0@@Z ENDP ; std::get<0,enum DIRDEP,enum DIRDEP>
_TEXT	ENDS
; Function compile flags: /Odtp /RTCsu
;	COMDAT ??1?$_Vb_reference@U?$_Wrap_alloc@V?$allocator@I@std@@@std@@@std@@QAE@XZ
_TEXT	SEGMENT
_this$ = -4						; size = 4
??1?$_Vb_reference@U?$_Wrap_alloc@V?$allocator@I@std@@@std@@@std@@QAE@XZ PROC ; std::_Vb_reference<std::_Wrap_alloc<std::allocator<unsigned int> > >::~_Vb_reference<std::_Wrap_alloc<std::allocator<unsigned int> > >, COMDAT
; _this$ = ecx
  00000	55		 push	 ebp
  00001	8b ec		 mov	 ebp, esp
  00003	51		 push	 ecx
  00004	c7 45 fc cc cc
	cc cc		 mov	 DWORD PTR [ebp-4], -858993460 ; ccccccccH
  0000b	89 4d fc	 mov	 DWORD PTR _this$[ebp], ecx
  0000e	8b 4d fc	 mov	 ecx, DWORD PTR _this$[ebp]
  00011	e8 00 00 00 00	 call	 ??1?$_Vb_iter_base@U?$_Wrap_alloc@V?$allocator@I@std@@@std@@@std@@QAE@XZ
  00016	83 c4 04	 add	 esp, 4
  00019	3b ec		 cmp	 ebp, esp
  0001b	e8 00 00 00 00	 call	 __RTC_CheckEsp
  00020	8b e5		 mov	 esp, ebp
  00022	5d		 pop	 ebp
  00023	c3		 ret	 0
??1?$_Vb_reference@U?$_Wrap_alloc@V?$allocator@I@std@@@std@@@std@@QAE@XZ ENDP ; std::_Vb_reference<std::_Wrap_alloc<std::allocator<unsigned int> > >::~_Vb_reference<std::_Wrap_alloc<std::allocator<unsigned int> > >
_TEXT	ENDS
; Function compile flags: /Odtp /RTCsu
; File C:\Program Files (x86)\Microsoft Visual Studio\2019\Community\VC\Tools\MSVC\14.29.30133\include\vector
;	COMDAT ?_Mask@?$_Vb_reference@U?$_Wrap_alloc@V?$allocator@I@std@@@std@@@std@@IBEIXZ
_TEXT	SEGMENT
_this$ = -4						; size = 4
?_Mask@?$_Vb_reference@U?$_Wrap_alloc@V?$allocator@I@std@@@std@@@std@@IBEIXZ PROC ; std::_Vb_reference<std::_Wrap_alloc<std::allocator<unsigned int> > >::_Mask, COMDAT
; _this$ = ecx

; 2098 :     _CONSTEXPR20_CONTAINER _Vbase _Mask() const noexcept {

  00000	55		 push	 ebp
  00001	8b ec		 mov	 ebp, esp
  00003	51		 push	 ecx
  00004	c7 45 fc cc cc
	cc cc		 mov	 DWORD PTR [ebp-4], -858993460 ; ccccccccH
  0000b	89 4d fc	 mov	 DWORD PTR _this$[ebp], ecx
  0000e	b9 00 00 00 00	 mov	 ecx, OFFSET __324884E2_vector
  00013	e8 00 00 00 00	 call	 @__CheckForDebuggerJustMyCode@4

; 2099 :         return static_cast<_Vbase>(1) << this->_Myoff;

  00018	8b 45 fc	 mov	 eax, DWORD PTR _this$[ebp]
  0001b	ba 01 00 00 00	 mov	 edx, 1
  00020	8b 48 0c	 mov	 ecx, DWORD PTR [eax+12]
  00023	d3 e2		 shl	 edx, cl
  00025	8b c2		 mov	 eax, edx

; 2100 :     }

  00027	83 c4 04	 add	 esp, 4
  0002a	3b ec		 cmp	 ebp, esp
  0002c	e8 00 00 00 00	 call	 __RTC_CheckEsp
  00031	8b e5		 mov	 esp, ebp
  00033	5d		 pop	 ebp
  00034	c3		 ret	 0
?_Mask@?$_Vb_reference@U?$_Wrap_alloc@V?$allocator@I@std@@@std@@@std@@IBEIXZ ENDP ; std::_Vb_reference<std::_Wrap_alloc<std::allocator<unsigned int> > >::_Mask
_TEXT	ENDS
; Function compile flags: /Odtp /RTCsu
; File C:\Program Files (x86)\Microsoft Visual Studio\2019\Community\VC\Tools\MSVC\14.29.30133\include\vector
;	COMDAT ?_Getptr@?$_Vb_reference@U?$_Wrap_alloc@V?$allocator@I@std@@@std@@@std@@QBEPBIXZ
_TEXT	SEGMENT
__Cont$ = -8						; size = 4
_this$ = -4						; size = 4
?_Getptr@?$_Vb_reference@U?$_Wrap_alloc@V?$allocator@I@std@@@std@@@std@@QBEPBIXZ PROC ; std::_Vb_reference<std::_Wrap_alloc<std::allocator<unsigned int> > >::_Getptr, COMDAT
; _this$ = ecx

; 2080 :     _CONSTEXPR20_CONTAINER const _Vbase* _Getptr() const noexcept {

  00000	55		 push	 ebp
  00001	8b ec		 mov	 ebp, esp
  00003	83 ec 08	 sub	 esp, 8
  00006	56		 push	 esi
  00007	c7 45 f8 cc cc
	cc cc		 mov	 DWORD PTR [ebp-8], -858993460 ; ccccccccH
  0000e	c7 45 fc cc cc
	cc cc		 mov	 DWORD PTR [ebp-4], -858993460 ; ccccccccH
  00015	89 4d fc	 mov	 DWORD PTR _this$[ebp], ecx
  00018	b9 00 00 00 00	 mov	 ecx, OFFSET __324884E2_vector
  0001d	e8 00 00 00 00	 call	 @__CheckForDebuggerJustMyCode@4

; 2081 : #if _ITERATOR_DEBUG_LEVEL != 0
; 2082 :         const auto _Cont = static_cast<const _Mycont*>(this->_Getcont());

  00022	8b 4d fc	 mov	 ecx, DWORD PTR _this$[ebp]
  00025	e8 00 00 00 00	 call	 ?_Getcont@_Iterator_base12@std@@QBEPBU_Container_base12@2@XZ ; std::_Iterator_base12::_Getcont
  0002a	89 45 f8	 mov	 DWORD PTR __Cont$[ebp], eax
$LN4@Getptr:

; 2083 :         _STL_VERIFY(_Cont, "cannot dereference value-initialized vector<bool> iterator");

  0002d	83 7d f8 00	 cmp	 DWORD PTR __Cont$[ebp], 0
  00031	74 02		 je	 SHORT $LN7@Getptr
  00033	eb 5c		 jmp	 SHORT $LN2@Getptr
$LN7@Getptr:
  00035	8b f4		 mov	 esi, esp
  00037	68 00 00 00 00	 push	 OFFSET ??_C@_0DL@EIIPGNKA@cannot?5dereference?5value?9initia@
  0003c	68 00 00 00 00	 push	 OFFSET ??_C@_02DKCKIIND@?$CFs@
  00041	6a 00		 push	 0
  00043	68 23 08 00 00	 push	 2083			; 00000823H
  00048	68 00 00 00 00	 push	 OFFSET ??_C@_0GH@KMHDIFOI@C?3?2Program?5Files?5?$CIx86?$CJ?2Microsof@
  0004d	6a 02		 push	 2
  0004f	ff 15 00 00 00
	00		 call	 DWORD PTR __imp___CrtDbgReport
  00055	83 c4 18	 add	 esp, 24			; 00000018H
  00058	3b f4		 cmp	 esi, esp
  0005a	e8 00 00 00 00	 call	 __RTC_CheckEsp
  0005f	83 f8 01	 cmp	 eax, 1
  00062	75 01		 jne	 SHORT $LN19@Getptr
  00064	cc		 int	 3
$LN19@Getptr:
  00065	8b f4		 mov	 esi, esp
  00067	6a 00		 push	 0
  00069	68 23 08 00 00	 push	 2083			; 00000823H
  0006e	68 00 00 00 00	 push	 OFFSET ??_C@_1MO@NOHEJINP@?$AAC?$AA?3?$AA?2?$AAP?$AAr?$AAo?$AAg?$AAr?$AAa?$AAm?$AA?5?$AAF?$AAi?$AAl?$AAe@
  00073	68 00 00 00 00	 push	 OFFSET ??_C@_1LG@CHICOEJ@?$AAs?$AAt?$AAd?$AA?3?$AA?3?$AA_?$AAV?$AAb?$AA_?$AAr?$AAe?$AAf?$AAe?$AAr?$AAe@
  00078	68 00 00 00 00	 push	 OFFSET ??_C@_1HK@NLJEKNBE@?$AA?$CC?$AAc?$AAa?$AAn?$AAn?$AAo?$AAt?$AA?5?$AAd?$AAe?$AAr?$AAe?$AAf?$AAe?$AAr@
  0007d	ff 15 00 00 00
	00		 call	 DWORD PTR __imp___invalid_parameter
  00083	83 c4 14	 add	 esp, 20			; 00000014H
  00086	3b f4		 cmp	 esi, esp
  00088	e8 00 00 00 00	 call	 __RTC_CheckEsp
  0008d	33 c9		 xor	 ecx, ecx
  0008f	75 a4		 jne	 SHORT $LN7@Getptr
$LN2@Getptr:
  00091	33 d2		 xor	 edx, edx
  00093	75 98		 jne	 SHORT $LN4@Getptr
$LN10@Getptr:

; 2084 :         _STL_VERIFY(this->_Total_off(_Cont) <= static_cast<_Difference_type>(_Cont->_Mysize),

  00095	8b 45 f8	 mov	 eax, DWORD PTR __Cont$[ebp]
  00098	50		 push	 eax
  00099	8b 4d fc	 mov	 ecx, DWORD PTR _this$[ebp]
  0009c	e8 00 00 00 00	 call	 ?_Total_off@?$_Vb_iter_base@U?$_Wrap_alloc@V?$allocator@I@std@@@std@@@std@@QBEHPBV?$vector@_NV?$allocator@_N@std@@@2@@Z ; std::_Vb_iter_base<std::_Wrap_alloc<std::allocator<unsigned int> > >::_Total_off
  000a1	8b 4d f8	 mov	 ecx, DWORD PTR __Cont$[ebp]
  000a4	3b 41 14	 cmp	 eax, DWORD PTR [ecx+20]
  000a7	7f 02		 jg	 SHORT $LN13@Getptr
  000a9	eb 5c		 jmp	 SHORT $LN8@Getptr
$LN13@Getptr:
  000ab	8b f4		 mov	 esi, esp
  000ad	68 00 00 00 00	 push	 OFFSET ??_C@_0CK@FLJLFEAD@vector?$DMbool?$DO?5iterator?5not?5deref@
  000b2	68 00 00 00 00	 push	 OFFSET ??_C@_02DKCKIIND@?$CFs@
  000b7	6a 00		 push	 0
  000b9	68 25 08 00 00	 push	 2085			; 00000825H
  000be	68 00 00 00 00	 push	 OFFSET ??_C@_0GH@KMHDIFOI@C?3?2Program?5Files?5?$CIx86?$CJ?2Microsof@
  000c3	6a 02		 push	 2
  000c5	ff 15 00 00 00
	00		 call	 DWORD PTR __imp___CrtDbgReport
  000cb	83 c4 18	 add	 esp, 24			; 00000018H
  000ce	3b f4		 cmp	 esi, esp
  000d0	e8 00 00 00 00	 call	 __RTC_CheckEsp
  000d5	83 f8 01	 cmp	 eax, 1
  000d8	75 01		 jne	 SHORT $LN20@Getptr
  000da	cc		 int	 3
$LN20@Getptr:
  000db	8b f4		 mov	 esi, esp
  000dd	6a 00		 push	 0
  000df	68 25 08 00 00	 push	 2085			; 00000825H
  000e4	68 00 00 00 00	 push	 OFFSET ??_C@_1MO@NOHEJINP@?$AAC?$AA?3?$AA?2?$AAP?$AAr?$AAo?$AAg?$AAr?$AAa?$AAm?$AA?5?$AAF?$AAi?$AAl?$AAe@
  000e9	68 00 00 00 00	 push	 OFFSET ??_C@_1LG@CHICOEJ@?$AAs?$AAt?$AAd?$AA?3?$AA?3?$AA_?$AAV?$AAb?$AA_?$AAr?$AAe?$AAf?$AAe?$AAr?$AAe@
  000ee	68 00 00 00 00	 push	 OFFSET ??_C@_1FI@IBAHAGLP@?$AA?$CC?$AAv?$AAe?$AAc?$AAt?$AAo?$AAr?$AA?$DM?$AAb?$AAo?$AAo?$AAl?$AA?$DO?$AA?5?$AAi@
  000f3	ff 15 00 00 00
	00		 call	 DWORD PTR __imp___invalid_parameter
  000f9	83 c4 14	 add	 esp, 20			; 00000014H
  000fc	3b f4		 cmp	 esi, esp
  000fe	e8 00 00 00 00	 call	 __RTC_CheckEsp
  00103	33 c0		 xor	 eax, eax
  00105	75 a4		 jne	 SHORT $LN13@Getptr
$LN8@Getptr:
  00107	33 c9		 xor	 ecx, ecx
  00109	75 8a		 jne	 SHORT $LN10@Getptr

; 2085 :             "vector<bool> iterator not dereferenceable");
; 2086 : #endif // _ITERATOR_DEBUG_LEVEL != 0
; 2087 : 
; 2088 :         return this->_Myptr;

  0010b	8b 55 fc	 mov	 edx, DWORD PTR _this$[ebp]
  0010e	8b 42 08	 mov	 eax, DWORD PTR [edx+8]

; 2089 :     }

  00111	5e		 pop	 esi
  00112	83 c4 08	 add	 esp, 8
  00115	3b ec		 cmp	 ebp, esp
  00117	e8 00 00 00 00	 call	 __RTC_CheckEsp
  0011c	8b e5		 mov	 esp, ebp
  0011e	5d		 pop	 ebp
  0011f	c3		 ret	 0
?_Getptr@?$_Vb_reference@U?$_Wrap_alloc@V?$allocator@I@std@@@std@@@std@@QBEPBIXZ ENDP ; std::_Vb_reference<std::_Wrap_alloc<std::allocator<unsigned int> > >::_Getptr
_TEXT	ENDS
; Function compile flags: /Odtp /RTCsu
; File C:\Program Files (x86)\Microsoft Visual Studio\2019\Community\VC\Tools\MSVC\14.29.30133\include\vector
;	COMDAT ??B?$_Vb_reference@U?$_Wrap_alloc@V?$allocator@I@std@@@std@@@std@@QBE_NXZ
_TEXT	SEGMENT
tv70 = -8						; size = 4
_this$ = -4						; size = 4
??B?$_Vb_reference@U?$_Wrap_alloc@V?$allocator@I@std@@@std@@@std@@QBE_NXZ PROC ; std::_Vb_reference<std::_Wrap_alloc<std::allocator<unsigned int> > >::operator bool, COMDAT
; _this$ = ecx

; 2076 :     _CONSTEXPR20_CONTAINER operator bool() const noexcept {

  00000	55		 push	 ebp
  00001	8b ec		 mov	 ebp, esp
  00003	83 ec 08	 sub	 esp, 8
  00006	56		 push	 esi
  00007	c7 45 f8 cc cc
	cc cc		 mov	 DWORD PTR [ebp-8], -858993460 ; ccccccccH
  0000e	c7 45 fc cc cc
	cc cc		 mov	 DWORD PTR [ebp-4], -858993460 ; ccccccccH
  00015	89 4d fc	 mov	 DWORD PTR _this$[ebp], ecx
  00018	b9 00 00 00 00	 mov	 ecx, OFFSET __324884E2_vector
  0001d	e8 00 00 00 00	 call	 @__CheckForDebuggerJustMyCode@4

; 2077 :         return (*_Getptr() & _Mask()) != 0;

  00022	8b 4d fc	 mov	 ecx, DWORD PTR _this$[ebp]
  00025	e8 00 00 00 00	 call	 ?_Getptr@?$_Vb_reference@U?$_Wrap_alloc@V?$allocator@I@std@@@std@@@std@@QBEPBIXZ ; std::_Vb_reference<std::_Wrap_alloc<std::allocator<unsigned int> > >::_Getptr
  0002a	8b f0		 mov	 esi, eax
  0002c	8b 4d fc	 mov	 ecx, DWORD PTR _this$[ebp]
  0002f	e8 00 00 00 00	 call	 ?_Mask@?$_Vb_reference@U?$_Wrap_alloc@V?$allocator@I@std@@@std@@@std@@IBEIXZ ; std::_Vb_reference<std::_Wrap_alloc<std::allocator<unsigned int> > >::_Mask
  00034	23 06		 and	 eax, DWORD PTR [esi]
  00036	74 09		 je	 SHORT $LN3@operator
  00038	c7 45 f8 01 00
	00 00		 mov	 DWORD PTR tv70[ebp], 1
  0003f	eb 07		 jmp	 SHORT $LN4@operator
$LN3@operator:
  00041	c7 45 f8 00 00
	00 00		 mov	 DWORD PTR tv70[ebp], 0
$LN4@operator:
  00048	8a 45 f8	 mov	 al, BYTE PTR tv70[ebp]

; 2078 :     }

  0004b	5e		 pop	 esi
  0004c	83 c4 08	 add	 esp, 8
  0004f	3b ec		 cmp	 ebp, esp
  00051	e8 00 00 00 00	 call	 __RTC_CheckEsp
  00056	8b e5		 mov	 esp, ebp
  00058	5d		 pop	 ebp
  00059	c3		 ret	 0
??B?$_Vb_reference@U?$_Wrap_alloc@V?$allocator@I@std@@@std@@@std@@QBE_NXZ ENDP ; std::_Vb_reference<std::_Wrap_alloc<std::allocator<unsigned int> > >::operator bool
_TEXT	ENDS
; Function compile flags: /Odtp /RTCsu
; File C:\Program Files (x86)\Microsoft Visual Studio\2019\Community\VC\Tools\MSVC\14.29.30133\include\vector
;	COMDAT ??0?$_Vb_reference@U?$_Wrap_alloc@V?$allocator@I@std@@@std@@@std@@QAE@ABV?$_Vb_iter_base@U?$_Wrap_alloc@V?$allocator@I@std@@@std@@@1@@Z
_TEXT	SEGMENT
tv82 = -16						; size = 4
tv86 = -12						; size = 4
tv84 = -8						; size = 4
_this$ = -4						; size = 4
__Right$ = 8						; size = 4
??0?$_Vb_reference@U?$_Wrap_alloc@V?$allocator@I@std@@@std@@@std@@QAE@ABV?$_Vb_iter_base@U?$_Wrap_alloc@V?$allocator@I@std@@@std@@@1@@Z PROC ; std::_Vb_reference<std::_Wrap_alloc<std::allocator<unsigned int> > >::_Vb_reference<std::_Wrap_alloc<std::allocator<unsigned int> > >, COMDAT
; _this$ = ecx

; 2055 :     _CONSTEXPR20_CONTAINER _Vb_reference(const _Mybase& _Right) noexcept

  00000	55		 push	 ebp
  00001	8b ec		 mov	 ebp, esp
  00003	83 ec 10	 sub	 esp, 16			; 00000010H
  00006	b8 cc cc cc cc	 mov	 eax, -858993460		; ccccccccH
  0000b	89 45 f0	 mov	 DWORD PTR [ebp-16], eax
  0000e	89 45 f4	 mov	 DWORD PTR [ebp-12], eax
  00011	89 45 f8	 mov	 DWORD PTR [ebp-8], eax
  00014	89 45 fc	 mov	 DWORD PTR [ebp-4], eax
  00017	89 4d fc	 mov	 DWORD PTR _this$[ebp], ecx
  0001a	b9 00 00 00 00	 mov	 ecx, OFFSET __324884E2_vector
  0001f	e8 00 00 00 00	 call	 @__CheckForDebuggerJustMyCode@4

; 2056 :         : _Mybase(_Right._Myptr, _Right._Myoff, _Right._Getcont()) {}

  00024	8b 4d 08	 mov	 ecx, DWORD PTR __Right$[ebp]
  00027	e8 00 00 00 00	 call	 ?_Getcont@_Iterator_base12@std@@QBEPBU_Container_base12@2@XZ ; std::_Iterator_base12::_Getcont
  0002c	89 45 f8	 mov	 DWORD PTR tv84[ebp], eax
  0002f	8b 45 08	 mov	 eax, DWORD PTR __Right$[ebp]
  00032	8b 48 0c	 mov	 ecx, DWORD PTR [eax+12]
  00035	89 4d f4	 mov	 DWORD PTR tv86[ebp], ecx
  00038	8b 55 08	 mov	 edx, DWORD PTR __Right$[ebp]
  0003b	8b 42 08	 mov	 eax, DWORD PTR [edx+8]
  0003e	89 45 f0	 mov	 DWORD PTR tv82[ebp], eax
  00041	8b 4d f8	 mov	 ecx, DWORD PTR tv84[ebp]
  00044	51		 push	 ecx
  00045	8b 55 f4	 mov	 edx, DWORD PTR tv86[ebp]
  00048	52		 push	 edx
  00049	8b 45 f0	 mov	 eax, DWORD PTR tv82[ebp]
  0004c	50		 push	 eax
  0004d	8b 4d fc	 mov	 ecx, DWORD PTR _this$[ebp]
  00050	e8 00 00 00 00	 call	 ??0?$_Vb_iter_base@U?$_Wrap_alloc@V?$allocator@I@std@@@std@@@std@@QAE@PBIIPBU_Container_base12@1@@Z ; std::_Vb_iter_base<std::_Wrap_alloc<std::allocator<unsigned int> > >::_Vb_iter_base<std::_Wrap_alloc<std::allocator<unsigned int> > >
  00055	8b 45 fc	 mov	 eax, DWORD PTR _this$[ebp]
  00058	83 c4 10	 add	 esp, 16			; 00000010H
  0005b	3b ec		 cmp	 ebp, esp
  0005d	e8 00 00 00 00	 call	 __RTC_CheckEsp
  00062	8b e5		 mov	 esp, ebp
  00064	5d		 pop	 ebp
  00065	c2 04 00	 ret	 4
??0?$_Vb_reference@U?$_Wrap_alloc@V?$allocator@I@std@@@std@@@std@@QAE@ABV?$_Vb_iter_base@U?$_Wrap_alloc@V?$allocator@I@std@@@std@@@1@@Z ENDP ; std::_Vb_reference<std::_Wrap_alloc<std::allocator<unsigned int> > >::_Vb_reference<std::_Wrap_alloc<std::allocator<unsigned int> > >
_TEXT	ENDS
; Function compile flags: /Odtp /RTCsu
;	COMDAT ??1?$_Vb_iter_base@U?$_Wrap_alloc@V?$allocator@I@std@@@std@@@std@@QAE@XZ
_TEXT	SEGMENT
_this$ = -4						; size = 4
??1?$_Vb_iter_base@U?$_Wrap_alloc@V?$allocator@I@std@@@std@@@std@@QAE@XZ PROC ; std::_Vb_iter_base<std::_Wrap_alloc<std::allocator<unsigned int> > >::~_Vb_iter_base<std::_Wrap_alloc<std::allocator<unsigned int> > >, COMDAT
; _this$ = ecx
  00000	55		 push	 ebp
  00001	8b ec		 mov	 ebp, esp
  00003	51		 push	 ecx
  00004	c7 45 fc cc cc
	cc cc		 mov	 DWORD PTR [ebp-4], -858993460 ; ccccccccH
  0000b	89 4d fc	 mov	 DWORD PTR _this$[ebp], ecx
  0000e	8b 4d fc	 mov	 ecx, DWORD PTR _this$[ebp]
  00011	e8 00 00 00 00	 call	 ??1_Iterator_base12@std@@QAE@XZ ; std::_Iterator_base12::~_Iterator_base12
  00016	83 c4 04	 add	 esp, 4
  00019	3b ec		 cmp	 ebp, esp
  0001b	e8 00 00 00 00	 call	 __RTC_CheckEsp
  00020	8b e5		 mov	 esp, ebp
  00022	5d		 pop	 ebp
  00023	c3		 ret	 0
??1?$_Vb_iter_base@U?$_Wrap_alloc@V?$allocator@I@std@@@std@@@std@@QAE@XZ ENDP ; std::_Vb_iter_base<std::_Wrap_alloc<std::allocator<unsigned int> > >::~_Vb_iter_base<std::_Wrap_alloc<std::allocator<unsigned int> > >
_TEXT	ENDS
; Function compile flags: /Odtp /RTCsu
; File C:\Program Files (x86)\Microsoft Visual Studio\2019\Community\VC\Tools\MSVC\14.29.30133\include\vector
;	COMDAT ?_Total_off@?$_Vb_iter_base@U?$_Wrap_alloc@V?$allocator@I@std@@@std@@@std@@QBEHPBV?$vector@_NV?$allocator@_N@std@@@2@@Z
_TEXT	SEGMENT
_this$ = -4						; size = 4
__Cont$ = 8						; size = 4
?_Total_off@?$_Vb_iter_base@U?$_Wrap_alloc@V?$allocator@I@std@@@std@@@std@@QBEHPBV?$vector@_NV?$allocator@_N@std@@@2@@Z PROC ; std::_Vb_iter_base<std::_Wrap_alloc<std::allocator<unsigned int> > >::_Total_off, COMDAT
; _this$ = ecx

; 2032 :     _CONSTEXPR20_CONTAINER _Difference_type _Total_off(const _Mycont* _Cont) const noexcept {

  00000	55		 push	 ebp
  00001	8b ec		 mov	 ebp, esp
  00003	51		 push	 ecx
  00004	c7 45 fc cc cc
	cc cc		 mov	 DWORD PTR [ebp-4], -858993460 ; ccccccccH
  0000b	89 4d fc	 mov	 DWORD PTR _this$[ebp], ecx
  0000e	b9 00 00 00 00	 mov	 ecx, OFFSET __324884E2_vector
  00013	e8 00 00 00 00	 call	 @__CheckForDebuggerJustMyCode@4

; 2033 :         return static_cast<_Difference_type>(_VBITS * (_Myptr - _Cont->_Myvec.data()) + _Myoff);

  00018	8b 4d 08	 mov	 ecx, DWORD PTR __Cont$[ebp]
  0001b	83 c1 04	 add	 ecx, 4
  0001e	e8 00 00 00 00	 call	 ?data@?$vector@IV?$allocator@I@std@@@std@@QBEPBIXZ ; std::vector<unsigned int,std::allocator<unsigned int> >::data
  00023	8b 4d fc	 mov	 ecx, DWORD PTR _this$[ebp]
  00026	8b 51 08	 mov	 edx, DWORD PTR [ecx+8]
  00029	2b d0		 sub	 edx, eax
  0002b	c1 fa 02	 sar	 edx, 2
  0002e	c1 e2 05	 shl	 edx, 5
  00031	8b 45 fc	 mov	 eax, DWORD PTR _this$[ebp]
  00034	03 50 0c	 add	 edx, DWORD PTR [eax+12]
  00037	8b c2		 mov	 eax, edx

; 2034 :     }

  00039	83 c4 04	 add	 esp, 4
  0003c	3b ec		 cmp	 ebp, esp
  0003e	e8 00 00 00 00	 call	 __RTC_CheckEsp
  00043	8b e5		 mov	 esp, ebp
  00045	5d		 pop	 ebp
  00046	c2 04 00	 ret	 4
?_Total_off@?$_Vb_iter_base@U?$_Wrap_alloc@V?$allocator@I@std@@@std@@@std@@QBEHPBV?$vector@_NV?$allocator@_N@std@@@2@@Z ENDP ; std::_Vb_iter_base<std::_Wrap_alloc<std::allocator<unsigned int> > >::_Total_off
_TEXT	ENDS
; Function compile flags: /Odtp /RTCsu
; File C:\Program Files (x86)\Microsoft Visual Studio\2019\Community\VC\Tools\MSVC\14.29.30133\include\vector
;	COMDAT ?_Advance@?$_Vb_iter_base@U?$_Wrap_alloc@V?$allocator@I@std@@@std@@@std@@QAEXI@Z
_TEXT	SEGMENT
_this$ = -4						; size = 4
__Off$ = 8						; size = 4
?_Advance@?$_Vb_iter_base@U?$_Wrap_alloc@V?$allocator@I@std@@@std@@@std@@QAEXI@Z PROC ; std::_Vb_iter_base<std::_Wrap_alloc<std::allocator<unsigned int> > >::_Advance, COMDAT
; _this$ = ecx

; 2025 :     _CONSTEXPR20_CONTAINER void _Advance(_Size_type _Off) noexcept {

  00000	55		 push	 ebp
  00001	8b ec		 mov	 ebp, esp
  00003	51		 push	 ecx
  00004	c7 45 fc cc cc
	cc cc		 mov	 DWORD PTR [ebp-4], -858993460 ; ccccccccH
  0000b	89 4d fc	 mov	 DWORD PTR _this$[ebp], ecx
  0000e	b9 00 00 00 00	 mov	 ecx, OFFSET __324884E2_vector
  00013	e8 00 00 00 00	 call	 @__CheckForDebuggerJustMyCode@4

; 2026 :         _Myoff += _Off;

  00018	8b 45 fc	 mov	 eax, DWORD PTR _this$[ebp]
  0001b	8b 48 0c	 mov	 ecx, DWORD PTR [eax+12]
  0001e	03 4d 08	 add	 ecx, DWORD PTR __Off$[ebp]
  00021	8b 55 fc	 mov	 edx, DWORD PTR _this$[ebp]
  00024	89 4a 0c	 mov	 DWORD PTR [edx+12], ecx

; 2027 :         _Myptr += _Myoff / _VBITS;

  00027	8b 45 fc	 mov	 eax, DWORD PTR _this$[ebp]
  0002a	8b 48 0c	 mov	 ecx, DWORD PTR [eax+12]
  0002d	c1 e9 05	 shr	 ecx, 5
  00030	8b 55 fc	 mov	 edx, DWORD PTR _this$[ebp]
  00033	8b 42 08	 mov	 eax, DWORD PTR [edx+8]
  00036	8d 0c 88	 lea	 ecx, DWORD PTR [eax+ecx*4]
  00039	8b 55 fc	 mov	 edx, DWORD PTR _this$[ebp]
  0003c	89 4a 08	 mov	 DWORD PTR [edx+8], ecx

; 2028 :         _Myoff %= _VBITS;

  0003f	8b 45 fc	 mov	 eax, DWORD PTR _this$[ebp]
  00042	8b 40 0c	 mov	 eax, DWORD PTR [eax+12]
  00045	33 d2		 xor	 edx, edx
  00047	b9 20 00 00 00	 mov	 ecx, 32			; 00000020H
  0004c	f7 f1		 div	 ecx
  0004e	8b 45 fc	 mov	 eax, DWORD PTR _this$[ebp]
  00051	89 50 0c	 mov	 DWORD PTR [eax+12], edx

; 2029 :     }

  00054	83 c4 04	 add	 esp, 4
  00057	3b ec		 cmp	 ebp, esp
  00059	e8 00 00 00 00	 call	 __RTC_CheckEsp
  0005e	8b e5		 mov	 esp, ebp
  00060	5d		 pop	 ebp
  00061	c2 04 00	 ret	 4
?_Advance@?$_Vb_iter_base@U?$_Wrap_alloc@V?$allocator@I@std@@@std@@@std@@QAEXI@Z ENDP ; std::_Vb_iter_base<std::_Wrap_alloc<std::allocator<unsigned int> > >::_Advance
_TEXT	ENDS
; Function compile flags: /Odtp /RTCsu
; File C:\Program Files (x86)\Microsoft Visual Studio\2019\Community\VC\Tools\MSVC\14.29.30133\include\vector
;	COMDAT ??0?$_Vb_iter_base@U?$_Wrap_alloc@V?$allocator@I@std@@@std@@@std@@QAE@PBIIPBU_Container_base12@1@@Z
_TEXT	SEGMENT
_this$ = -4						; size = 4
__Ptr$ = 8						; size = 4
__Off$ = 12						; size = 4
__Mypvbool$ = 16					; size = 4
??0?$_Vb_iter_base@U?$_Wrap_alloc@V?$allocator@I@std@@@std@@@std@@QAE@PBIIPBU_Container_base12@1@@Z PROC ; std::_Vb_iter_base<std::_Wrap_alloc<std::allocator<unsigned int> > >::_Vb_iter_base<std::_Wrap_alloc<std::allocator<unsigned int> > >, COMDAT
; _this$ = ecx

; 2018 :         : _Myptr(_Ptr), _Myoff(_Off) {

  00000	55		 push	 ebp
  00001	8b ec		 mov	 ebp, esp
  00003	51		 push	 ecx
  00004	c7 45 fc cc cc
	cc cc		 mov	 DWORD PTR [ebp-4], -858993460 ; ccccccccH
  0000b	89 4d fc	 mov	 DWORD PTR _this$[ebp], ecx
  0000e	b9 00 00 00 00	 mov	 ecx, OFFSET __324884E2_vector
  00013	e8 00 00 00 00	 call	 @__CheckForDebuggerJustMyCode@4
  00018	8b 4d fc	 mov	 ecx, DWORD PTR _this$[ebp]
  0001b	e8 00 00 00 00	 call	 ??0_Iterator_base12@std@@QAE@XZ ; std::_Iterator_base12::_Iterator_base12
  00020	8b 45 fc	 mov	 eax, DWORD PTR _this$[ebp]
  00023	8b 4d 08	 mov	 ecx, DWORD PTR __Ptr$[ebp]
  00026	89 48 08	 mov	 DWORD PTR [eax+8], ecx
  00029	8b 55 fc	 mov	 edx, DWORD PTR _this$[ebp]
  0002c	8b 45 0c	 mov	 eax, DWORD PTR __Off$[ebp]
  0002f	89 42 0c	 mov	 DWORD PTR [edx+12], eax

; 2019 :         this->_Adopt(_Mypvbool);

  00032	8b 4d 10	 mov	 ecx, DWORD PTR __Mypvbool$[ebp]
  00035	51		 push	 ecx
  00036	8b 4d fc	 mov	 ecx, DWORD PTR _this$[ebp]
  00039	e8 00 00 00 00	 call	 ?_Adopt@_Iterator_base12@std@@QAEXPBU_Container_base12@2@@Z ; std::_Iterator_base12::_Adopt

; 2020 :     }

  0003e	8b 45 fc	 mov	 eax, DWORD PTR _this$[ebp]
  00041	83 c4 04	 add	 esp, 4
  00044	3b ec		 cmp	 ebp, esp
  00046	e8 00 00 00 00	 call	 __RTC_CheckEsp
  0004b	8b e5		 mov	 esp, ebp
  0004d	5d		 pop	 ebp
  0004e	c2 0c 00	 ret	 12			; 0000000cH
??0?$_Vb_iter_base@U?$_Wrap_alloc@V?$allocator@I@std@@@std@@@std@@QAE@PBIIPBU_Container_base12@1@@Z ENDP ; std::_Vb_iter_base<std::_Wrap_alloc<std::allocator<unsigned int> > >::_Vb_iter_base<std::_Wrap_alloc<std::allocator<unsigned int> > >
_TEXT	ENDS
; Function compile flags: /Odtp /RTCsu
; File C:\Program Files (x86)\Microsoft Visual Studio\2019\Community\VC\Tools\MSVC\14.29.30133\include\vector
;	COMDAT ?_Xran@?$vector@_NV?$allocator@_N@std@@@std@@QBEXXZ
_TEXT	SEGMENT
_this$ = -4						; size = 4
?_Xran@?$vector@_NV?$allocator@_N@std@@@std@@QBEXXZ PROC ; std::vector<bool,std::allocator<bool> >::_Xran, COMDAT
; _this$ = ecx

; 3096 :     [[noreturn]] void _Xran() const {

  00000	55		 push	 ebp
  00001	8b ec		 mov	 ebp, esp
  00003	51		 push	 ecx
  00004	c7 45 fc cc cc
	cc cc		 mov	 DWORD PTR [ebp-4], -858993460 ; ccccccccH
  0000b	89 4d fc	 mov	 DWORD PTR _this$[ebp], ecx
  0000e	b9 00 00 00 00	 mov	 ecx, OFFSET __324884E2_vector
  00013	e8 00 00 00 00	 call	 @__CheckForDebuggerJustMyCode@4

; 3097 :         _Xout_of_range("invalid vector<bool> subscript");

  00018	68 00 00 00 00	 push	 OFFSET ??_C@_0BP@BKHLLOGL@invalid?5vector?$DMbool?$DO?5subscript@
  0001d	e8 00 00 00 00	 call	 ?_Xout_of_range@std@@YAXPBD@Z ; std::_Xout_of_range
$LN2@Xran:

; 3098 :     }

  00022	83 c4 04	 add	 esp, 4
  00025	3b ec		 cmp	 ebp, esp
  00027	e8 00 00 00 00	 call	 __RTC_CheckEsp
  0002c	8b e5		 mov	 esp, ebp
  0002e	5d		 pop	 ebp
  0002f	c3		 ret	 0
?_Xran@?$vector@_NV?$allocator@_N@std@@@std@@QBEXXZ ENDP ; std::vector<bool,std::allocator<bool> >::_Xran
_TEXT	ENDS
; Function compile flags: /Odtp /RTCsu
; File C:\Program Files (x86)\Microsoft Visual Studio\2019\Community\VC\Tools\MSVC\14.29.30133\include\vector
;	COMDAT ??A?$vector@_NV?$allocator@_N@std@@@std@@QAE?AV?$_Vb_reference@U?$_Wrap_alloc@V?$allocator@I@std@@@std@@@1@I@Z
_TEXT	SEGMENT
__It$ = -28						; size = 16
_this$ = -8						; size = 4
__$ArrayPad$ = -4					; size = 4
___$ReturnUdt$ = 8					; size = 4
__Off$ = 12						; size = 4
??A?$vector@_NV?$allocator@_N@std@@@std@@QAE?AV?$_Vb_reference@U?$_Wrap_alloc@V?$allocator@I@std@@@std@@@1@I@Z PROC ; std::vector<bool,std::allocator<bool> >::operator[], COMDAT
; _this$ = ecx

; 2834 :     _NODISCARD _CONSTEXPR20_CONTAINER reference operator[](size_type _Off) noexcept /* strengthened */ {

  00000	55		 push	 ebp
  00001	8b ec		 mov	 ebp, esp
  00003	83 ec 20	 sub	 esp, 32			; 00000020H
  00006	56		 push	 esi
  00007	b8 cc cc cc cc	 mov	 eax, -858993460		; ccccccccH
  0000c	89 45 e0	 mov	 DWORD PTR [ebp-32], eax
  0000f	89 45 e4	 mov	 DWORD PTR [ebp-28], eax
  00012	89 45 e8	 mov	 DWORD PTR [ebp-24], eax
  00015	89 45 ec	 mov	 DWORD PTR [ebp-20], eax
  00018	89 45 f0	 mov	 DWORD PTR [ebp-16], eax
  0001b	89 45 f4	 mov	 DWORD PTR [ebp-12], eax
  0001e	89 45 f8	 mov	 DWORD PTR [ebp-8], eax
  00021	89 45 fc	 mov	 DWORD PTR [ebp-4], eax
  00024	a1 00 00 00 00	 mov	 eax, DWORD PTR ___security_cookie
  00029	33 c5		 xor	 eax, ebp
  0002b	89 45 fc	 mov	 DWORD PTR __$ArrayPad$[ebp], eax
  0002e	89 4d f8	 mov	 DWORD PTR _this$[ebp], ecx
  00031	b9 00 00 00 00	 mov	 ecx, OFFSET __324884E2_vector
  00036	e8 00 00 00 00	 call	 @__CheckForDebuggerJustMyCode@4
$LN4@operator:

; 2835 : #if _CONTAINER_DEBUG_LEVEL > 0
; 2836 :         _STL_VERIFY(_Off < this->_Mysize, "vector<bool> subscript out of range");

  0003b	8b 45 f8	 mov	 eax, DWORD PTR _this$[ebp]
  0003e	8b 4d 0c	 mov	 ecx, DWORD PTR __Off$[ebp]
  00041	3b 48 14	 cmp	 ecx, DWORD PTR [eax+20]
  00044	73 02		 jae	 SHORT $LN7@operator
  00046	eb 5c		 jmp	 SHORT $LN2@operator
$LN7@operator:
  00048	8b f4		 mov	 esi, esp
  0004a	68 00 00 00 00	 push	 OFFSET ??_C@_0CE@FFEOOBMH@vector?$DMbool?$DO?5subscript?5out?5of?5r@
  0004f	68 00 00 00 00	 push	 OFFSET ??_C@_02DKCKIIND@?$CFs@
  00054	6a 00		 push	 0
  00056	68 14 0b 00 00	 push	 2836			; 00000b14H
  0005b	68 00 00 00 00	 push	 OFFSET ??_C@_0GH@KMHDIFOI@C?3?2Program?5Files?5?$CIx86?$CJ?2Microsof@
  00060	6a 02		 push	 2
  00062	ff 15 00 00 00
	00		 call	 DWORD PTR __imp___CrtDbgReport
  00068	83 c4 18	 add	 esp, 24			; 00000018H
  0006b	3b f4		 cmp	 esi, esp
  0006d	e8 00 00 00 00	 call	 __RTC_CheckEsp
  00072	83 f8 01	 cmp	 eax, 1
  00075	75 01		 jne	 SHORT $LN11@operator
  00077	cc		 int	 3
$LN11@operator:
  00078	8b f4		 mov	 esi, esp
  0007a	6a 00		 push	 0
  0007c	68 14 0b 00 00	 push	 2836			; 00000b14H
  00081	68 00 00 00 00	 push	 OFFSET ??_C@_1MO@NOHEJINP@?$AAC?$AA?3?$AA?2?$AAP?$AAr?$AAo?$AAg?$AAr?$AAa?$AAm?$AA?5?$AAF?$AAi?$AAl?$AAe@
  00086	68 00 00 00 00	 push	 OFFSET ??_C@_1HG@KMENFMCO@?$AAs?$AAt?$AAd?$AA?3?$AA?3?$AAv?$AAe?$AAc?$AAt?$AAo?$AAr?$AA?$DM?$AAb?$AAo?$AAo@
  0008b	68 00 00 00 00	 push	 OFFSET ??_C@_1EM@HCHFCCIP@?$AA?$CC?$AAv?$AAe?$AAc?$AAt?$AAo?$AAr?$AA?$DM?$AAb?$AAo?$AAo?$AAl?$AA?$DO?$AA?5?$AAs@
  00090	ff 15 00 00 00
	00		 call	 DWORD PTR __imp___invalid_parameter
  00096	83 c4 14	 add	 esp, 20			; 00000014H
  00099	3b f4		 cmp	 esi, esp
  0009b	e8 00 00 00 00	 call	 __RTC_CheckEsp
  000a0	33 c0		 xor	 eax, eax
  000a2	75 a4		 jne	 SHORT $LN7@operator
$LN2@operator:
  000a4	33 c9		 xor	 ecx, ecx
  000a6	75 93		 jne	 SHORT $LN4@operator

; 2837 : #endif // _CONTAINER_DEBUG_LEVEL > 0
; 2838 : 
; 2839 :         iterator _It = begin();

  000a8	6a 10		 push	 16			; 00000010H
  000aa	8d 4d e4	 lea	 ecx, DWORD PTR __It$[ebp]
  000ad	e8 00 00 00 00	 call	 ?__autoclassinit2@?$_Vb_iterator@U?$_Wrap_alloc@V?$allocator@I@std@@@std@@@std@@QAEXI@Z
  000b2	8d 55 e4	 lea	 edx, DWORD PTR __It$[ebp]
  000b5	52		 push	 edx
  000b6	8b 4d f8	 mov	 ecx, DWORD PTR _this$[ebp]
  000b9	e8 00 00 00 00	 call	 ?begin@?$vector@_NV?$allocator@_N@std@@@std@@QAE?AV?$_Vb_iterator@U?$_Wrap_alloc@V?$allocator@I@std@@@std@@@2@XZ ; std::vector<bool,std::allocator<bool> >::begin

; 2840 :         _It._Advance(_Off);

  000be	8b 45 0c	 mov	 eax, DWORD PTR __Off$[ebp]
  000c1	50		 push	 eax
  000c2	8d 4d e4	 lea	 ecx, DWORD PTR __It$[ebp]
  000c5	e8 00 00 00 00	 call	 ?_Advance@?$_Vb_iter_base@U?$_Wrap_alloc@V?$allocator@I@std@@@std@@@std@@QAEXI@Z ; std::_Vb_iter_base<std::_Wrap_alloc<std::allocator<unsigned int> > >::_Advance

; 2841 :         return *_It;

  000ca	8b 4d 08	 mov	 ecx, DWORD PTR ___$ReturnUdt$[ebp]
  000cd	51		 push	 ecx
  000ce	8d 4d e4	 lea	 ecx, DWORD PTR __It$[ebp]
  000d1	e8 00 00 00 00	 call	 ??D?$_Vb_iterator@U?$_Wrap_alloc@V?$allocator@I@std@@@std@@@std@@QBE?AV?$_Vb_reference@U?$_Wrap_alloc@V?$allocator@I@std@@@std@@@1@XZ ; std::_Vb_iterator<std::_Wrap_alloc<std::allocator<unsigned int> > >::operator*
  000d6	8d 4d e4	 lea	 ecx, DWORD PTR __It$[ebp]
  000d9	e8 00 00 00 00	 call	 ??1?$_Vb_iterator@U?$_Wrap_alloc@V?$allocator@I@std@@@std@@@std@@QAE@XZ
  000de	8b 45 08	 mov	 eax, DWORD PTR ___$ReturnUdt$[ebp]

; 2842 :     }

  000e1	52		 push	 edx
  000e2	8b cd		 mov	 ecx, ebp
  000e4	50		 push	 eax
  000e5	8d 15 00 00 00
	00		 lea	 edx, DWORD PTR $LN14@operator
  000eb	e8 00 00 00 00	 call	 @_RTC_CheckStackVars@8
  000f0	58		 pop	 eax
  000f1	5a		 pop	 edx
  000f2	5e		 pop	 esi
  000f3	8b 4d fc	 mov	 ecx, DWORD PTR __$ArrayPad$[ebp]
  000f6	33 cd		 xor	 ecx, ebp
  000f8	e8 00 00 00 00	 call	 @__security_check_cookie@4
  000fd	83 c4 20	 add	 esp, 32			; 00000020H
  00100	3b ec		 cmp	 ebp, esp
  00102	e8 00 00 00 00	 call	 __RTC_CheckEsp
  00107	8b e5		 mov	 esp, ebp
  00109	5d		 pop	 ebp
  0010a	c2 08 00	 ret	 8
  0010d	0f 1f 00	 npad	 3
$LN14@operator:
  00110	01 00 00 00	 DD	 1
  00114	00 00 00 00	 DD	 $LN13@operator
$LN13@operator:
  00118	e4 ff ff ff	 DD	 -28			; ffffffe4H
  0011c	10 00 00 00	 DD	 16			; 00000010H
  00120	00 00 00 00	 DD	 $LN12@operator
$LN12@operator:
  00124	5f		 DB	 95			; 0000005fH
  00125	49		 DB	 73			; 00000049H
  00126	74		 DB	 116			; 00000074H
  00127	00		 DB	 0
??A?$vector@_NV?$allocator@_N@std@@@std@@QAE?AV?$_Vb_reference@U?$_Wrap_alloc@V?$allocator@I@std@@@std@@@1@I@Z ENDP ; std::vector<bool,std::allocator<bool> >::operator[]
_TEXT	ENDS
; Function compile flags: /Odtp /RTCsu
; File C:\Program Files (x86)\Microsoft Visual Studio\2019\Community\VC\Tools\MSVC\14.29.30133\include\vector
;	COMDAT ?at@?$vector@_NV?$allocator@_N@std@@@std@@QAE?AV?$_Vb_reference@U?$_Wrap_alloc@V?$allocator@I@std@@@std@@@2@I@Z
_TEXT	SEGMENT
$T1 = -8						; size = 4
_this$ = -4						; size = 4
___$ReturnUdt$ = 8					; size = 4
__Off$ = 12						; size = 4
?at@?$vector@_NV?$allocator@_N@std@@@std@@QAE?AV?$_Vb_reference@U?$_Wrap_alloc@V?$allocator@I@std@@@std@@@2@I@Z PROC ; std::vector<bool,std::allocator<bool> >::at, COMDAT
; _this$ = ecx

; 2816 :     _NODISCARD _CONSTEXPR20_CONTAINER reference at(size_type _Off) {

  00000	55		 push	 ebp
  00001	8b ec		 mov	 ebp, esp
  00003	83 ec 08	 sub	 esp, 8
  00006	c7 45 f8 cc cc
	cc cc		 mov	 DWORD PTR [ebp-8], -858993460 ; ccccccccH
  0000d	c7 45 fc cc cc
	cc cc		 mov	 DWORD PTR [ebp-4], -858993460 ; ccccccccH
  00014	89 4d fc	 mov	 DWORD PTR _this$[ebp], ecx
  00017	c7 45 f8 00 00
	00 00		 mov	 DWORD PTR $T1[ebp], 0
  0001e	b9 00 00 00 00	 mov	 ecx, OFFSET __324884E2_vector
  00023	e8 00 00 00 00	 call	 @__CheckForDebuggerJustMyCode@4

; 2817 :         if (size() <= _Off) {

  00028	8b 4d fc	 mov	 ecx, DWORD PTR _this$[ebp]
  0002b	e8 00 00 00 00	 call	 ?size@?$vector@_NV?$allocator@_N@std@@@std@@QBEIXZ ; std::vector<bool,std::allocator<bool> >::size
  00030	3b 45 0c	 cmp	 eax, DWORD PTR __Off$[ebp]
  00033	77 08		 ja	 SHORT $LN2@at

; 2818 :             _Xran();

  00035	8b 4d fc	 mov	 ecx, DWORD PTR _this$[ebp]
  00038	e8 00 00 00 00	 call	 ?_Xran@?$vector@_NV?$allocator@_N@std@@@std@@QBEXXZ ; std::vector<bool,std::allocator<bool> >::_Xran
$LN2@at:

; 2819 :         }
; 2820 : 
; 2821 :         return (*this)[_Off];

  0003d	8b 45 0c	 mov	 eax, DWORD PTR __Off$[ebp]
  00040	50		 push	 eax
  00041	8b 4d 08	 mov	 ecx, DWORD PTR ___$ReturnUdt$[ebp]
  00044	51		 push	 ecx
  00045	8b 4d fc	 mov	 ecx, DWORD PTR _this$[ebp]
  00048	e8 00 00 00 00	 call	 ??A?$vector@_NV?$allocator@_N@std@@@std@@QAE?AV?$_Vb_reference@U?$_Wrap_alloc@V?$allocator@I@std@@@std@@@1@I@Z ; std::vector<bool,std::allocator<bool> >::operator[]
  0004d	8b 55 f8	 mov	 edx, DWORD PTR $T1[ebp]
  00050	83 ca 01	 or	 edx, 1
  00053	89 55 f8	 mov	 DWORD PTR $T1[ebp], edx
  00056	8b 45 08	 mov	 eax, DWORD PTR ___$ReturnUdt$[ebp]
$LN3@at:

; 2822 :     }

  00059	83 c4 08	 add	 esp, 8
  0005c	3b ec		 cmp	 ebp, esp
  0005e	e8 00 00 00 00	 call	 __RTC_CheckEsp
  00063	8b e5		 mov	 esp, ebp
  00065	5d		 pop	 ebp
  00066	c2 08 00	 ret	 8
?at@?$vector@_NV?$allocator@_N@std@@@std@@QAE?AV?$_Vb_reference@U?$_Wrap_alloc@V?$allocator@I@std@@@std@@@2@I@Z ENDP ; std::vector<bool,std::allocator<bool> >::at
_TEXT	ENDS
; Function compile flags: /Odtp /RTCsu
; File C:\Program Files (x86)\Microsoft Visual Studio\2019\Community\VC\Tools\MSVC\14.29.30133\include\vector
;	COMDAT ?size@?$vector@_NV?$allocator@_N@std@@@std@@QBEIXZ
_TEXT	SEGMENT
_this$ = -4						; size = 4
?size@?$vector@_NV?$allocator@_N@std@@@std@@QBEIXZ PROC	; std::vector<bool,std::allocator<bool> >::size, COMDAT
; _this$ = ecx

; 2785 :     _NODISCARD _CONSTEXPR20_CONTAINER size_type size() const noexcept {

  00000	55		 push	 ebp
  00001	8b ec		 mov	 ebp, esp
  00003	51		 push	 ecx
  00004	c7 45 fc cc cc
	cc cc		 mov	 DWORD PTR [ebp-4], -858993460 ; ccccccccH
  0000b	89 4d fc	 mov	 DWORD PTR _this$[ebp], ecx
  0000e	b9 00 00 00 00	 mov	 ecx, OFFSET __324884E2_vector
  00013	e8 00 00 00 00	 call	 @__CheckForDebuggerJustMyCode@4

; 2786 :         return this->_Mysize;

  00018	8b 45 fc	 mov	 eax, DWORD PTR _this$[ebp]
  0001b	8b 40 14	 mov	 eax, DWORD PTR [eax+20]

; 2787 :     }

  0001e	83 c4 04	 add	 esp, 4
  00021	3b ec		 cmp	 ebp, esp
  00023	e8 00 00 00 00	 call	 __RTC_CheckEsp
  00028	8b e5		 mov	 esp, ebp
  0002a	5d		 pop	 ebp
  0002b	c3		 ret	 0
?size@?$vector@_NV?$allocator@_N@std@@@std@@QBEIXZ ENDP	; std::vector<bool,std::allocator<bool> >::size
_TEXT	ENDS
; Function compile flags: /Odtp /RTCsu
; File C:\Program Files (x86)\Microsoft Visual Studio\2019\Community\VC\Tools\MSVC\14.29.30133\include\vector
;	COMDAT ?begin@?$vector@_NV?$allocator@_N@std@@@std@@QAE?AV?$_Vb_iterator@U?$_Wrap_alloc@V?$allocator@I@std@@@std@@@2@XZ
_TEXT	SEGMENT
_this$ = -4						; size = 4
___$ReturnUdt$ = 8					; size = 4
?begin@?$vector@_NV?$allocator@_N@std@@@std@@QAE?AV?$_Vb_iterator@U?$_Wrap_alloc@V?$allocator@I@std@@@std@@@2@XZ PROC ; std::vector<bool,std::allocator<bool> >::begin, COMDAT
; _this$ = ecx

; 2697 :     _NODISCARD _CONSTEXPR20_CONTAINER iterator begin() noexcept {

  00000	55		 push	 ebp
  00001	8b ec		 mov	 ebp, esp
  00003	51		 push	 ecx
  00004	c7 45 fc cc cc
	cc cc		 mov	 DWORD PTR [ebp-4], -858993460 ; ccccccccH
  0000b	89 4d fc	 mov	 DWORD PTR _this$[ebp], ecx
  0000e	b9 00 00 00 00	 mov	 ecx, OFFSET __324884E2_vector
  00013	e8 00 00 00 00	 call	 @__CheckForDebuggerJustMyCode@4

; 2698 :         return iterator(this->_Myvec.data(), this);

  00018	8b 45 fc	 mov	 eax, DWORD PTR _this$[ebp]
  0001b	50		 push	 eax
  0001c	8b 4d fc	 mov	 ecx, DWORD PTR _this$[ebp]
  0001f	83 c1 04	 add	 ecx, 4
  00022	e8 00 00 00 00	 call	 ?data@?$vector@IV?$allocator@I@std@@@std@@QAEPAIXZ ; std::vector<unsigned int,std::allocator<unsigned int> >::data
  00027	50		 push	 eax
  00028	8b 4d 08	 mov	 ecx, DWORD PTR ___$ReturnUdt$[ebp]
  0002b	e8 00 00 00 00	 call	 ??0?$_Vb_iterator@U?$_Wrap_alloc@V?$allocator@I@std@@@std@@@std@@QAE@PBIPBU_Container_base12@1@@Z
  00030	8b 45 08	 mov	 eax, DWORD PTR ___$ReturnUdt$[ebp]

; 2699 :     }

  00033	83 c4 04	 add	 esp, 4
  00036	3b ec		 cmp	 ebp, esp
  00038	e8 00 00 00 00	 call	 __RTC_CheckEsp
  0003d	8b e5		 mov	 esp, ebp
  0003f	5d		 pop	 ebp
  00040	c2 04 00	 ret	 4
?begin@?$vector@_NV?$allocator@_N@std@@@std@@QAE?AV?$_Vb_iterator@U?$_Wrap_alloc@V?$allocator@I@std@@@std@@@2@XZ ENDP ; std::vector<bool,std::allocator<bool> >::begin
_TEXT	ENDS
; Function compile flags: /Odtp /RTCsu
; File C:\Program Files (x86)\Microsoft Visual Studio\2019\Community\VC\Tools\MSVC\14.29.30133\include\vector
;	COMDAT ??1?$vector@_NV?$allocator@_N@std@@@std@@QAE@XZ
_TEXT	SEGMENT
_this$ = -4						; size = 4
??1?$vector@_NV?$allocator@_N@std@@@std@@QAE@XZ PROC	; std::vector<bool,std::allocator<bool> >::~vector<bool,std::allocator<bool> >, COMDAT
; _this$ = ecx

; 2649 :     _CONSTEXPR20_CONTAINER ~vector() noexcept {}

  00000	55		 push	 ebp
  00001	8b ec		 mov	 ebp, esp
  00003	51		 push	 ecx
  00004	c7 45 fc cc cc
	cc cc		 mov	 DWORD PTR [ebp-4], -858993460 ; ccccccccH
  0000b	89 4d fc	 mov	 DWORD PTR _this$[ebp], ecx
  0000e	b9 00 00 00 00	 mov	 ecx, OFFSET __324884E2_vector
  00013	e8 00 00 00 00	 call	 @__CheckForDebuggerJustMyCode@4
  00018	8b 4d fc	 mov	 ecx, DWORD PTR _this$[ebp]
  0001b	e8 00 00 00 00	 call	 ??1?$_Vb_val@V?$allocator@_N@std@@@std@@QAE@XZ ; std::_Vb_val<std::allocator<bool> >::~_Vb_val<std::allocator<bool> >
  00020	83 c4 04	 add	 esp, 4
  00023	3b ec		 cmp	 ebp, esp
  00025	e8 00 00 00 00	 call	 __RTC_CheckEsp
  0002a	8b e5		 mov	 esp, ebp
  0002c	5d		 pop	 ebp
  0002d	c3		 ret	 0
??1?$vector@_NV?$allocator@_N@std@@@std@@QAE@XZ ENDP	; std::vector<bool,std::allocator<bool> >::~vector<bool,std::allocator<bool> >
_TEXT	ENDS
; Function compile flags: /Odtp /RTCsu
; File C:\Program Files (x86)\Microsoft Visual Studio\2019\Community\VC\Tools\MSVC\14.29.30133\include\xmemory
;	COMDAT ?_Get_first@?$_Compressed_pair@V?$allocator@I@std@@V?$_Vector_val@U?$_Simple_types@I@std@@@2@$00@std@@QAEAAV?$allocator@I@2@XZ
_TEXT	SEGMENT
_this$ = -4						; size = 4
?_Get_first@?$_Compressed_pair@V?$allocator@I@std@@V?$_Vector_val@U?$_Simple_types@I@std@@@2@$00@std@@QAEAAV?$allocator@I@2@XZ PROC ; std::_Compressed_pair<std::allocator<unsigned int>,std::_Vector_val<std::_Simple_types<unsigned int> >,1>::_Get_first, COMDAT
; _this$ = ecx

; 1397 :     constexpr _Ty1& _Get_first() noexcept {

  00000	55		 push	 ebp
  00001	8b ec		 mov	 ebp, esp
  00003	51		 push	 ecx
  00004	c7 45 fc cc cc
	cc cc		 mov	 DWORD PTR [ebp-4], -858993460 ; ccccccccH
  0000b	89 4d fc	 mov	 DWORD PTR _this$[ebp], ecx
  0000e	b9 00 00 00 00	 mov	 ecx, OFFSET __79D216CD_xmemory
  00013	e8 00 00 00 00	 call	 @__CheckForDebuggerJustMyCode@4

; 1398 :         return *this;

  00018	8b 45 fc	 mov	 eax, DWORD PTR _this$[ebp]

; 1399 :     }

  0001b	83 c4 04	 add	 esp, 4
  0001e	3b ec		 cmp	 ebp, esp
  00020	e8 00 00 00 00	 call	 __RTC_CheckEsp
  00025	8b e5		 mov	 esp, ebp
  00027	5d		 pop	 ebp
  00028	c3		 ret	 0
?_Get_first@?$_Compressed_pair@V?$allocator@I@std@@V?$_Vector_val@U?$_Simple_types@I@std@@@2@$00@std@@QAEAAV?$allocator@I@2@XZ ENDP ; std::_Compressed_pair<std::allocator<unsigned int>,std::_Vector_val<std::_Simple_types<unsigned int> >,1>::_Get_first
_TEXT	ENDS
; Function compile flags: /Odtp /RTCsu
; File C:\Program Files (x86)\Microsoft Visual Studio\2019\Community\VC\Tools\MSVC\14.29.30133\include\vector
;	COMDAT ?_Getal@?$vector@IV?$allocator@I@std@@@std@@AAEAAV?$allocator@I@2@XZ
_TEXT	SEGMENT
_this$ = -4						; size = 4
?_Getal@?$vector@IV?$allocator@I@std@@@std@@AAEAAV?$allocator@I@2@XZ PROC ; std::vector<unsigned int,std::allocator<unsigned int> >::_Getal, COMDAT
; _this$ = ecx

; 1817 :     _NODISCARD _CONSTEXPR20_CONTAINER _Alty& _Getal() noexcept {

  00000	55		 push	 ebp
  00001	8b ec		 mov	 ebp, esp
  00003	51		 push	 ecx
  00004	c7 45 fc cc cc
	cc cc		 mov	 DWORD PTR [ebp-4], -858993460 ; ccccccccH
  0000b	89 4d fc	 mov	 DWORD PTR _this$[ebp], ecx
  0000e	b9 00 00 00 00	 mov	 ecx, OFFSET __324884E2_vector
  00013	e8 00 00 00 00	 call	 @__CheckForDebuggerJustMyCode@4

; 1818 :         return _Mypair._Get_first();

  00018	8b 4d fc	 mov	 ecx, DWORD PTR _this$[ebp]
  0001b	e8 00 00 00 00	 call	 ?_Get_first@?$_Compressed_pair@V?$allocator@I@std@@V?$_Vector_val@U?$_Simple_types@I@std@@@2@$00@std@@QAEAAV?$allocator@I@2@XZ ; std::_Compressed_pair<std::allocator<unsigned int>,std::_Vector_val<std::_Simple_types<unsigned int> >,1>::_Get_first

; 1819 :     }

  00020	83 c4 04	 add	 esp, 4
  00023	3b ec		 cmp	 ebp, esp
  00025	e8 00 00 00 00	 call	 __RTC_CheckEsp
  0002a	8b e5		 mov	 esp, ebp
  0002c	5d		 pop	 ebp
  0002d	c3		 ret	 0
?_Getal@?$vector@IV?$allocator@I@std@@@std@@AAEAAV?$allocator@I@2@XZ ENDP ; std::vector<unsigned int,std::allocator<unsigned int> >::_Getal
_TEXT	ENDS
; Function compile flags: /Odtp /RTCsu
; File C:\Program Files (x86)\Microsoft Visual Studio\2019\Community\VC\Tools\MSVC\14.29.30133\include\vector
;	COMDAT ?_Tidy@?$vector@IV?$allocator@I@std@@@std@@AAEXXZ
_TEXT	SEGMENT
tv86 = -44						; size = 4
tv88 = -40						; size = 4
tv90 = -36						; size = 4
__Myend$ = -32						; size = 4
__Mylast$ = -28						; size = 4
__Myfirst$ = -24					; size = 4
__My_data$ = -20					; size = 4
_this$ = -16						; size = 4
__$EHRec$ = -12						; size = 12
?_Tidy@?$vector@IV?$allocator@I@std@@@std@@AAEXXZ PROC	; std::vector<unsigned int,std::allocator<unsigned int> >::_Tidy, COMDAT
; _this$ = ecx

; 1755 :     _CONSTEXPR20_CONTAINER void _Tidy() noexcept { // free all storage

  00000	55		 push	 ebp
  00001	8b ec		 mov	 ebp, esp
  00003	6a ff		 push	 -1
  00005	68 00 00 00 00	 push	 __ehhandler$?_Tidy@?$vector@IV?$allocator@I@std@@@std@@AAEXXZ
  0000a	64 a1 00 00 00
	00		 mov	 eax, DWORD PTR fs:0
  00010	50		 push	 eax
  00011	83 ec 20	 sub	 esp, 32			; 00000020H
  00014	b8 cc cc cc cc	 mov	 eax, -858993460		; ccccccccH
  00019	89 45 d4	 mov	 DWORD PTR [ebp-44], eax
  0001c	89 45 d8	 mov	 DWORD PTR [ebp-40], eax
  0001f	89 45 dc	 mov	 DWORD PTR [ebp-36], eax
  00022	89 45 e0	 mov	 DWORD PTR [ebp-32], eax
  00025	89 45 e4	 mov	 DWORD PTR [ebp-28], eax
  00028	89 45 e8	 mov	 DWORD PTR [ebp-24], eax
  0002b	89 45 ec	 mov	 DWORD PTR [ebp-20], eax
  0002e	89 45 f0	 mov	 DWORD PTR [ebp-16], eax
  00031	a1 00 00 00 00	 mov	 eax, DWORD PTR ___security_cookie
  00036	33 c5		 xor	 eax, ebp
  00038	50		 push	 eax
  00039	8d 45 f4	 lea	 eax, DWORD PTR __$EHRec$[ebp]
  0003c	64 a3 00 00 00
	00		 mov	 DWORD PTR fs:0, eax
  00042	89 4d f0	 mov	 DWORD PTR _this$[ebp], ecx
  00045	b9 00 00 00 00	 mov	 ecx, OFFSET __324884E2_vector
  0004a	e8 00 00 00 00	 call	 @__CheckForDebuggerJustMyCode@4

; 1756 :         auto& _My_data    = _Mypair._Myval2;

  0004f	8b 45 f0	 mov	 eax, DWORD PTR _this$[ebp]
  00052	89 45 ec	 mov	 DWORD PTR __My_data$[ebp], eax

; 1757 :         pointer& _Myfirst = _My_data._Myfirst;

  00055	8b 4d ec	 mov	 ecx, DWORD PTR __My_data$[ebp]
  00058	83 c1 04	 add	 ecx, 4
  0005b	89 4d e8	 mov	 DWORD PTR __Myfirst$[ebp], ecx

; 1758 :         pointer& _Mylast  = _My_data._Mylast;

  0005e	8b 55 ec	 mov	 edx, DWORD PTR __My_data$[ebp]
  00061	83 c2 08	 add	 edx, 8
  00064	89 55 e4	 mov	 DWORD PTR __Mylast$[ebp], edx

; 1759 :         pointer& _Myend   = _My_data._Myend;

  00067	8b 45 ec	 mov	 eax, DWORD PTR __My_data$[ebp]
  0006a	83 c0 0c	 add	 eax, 12			; 0000000cH
  0006d	89 45 e0	 mov	 DWORD PTR __Myend$[ebp], eax

; 1760 : 
; 1761 :         _My_data._Orphan_all();

  00070	8b 4d ec	 mov	 ecx, DWORD PTR __My_data$[ebp]
  00073	e8 00 00 00 00	 call	 ?_Orphan_all@_Container_base12@std@@QAEXXZ ; std::_Container_base12::_Orphan_all

; 1762 : 
; 1763 :         if (_Myfirst) { // destroy and deallocate old array

  00078	8b 4d e8	 mov	 ecx, DWORD PTR __Myfirst$[ebp]
  0007b	83 39 00	 cmp	 DWORD PTR [ecx], 0
  0007e	74 62		 je	 SHORT $LN3@Tidy

; 1764 :             _Destroy(_Myfirst, _Mylast);

  00080	8b 55 e4	 mov	 edx, DWORD PTR __Mylast$[ebp]
  00083	8b 02		 mov	 eax, DWORD PTR [edx]
  00085	50		 push	 eax
  00086	8b 4d e8	 mov	 ecx, DWORD PTR __Myfirst$[ebp]
  00089	8b 11		 mov	 edx, DWORD PTR [ecx]
  0008b	52		 push	 edx
  0008c	8b 4d f0	 mov	 ecx, DWORD PTR _this$[ebp]
  0008f	e8 00 00 00 00	 call	 ?_Destroy@?$vector@IV?$allocator@I@std@@@std@@AAEXPAI0@Z ; std::vector<unsigned int,std::allocator<unsigned int> >::_Destroy

; 1765 :             _Getal().deallocate(_Myfirst, static_cast<size_type>(_Myend - _Myfirst));

  00094	8b 4d f0	 mov	 ecx, DWORD PTR _this$[ebp]
  00097	e8 00 00 00 00	 call	 ?_Getal@?$vector@IV?$allocator@I@std@@@std@@AAEAAV?$allocator@I@2@XZ ; std::vector<unsigned int,std::allocator<unsigned int> >::_Getal
  0009c	89 45 dc	 mov	 DWORD PTR tv90[ebp], eax
  0009f	8b 45 e0	 mov	 eax, DWORD PTR __Myend$[ebp]
  000a2	8b 4d e8	 mov	 ecx, DWORD PTR __Myfirst$[ebp]
  000a5	8b 10		 mov	 edx, DWORD PTR [eax]
  000a7	2b 11		 sub	 edx, DWORD PTR [ecx]
  000a9	c1 fa 02	 sar	 edx, 2
  000ac	89 55 d8	 mov	 DWORD PTR tv88[ebp], edx
  000af	8b 45 e8	 mov	 eax, DWORD PTR __Myfirst$[ebp]
  000b2	8b 08		 mov	 ecx, DWORD PTR [eax]
  000b4	89 4d d4	 mov	 DWORD PTR tv86[ebp], ecx
  000b7	8b 55 d8	 mov	 edx, DWORD PTR tv88[ebp]
  000ba	52		 push	 edx
  000bb	8b 45 d4	 mov	 eax, DWORD PTR tv86[ebp]
  000be	50		 push	 eax
  000bf	8b 4d dc	 mov	 ecx, DWORD PTR tv90[ebp]
  000c2	e8 00 00 00 00	 call	 ?deallocate@?$allocator@I@std@@QAEXQAII@Z ; std::allocator<unsigned int>::deallocate

; 1766 : 
; 1767 :             _Myfirst = nullptr;

  000c7	8b 4d e8	 mov	 ecx, DWORD PTR __Myfirst$[ebp]
  000ca	c7 01 00 00 00
	00		 mov	 DWORD PTR [ecx], 0

; 1768 :             _Mylast  = nullptr;

  000d0	8b 55 e4	 mov	 edx, DWORD PTR __Mylast$[ebp]
  000d3	c7 02 00 00 00
	00		 mov	 DWORD PTR [edx], 0

; 1769 :             _Myend   = nullptr;

  000d9	8b 45 e0	 mov	 eax, DWORD PTR __Myend$[ebp]
  000dc	c7 00 00 00 00
	00		 mov	 DWORD PTR [eax], 0
$LN3@Tidy:

; 1770 :         }
; 1771 :     }

  000e2	8b 4d f4	 mov	 ecx, DWORD PTR __$EHRec$[ebp]
  000e5	64 89 0d 00 00
	00 00		 mov	 DWORD PTR fs:0, ecx
  000ec	59		 pop	 ecx
  000ed	83 c4 2c	 add	 esp, 44			; 0000002cH
  000f0	3b ec		 cmp	 ebp, esp
  000f2	e8 00 00 00 00	 call	 __RTC_CheckEsp
  000f7	8b e5		 mov	 esp, ebp
  000f9	5d		 pop	 ebp
  000fa	c3		 ret	 0
  000fb	cc		 int	 3
  000fc	cc		 int	 3
  000fd	cc		 int	 3
  000fe	cc		 int	 3
  000ff	cc		 int	 3
_TEXT	ENDS
;	COMDAT text$x
text$x	SEGMENT
__ehhandler$?_Tidy@?$vector@IV?$allocator@I@std@@@std@@AAEXXZ:
  00000	90		 npad	 1
  00001	90		 npad	 1
  00002	8b 54 24 08	 mov	 edx, DWORD PTR [esp+8]
  00006	8d 42 0c	 lea	 eax, DWORD PTR [edx+12]
  00009	8b 4a dc	 mov	 ecx, DWORD PTR [edx-36]
  0000c	33 c8		 xor	 ecx, eax
  0000e	e8 00 00 00 00	 call	 @__security_check_cookie@4
  00013	b8 00 00 00 00	 mov	 eax, OFFSET __ehfuncinfo$?_Tidy@?$vector@IV?$allocator@I@std@@@std@@AAEXXZ
  00018	e9 00 00 00 00	 jmp	 ___CxxFrameHandler3
text$x	ENDS
?_Tidy@?$vector@IV?$allocator@I@std@@@std@@AAEXXZ ENDP	; std::vector<unsigned int,std::allocator<unsigned int> >::_Tidy
; Function compile flags: /Odtp /RTCsu
; File C:\Program Files (x86)\Microsoft Visual Studio\2019\Community\VC\Tools\MSVC\14.29.30133\include\vector
;	COMDAT ?_Destroy@?$vector@IV?$allocator@I@std@@@std@@AAEXPAI0@Z
_TEXT	SEGMENT
_this$ = -4						; size = 4
__First$ = 8						; size = 4
__Last$ = 12						; size = 4
?_Destroy@?$vector@IV?$allocator@I@std@@@std@@AAEXPAI0@Z PROC ; std::vector<unsigned int,std::allocator<unsigned int> >::_Destroy, COMDAT
; _this$ = ecx

; 1678 :     _CONSTEXPR20_CONTAINER void _Destroy(pointer _First, pointer _Last) {

  00000	55		 push	 ebp
  00001	8b ec		 mov	 ebp, esp
  00003	51		 push	 ecx
  00004	c7 45 fc cc cc
	cc cc		 mov	 DWORD PTR [ebp-4], -858993460 ; ccccccccH
  0000b	89 4d fc	 mov	 DWORD PTR _this$[ebp], ecx
  0000e	b9 00 00 00 00	 mov	 ecx, OFFSET __324884E2_vector
  00013	e8 00 00 00 00	 call	 @__CheckForDebuggerJustMyCode@4

; 1679 :         // destroy [_First, _Last) using allocator
; 1680 :         _Destroy_range(_First, _Last, _Getal());

  00018	8b 4d fc	 mov	 ecx, DWORD PTR _this$[ebp]
  0001b	e8 00 00 00 00	 call	 ?_Getal@?$vector@IV?$allocator@I@std@@@std@@AAEAAV?$allocator@I@2@XZ ; std::vector<unsigned int,std::allocator<unsigned int> >::_Getal
  00020	50		 push	 eax
  00021	8b 45 0c	 mov	 eax, DWORD PTR __Last$[ebp]
  00024	50		 push	 eax
  00025	8b 4d 08	 mov	 ecx, DWORD PTR __First$[ebp]
  00028	51		 push	 ecx
  00029	e8 00 00 00 00	 call	 ??$_Destroy_range@V?$allocator@I@std@@@std@@YAXPAIQAIAAV?$allocator@I@0@@Z ; std::_Destroy_range<std::allocator<unsigned int> >
  0002e	83 c4 0c	 add	 esp, 12			; 0000000cH

; 1681 :     }

  00031	83 c4 04	 add	 esp, 4
  00034	3b ec		 cmp	 ebp, esp
  00036	e8 00 00 00 00	 call	 __RTC_CheckEsp
  0003b	8b e5		 mov	 esp, ebp
  0003d	5d		 pop	 ebp
  0003e	c2 08 00	 ret	 8
?_Destroy@?$vector@IV?$allocator@I@std@@@std@@AAEXPAI0@Z ENDP ; std::vector<unsigned int,std::allocator<unsigned int> >::_Destroy
_TEXT	ENDS
; Function compile flags: /Odtp /RTCsu
; File C:\Program Files (x86)\Microsoft Visual Studio\2019\Community\VC\Tools\MSVC\14.29.30133\include\vector
;	COMDAT ?data@?$vector@IV?$allocator@I@std@@@std@@QBEPBIXZ
_TEXT	SEGMENT
_this$ = -4						; size = 4
?data@?$vector@IV?$allocator@I@std@@@std@@QBEPBIXZ PROC	; std::vector<unsigned int,std::allocator<unsigned int> >::data, COMDAT
; _this$ = ecx

; 1470 :     _NODISCARD _CONSTEXPR20_CONTAINER const _Ty* data() const noexcept {

  00000	55		 push	 ebp
  00001	8b ec		 mov	 ebp, esp
  00003	51		 push	 ecx
  00004	c7 45 fc cc cc
	cc cc		 mov	 DWORD PTR [ebp-4], -858993460 ; ccccccccH
  0000b	89 4d fc	 mov	 DWORD PTR _this$[ebp], ecx
  0000e	b9 00 00 00 00	 mov	 ecx, OFFSET __324884E2_vector
  00013	e8 00 00 00 00	 call	 @__CheckForDebuggerJustMyCode@4

; 1471 :         return _Unfancy_maybe_null(_Mypair._Myval2._Myfirst);

  00018	8b 45 fc	 mov	 eax, DWORD PTR _this$[ebp]
  0001b	8b 48 04	 mov	 ecx, DWORD PTR [eax+4]
  0001e	51		 push	 ecx
  0001f	e8 00 00 00 00	 call	 ??$_Unfancy_maybe_null@I@std@@YAPAIPAI@Z ; std::_Unfancy_maybe_null<unsigned int>
  00024	83 c4 04	 add	 esp, 4

; 1472 :     }

  00027	83 c4 04	 add	 esp, 4
  0002a	3b ec		 cmp	 ebp, esp
  0002c	e8 00 00 00 00	 call	 __RTC_CheckEsp
  00031	8b e5		 mov	 esp, ebp
  00033	5d		 pop	 ebp
  00034	c3		 ret	 0
?data@?$vector@IV?$allocator@I@std@@@std@@QBEPBIXZ ENDP	; std::vector<unsigned int,std::allocator<unsigned int> >::data
_TEXT	ENDS
; Function compile flags: /Odtp /RTCsu
; File C:\Program Files (x86)\Microsoft Visual Studio\2019\Community\VC\Tools\MSVC\14.29.30133\include\vector
;	COMDAT ?data@?$vector@IV?$allocator@I@std@@@std@@QAEPAIXZ
_TEXT	SEGMENT
_this$ = -4						; size = 4
?data@?$vector@IV?$allocator@I@std@@@std@@QAEPAIXZ PROC	; std::vector<unsigned int,std::allocator<unsigned int> >::data, COMDAT
; _this$ = ecx

; 1466 :     _NODISCARD _CONSTEXPR20_CONTAINER _Ty* data() noexcept {

  00000	55		 push	 ebp
  00001	8b ec		 mov	 ebp, esp
  00003	51		 push	 ecx
  00004	c7 45 fc cc cc
	cc cc		 mov	 DWORD PTR [ebp-4], -858993460 ; ccccccccH
  0000b	89 4d fc	 mov	 DWORD PTR _this$[ebp], ecx
  0000e	b9 00 00 00 00	 mov	 ecx, OFFSET __324884E2_vector
  00013	e8 00 00 00 00	 call	 @__CheckForDebuggerJustMyCode@4

; 1467 :         return _Unfancy_maybe_null(_Mypair._Myval2._Myfirst);

  00018	8b 45 fc	 mov	 eax, DWORD PTR _this$[ebp]
  0001b	8b 48 04	 mov	 ecx, DWORD PTR [eax+4]
  0001e	51		 push	 ecx
  0001f	e8 00 00 00 00	 call	 ??$_Unfancy_maybe_null@I@std@@YAPAIPAI@Z ; std::_Unfancy_maybe_null<unsigned int>
  00024	83 c4 04	 add	 esp, 4

; 1468 :     }

  00027	83 c4 04	 add	 esp, 4
  0002a	3b ec		 cmp	 ebp, esp
  0002c	e8 00 00 00 00	 call	 __RTC_CheckEsp
  00031	8b e5		 mov	 esp, ebp
  00033	5d		 pop	 ebp
  00034	c3		 ret	 0
?data@?$vector@IV?$allocator@I@std@@@std@@QAEPAIXZ ENDP	; std::vector<unsigned int,std::allocator<unsigned int> >::data
_TEXT	ENDS
; Function compile flags: /Odtp /RTCsu
; File C:\Program Files (x86)\Microsoft Visual Studio\2019\Community\VC\Tools\MSVC\14.29.30133\include\vector
;	COMDAT ??1?$vector@IV?$allocator@I@std@@@std@@QAE@XZ
_TEXT	SEGMENT
$T1 = -28						; size = 4
_$S20$ = -17						; size = 1
__Alproxy$ = -12					; size = 4
_this$ = -8						; size = 4
__$ArrayPad$ = -4					; size = 4
??1?$vector@IV?$allocator@I@std@@@std@@QAE@XZ PROC	; std::vector<unsigned int,std::allocator<unsigned int> >::~vector<unsigned int,std::allocator<unsigned int> >, COMDAT
; _this$ = ecx

; 711  :     _CONSTEXPR20_CONTAINER ~vector() noexcept {

  00000	55		 push	 ebp
  00001	8b ec		 mov	 ebp, esp
  00003	83 ec 1c	 sub	 esp, 28			; 0000001cH
  00006	b8 cc cc cc cc	 mov	 eax, -858993460		; ccccccccH
  0000b	89 45 e4	 mov	 DWORD PTR [ebp-28], eax
  0000e	89 45 e8	 mov	 DWORD PTR [ebp-24], eax
  00011	89 45 ec	 mov	 DWORD PTR [ebp-20], eax
  00014	89 45 f0	 mov	 DWORD PTR [ebp-16], eax
  00017	89 45 f4	 mov	 DWORD PTR [ebp-12], eax
  0001a	89 45 f8	 mov	 DWORD PTR [ebp-8], eax
  0001d	89 45 fc	 mov	 DWORD PTR [ebp-4], eax
  00020	a1 00 00 00 00	 mov	 eax, DWORD PTR ___security_cookie
  00025	33 c5		 xor	 eax, ebp
  00027	89 45 fc	 mov	 DWORD PTR __$ArrayPad$[ebp], eax
  0002a	89 4d f8	 mov	 DWORD PTR _this$[ebp], ecx
  0002d	b9 00 00 00 00	 mov	 ecx, OFFSET __324884E2_vector
  00032	e8 00 00 00 00	 call	 @__CheckForDebuggerJustMyCode@4

; 712  :         _Tidy();

  00037	8b 4d f8	 mov	 ecx, DWORD PTR _this$[ebp]
  0003a	e8 00 00 00 00	 call	 ?_Tidy@?$vector@IV?$allocator@I@std@@@std@@AAEXXZ ; std::vector<unsigned int,std::allocator<unsigned int> >::_Tidy

; 713  : #if _ITERATOR_DEBUG_LEVEL != 0
; 714  :         auto&& _Alproxy = _GET_PROXY_ALLOCATOR(_Alty, _Getal());

  0003f	8b 4d f8	 mov	 ecx, DWORD PTR _this$[ebp]
  00042	e8 00 00 00 00	 call	 ?_Getal@?$vector@IV?$allocator@I@std@@@std@@AAEAAV?$allocator@I@2@XZ ; std::vector<unsigned int,std::allocator<unsigned int> >::_Getal
  00047	50		 push	 eax
  00048	8d 4d ef	 lea	 ecx, DWORD PTR _$S20$[ebp]
  0004b	e8 00 00 00 00	 call	 ??$?0I@?$allocator@U_Container_proxy@std@@@std@@QAE@ABV?$allocator@I@1@@Z ; std::allocator<std::_Container_proxy>::allocator<std::_Container_proxy><unsigned int>
  00050	8d 45 ef	 lea	 eax, DWORD PTR _$S20$[ebp]
  00053	89 45 f4	 mov	 DWORD PTR __Alproxy$[ebp], eax

; 715  :         _Delete_plain_internal(_Alproxy, _STD exchange(_Mypair._Myval2._Myproxy, nullptr));

  00056	c7 45 e4 00 00
	00 00		 mov	 DWORD PTR $T1[ebp], 0
  0005d	8d 4d e4	 lea	 ecx, DWORD PTR $T1[ebp]
  00060	51		 push	 ecx
  00061	8b 55 f8	 mov	 edx, DWORD PTR _this$[ebp]
  00064	52		 push	 edx
  00065	e8 00 00 00 00	 call	 ??$exchange@PAU_Container_proxy@std@@$$T@std@@YAPAU_Container_proxy@0@AAPAU10@$$QA$$T@Z ; std::exchange<std::_Container_proxy *,std::nullptr_t>
  0006a	83 c4 08	 add	 esp, 8
  0006d	50		 push	 eax
  0006e	8b 45 f4	 mov	 eax, DWORD PTR __Alproxy$[ebp]
  00071	50		 push	 eax
  00072	e8 00 00 00 00	 call	 ??$_Delete_plain_internal@V?$allocator@U_Container_proxy@std@@@std@@@std@@YAXAAV?$allocator@U_Container_proxy@std@@@0@QAU_Container_proxy@0@@Z ; std::_Delete_plain_internal<std::allocator<std::_Container_proxy> >
  00077	83 c4 08	 add	 esp, 8

; 716  : #endif // _ITERATOR_DEBUG_LEVEL != 0
; 717  :     }

  0007a	52		 push	 edx
  0007b	8b cd		 mov	 ecx, ebp
  0007d	50		 push	 eax
  0007e	8d 15 00 00 00
	00		 lea	 edx, DWORD PTR $LN5@vector
  00084	e8 00 00 00 00	 call	 @_RTC_CheckStackVars@8
  00089	58		 pop	 eax
  0008a	5a		 pop	 edx
  0008b	8b 4d fc	 mov	 ecx, DWORD PTR __$ArrayPad$[ebp]
  0008e	33 cd		 xor	 ecx, ebp
  00090	e8 00 00 00 00	 call	 @__security_check_cookie@4
  00095	83 c4 1c	 add	 esp, 28			; 0000001cH
  00098	3b ec		 cmp	 ebp, esp
  0009a	e8 00 00 00 00	 call	 __RTC_CheckEsp
  0009f	8b e5		 mov	 esp, ebp
  000a1	5d		 pop	 ebp
  000a2	c3		 ret	 0
  000a3	90		 npad	 1
$LN5@vector:
  000a4	01 00 00 00	 DD	 1
  000a8	00 00 00 00	 DD	 $LN4@vector
$LN4@vector:
  000ac	ef ff ff ff	 DD	 -17			; ffffffefH
  000b0	01 00 00 00	 DD	 1
  000b4	00 00 00 00	 DD	 $LN3@vector
$LN3@vector:
  000b8	24		 DB	 36			; 00000024H
  000b9	53		 DB	 83			; 00000053H
  000ba	32		 DB	 50			; 00000032H
  000bb	30		 DB	 48			; 00000030H
  000bc	00		 DB	 0
??1?$vector@IV?$allocator@I@std@@@std@@QAE@XZ ENDP	; std::vector<unsigned int,std::allocator<unsigned int> >::~vector<unsigned int,std::allocator<unsigned int> >
_TEXT	ENDS
; Function compile flags: /Odtp /RTCsu
; File C:\Program Files (x86)\Microsoft Visual Studio\2019\Community\VC\Tools\MSVC\14.29.30133\include\vector
;	COMDAT ?_Getal@?$_Vb_val@V?$allocator@_N@std@@@std@@QAEAAV?$allocator@I@2@XZ
_TEXT	SEGMENT
_this$ = -4						; size = 4
?_Getal@?$_Vb_val@V?$allocator@_N@std@@@std@@QAEAAV?$allocator@I@2@XZ PROC ; std::_Vb_val<std::allocator<bool> >::_Getal, COMDAT
; _this$ = ecx

; 2464 :     _CONSTEXPR20_CONTAINER _Alvbase& _Getal() noexcept {

  00000	55		 push	 ebp
  00001	8b ec		 mov	 ebp, esp
  00003	51		 push	 ecx
  00004	c7 45 fc cc cc
	cc cc		 mov	 DWORD PTR [ebp-4], -858993460 ; ccccccccH
  0000b	89 4d fc	 mov	 DWORD PTR _this$[ebp], ecx
  0000e	b9 00 00 00 00	 mov	 ecx, OFFSET __324884E2_vector
  00013	e8 00 00 00 00	 call	 @__CheckForDebuggerJustMyCode@4

; 2465 :         return _Myvec._Getal();

  00018	8b 4d fc	 mov	 ecx, DWORD PTR _this$[ebp]
  0001b	83 c1 04	 add	 ecx, 4
  0001e	e8 00 00 00 00	 call	 ?_Getal@?$vector@IV?$allocator@I@std@@@std@@AAEAAV?$allocator@I@2@XZ ; std::vector<unsigned int,std::allocator<unsigned int> >::_Getal

; 2466 :     }

  00023	83 c4 04	 add	 esp, 4
  00026	3b ec		 cmp	 ebp, esp
  00028	e8 00 00 00 00	 call	 __RTC_CheckEsp
  0002d	8b e5		 mov	 esp, ebp
  0002f	5d		 pop	 ebp
  00030	c3		 ret	 0
?_Getal@?$_Vb_val@V?$allocator@_N@std@@@std@@QAEAAV?$allocator@I@2@XZ ENDP ; std::_Vb_val<std::allocator<bool> >::_Getal
_TEXT	ENDS
; Function compile flags: /Odtp /RTCsu
; File C:\Program Files (x86)\Microsoft Visual Studio\2019\Community\VC\Tools\MSVC\14.29.30133\include\vector
;	COMDAT ??1?$_Vb_val@V?$allocator@_N@std@@@std@@QAE@XZ
_TEXT	SEGMENT
$T1 = -28						; size = 4
_$S17$ = -17						; size = 1
__Alproxy$ = -12					; size = 4
_this$ = -8						; size = 4
__$ArrayPad$ = -4					; size = 4
??1?$_Vb_val@V?$allocator@_N@std@@@std@@QAE@XZ PROC	; std::_Vb_val<std::allocator<bool> >::~_Vb_val<std::allocator<bool> >, COMDAT
; _this$ = ecx

; 2456 :     _CONSTEXPR20_CONTAINER ~_Vb_val() noexcept {

  00000	55		 push	 ebp
  00001	8b ec		 mov	 ebp, esp
  00003	83 ec 1c	 sub	 esp, 28			; 0000001cH
  00006	b8 cc cc cc cc	 mov	 eax, -858993460		; ccccccccH
  0000b	89 45 e4	 mov	 DWORD PTR [ebp-28], eax
  0000e	89 45 e8	 mov	 DWORD PTR [ebp-24], eax
  00011	89 45 ec	 mov	 DWORD PTR [ebp-20], eax
  00014	89 45 f0	 mov	 DWORD PTR [ebp-16], eax
  00017	89 45 f4	 mov	 DWORD PTR [ebp-12], eax
  0001a	89 45 f8	 mov	 DWORD PTR [ebp-8], eax
  0001d	89 45 fc	 mov	 DWORD PTR [ebp-4], eax
  00020	a1 00 00 00 00	 mov	 eax, DWORD PTR ___security_cookie
  00025	33 c5		 xor	 eax, ebp
  00027	89 45 fc	 mov	 DWORD PTR __$ArrayPad$[ebp], eax
  0002a	89 4d f8	 mov	 DWORD PTR _this$[ebp], ecx
  0002d	b9 00 00 00 00	 mov	 ecx, OFFSET __324884E2_vector
  00032	e8 00 00 00 00	 call	 @__CheckForDebuggerJustMyCode@4

; 2457 : #if _ITERATOR_DEBUG_LEVEL != 0
; 2458 :         this->_Orphan_all();

  00037	8b 4d f8	 mov	 ecx, DWORD PTR _this$[ebp]
  0003a	e8 00 00 00 00	 call	 ?_Orphan_all@_Container_base12@std@@QAEXXZ ; std::_Container_base12::_Orphan_all

; 2459 :         auto&& _Alproxy = _GET_PROXY_ALLOCATOR(_Alvbase, this->_Getal());

  0003f	8b 4d f8	 mov	 ecx, DWORD PTR _this$[ebp]
  00042	e8 00 00 00 00	 call	 ?_Getal@?$_Vb_val@V?$allocator@_N@std@@@std@@QAEAAV?$allocator@I@2@XZ ; std::_Vb_val<std::allocator<bool> >::_Getal
  00047	50		 push	 eax
  00048	8d 4d ef	 lea	 ecx, DWORD PTR _$S17$[ebp]
  0004b	e8 00 00 00 00	 call	 ??$?0I@?$allocator@U_Container_proxy@std@@@std@@QAE@ABV?$allocator@I@1@@Z ; std::allocator<std::_Container_proxy>::allocator<std::_Container_proxy><unsigned int>
  00050	8d 45 ef	 lea	 eax, DWORD PTR _$S17$[ebp]
  00053	89 45 f4	 mov	 DWORD PTR __Alproxy$[ebp], eax

; 2460 :         _Delete_plain_internal(_Alproxy, _STD exchange(this->_Myproxy, nullptr));

  00056	c7 45 e4 00 00
	00 00		 mov	 DWORD PTR $T1[ebp], 0
  0005d	8d 4d e4	 lea	 ecx, DWORD PTR $T1[ebp]
  00060	51		 push	 ecx
  00061	8b 55 f8	 mov	 edx, DWORD PTR _this$[ebp]
  00064	52		 push	 edx
  00065	e8 00 00 00 00	 call	 ??$exchange@PAU_Container_proxy@std@@$$T@std@@YAPAU_Container_proxy@0@AAPAU10@$$QA$$T@Z ; std::exchange<std::_Container_proxy *,std::nullptr_t>
  0006a	83 c4 08	 add	 esp, 8
  0006d	50		 push	 eax
  0006e	8b 45 f4	 mov	 eax, DWORD PTR __Alproxy$[ebp]
  00071	50		 push	 eax
  00072	e8 00 00 00 00	 call	 ??$_Delete_plain_internal@V?$allocator@U_Container_proxy@std@@@std@@@std@@YAXAAV?$allocator@U_Container_proxy@std@@@0@QAU_Container_proxy@0@@Z ; std::_Delete_plain_internal<std::allocator<std::_Container_proxy> >
  00077	83 c4 08	 add	 esp, 8

; 2461 : #endif // _ITERATOR_DEBUG_LEVEL != 0
; 2462 :     }

  0007a	8b 4d f8	 mov	 ecx, DWORD PTR _this$[ebp]
  0007d	83 c1 04	 add	 ecx, 4
  00080	e8 00 00 00 00	 call	 ??1?$vector@IV?$allocator@I@std@@@std@@QAE@XZ ; std::vector<unsigned int,std::allocator<unsigned int> >::~vector<unsigned int,std::allocator<unsigned int> >
  00085	52		 push	 edx
  00086	8b cd		 mov	 ecx, ebp
  00088	50		 push	 eax
  00089	8d 15 00 00 00
	00		 lea	 edx, DWORD PTR $LN5@Vb_val
  0008f	e8 00 00 00 00	 call	 @_RTC_CheckStackVars@8
  00094	58		 pop	 eax
  00095	5a		 pop	 edx
  00096	8b 4d fc	 mov	 ecx, DWORD PTR __$ArrayPad$[ebp]
  00099	33 cd		 xor	 ecx, ebp
  0009b	e8 00 00 00 00	 call	 @__security_check_cookie@4
  000a0	83 c4 1c	 add	 esp, 28			; 0000001cH
  000a3	3b ec		 cmp	 ebp, esp
  000a5	e8 00 00 00 00	 call	 __RTC_CheckEsp
  000aa	8b e5		 mov	 esp, ebp
  000ac	5d		 pop	 ebp
  000ad	c3		 ret	 0
  000ae	66 90		 npad	 2
$LN5@Vb_val:
  000b0	01 00 00 00	 DD	 1
  000b4	00 00 00 00	 DD	 $LN4@Vb_val
$LN4@Vb_val:
  000b8	ef ff ff ff	 DD	 -17			; ffffffefH
  000bc	01 00 00 00	 DD	 1
  000c0	00 00 00 00	 DD	 $LN3@Vb_val
$LN3@Vb_val:
  000c4	24		 DB	 36			; 00000024H
  000c5	53		 DB	 83			; 00000053H
  000c6	31		 DB	 49			; 00000031H
  000c7	37		 DB	 55			; 00000037H
  000c8	00		 DB	 0
??1?$_Vb_val@V?$allocator@_N@std@@@std@@QAE@XZ ENDP	; std::_Vb_val<std::allocator<bool> >::~_Vb_val<std::allocator<bool> >
_TEXT	ENDS
; Function compile flags: /Odtp /RTCsu
;	COMDAT ??_G?$vector@PAVTexture@sf@@V?$allocator@PAVTexture@sf@@@std@@@std@@QAEPAXI@Z
_TEXT	SEGMENT
_this$ = -4						; size = 4
___flags$ = 8						; size = 4
??_G?$vector@PAVTexture@sf@@V?$allocator@PAVTexture@sf@@@std@@@std@@QAEPAXI@Z PROC ; std::vector<sf::Texture *,std::allocator<sf::Texture *> >::`scalar deleting destructor', COMDAT
; _this$ = ecx
  00000	55		 push	 ebp
  00001	8b ec		 mov	 ebp, esp
  00003	51		 push	 ecx
  00004	c7 45 fc cc cc
	cc cc		 mov	 DWORD PTR [ebp-4], -858993460 ; ccccccccH
  0000b	89 4d fc	 mov	 DWORD PTR _this$[ebp], ecx
  0000e	8b 4d fc	 mov	 ecx, DWORD PTR _this$[ebp]
  00011	e8 00 00 00 00	 call	 ??1?$vector@PAVTexture@sf@@V?$allocator@PAVTexture@sf@@@std@@@std@@QAE@XZ ; std::vector<sf::Texture *,std::allocator<sf::Texture *> >::~vector<sf::Texture *,std::allocator<sf::Texture *> >
  00016	8b 45 08	 mov	 eax, DWORD PTR ___flags$[ebp]
  00019	83 e0 01	 and	 eax, 1
  0001c	74 0e		 je	 SHORT $LN2@scalar
  0001e	6a 10		 push	 16			; 00000010H
  00020	8b 4d fc	 mov	 ecx, DWORD PTR _this$[ebp]
  00023	51		 push	 ecx
  00024	e8 00 00 00 00	 call	 ??3@YAXPAXI@Z		; operator delete
  00029	83 c4 08	 add	 esp, 8
$LN2@scalar:
  0002c	8b 45 fc	 mov	 eax, DWORD PTR _this$[ebp]
  0002f	83 c4 04	 add	 esp, 4
  00032	3b ec		 cmp	 ebp, esp
  00034	e8 00 00 00 00	 call	 __RTC_CheckEsp
  00039	8b e5		 mov	 esp, ebp
  0003b	5d		 pop	 ebp
  0003c	c2 04 00	 ret	 4
??_G?$vector@PAVTexture@sf@@V?$allocator@PAVTexture@sf@@@std@@@std@@QAEPAXI@Z ENDP ; std::vector<sf::Texture *,std::allocator<sf::Texture *> >::`scalar deleting destructor'
_TEXT	ENDS
; Function compile flags: /Odtp /RTCsu
;	COMDAT ?__autoclassinit2@?$vector@PAVTexture@sf@@V?$allocator@PAVTexture@sf@@@std@@@std@@QAEXI@Z
_TEXT	SEGMENT
_this$ = -4						; size = 4
_classSize$ = 8						; size = 4
?__autoclassinit2@?$vector@PAVTexture@sf@@V?$allocator@PAVTexture@sf@@@std@@@std@@QAEXI@Z PROC ; std::vector<sf::Texture *,std::allocator<sf::Texture *> >::__autoclassinit2, COMDAT
; _this$ = ecx
  00000	55		 push	 ebp
  00001	8b ec		 mov	 ebp, esp
  00003	51		 push	 ecx
  00004	c7 45 fc cc cc
	cc cc		 mov	 DWORD PTR [ebp-4], -858993460 ; ccccccccH
  0000b	89 4d fc	 mov	 DWORD PTR _this$[ebp], ecx
  0000e	8b 45 08	 mov	 eax, DWORD PTR _classSize$[ebp]
  00011	50		 push	 eax
  00012	6a 00		 push	 0
  00014	8b 4d fc	 mov	 ecx, DWORD PTR _this$[ebp]
  00017	51		 push	 ecx
  00018	e8 00 00 00 00	 call	 _memset
  0001d	83 c4 0c	 add	 esp, 12			; 0000000cH
  00020	83 c4 04	 add	 esp, 4
  00023	3b ec		 cmp	 ebp, esp
  00025	e8 00 00 00 00	 call	 __RTC_CheckEsp
  0002a	8b e5		 mov	 esp, ebp
  0002c	5d		 pop	 ebp
  0002d	c2 04 00	 ret	 4
?__autoclassinit2@?$vector@PAVTexture@sf@@V?$allocator@PAVTexture@sf@@@std@@@std@@QAEXI@Z ENDP ; std::vector<sf::Texture *,std::allocator<sf::Texture *> >::__autoclassinit2
_TEXT	ENDS
; Function compile flags: /Odtp /RTCsu
; File C:\Program Files (x86)\Microsoft Visual Studio\2019\Community\VC\Tools\MSVC\14.29.30133\include\xmemory
;	COMDAT ?_Get_first@?$_Compressed_pair@V?$allocator@PAVTexture@sf@@@std@@V?$_Vector_val@U?$_Simple_types@PAVTexture@sf@@@std@@@2@$00@std@@QBEABV?$allocator@PAVTexture@sf@@@2@XZ
_TEXT	SEGMENT
_this$ = -4						; size = 4
?_Get_first@?$_Compressed_pair@V?$allocator@PAVTexture@sf@@@std@@V?$_Vector_val@U?$_Simple_types@PAVTexture@sf@@@std@@@2@$00@std@@QBEABV?$allocator@PAVTexture@sf@@@2@XZ PROC ; std::_Compressed_pair<std::allocator<sf::Texture *>,std::_Vector_val<std::_Simple_types<sf::Texture *> >,1>::_Get_first, COMDAT
; _this$ = ecx

; 1401 :     constexpr const _Ty1& _Get_first() const noexcept {

  00000	55		 push	 ebp
  00001	8b ec		 mov	 ebp, esp
  00003	51		 push	 ecx
  00004	c7 45 fc cc cc
	cc cc		 mov	 DWORD PTR [ebp-4], -858993460 ; ccccccccH
  0000b	89 4d fc	 mov	 DWORD PTR _this$[ebp], ecx
  0000e	b9 00 00 00 00	 mov	 ecx, OFFSET __79D216CD_xmemory
  00013	e8 00 00 00 00	 call	 @__CheckForDebuggerJustMyCode@4

; 1402 :         return *this;

  00018	8b 45 fc	 mov	 eax, DWORD PTR _this$[ebp]

; 1403 :     }

  0001b	83 c4 04	 add	 esp, 4
  0001e	3b ec		 cmp	 ebp, esp
  00020	e8 00 00 00 00	 call	 __RTC_CheckEsp
  00025	8b e5		 mov	 esp, ebp
  00027	5d		 pop	 ebp
  00028	c3		 ret	 0
?_Get_first@?$_Compressed_pair@V?$allocator@PAVTexture@sf@@@std@@V?$_Vector_val@U?$_Simple_types@PAVTexture@sf@@@std@@@2@$00@std@@QBEABV?$allocator@PAVTexture@sf@@@2@XZ ENDP ; std::_Compressed_pair<std::allocator<sf::Texture *>,std::_Vector_val<std::_Simple_types<sf::Texture *> >,1>::_Get_first
_TEXT	ENDS
; Function compile flags: /Odtp /RTCsu
; File C:\Program Files (x86)\Microsoft Visual Studio\2019\Community\VC\Tools\MSVC\14.29.30133\include\xmemory
;	COMDAT ?_Get_first@?$_Compressed_pair@V?$allocator@PAVTexture@sf@@@std@@V?$_Vector_val@U?$_Simple_types@PAVTexture@sf@@@std@@@2@$00@std@@QAEAAV?$allocator@PAVTexture@sf@@@2@XZ
_TEXT	SEGMENT
_this$ = -4						; size = 4
?_Get_first@?$_Compressed_pair@V?$allocator@PAVTexture@sf@@@std@@V?$_Vector_val@U?$_Simple_types@PAVTexture@sf@@@std@@@2@$00@std@@QAEAAV?$allocator@PAVTexture@sf@@@2@XZ PROC ; std::_Compressed_pair<std::allocator<sf::Texture *>,std::_Vector_val<std::_Simple_types<sf::Texture *> >,1>::_Get_first, COMDAT
; _this$ = ecx

; 1397 :     constexpr _Ty1& _Get_first() noexcept {

  00000	55		 push	 ebp
  00001	8b ec		 mov	 ebp, esp
  00003	51		 push	 ecx
  00004	c7 45 fc cc cc
	cc cc		 mov	 DWORD PTR [ebp-4], -858993460 ; ccccccccH
  0000b	89 4d fc	 mov	 DWORD PTR _this$[ebp], ecx
  0000e	b9 00 00 00 00	 mov	 ecx, OFFSET __79D216CD_xmemory
  00013	e8 00 00 00 00	 call	 @__CheckForDebuggerJustMyCode@4

; 1398 :         return *this;

  00018	8b 45 fc	 mov	 eax, DWORD PTR _this$[ebp]

; 1399 :     }

  0001b	83 c4 04	 add	 esp, 4
  0001e	3b ec		 cmp	 ebp, esp
  00020	e8 00 00 00 00	 call	 __RTC_CheckEsp
  00025	8b e5		 mov	 esp, ebp
  00027	5d		 pop	 ebp
  00028	c3		 ret	 0
?_Get_first@?$_Compressed_pair@V?$allocator@PAVTexture@sf@@@std@@V?$_Vector_val@U?$_Simple_types@PAVTexture@sf@@@std@@@2@$00@std@@QAEAAV?$allocator@PAVTexture@sf@@@2@XZ ENDP ; std::_Compressed_pair<std::allocator<sf::Texture *>,std::_Vector_val<std::_Simple_types<sf::Texture *> >,1>::_Get_first
_TEXT	ENDS
; Function compile flags: /Odtp /RTCsu
; File C:\Program Files (x86)\Microsoft Visual Studio\2019\Community\VC\Tools\MSVC\14.29.30133\include\vector
;	COMDAT ??0?$_Vector_val@U?$_Simple_types@PAVTexture@sf@@@std@@@std@@QAE@XZ
_TEXT	SEGMENT
_this$ = -4						; size = 4
??0?$_Vector_val@U?$_Simple_types@PAVTexture@sf@@@std@@@std@@QAE@XZ PROC ; std::_Vector_val<std::_Simple_types<sf::Texture *> >::_Vector_val<std::_Simple_types<sf::Texture *> >, COMDAT
; _this$ = ecx

; 401  :     _CONSTEXPR20_CONTAINER _Vector_val() noexcept : _Myfirst(), _Mylast(), _Myend() {}

  00000	55		 push	 ebp
  00001	8b ec		 mov	 ebp, esp
  00003	51		 push	 ecx
  00004	c7 45 fc cc cc
	cc cc		 mov	 DWORD PTR [ebp-4], -858993460 ; ccccccccH
  0000b	89 4d fc	 mov	 DWORD PTR _this$[ebp], ecx
  0000e	b9 00 00 00 00	 mov	 ecx, OFFSET __324884E2_vector
  00013	e8 00 00 00 00	 call	 @__CheckForDebuggerJustMyCode@4
  00018	8b 4d fc	 mov	 ecx, DWORD PTR _this$[ebp]
  0001b	e8 00 00 00 00	 call	 ??0_Container_base12@std@@QAE@XZ ; std::_Container_base12::_Container_base12
  00020	8b 45 fc	 mov	 eax, DWORD PTR _this$[ebp]
  00023	c7 40 04 00 00
	00 00		 mov	 DWORD PTR [eax+4], 0
  0002a	8b 4d fc	 mov	 ecx, DWORD PTR _this$[ebp]
  0002d	c7 41 08 00 00
	00 00		 mov	 DWORD PTR [ecx+8], 0
  00034	8b 55 fc	 mov	 edx, DWORD PTR _this$[ebp]
  00037	c7 42 0c 00 00
	00 00		 mov	 DWORD PTR [edx+12], 0
  0003e	8b 45 fc	 mov	 eax, DWORD PTR _this$[ebp]
  00041	83 c4 04	 add	 esp, 4
  00044	3b ec		 cmp	 ebp, esp
  00046	e8 00 00 00 00	 call	 __RTC_CheckEsp
  0004b	8b e5		 mov	 esp, ebp
  0004d	5d		 pop	 ebp
  0004e	c3		 ret	 0
??0?$_Vector_val@U?$_Simple_types@PAVTexture@sf@@@std@@@std@@QAE@XZ ENDP ; std::_Vector_val<std::_Simple_types<sf::Texture *> >::_Vector_val<std::_Simple_types<sf::Texture *> >
_TEXT	ENDS
; Function compile flags: /Odtp /RTCsu
; File C:\Program Files (x86)\Microsoft Visual Studio\2019\Community\VC\Tools\MSVC\14.29.30133\include\vector
;	COMDAT ?_Getal@?$vector@PAVTexture@sf@@V?$allocator@PAVTexture@sf@@@std@@@std@@ABEABV?$allocator@PAVTexture@sf@@@2@XZ
_TEXT	SEGMENT
_this$ = -4						; size = 4
?_Getal@?$vector@PAVTexture@sf@@V?$allocator@PAVTexture@sf@@@std@@@std@@ABEABV?$allocator@PAVTexture@sf@@@2@XZ PROC ; std::vector<sf::Texture *,std::allocator<sf::Texture *> >::_Getal, COMDAT
; _this$ = ecx

; 1821 :     _NODISCARD _CONSTEXPR20_CONTAINER const _Alty& _Getal() const noexcept {

  00000	55		 push	 ebp
  00001	8b ec		 mov	 ebp, esp
  00003	51		 push	 ecx
  00004	c7 45 fc cc cc
	cc cc		 mov	 DWORD PTR [ebp-4], -858993460 ; ccccccccH
  0000b	89 4d fc	 mov	 DWORD PTR _this$[ebp], ecx
  0000e	b9 00 00 00 00	 mov	 ecx, OFFSET __324884E2_vector
  00013	e8 00 00 00 00	 call	 @__CheckForDebuggerJustMyCode@4

; 1822 :         return _Mypair._Get_first();

  00018	8b 4d fc	 mov	 ecx, DWORD PTR _this$[ebp]
  0001b	e8 00 00 00 00	 call	 ?_Get_first@?$_Compressed_pair@V?$allocator@PAVTexture@sf@@@std@@V?$_Vector_val@U?$_Simple_types@PAVTexture@sf@@@std@@@2@$00@std@@QBEABV?$allocator@PAVTexture@sf@@@2@XZ ; std::_Compressed_pair<std::allocator<sf::Texture *>,std::_Vector_val<std::_Simple_types<sf::Texture *> >,1>::_Get_first

; 1823 :     }

  00020	83 c4 04	 add	 esp, 4
  00023	3b ec		 cmp	 ebp, esp
  00025	e8 00 00 00 00	 call	 __RTC_CheckEsp
  0002a	8b e5		 mov	 esp, ebp
  0002c	5d		 pop	 ebp
  0002d	c3		 ret	 0
?_Getal@?$vector@PAVTexture@sf@@V?$allocator@PAVTexture@sf@@@std@@@std@@ABEABV?$allocator@PAVTexture@sf@@@2@XZ ENDP ; std::vector<sf::Texture *,std::allocator<sf::Texture *> >::_Getal
_TEXT	ENDS
; Function compile flags: /Odtp /RTCsu
; File C:\Program Files (x86)\Microsoft Visual Studio\2019\Community\VC\Tools\MSVC\14.29.30133\include\vector
;	COMDAT ?_Getal@?$vector@PAVTexture@sf@@V?$allocator@PAVTexture@sf@@@std@@@std@@AAEAAV?$allocator@PAVTexture@sf@@@2@XZ
_TEXT	SEGMENT
_this$ = -4						; size = 4
?_Getal@?$vector@PAVTexture@sf@@V?$allocator@PAVTexture@sf@@@std@@@std@@AAEAAV?$allocator@PAVTexture@sf@@@2@XZ PROC ; std::vector<sf::Texture *,std::allocator<sf::Texture *> >::_Getal, COMDAT
; _this$ = ecx

; 1817 :     _NODISCARD _CONSTEXPR20_CONTAINER _Alty& _Getal() noexcept {

  00000	55		 push	 ebp
  00001	8b ec		 mov	 ebp, esp
  00003	51		 push	 ecx
  00004	c7 45 fc cc cc
	cc cc		 mov	 DWORD PTR [ebp-4], -858993460 ; ccccccccH
  0000b	89 4d fc	 mov	 DWORD PTR _this$[ebp], ecx
  0000e	b9 00 00 00 00	 mov	 ecx, OFFSET __324884E2_vector
  00013	e8 00 00 00 00	 call	 @__CheckForDebuggerJustMyCode@4

; 1818 :         return _Mypair._Get_first();

  00018	8b 4d fc	 mov	 ecx, DWORD PTR _this$[ebp]
  0001b	e8 00 00 00 00	 call	 ?_Get_first@?$_Compressed_pair@V?$allocator@PAVTexture@sf@@@std@@V?$_Vector_val@U?$_Simple_types@PAVTexture@sf@@@std@@@2@$00@std@@QAEAAV?$allocator@PAVTexture@sf@@@2@XZ ; std::_Compressed_pair<std::allocator<sf::Texture *>,std::_Vector_val<std::_Simple_types<sf::Texture *> >,1>::_Get_first

; 1819 :     }

  00020	83 c4 04	 add	 esp, 4
  00023	3b ec		 cmp	 ebp, esp
  00025	e8 00 00 00 00	 call	 __RTC_CheckEsp
  0002a	8b e5		 mov	 esp, ebp
  0002c	5d		 pop	 ebp
  0002d	c3		 ret	 0
?_Getal@?$vector@PAVTexture@sf@@V?$allocator@PAVTexture@sf@@@std@@@std@@AAEAAV?$allocator@PAVTexture@sf@@@2@XZ ENDP ; std::vector<sf::Texture *,std::allocator<sf::Texture *> >::_Getal
_TEXT	ENDS
; Function compile flags: /Odtp /RTCsu
; File C:\Program Files (x86)\Microsoft Visual Studio\2019\Community\VC\Tools\MSVC\14.29.30133\include\vector
;	COMDAT ?_Orphan_range@?$vector@PAVTexture@sf@@V?$allocator@PAVTexture@sf@@@std@@@std@@ABEXPAPAVTexture@sf@@0@Z
_TEXT	SEGMENT
_this$ = -4						; size = 4
__First$ = 8						; size = 4
__Last$ = 12						; size = 4
?_Orphan_range@?$vector@PAVTexture@sf@@V?$allocator@PAVTexture@sf@@@std@@@std@@ABEXPAPAVTexture@sf@@0@Z PROC ; std::vector<sf::Texture *,std::allocator<sf::Texture *> >::_Orphan_range, COMDAT
; _this$ = ecx

; 1802 :     _CONSTEXPR20_CONTAINER void _Orphan_range(pointer _First, pointer _Last) const {

  00000	55		 push	 ebp
  00001	8b ec		 mov	 ebp, esp
  00003	51		 push	 ecx
  00004	c7 45 fc cc cc
	cc cc		 mov	 DWORD PTR [ebp-4], -858993460 ; ccccccccH
  0000b	89 4d fc	 mov	 DWORD PTR _this$[ebp], ecx
  0000e	b9 00 00 00 00	 mov	 ecx, OFFSET __324884E2_vector
  00013	e8 00 00 00 00	 call	 @__CheckForDebuggerJustMyCode@4

; 1803 :         // orphan iterators within specified (inclusive) range
; 1804 : #ifdef __cpp_lib_constexpr_dynamic_alloc
; 1805 :         if (_STD is_constant_evaluated()) {

  00018	e8 00 00 00 00	 call	 ?is_constant_evaluated@std@@YA_NXZ ; std::is_constant_evaluated
  0001d	0f b6 c0	 movzx	 eax, al
  00020	85 c0		 test	 eax, eax
  00022	74 12		 je	 SHORT $LN2@Orphan_ran

; 1806 :             _Orphan_range_unlocked(_First, _Last);

  00024	8b 4d 0c	 mov	 ecx, DWORD PTR __Last$[ebp]
  00027	51		 push	 ecx
  00028	8b 55 08	 mov	 edx, DWORD PTR __First$[ebp]
  0002b	52		 push	 edx
  0002c	8b 4d fc	 mov	 ecx, DWORD PTR _this$[ebp]
  0002f	e8 00 00 00 00	 call	 ?_Orphan_range_unlocked@?$vector@PAVTexture@sf@@V?$allocator@PAVTexture@sf@@@std@@@std@@ABEXPAPAVTexture@sf@@0@Z ; std::vector<sf::Texture *,std::allocator<sf::Texture *> >::_Orphan_range_unlocked

; 1807 :         } else

  00034	eb 10		 jmp	 SHORT $LN1@Orphan_ran
$LN2@Orphan_ran:

; 1808 : #endif // __cpp_lib_constexpr_dynamic_alloc
; 1809 :         {
; 1810 :             _Orphan_range_locked(_First, _Last);

  00036	8b 45 0c	 mov	 eax, DWORD PTR __Last$[ebp]
  00039	50		 push	 eax
  0003a	8b 4d 08	 mov	 ecx, DWORD PTR __First$[ebp]
  0003d	51		 push	 ecx
  0003e	8b 4d fc	 mov	 ecx, DWORD PTR _this$[ebp]
  00041	e8 00 00 00 00	 call	 ?_Orphan_range_locked@?$vector@PAVTexture@sf@@V?$allocator@PAVTexture@sf@@@std@@@std@@ABEXPAPAVTexture@sf@@0@Z ; std::vector<sf::Texture *,std::allocator<sf::Texture *> >::_Orphan_range_locked
$LN1@Orphan_ran:

; 1811 :         }
; 1812 :     }

  00046	83 c4 04	 add	 esp, 4
  00049	3b ec		 cmp	 ebp, esp
  0004b	e8 00 00 00 00	 call	 __RTC_CheckEsp
  00050	8b e5		 mov	 esp, ebp
  00052	5d		 pop	 ebp
  00053	c2 08 00	 ret	 8
?_Orphan_range@?$vector@PAVTexture@sf@@V?$allocator@PAVTexture@sf@@@std@@@std@@ABEXPAPAVTexture@sf@@0@Z ENDP ; std::vector<sf::Texture *,std::allocator<sf::Texture *> >::_Orphan_range
_TEXT	ENDS
; Function compile flags: /Odtp /RTCsu
; File C:\Program Files (x86)\Microsoft Visual Studio\2019\Community\VC\Tools\MSVC\14.29.30133\include\vector
;	COMDAT ?_Orphan_range_locked@?$vector@PAVTexture@sf@@V?$allocator@PAVTexture@sf@@@std@@@std@@ABEXPAPAVTexture@sf@@0@Z
_TEXT	SEGMENT
__Lock$ = -28						; size = 4
_this$ = -20						; size = 4
__$ArrayPad$ = -16					; size = 4
__$EHRec$ = -12						; size = 12
__First$ = 8						; size = 4
__Last$ = 12						; size = 4
?_Orphan_range_locked@?$vector@PAVTexture@sf@@V?$allocator@PAVTexture@sf@@@std@@@std@@ABEXPAPAVTexture@sf@@0@Z PROC ; std::vector<sf::Texture *,std::allocator<sf::Texture *> >::_Orphan_range_locked, COMDAT
; _this$ = ecx

; 1797 :     void _Orphan_range_locked(pointer _First, pointer _Last) const {

  00000	55		 push	 ebp
  00001	8b ec		 mov	 ebp, esp
  00003	6a ff		 push	 -1
  00005	68 00 00 00 00	 push	 __ehhandler$?_Orphan_range_locked@?$vector@PAVTexture@sf@@V?$allocator@PAVTexture@sf@@@std@@@std@@ABEXPAPAVTexture@sf@@0@Z
  0000a	64 a1 00 00 00
	00		 mov	 eax, DWORD PTR fs:0
  00010	50		 push	 eax
  00011	83 ec 14	 sub	 esp, 20			; 00000014H
  00014	56		 push	 esi
  00015	b8 cc cc cc cc	 mov	 eax, -858993460		; ccccccccH
  0001a	89 45 e0	 mov	 DWORD PTR [ebp-32], eax
  0001d	89 45 e4	 mov	 DWORD PTR [ebp-28], eax
  00020	89 45 e8	 mov	 DWORD PTR [ebp-24], eax
  00023	89 45 ec	 mov	 DWORD PTR [ebp-20], eax
  00026	89 45 f0	 mov	 DWORD PTR [ebp-16], eax
  00029	a1 00 00 00 00	 mov	 eax, DWORD PTR ___security_cookie
  0002e	33 c5		 xor	 eax, ebp
  00030	89 45 f0	 mov	 DWORD PTR __$ArrayPad$[ebp], eax
  00033	50		 push	 eax
  00034	8d 45 f4	 lea	 eax, DWORD PTR __$EHRec$[ebp]
  00037	64 a3 00 00 00
	00		 mov	 DWORD PTR fs:0, eax
  0003d	89 4d ec	 mov	 DWORD PTR _this$[ebp], ecx
  00040	b9 00 00 00 00	 mov	 ecx, OFFSET __324884E2_vector
  00045	e8 00 00 00 00	 call	 @__CheckForDebuggerJustMyCode@4

; 1798 :         _Lockit _Lock(_LOCK_DEBUG);

  0004a	8b f4		 mov	 esi, esp
  0004c	6a 03		 push	 3
  0004e	8d 4d e4	 lea	 ecx, DWORD PTR __Lock$[ebp]
  00051	ff 15 00 00 00
	00		 call	 DWORD PTR __imp_??0_Lockit@std@@QAE@H@Z
  00057	3b f4		 cmp	 esi, esp
  00059	e8 00 00 00 00	 call	 __RTC_CheckEsp
  0005e	c7 45 fc 00 00
	00 00		 mov	 DWORD PTR __$EHRec$[ebp+8], 0

; 1799 :         _Orphan_range_unlocked(_First, _Last);

  00065	8b 45 0c	 mov	 eax, DWORD PTR __Last$[ebp]
  00068	50		 push	 eax
  00069	8b 4d 08	 mov	 ecx, DWORD PTR __First$[ebp]
  0006c	51		 push	 ecx
  0006d	8b 4d ec	 mov	 ecx, DWORD PTR _this$[ebp]
  00070	e8 00 00 00 00	 call	 ?_Orphan_range_unlocked@?$vector@PAVTexture@sf@@V?$allocator@PAVTexture@sf@@@std@@@std@@ABEXPAPAVTexture@sf@@0@Z ; std::vector<sf::Texture *,std::allocator<sf::Texture *> >::_Orphan_range_unlocked

; 1800 :     }

  00075	c7 45 fc ff ff
	ff ff		 mov	 DWORD PTR __$EHRec$[ebp+8], -1
  0007c	8b f4		 mov	 esi, esp
  0007e	8d 4d e4	 lea	 ecx, DWORD PTR __Lock$[ebp]
  00081	ff 15 00 00 00
	00		 call	 DWORD PTR __imp_??1_Lockit@std@@QAE@XZ
  00087	3b f4		 cmp	 esi, esp
  00089	e8 00 00 00 00	 call	 __RTC_CheckEsp
  0008e	52		 push	 edx
  0008f	8b cd		 mov	 ecx, ebp
  00091	50		 push	 eax
  00092	8d 15 00 00 00
	00		 lea	 edx, DWORD PTR $LN7@Orphan_ran
  00098	e8 00 00 00 00	 call	 @_RTC_CheckStackVars@8
  0009d	58		 pop	 eax
  0009e	5a		 pop	 edx
  0009f	8b 4d f4	 mov	 ecx, DWORD PTR __$EHRec$[ebp]
  000a2	64 89 0d 00 00
	00 00		 mov	 DWORD PTR fs:0, ecx
  000a9	59		 pop	 ecx
  000aa	5e		 pop	 esi
  000ab	8b 4d f0	 mov	 ecx, DWORD PTR __$ArrayPad$[ebp]
  000ae	33 cd		 xor	 ecx, ebp
  000b0	e8 00 00 00 00	 call	 @__security_check_cookie@4
  000b5	83 c4 20	 add	 esp, 32			; 00000020H
  000b8	3b ec		 cmp	 ebp, esp
  000ba	e8 00 00 00 00	 call	 __RTC_CheckEsp
  000bf	8b e5		 mov	 esp, ebp
  000c1	5d		 pop	 ebp
  000c2	c2 08 00	 ret	 8
  000c5	0f 1f 00	 npad	 3
$LN7@Orphan_ran:
  000c8	01 00 00 00	 DD	 1
  000cc	00 00 00 00	 DD	 $LN6@Orphan_ran
$LN6@Orphan_ran:
  000d0	e4 ff ff ff	 DD	 -28			; ffffffe4H
  000d4	04 00 00 00	 DD	 4
  000d8	00 00 00 00	 DD	 $LN4@Orphan_ran
$LN4@Orphan_ran:
  000dc	5f		 DB	 95			; 0000005fH
  000dd	4c		 DB	 76			; 0000004cH
  000de	6f		 DB	 111			; 0000006fH
  000df	63		 DB	 99			; 00000063H
  000e0	6b		 DB	 107			; 0000006bH
  000e1	00		 DB	 0
_TEXT	ENDS
;	COMDAT text$x
text$x	SEGMENT
__unwindfunclet$?_Orphan_range_locked@?$vector@PAVTexture@sf@@V?$allocator@PAVTexture@sf@@@std@@@std@@ABEXPAPAVTexture@sf@@0@Z$0:
  00000	8b f4		 mov	 esi, esp
  00002	8d 4d e4	 lea	 ecx, DWORD PTR __Lock$[ebp]
  00005	ff 15 00 00 00
	00		 call	 DWORD PTR __imp_??1_Lockit@std@@QAE@XZ
  0000b	3b f4		 cmp	 esi, esp
  0000d	e9 00 00 00 00	 jmp	 __RTC_CheckEsp
  00012	cc		 int	 3
  00013	cc		 int	 3
  00014	cc		 int	 3
  00015	cc		 int	 3
  00016	cc		 int	 3
__ehhandler$?_Orphan_range_locked@?$vector@PAVTexture@sf@@V?$allocator@PAVTexture@sf@@@std@@@std@@ABEXPAPAVTexture@sf@@0@Z:
  00017	90		 npad	 1
  00018	90		 npad	 1
  00019	8b 54 24 08	 mov	 edx, DWORD PTR [esp+8]
  0001d	8d 42 0c	 lea	 eax, DWORD PTR [edx+12]
  00020	8b 4a e4	 mov	 ecx, DWORD PTR [edx-28]
  00023	33 c8		 xor	 ecx, eax
  00025	e8 00 00 00 00	 call	 @__security_check_cookie@4
  0002a	8b 4a fc	 mov	 ecx, DWORD PTR [edx-4]
  0002d	33 c8		 xor	 ecx, eax
  0002f	e8 00 00 00 00	 call	 @__security_check_cookie@4
  00034	b8 00 00 00 00	 mov	 eax, OFFSET __ehfuncinfo$?_Orphan_range_locked@?$vector@PAVTexture@sf@@V?$allocator@PAVTexture@sf@@@std@@@std@@ABEXPAPAVTexture@sf@@0@Z
  00039	e9 00 00 00 00	 jmp	 ___CxxFrameHandler3
text$x	ENDS
?_Orphan_range_locked@?$vector@PAVTexture@sf@@V?$allocator@PAVTexture@sf@@@std@@@std@@ABEXPAPAVTexture@sf@@0@Z ENDP ; std::vector<sf::Texture *,std::allocator<sf::Texture *> >::_Orphan_range_locked
; Function compile flags: /Odtp /RTCsu
; File C:\Program Files (x86)\Microsoft Visual Studio\2019\Community\VC\Tools\MSVC\14.29.30133\include\vector
;	COMDAT ?_Orphan_range_unlocked@?$vector@PAVTexture@sf@@V?$allocator@PAVTexture@sf@@@std@@@std@@ABEXPAPAVTexture@sf@@0@Z
_TEXT	SEGMENT
__Temp$1 = -20						; size = 4
__Temp$2 = -16						; size = 4
__Pnextptr$3 = -12					; size = 4
__Pnext$ = -8						; size = 4
_this$ = -4						; size = 4
__First$ = 8						; size = 4
__Last$ = 12						; size = 4
?_Orphan_range_unlocked@?$vector@PAVTexture@sf@@V?$allocator@PAVTexture@sf@@@std@@@std@@ABEXPAPAVTexture@sf@@0@Z PROC ; std::vector<sf::Texture *,std::allocator<sf::Texture *> >::_Orphan_range_unlocked, COMDAT
; _this$ = ecx

; 1782 :     _CONSTEXPR20_CONTAINER void _Orphan_range_unlocked(pointer _First, pointer _Last) const {

  00000	55		 push	 ebp
  00001	8b ec		 mov	 ebp, esp
  00003	83 ec 14	 sub	 esp, 20			; 00000014H
  00006	b8 cc cc cc cc	 mov	 eax, -858993460		; ccccccccH
  0000b	89 45 ec	 mov	 DWORD PTR [ebp-20], eax
  0000e	89 45 f0	 mov	 DWORD PTR [ebp-16], eax
  00011	89 45 f4	 mov	 DWORD PTR [ebp-12], eax
  00014	89 45 f8	 mov	 DWORD PTR [ebp-8], eax
  00017	89 45 fc	 mov	 DWORD PTR [ebp-4], eax
  0001a	89 4d fc	 mov	 DWORD PTR _this$[ebp], ecx
  0001d	b9 00 00 00 00	 mov	 ecx, OFFSET __324884E2_vector
  00022	e8 00 00 00 00	 call	 @__CheckForDebuggerJustMyCode@4

; 1783 :         _Iterator_base12** _Pnext = &_Mypair._Myval2._Myproxy->_Myfirstiter;

  00027	8b 45 fc	 mov	 eax, DWORD PTR _this$[ebp]
  0002a	8b 08		 mov	 ecx, DWORD PTR [eax]
  0002c	83 c1 04	 add	 ecx, 4
  0002f	89 4d f8	 mov	 DWORD PTR __Pnext$[ebp], ecx
$LN2@Orphan_ran:

; 1784 :         while (*_Pnext) {

  00032	8b 55 f8	 mov	 edx, DWORD PTR __Pnext$[ebp]
  00035	83 3a 00	 cmp	 DWORD PTR [edx], 0
  00038	74 4c		 je	 SHORT $LN1@Orphan_ran

; 1785 :             const auto _Pnextptr = static_cast<const_iterator&>(**_Pnext)._Ptr;

  0003a	8b 45 f8	 mov	 eax, DWORD PTR __Pnext$[ebp]
  0003d	8b 08		 mov	 ecx, DWORD PTR [eax]
  0003f	8b 51 08	 mov	 edx, DWORD PTR [ecx+8]
  00042	89 55 f4	 mov	 DWORD PTR __Pnextptr$3[ebp], edx

; 1786 :             if (_Pnextptr < _First || _Last < _Pnextptr) { // skip the iterator

  00045	8b 45 f4	 mov	 eax, DWORD PTR __Pnextptr$3[ebp]
  00048	3b 45 08	 cmp	 eax, DWORD PTR __First$[ebp]
  0004b	72 08		 jb	 SHORT $LN6@Orphan_ran
  0004d	8b 4d 0c	 mov	 ecx, DWORD PTR __Last$[ebp]
  00050	3b 4d f4	 cmp	 ecx, DWORD PTR __Pnextptr$3[ebp]
  00053	73 13		 jae	 SHORT $LN4@Orphan_ran
$LN6@Orphan_ran:

; 1787 :                 const auto _Temp = *_Pnext; // TRANSITION, VSO-1269037

  00055	8b 55 f8	 mov	 edx, DWORD PTR __Pnext$[ebp]
  00058	8b 02		 mov	 eax, DWORD PTR [edx]
  0005a	89 45 f0	 mov	 DWORD PTR __Temp$2[ebp], eax

; 1788 :                 _Pnext           = &_Temp->_Mynextiter;

  0005d	8b 4d f0	 mov	 ecx, DWORD PTR __Temp$2[ebp]
  00060	83 c1 04	 add	 ecx, 4
  00063	89 4d f8	 mov	 DWORD PTR __Pnext$[ebp], ecx

; 1789 :             } else { // orphan the iterator

  00066	eb 1c		 jmp	 SHORT $LN5@Orphan_ran
$LN4@Orphan_ran:

; 1790 :                 const auto _Temp = *_Pnext; // TRANSITION, VSO-1269037

  00068	8b 55 f8	 mov	 edx, DWORD PTR __Pnext$[ebp]
  0006b	8b 02		 mov	 eax, DWORD PTR [edx]
  0006d	89 45 ec	 mov	 DWORD PTR __Temp$1[ebp], eax

; 1791 :                 _Temp->_Myproxy  = nullptr;

  00070	8b 4d ec	 mov	 ecx, DWORD PTR __Temp$1[ebp]
  00073	c7 01 00 00 00
	00		 mov	 DWORD PTR [ecx], 0

; 1792 :                 *_Pnext          = _Temp->_Mynextiter;

  00079	8b 55 f8	 mov	 edx, DWORD PTR __Pnext$[ebp]
  0007c	8b 45 ec	 mov	 eax, DWORD PTR __Temp$1[ebp]
  0007f	8b 48 04	 mov	 ecx, DWORD PTR [eax+4]
  00082	89 0a		 mov	 DWORD PTR [edx], ecx
$LN5@Orphan_ran:

; 1793 :             }
; 1794 :         }

  00084	eb ac		 jmp	 SHORT $LN2@Orphan_ran
$LN1@Orphan_ran:

; 1795 :     }

  00086	83 c4 14	 add	 esp, 20			; 00000014H
  00089	3b ec		 cmp	 ebp, esp
  0008b	e8 00 00 00 00	 call	 __RTC_CheckEsp
  00090	8b e5		 mov	 esp, ebp
  00092	5d		 pop	 ebp
  00093	c2 08 00	 ret	 8
?_Orphan_range_unlocked@?$vector@PAVTexture@sf@@V?$allocator@PAVTexture@sf@@@std@@@std@@ABEXPAPAVTexture@sf@@0@Z ENDP ; std::vector<sf::Texture *,std::allocator<sf::Texture *> >::_Orphan_range_unlocked
_TEXT	ENDS
; Function compile flags: /Odtp /RTCsu
; File C:\Program Files (x86)\Microsoft Visual Studio\2019\Community\VC\Tools\MSVC\14.29.30133\include\vector
;	COMDAT ?_Xlength@?$vector@PAVTexture@sf@@V?$allocator@PAVTexture@sf@@@std@@@std@@CAXXZ
_TEXT	SEGMENT
?_Xlength@?$vector@PAVTexture@sf@@V?$allocator@PAVTexture@sf@@@std@@@std@@CAXXZ PROC ; std::vector<sf::Texture *,std::allocator<sf::Texture *> >::_Xlength, COMDAT

; 1773 :     [[noreturn]] static void _Xlength() {

  00000	55		 push	 ebp
  00001	8b ec		 mov	 ebp, esp
  00003	b9 00 00 00 00	 mov	 ecx, OFFSET __324884E2_vector
  00008	e8 00 00 00 00	 call	 @__CheckForDebuggerJustMyCode@4

; 1774 :         _Xlength_error("vector too long");

  0000d	68 00 00 00 00	 push	 OFFSET ??_C@_0BA@FOIKENOD@vector?5too?5long@
  00012	e8 00 00 00 00	 call	 ?_Xlength_error@std@@YAXPBD@Z ; std::_Xlength_error
$LN2@Xlength:

; 1775 :     }

  00017	3b ec		 cmp	 ebp, esp
  00019	e8 00 00 00 00	 call	 __RTC_CheckEsp
  0001e	5d		 pop	 ebp
  0001f	c3		 ret	 0
?_Xlength@?$vector@PAVTexture@sf@@V?$allocator@PAVTexture@sf@@@std@@@std@@CAXXZ ENDP ; std::vector<sf::Texture *,std::allocator<sf::Texture *> >::_Xlength
_TEXT	ENDS
; Function compile flags: /Odtp /RTCsu
; File C:\Program Files (x86)\Microsoft Visual Studio\2019\Community\VC\Tools\MSVC\14.29.30133\include\vector
;	COMDAT ?_Tidy@?$vector@PAVTexture@sf@@V?$allocator@PAVTexture@sf@@@std@@@std@@AAEXXZ
_TEXT	SEGMENT
tv86 = -44						; size = 4
tv88 = -40						; size = 4
tv90 = -36						; size = 4
__Myend$ = -32						; size = 4
__Mylast$ = -28						; size = 4
__Myfirst$ = -24					; size = 4
__My_data$ = -20					; size = 4
_this$ = -16						; size = 4
__$EHRec$ = -12						; size = 12
?_Tidy@?$vector@PAVTexture@sf@@V?$allocator@PAVTexture@sf@@@std@@@std@@AAEXXZ PROC ; std::vector<sf::Texture *,std::allocator<sf::Texture *> >::_Tidy, COMDAT
; _this$ = ecx

; 1755 :     _CONSTEXPR20_CONTAINER void _Tidy() noexcept { // free all storage

  00000	55		 push	 ebp
  00001	8b ec		 mov	 ebp, esp
  00003	6a ff		 push	 -1
  00005	68 00 00 00 00	 push	 __ehhandler$?_Tidy@?$vector@PAVTexture@sf@@V?$allocator@PAVTexture@sf@@@std@@@std@@AAEXXZ
  0000a	64 a1 00 00 00
	00		 mov	 eax, DWORD PTR fs:0
  00010	50		 push	 eax
  00011	83 ec 20	 sub	 esp, 32			; 00000020H
  00014	b8 cc cc cc cc	 mov	 eax, -858993460		; ccccccccH
  00019	89 45 d4	 mov	 DWORD PTR [ebp-44], eax
  0001c	89 45 d8	 mov	 DWORD PTR [ebp-40], eax
  0001f	89 45 dc	 mov	 DWORD PTR [ebp-36], eax
  00022	89 45 e0	 mov	 DWORD PTR [ebp-32], eax
  00025	89 45 e4	 mov	 DWORD PTR [ebp-28], eax
  00028	89 45 e8	 mov	 DWORD PTR [ebp-24], eax
  0002b	89 45 ec	 mov	 DWORD PTR [ebp-20], eax
  0002e	89 45 f0	 mov	 DWORD PTR [ebp-16], eax
  00031	a1 00 00 00 00	 mov	 eax, DWORD PTR ___security_cookie
  00036	33 c5		 xor	 eax, ebp
  00038	50		 push	 eax
  00039	8d 45 f4	 lea	 eax, DWORD PTR __$EHRec$[ebp]
  0003c	64 a3 00 00 00
	00		 mov	 DWORD PTR fs:0, eax
  00042	89 4d f0	 mov	 DWORD PTR _this$[ebp], ecx
  00045	b9 00 00 00 00	 mov	 ecx, OFFSET __324884E2_vector
  0004a	e8 00 00 00 00	 call	 @__CheckForDebuggerJustMyCode@4

; 1756 :         auto& _My_data    = _Mypair._Myval2;

  0004f	8b 45 f0	 mov	 eax, DWORD PTR _this$[ebp]
  00052	89 45 ec	 mov	 DWORD PTR __My_data$[ebp], eax

; 1757 :         pointer& _Myfirst = _My_data._Myfirst;

  00055	8b 4d ec	 mov	 ecx, DWORD PTR __My_data$[ebp]
  00058	83 c1 04	 add	 ecx, 4
  0005b	89 4d e8	 mov	 DWORD PTR __Myfirst$[ebp], ecx

; 1758 :         pointer& _Mylast  = _My_data._Mylast;

  0005e	8b 55 ec	 mov	 edx, DWORD PTR __My_data$[ebp]
  00061	83 c2 08	 add	 edx, 8
  00064	89 55 e4	 mov	 DWORD PTR __Mylast$[ebp], edx

; 1759 :         pointer& _Myend   = _My_data._Myend;

  00067	8b 45 ec	 mov	 eax, DWORD PTR __My_data$[ebp]
  0006a	83 c0 0c	 add	 eax, 12			; 0000000cH
  0006d	89 45 e0	 mov	 DWORD PTR __Myend$[ebp], eax

; 1760 : 
; 1761 :         _My_data._Orphan_all();

  00070	8b 4d ec	 mov	 ecx, DWORD PTR __My_data$[ebp]
  00073	e8 00 00 00 00	 call	 ?_Orphan_all@_Container_base12@std@@QAEXXZ ; std::_Container_base12::_Orphan_all

; 1762 : 
; 1763 :         if (_Myfirst) { // destroy and deallocate old array

  00078	8b 4d e8	 mov	 ecx, DWORD PTR __Myfirst$[ebp]
  0007b	83 39 00	 cmp	 DWORD PTR [ecx], 0
  0007e	74 62		 je	 SHORT $LN3@Tidy

; 1764 :             _Destroy(_Myfirst, _Mylast);

  00080	8b 55 e4	 mov	 edx, DWORD PTR __Mylast$[ebp]
  00083	8b 02		 mov	 eax, DWORD PTR [edx]
  00085	50		 push	 eax
  00086	8b 4d e8	 mov	 ecx, DWORD PTR __Myfirst$[ebp]
  00089	8b 11		 mov	 edx, DWORD PTR [ecx]
  0008b	52		 push	 edx
  0008c	8b 4d f0	 mov	 ecx, DWORD PTR _this$[ebp]
  0008f	e8 00 00 00 00	 call	 ?_Destroy@?$vector@PAVTexture@sf@@V?$allocator@PAVTexture@sf@@@std@@@std@@AAEXPAPAVTexture@sf@@0@Z ; std::vector<sf::Texture *,std::allocator<sf::Texture *> >::_Destroy

; 1765 :             _Getal().deallocate(_Myfirst, static_cast<size_type>(_Myend - _Myfirst));

  00094	8b 4d f0	 mov	 ecx, DWORD PTR _this$[ebp]
  00097	e8 00 00 00 00	 call	 ?_Getal@?$vector@PAVTexture@sf@@V?$allocator@PAVTexture@sf@@@std@@@std@@AAEAAV?$allocator@PAVTexture@sf@@@2@XZ ; std::vector<sf::Texture *,std::allocator<sf::Texture *> >::_Getal
  0009c	89 45 dc	 mov	 DWORD PTR tv90[ebp], eax
  0009f	8b 45 e0	 mov	 eax, DWORD PTR __Myend$[ebp]
  000a2	8b 4d e8	 mov	 ecx, DWORD PTR __Myfirst$[ebp]
  000a5	8b 10		 mov	 edx, DWORD PTR [eax]
  000a7	2b 11		 sub	 edx, DWORD PTR [ecx]
  000a9	c1 fa 02	 sar	 edx, 2
  000ac	89 55 d8	 mov	 DWORD PTR tv88[ebp], edx
  000af	8b 45 e8	 mov	 eax, DWORD PTR __Myfirst$[ebp]
  000b2	8b 08		 mov	 ecx, DWORD PTR [eax]
  000b4	89 4d d4	 mov	 DWORD PTR tv86[ebp], ecx
  000b7	8b 55 d8	 mov	 edx, DWORD PTR tv88[ebp]
  000ba	52		 push	 edx
  000bb	8b 45 d4	 mov	 eax, DWORD PTR tv86[ebp]
  000be	50		 push	 eax
  000bf	8b 4d dc	 mov	 ecx, DWORD PTR tv90[ebp]
  000c2	e8 00 00 00 00	 call	 ?deallocate@?$allocator@PAVTexture@sf@@@std@@QAEXQAPAVTexture@sf@@I@Z ; std::allocator<sf::Texture *>::deallocate

; 1766 : 
; 1767 :             _Myfirst = nullptr;

  000c7	8b 4d e8	 mov	 ecx, DWORD PTR __Myfirst$[ebp]
  000ca	c7 01 00 00 00
	00		 mov	 DWORD PTR [ecx], 0

; 1768 :             _Mylast  = nullptr;

  000d0	8b 55 e4	 mov	 edx, DWORD PTR __Mylast$[ebp]
  000d3	c7 02 00 00 00
	00		 mov	 DWORD PTR [edx], 0

; 1769 :             _Myend   = nullptr;

  000d9	8b 45 e0	 mov	 eax, DWORD PTR __Myend$[ebp]
  000dc	c7 00 00 00 00
	00		 mov	 DWORD PTR [eax], 0
$LN3@Tidy:

; 1770 :         }
; 1771 :     }

  000e2	8b 4d f4	 mov	 ecx, DWORD PTR __$EHRec$[ebp]
  000e5	64 89 0d 00 00
	00 00		 mov	 DWORD PTR fs:0, ecx
  000ec	59		 pop	 ecx
  000ed	83 c4 2c	 add	 esp, 44			; 0000002cH
  000f0	3b ec		 cmp	 ebp, esp
  000f2	e8 00 00 00 00	 call	 __RTC_CheckEsp
  000f7	8b e5		 mov	 esp, ebp
  000f9	5d		 pop	 ebp
  000fa	c3		 ret	 0
  000fb	cc		 int	 3
  000fc	cc		 int	 3
  000fd	cc		 int	 3
  000fe	cc		 int	 3
  000ff	cc		 int	 3
_TEXT	ENDS
;	COMDAT text$x
text$x	SEGMENT
__ehhandler$?_Tidy@?$vector@PAVTexture@sf@@V?$allocator@PAVTexture@sf@@@std@@@std@@AAEXXZ:
  00000	90		 npad	 1
  00001	90		 npad	 1
  00002	8b 54 24 08	 mov	 edx, DWORD PTR [esp+8]
  00006	8d 42 0c	 lea	 eax, DWORD PTR [edx+12]
  00009	8b 4a dc	 mov	 ecx, DWORD PTR [edx-36]
  0000c	33 c8		 xor	 ecx, eax
  0000e	e8 00 00 00 00	 call	 @__security_check_cookie@4
  00013	b8 00 00 00 00	 mov	 eax, OFFSET __ehfuncinfo$?_Tidy@?$vector@PAVTexture@sf@@V?$allocator@PAVTexture@sf@@@std@@@std@@AAEXXZ
  00018	e9 00 00 00 00	 jmp	 ___CxxFrameHandler3
text$x	ENDS
?_Tidy@?$vector@PAVTexture@sf@@V?$allocator@PAVTexture@sf@@@std@@@std@@AAEXXZ ENDP ; std::vector<sf::Texture *,std::allocator<sf::Texture *> >::_Tidy
; Function compile flags: /Odtp /RTCsu
; File C:\Program Files (x86)\Microsoft Visual Studio\2019\Community\VC\Tools\MSVC\14.29.30133\include\vector
;	COMDAT ?_Change_array@?$vector@PAVTexture@sf@@V?$allocator@PAVTexture@sf@@@std@@@std@@AAEXQAPAVTexture@sf@@II@Z
_TEXT	SEGMENT
tv86 = -32						; size = 4
tv88 = -28						; size = 4
tv90 = -24						; size = 4
__Myend$ = -20						; size = 4
__Mylast$ = -16						; size = 4
__Myfirst$ = -12					; size = 4
__My_data$ = -8						; size = 4
_this$ = -4						; size = 4
__Newvec$ = 8						; size = 4
__Newsize$ = 12						; size = 4
__Newcapacity$ = 16					; size = 4
?_Change_array@?$vector@PAVTexture@sf@@V?$allocator@PAVTexture@sf@@@std@@@std@@AAEXQAPAVTexture@sf@@II@Z PROC ; std::vector<sf::Texture *,std::allocator<sf::Texture *> >::_Change_array, COMDAT
; _this$ = ecx

; 1736 :         const pointer _Newvec, const size_type _Newsize, const size_type _Newcapacity) {

  00000	55		 push	 ebp
  00001	8b ec		 mov	 ebp, esp
  00003	83 ec 20	 sub	 esp, 32			; 00000020H
  00006	b8 cc cc cc cc	 mov	 eax, -858993460		; ccccccccH
  0000b	89 45 e0	 mov	 DWORD PTR [ebp-32], eax
  0000e	89 45 e4	 mov	 DWORD PTR [ebp-28], eax
  00011	89 45 e8	 mov	 DWORD PTR [ebp-24], eax
  00014	89 45 ec	 mov	 DWORD PTR [ebp-20], eax
  00017	89 45 f0	 mov	 DWORD PTR [ebp-16], eax
  0001a	89 45 f4	 mov	 DWORD PTR [ebp-12], eax
  0001d	89 45 f8	 mov	 DWORD PTR [ebp-8], eax
  00020	89 45 fc	 mov	 DWORD PTR [ebp-4], eax
  00023	89 4d fc	 mov	 DWORD PTR _this$[ebp], ecx
  00026	b9 00 00 00 00	 mov	 ecx, OFFSET __324884E2_vector
  0002b	e8 00 00 00 00	 call	 @__CheckForDebuggerJustMyCode@4

; 1737 :         // orphan all iterators, discard old array, acquire new array
; 1738 :         auto& _My_data    = _Mypair._Myval2;

  00030	8b 45 fc	 mov	 eax, DWORD PTR _this$[ebp]
  00033	89 45 f8	 mov	 DWORD PTR __My_data$[ebp], eax

; 1739 :         pointer& _Myfirst = _My_data._Myfirst;

  00036	8b 4d f8	 mov	 ecx, DWORD PTR __My_data$[ebp]
  00039	83 c1 04	 add	 ecx, 4
  0003c	89 4d f4	 mov	 DWORD PTR __Myfirst$[ebp], ecx

; 1740 :         pointer& _Mylast  = _My_data._Mylast;

  0003f	8b 55 f8	 mov	 edx, DWORD PTR __My_data$[ebp]
  00042	83 c2 08	 add	 edx, 8
  00045	89 55 f0	 mov	 DWORD PTR __Mylast$[ebp], edx

; 1741 :         pointer& _Myend   = _My_data._Myend;

  00048	8b 45 f8	 mov	 eax, DWORD PTR __My_data$[ebp]
  0004b	83 c0 0c	 add	 eax, 12			; 0000000cH
  0004e	89 45 ec	 mov	 DWORD PTR __Myend$[ebp], eax

; 1742 : 
; 1743 :         _My_data._Orphan_all();

  00051	8b 4d f8	 mov	 ecx, DWORD PTR __My_data$[ebp]
  00054	e8 00 00 00 00	 call	 ?_Orphan_all@_Container_base12@std@@QAEXXZ ; std::_Container_base12::_Orphan_all

; 1744 : 
; 1745 :         if (_Myfirst) { // destroy and deallocate old array

  00059	8b 4d f4	 mov	 ecx, DWORD PTR __Myfirst$[ebp]
  0005c	83 39 00	 cmp	 DWORD PTR [ecx], 0
  0005f	74 47		 je	 SHORT $LN2@Change_arr

; 1746 :             _Destroy(_Myfirst, _Mylast);

  00061	8b 55 f0	 mov	 edx, DWORD PTR __Mylast$[ebp]
  00064	8b 02		 mov	 eax, DWORD PTR [edx]
  00066	50		 push	 eax
  00067	8b 4d f4	 mov	 ecx, DWORD PTR __Myfirst$[ebp]
  0006a	8b 11		 mov	 edx, DWORD PTR [ecx]
  0006c	52		 push	 edx
  0006d	8b 4d fc	 mov	 ecx, DWORD PTR _this$[ebp]
  00070	e8 00 00 00 00	 call	 ?_Destroy@?$vector@PAVTexture@sf@@V?$allocator@PAVTexture@sf@@@std@@@std@@AAEXPAPAVTexture@sf@@0@Z ; std::vector<sf::Texture *,std::allocator<sf::Texture *> >::_Destroy

; 1747 :             _Getal().deallocate(_Myfirst, static_cast<size_type>(_Myend - _Myfirst));

  00075	8b 4d fc	 mov	 ecx, DWORD PTR _this$[ebp]
  00078	e8 00 00 00 00	 call	 ?_Getal@?$vector@PAVTexture@sf@@V?$allocator@PAVTexture@sf@@@std@@@std@@AAEAAV?$allocator@PAVTexture@sf@@@2@XZ ; std::vector<sf::Texture *,std::allocator<sf::Texture *> >::_Getal
  0007d	89 45 e8	 mov	 DWORD PTR tv90[ebp], eax
  00080	8b 45 ec	 mov	 eax, DWORD PTR __Myend$[ebp]
  00083	8b 4d f4	 mov	 ecx, DWORD PTR __Myfirst$[ebp]
  00086	8b 10		 mov	 edx, DWORD PTR [eax]
  00088	2b 11		 sub	 edx, DWORD PTR [ecx]
  0008a	c1 fa 02	 sar	 edx, 2
  0008d	89 55 e4	 mov	 DWORD PTR tv88[ebp], edx
  00090	8b 45 f4	 mov	 eax, DWORD PTR __Myfirst$[ebp]
  00093	8b 08		 mov	 ecx, DWORD PTR [eax]
  00095	89 4d e0	 mov	 DWORD PTR tv86[ebp], ecx
  00098	8b 55 e4	 mov	 edx, DWORD PTR tv88[ebp]
  0009b	52		 push	 edx
  0009c	8b 45 e0	 mov	 eax, DWORD PTR tv86[ebp]
  0009f	50		 push	 eax
  000a0	8b 4d e8	 mov	 ecx, DWORD PTR tv90[ebp]
  000a3	e8 00 00 00 00	 call	 ?deallocate@?$allocator@PAVTexture@sf@@@std@@QAEXQAPAVTexture@sf@@I@Z ; std::allocator<sf::Texture *>::deallocate
$LN2@Change_arr:

; 1748 :         }
; 1749 : 
; 1750 :         _Myfirst = _Newvec;

  000a8	8b 4d f4	 mov	 ecx, DWORD PTR __Myfirst$[ebp]
  000ab	8b 55 08	 mov	 edx, DWORD PTR __Newvec$[ebp]
  000ae	89 11		 mov	 DWORD PTR [ecx], edx

; 1751 :         _Mylast  = _Newvec + _Newsize;

  000b0	8b 45 0c	 mov	 eax, DWORD PTR __Newsize$[ebp]
  000b3	8b 4d 08	 mov	 ecx, DWORD PTR __Newvec$[ebp]
  000b6	8d 14 81	 lea	 edx, DWORD PTR [ecx+eax*4]
  000b9	8b 45 f0	 mov	 eax, DWORD PTR __Mylast$[ebp]
  000bc	89 10		 mov	 DWORD PTR [eax], edx

; 1752 :         _Myend   = _Newvec + _Newcapacity;

  000be	8b 4d 10	 mov	 ecx, DWORD PTR __Newcapacity$[ebp]
  000c1	8b 55 08	 mov	 edx, DWORD PTR __Newvec$[ebp]
  000c4	8d 04 8a	 lea	 eax, DWORD PTR [edx+ecx*4]
  000c7	8b 4d ec	 mov	 ecx, DWORD PTR __Myend$[ebp]
  000ca	89 01		 mov	 DWORD PTR [ecx], eax

; 1753 :     }

  000cc	83 c4 20	 add	 esp, 32			; 00000020H
  000cf	3b ec		 cmp	 ebp, esp
  000d1	e8 00 00 00 00	 call	 __RTC_CheckEsp
  000d6	8b e5		 mov	 esp, ebp
  000d8	5d		 pop	 ebp
  000d9	c2 0c 00	 ret	 12			; 0000000cH
?_Change_array@?$vector@PAVTexture@sf@@V?$allocator@PAVTexture@sf@@@std@@@std@@AAEXQAPAVTexture@sf@@II@Z ENDP ; std::vector<sf::Texture *,std::allocator<sf::Texture *> >::_Change_array
_TEXT	ENDS
; Function compile flags: /Odtp /RTCsu
; File C:\Program Files (x86)\Microsoft Visual Studio\2019\Community\VC\Tools\MSVC\14.29.30133\include\vector
;	COMDAT ?_Calculate_growth@?$vector@PAVTexture@sf@@V?$allocator@PAVTexture@sf@@@std@@@std@@ABEII@Z
_TEXT	SEGMENT
__Geometric$ = -16					; size = 4
__Max$ = -12						; size = 4
__Oldcapacity$ = -8					; size = 4
_this$ = -4						; size = 4
__Newsize$ = 8						; size = 4
?_Calculate_growth@?$vector@PAVTexture@sf@@V?$allocator@PAVTexture@sf@@@std@@@std@@ABEII@Z PROC ; std::vector<sf::Texture *,std::allocator<sf::Texture *> >::_Calculate_growth, COMDAT
; _this$ = ecx

; 1683 :     _CONSTEXPR20_CONTAINER size_type _Calculate_growth(const size_type _Newsize) const {

  00000	55		 push	 ebp
  00001	8b ec		 mov	 ebp, esp
  00003	83 ec 10	 sub	 esp, 16			; 00000010H
  00006	b8 cc cc cc cc	 mov	 eax, -858993460		; ccccccccH
  0000b	89 45 f0	 mov	 DWORD PTR [ebp-16], eax
  0000e	89 45 f4	 mov	 DWORD PTR [ebp-12], eax
  00011	89 45 f8	 mov	 DWORD PTR [ebp-8], eax
  00014	89 45 fc	 mov	 DWORD PTR [ebp-4], eax
  00017	89 4d fc	 mov	 DWORD PTR _this$[ebp], ecx
  0001a	b9 00 00 00 00	 mov	 ecx, OFFSET __324884E2_vector
  0001f	e8 00 00 00 00	 call	 @__CheckForDebuggerJustMyCode@4

; 1684 :         // given _Oldcapacity and _Newsize, calculate geometric growth
; 1685 :         const size_type _Oldcapacity = capacity();

  00024	8b 4d fc	 mov	 ecx, DWORD PTR _this$[ebp]
  00027	e8 00 00 00 00	 call	 ?capacity@?$vector@PAVTexture@sf@@V?$allocator@PAVTexture@sf@@@std@@@std@@QBEIXZ ; std::vector<sf::Texture *,std::allocator<sf::Texture *> >::capacity
  0002c	89 45 f8	 mov	 DWORD PTR __Oldcapacity$[ebp], eax

; 1686 :         const auto _Max              = max_size();

  0002f	8b 4d fc	 mov	 ecx, DWORD PTR _this$[ebp]
  00032	e8 00 00 00 00	 call	 ?max_size@?$vector@PAVTexture@sf@@V?$allocator@PAVTexture@sf@@@std@@@std@@QBEIXZ ; std::vector<sf::Texture *,std::allocator<sf::Texture *> >::max_size
  00037	89 45 f4	 mov	 DWORD PTR __Max$[ebp], eax

; 1687 : 
; 1688 :         if (_Oldcapacity > _Max - _Oldcapacity / 2) {

  0003a	8b 45 f8	 mov	 eax, DWORD PTR __Oldcapacity$[ebp]
  0003d	d1 e8		 shr	 eax, 1
  0003f	8b 4d f4	 mov	 ecx, DWORD PTR __Max$[ebp]
  00042	2b c8		 sub	 ecx, eax
  00044	39 4d f8	 cmp	 DWORD PTR __Oldcapacity$[ebp], ecx
  00047	76 05		 jbe	 SHORT $LN2@Calculate_

; 1689 :             return _Max; // geometric growth would overflow

  00049	8b 45 f4	 mov	 eax, DWORD PTR __Max$[ebp]
  0004c	eb 1b		 jmp	 SHORT $LN1@Calculate_
$LN2@Calculate_:

; 1690 :         }
; 1691 : 
; 1692 :         const size_type _Geometric = _Oldcapacity + _Oldcapacity / 2;

  0004e	8b 55 f8	 mov	 edx, DWORD PTR __Oldcapacity$[ebp]
  00051	d1 ea		 shr	 edx, 1
  00053	03 55 f8	 add	 edx, DWORD PTR __Oldcapacity$[ebp]
  00056	89 55 f0	 mov	 DWORD PTR __Geometric$[ebp], edx

; 1693 : 
; 1694 :         if (_Geometric < _Newsize) {

  00059	8b 45 f0	 mov	 eax, DWORD PTR __Geometric$[ebp]
  0005c	3b 45 08	 cmp	 eax, DWORD PTR __Newsize$[ebp]
  0005f	73 05		 jae	 SHORT $LN3@Calculate_

; 1695 :             return _Newsize; // geometric growth would be insufficient

  00061	8b 45 08	 mov	 eax, DWORD PTR __Newsize$[ebp]
  00064	eb 03		 jmp	 SHORT $LN1@Calculate_
$LN3@Calculate_:

; 1696 :         }
; 1697 : 
; 1698 :         return _Geometric; // geometric growth is sufficient

  00066	8b 45 f0	 mov	 eax, DWORD PTR __Geometric$[ebp]
$LN1@Calculate_:

; 1699 :     }

  00069	83 c4 10	 add	 esp, 16			; 00000010H
  0006c	3b ec		 cmp	 ebp, esp
  0006e	e8 00 00 00 00	 call	 __RTC_CheckEsp
  00073	8b e5		 mov	 esp, ebp
  00075	5d		 pop	 ebp
  00076	c2 04 00	 ret	 4
?_Calculate_growth@?$vector@PAVTexture@sf@@V?$allocator@PAVTexture@sf@@@std@@@std@@ABEII@Z ENDP ; std::vector<sf::Texture *,std::allocator<sf::Texture *> >::_Calculate_growth
_TEXT	ENDS
; Function compile flags: /Odtp /RTCsu
; File C:\Program Files (x86)\Microsoft Visual Studio\2019\Community\VC\Tools\MSVC\14.29.30133\include\vector
;	COMDAT ?_Destroy@?$vector@PAVTexture@sf@@V?$allocator@PAVTexture@sf@@@std@@@std@@AAEXPAPAVTexture@sf@@0@Z
_TEXT	SEGMENT
_this$ = -4						; size = 4
__First$ = 8						; size = 4
__Last$ = 12						; size = 4
?_Destroy@?$vector@PAVTexture@sf@@V?$allocator@PAVTexture@sf@@@std@@@std@@AAEXPAPAVTexture@sf@@0@Z PROC ; std::vector<sf::Texture *,std::allocator<sf::Texture *> >::_Destroy, COMDAT
; _this$ = ecx

; 1678 :     _CONSTEXPR20_CONTAINER void _Destroy(pointer _First, pointer _Last) {

  00000	55		 push	 ebp
  00001	8b ec		 mov	 ebp, esp
  00003	51		 push	 ecx
  00004	c7 45 fc cc cc
	cc cc		 mov	 DWORD PTR [ebp-4], -858993460 ; ccccccccH
  0000b	89 4d fc	 mov	 DWORD PTR _this$[ebp], ecx
  0000e	b9 00 00 00 00	 mov	 ecx, OFFSET __324884E2_vector
  00013	e8 00 00 00 00	 call	 @__CheckForDebuggerJustMyCode@4

; 1679 :         // destroy [_First, _Last) using allocator
; 1680 :         _Destroy_range(_First, _Last, _Getal());

  00018	8b 4d fc	 mov	 ecx, DWORD PTR _this$[ebp]
  0001b	e8 00 00 00 00	 call	 ?_Getal@?$vector@PAVTexture@sf@@V?$allocator@PAVTexture@sf@@@std@@@std@@AAEAAV?$allocator@PAVTexture@sf@@@2@XZ ; std::vector<sf::Texture *,std::allocator<sf::Texture *> >::_Getal
  00020	50		 push	 eax
  00021	8b 45 0c	 mov	 eax, DWORD PTR __Last$[ebp]
  00024	50		 push	 eax
  00025	8b 4d 08	 mov	 ecx, DWORD PTR __First$[ebp]
  00028	51		 push	 ecx
  00029	e8 00 00 00 00	 call	 ??$_Destroy_range@V?$allocator@PAVTexture@sf@@@std@@@std@@YAXPAPAVTexture@sf@@QAPAV12@AAV?$allocator@PAVTexture@sf@@@0@@Z ; std::_Destroy_range<std::allocator<sf::Texture *> >
  0002e	83 c4 0c	 add	 esp, 12			; 0000000cH

; 1681 :     }

  00031	83 c4 04	 add	 esp, 4
  00034	3b ec		 cmp	 ebp, esp
  00036	e8 00 00 00 00	 call	 __RTC_CheckEsp
  0003b	8b e5		 mov	 esp, ebp
  0003d	5d		 pop	 ebp
  0003e	c2 08 00	 ret	 8
?_Destroy@?$vector@PAVTexture@sf@@V?$allocator@PAVTexture@sf@@@std@@@std@@AAEXPAPAVTexture@sf@@0@Z ENDP ; std::vector<sf::Texture *,std::allocator<sf::Texture *> >::_Destroy
_TEXT	ENDS
; Function compile flags: /Odtp /RTCsu
; File C:\Program Files (x86)\Microsoft Visual Studio\2019\Community\VC\Tools\MSVC\14.29.30133\include\vector
;	COMDAT ?_Umove_if_noexcept@?$vector@PAVTexture@sf@@V?$allocator@PAVTexture@sf@@@std@@@std@@AAEXPAPAVTexture@sf@@00@Z
_TEXT	SEGMENT
$T1 = -5						; size = 1
_this$ = -4						; size = 4
__First$ = 8						; size = 4
__Last$ = 12						; size = 4
__Dest$ = 16						; size = 4
?_Umove_if_noexcept@?$vector@PAVTexture@sf@@V?$allocator@PAVTexture@sf@@@std@@@std@@AAEXPAPAVTexture@sf@@00@Z PROC ; std::vector<sf::Texture *,std::allocator<sf::Texture *> >::_Umove_if_noexcept, COMDAT
; _this$ = ecx

; 1672 :     _CONSTEXPR20_CONTAINER void _Umove_if_noexcept(pointer _First, pointer _Last, pointer _Dest) {

  00000	55		 push	 ebp
  00001	8b ec		 mov	 ebp, esp
  00003	83 ec 08	 sub	 esp, 8
  00006	c7 45 f8 cc cc
	cc cc		 mov	 DWORD PTR [ebp-8], -858993460 ; ccccccccH
  0000d	c7 45 fc cc cc
	cc cc		 mov	 DWORD PTR [ebp-4], -858993460 ; ccccccccH
  00014	89 4d fc	 mov	 DWORD PTR _this$[ebp], ecx
  00017	b9 00 00 00 00	 mov	 ecx, OFFSET __324884E2_vector
  0001c	e8 00 00 00 00	 call	 @__CheckForDebuggerJustMyCode@4

; 1673 :         // move_if_noexcept [_First, _Last) to raw _Dest, using allocator
; 1674 :         _Umove_if_noexcept1(_First, _Last, _Dest,

  00021	33 c0		 xor	 eax, eax
  00023	88 45 fb	 mov	 BYTE PTR $T1[ebp], al
  00026	0f b6 4d fb	 movzx	 ecx, BYTE PTR $T1[ebp]
  0002a	51		 push	 ecx
  0002b	8b 55 10	 mov	 edx, DWORD PTR __Dest$[ebp]
  0002e	52		 push	 edx
  0002f	8b 45 0c	 mov	 eax, DWORD PTR __Last$[ebp]
  00032	50		 push	 eax
  00033	8b 4d 08	 mov	 ecx, DWORD PTR __First$[ebp]
  00036	51		 push	 ecx
  00037	8b 4d fc	 mov	 ecx, DWORD PTR _this$[ebp]
  0003a	e8 00 00 00 00	 call	 ?_Umove_if_noexcept1@?$vector@PAVTexture@sf@@V?$allocator@PAVTexture@sf@@@std@@@std@@AAEXPAPAVTexture@sf@@00U?$integral_constant@_N$00@2@@Z ; std::vector<sf::Texture *,std::allocator<sf::Texture *> >::_Umove_if_noexcept1

; 1675 :             bool_constant<disjunction_v<is_nothrow_move_constructible<_Ty>, negation<is_copy_constructible<_Ty>>>>{});
; 1676 :     }

  0003f	83 c4 08	 add	 esp, 8
  00042	3b ec		 cmp	 ebp, esp
  00044	e8 00 00 00 00	 call	 __RTC_CheckEsp
  00049	8b e5		 mov	 esp, ebp
  0004b	5d		 pop	 ebp
  0004c	c2 0c 00	 ret	 12			; 0000000cH
?_Umove_if_noexcept@?$vector@PAVTexture@sf@@V?$allocator@PAVTexture@sf@@@std@@@std@@AAEXPAPAVTexture@sf@@00@Z ENDP ; std::vector<sf::Texture *,std::allocator<sf::Texture *> >::_Umove_if_noexcept
_TEXT	ENDS
; Function compile flags: /Odtp /RTCsu
; File C:\Program Files (x86)\Microsoft Visual Studio\2019\Community\VC\Tools\MSVC\14.29.30133\include\vector
;	COMDAT ?_Umove_if_noexcept1@?$vector@PAVTexture@sf@@V?$allocator@PAVTexture@sf@@@std@@@std@@AAEXPAPAVTexture@sf@@00U?$integral_constant@_N$00@2@@Z
_TEXT	SEGMENT
_this$ = -4						; size = 4
__First$ = 8						; size = 4
__Last$ = 12						; size = 4
__Dest$ = 16						; size = 4
___formal$ = 20						; size = 1
?_Umove_if_noexcept1@?$vector@PAVTexture@sf@@V?$allocator@PAVTexture@sf@@@std@@@std@@AAEXPAPAVTexture@sf@@00U?$integral_constant@_N$00@2@@Z PROC ; std::vector<sf::Texture *,std::allocator<sf::Texture *> >::_Umove_if_noexcept1, COMDAT
; _this$ = ecx

; 1662 :     _CONSTEXPR20_CONTAINER void _Umove_if_noexcept1(pointer _First, pointer _Last, pointer _Dest, true_type) {

  00000	55		 push	 ebp
  00001	8b ec		 mov	 ebp, esp
  00003	51		 push	 ecx
  00004	c7 45 fc cc cc
	cc cc		 mov	 DWORD PTR [ebp-4], -858993460 ; ccccccccH
  0000b	89 4d fc	 mov	 DWORD PTR _this$[ebp], ecx
  0000e	b9 00 00 00 00	 mov	 ecx, OFFSET __324884E2_vector
  00013	e8 00 00 00 00	 call	 @__CheckForDebuggerJustMyCode@4

; 1663 :         // move [_First, _Last) to raw _Dest, using allocator
; 1664 :         _Uninitialized_move(_First, _Last, _Dest, _Getal());

  00018	8b 4d fc	 mov	 ecx, DWORD PTR _this$[ebp]
  0001b	e8 00 00 00 00	 call	 ?_Getal@?$vector@PAVTexture@sf@@V?$allocator@PAVTexture@sf@@@std@@@std@@AAEAAV?$allocator@PAVTexture@sf@@@2@XZ ; std::vector<sf::Texture *,std::allocator<sf::Texture *> >::_Getal
  00020	50		 push	 eax
  00021	8b 45 10	 mov	 eax, DWORD PTR __Dest$[ebp]
  00024	50		 push	 eax
  00025	8b 4d 0c	 mov	 ecx, DWORD PTR __Last$[ebp]
  00028	51		 push	 ecx
  00029	8b 55 08	 mov	 edx, DWORD PTR __First$[ebp]
  0002c	52		 push	 edx
  0002d	e8 00 00 00 00	 call	 ??$_Uninitialized_move@PAPAVTexture@sf@@V?$allocator@PAVTexture@sf@@@std@@@std@@YAPAPAVTexture@sf@@QAPAV12@0PAPAV12@AAV?$allocator@PAVTexture@sf@@@0@@Z ; std::_Uninitialized_move<sf::Texture * *,std::allocator<sf::Texture *> >
  00032	83 c4 10	 add	 esp, 16			; 00000010H

; 1665 :     }

  00035	83 c4 04	 add	 esp, 4
  00038	3b ec		 cmp	 ebp, esp
  0003a	e8 00 00 00 00	 call	 __RTC_CheckEsp
  0003f	8b e5		 mov	 esp, ebp
  00041	5d		 pop	 ebp
  00042	c2 10 00	 ret	 16			; 00000010H
?_Umove_if_noexcept1@?$vector@PAVTexture@sf@@V?$allocator@PAVTexture@sf@@@std@@@std@@AAEXPAPAVTexture@sf@@00U?$integral_constant@_N$00@2@@Z ENDP ; std::vector<sf::Texture *,std::allocator<sf::Texture *> >::_Umove_if_noexcept1
_TEXT	ENDS
; Function compile flags: /Odtp /RTCsu
; File C:\Program Files (x86)\Microsoft Visual Studio\2019\Community\VC\Tools\MSVC\14.29.30133\include\vector
;	COMDAT ?_Umove@?$vector@PAVTexture@sf@@V?$allocator@PAVTexture@sf@@@std@@@std@@AAEPAPAVTexture@sf@@PAPAV34@00@Z
_TEXT	SEGMENT
_this$ = -4						; size = 4
__First$ = 8						; size = 4
__Last$ = 12						; size = 4
__Dest$ = 16						; size = 4
?_Umove@?$vector@PAVTexture@sf@@V?$allocator@PAVTexture@sf@@@std@@@std@@AAEPAPAVTexture@sf@@PAPAV34@00@Z PROC ; std::vector<sf::Texture *,std::allocator<sf::Texture *> >::_Umove, COMDAT
; _this$ = ecx

; 1657 :     _CONSTEXPR20_CONTAINER pointer _Umove(pointer _First, pointer _Last, pointer _Dest) {

  00000	55		 push	 ebp
  00001	8b ec		 mov	 ebp, esp
  00003	51		 push	 ecx
  00004	c7 45 fc cc cc
	cc cc		 mov	 DWORD PTR [ebp-4], -858993460 ; ccccccccH
  0000b	89 4d fc	 mov	 DWORD PTR _this$[ebp], ecx
  0000e	b9 00 00 00 00	 mov	 ecx, OFFSET __324884E2_vector
  00013	e8 00 00 00 00	 call	 @__CheckForDebuggerJustMyCode@4

; 1658 :         // move [_First, _Last) to raw _Dest, using allocator
; 1659 :         return _Uninitialized_move(_First, _Last, _Dest, _Getal());

  00018	8b 4d fc	 mov	 ecx, DWORD PTR _this$[ebp]
  0001b	e8 00 00 00 00	 call	 ?_Getal@?$vector@PAVTexture@sf@@V?$allocator@PAVTexture@sf@@@std@@@std@@AAEAAV?$allocator@PAVTexture@sf@@@2@XZ ; std::vector<sf::Texture *,std::allocator<sf::Texture *> >::_Getal
  00020	50		 push	 eax
  00021	8b 45 10	 mov	 eax, DWORD PTR __Dest$[ebp]
  00024	50		 push	 eax
  00025	8b 4d 0c	 mov	 ecx, DWORD PTR __Last$[ebp]
  00028	51		 push	 ecx
  00029	8b 55 08	 mov	 edx, DWORD PTR __First$[ebp]
  0002c	52		 push	 edx
  0002d	e8 00 00 00 00	 call	 ??$_Uninitialized_move@PAPAVTexture@sf@@V?$allocator@PAVTexture@sf@@@std@@@std@@YAPAPAVTexture@sf@@QAPAV12@0PAPAV12@AAV?$allocator@PAVTexture@sf@@@0@@Z ; std::_Uninitialized_move<sf::Texture * *,std::allocator<sf::Texture *> >
  00032	83 c4 10	 add	 esp, 16			; 00000010H

; 1660 :     }

  00035	83 c4 04	 add	 esp, 4
  00038	3b ec		 cmp	 ebp, esp
  0003a	e8 00 00 00 00	 call	 __RTC_CheckEsp
  0003f	8b e5		 mov	 esp, ebp
  00041	5d		 pop	 ebp
  00042	c2 0c 00	 ret	 12			; 0000000cH
?_Umove@?$vector@PAVTexture@sf@@V?$allocator@PAVTexture@sf@@@std@@@std@@AAEPAPAVTexture@sf@@PAPAV34@00@Z ENDP ; std::vector<sf::Texture *,std::allocator<sf::Texture *> >::_Umove
_TEXT	ENDS
; Function compile flags: /Odtp /RTCsu
; File C:\Program Files (x86)\Microsoft Visual Studio\2019\Community\VC\Tools\MSVC\14.29.30133\include\vector
;	COMDAT ?capacity@?$vector@PAVTexture@sf@@V?$allocator@PAVTexture@sf@@@std@@@std@@QBEIXZ
_TEXT	SEGMENT
__My_data$ = -8						; size = 4
_this$ = -4						; size = 4
?capacity@?$vector@PAVTexture@sf@@V?$allocator@PAVTexture@sf@@@std@@@std@@QBEIXZ PROC ; std::vector<sf::Texture *,std::allocator<sf::Texture *> >::capacity, COMDAT
; _this$ = ecx

; 1557 :     _NODISCARD _CONSTEXPR20_CONTAINER size_type capacity() const noexcept {

  00000	55		 push	 ebp
  00001	8b ec		 mov	 ebp, esp
  00003	83 ec 08	 sub	 esp, 8
  00006	c7 45 f8 cc cc
	cc cc		 mov	 DWORD PTR [ebp-8], -858993460 ; ccccccccH
  0000d	c7 45 fc cc cc
	cc cc		 mov	 DWORD PTR [ebp-4], -858993460 ; ccccccccH
  00014	89 4d fc	 mov	 DWORD PTR _this$[ebp], ecx
  00017	b9 00 00 00 00	 mov	 ecx, OFFSET __324884E2_vector
  0001c	e8 00 00 00 00	 call	 @__CheckForDebuggerJustMyCode@4

; 1558 :         auto& _My_data = _Mypair._Myval2;

  00021	8b 45 fc	 mov	 eax, DWORD PTR _this$[ebp]
  00024	89 45 f8	 mov	 DWORD PTR __My_data$[ebp], eax

; 1559 :         return static_cast<size_type>(_My_data._Myend - _My_data._Myfirst);

  00027	8b 4d f8	 mov	 ecx, DWORD PTR __My_data$[ebp]
  0002a	8b 55 f8	 mov	 edx, DWORD PTR __My_data$[ebp]
  0002d	8b 41 0c	 mov	 eax, DWORD PTR [ecx+12]
  00030	2b 42 04	 sub	 eax, DWORD PTR [edx+4]
  00033	c1 f8 02	 sar	 eax, 2

; 1560 :     }

  00036	83 c4 08	 add	 esp, 8
  00039	3b ec		 cmp	 ebp, esp
  0003b	e8 00 00 00 00	 call	 __RTC_CheckEsp
  00040	8b e5		 mov	 esp, ebp
  00042	5d		 pop	 ebp
  00043	c3		 ret	 0
?capacity@?$vector@PAVTexture@sf@@V?$allocator@PAVTexture@sf@@@std@@@std@@QBEIXZ ENDP ; std::vector<sf::Texture *,std::allocator<sf::Texture *> >::capacity
_TEXT	ENDS
; Function compile flags: /Odtp /RTCsu
; File C:\Program Files (x86)\Microsoft Visual Studio\2019\Community\VC\Tools\MSVC\14.29.30133\include\vector
;	COMDAT ?max_size@?$vector@PAVTexture@sf@@V?$allocator@PAVTexture@sf@@@std@@@std@@QBEIXZ
_TEXT	SEGMENT
$T1 = -12						; size = 4
$T2 = -8						; size = 4
_this$ = -4						; size = 4
?max_size@?$vector@PAVTexture@sf@@V?$allocator@PAVTexture@sf@@@std@@@std@@QBEIXZ PROC ; std::vector<sf::Texture *,std::allocator<sf::Texture *> >::max_size, COMDAT
; _this$ = ecx

; 1552 :     _NODISCARD _CONSTEXPR20_CONTAINER size_type max_size() const noexcept {

  00000	55		 push	 ebp
  00001	8b ec		 mov	 ebp, esp
  00003	83 ec 0c	 sub	 esp, 12			; 0000000cH
  00006	c7 45 f4 cc cc
	cc cc		 mov	 DWORD PTR [ebp-12], -858993460 ; ccccccccH
  0000d	c7 45 f8 cc cc
	cc cc		 mov	 DWORD PTR [ebp-8], -858993460 ; ccccccccH
  00014	c7 45 fc cc cc
	cc cc		 mov	 DWORD PTR [ebp-4], -858993460 ; ccccccccH
  0001b	89 4d fc	 mov	 DWORD PTR _this$[ebp], ecx
  0001e	b9 00 00 00 00	 mov	 ecx, OFFSET __324884E2_vector
  00023	e8 00 00 00 00	 call	 @__CheckForDebuggerJustMyCode@4

; 1553 :         return (_STD min)(

  00028	8b 4d fc	 mov	 ecx, DWORD PTR _this$[ebp]
  0002b	e8 00 00 00 00	 call	 ?_Getal@?$vector@PAVTexture@sf@@V?$allocator@PAVTexture@sf@@@std@@@std@@ABEABV?$allocator@PAVTexture@sf@@@2@XZ ; std::vector<sf::Texture *,std::allocator<sf::Texture *> >::_Getal
  00030	50		 push	 eax
  00031	e8 00 00 00 00	 call	 ?max_size@?$_Default_allocator_traits@V?$allocator@PAVTexture@sf@@@std@@@std@@SAIABV?$allocator@PAVTexture@sf@@@2@@Z ; std::_Default_allocator_traits<std::allocator<sf::Texture *> >::max_size
  00036	83 c4 04	 add	 esp, 4
  00039	89 45 f8	 mov	 DWORD PTR $T2[ebp], eax
  0003c	e8 00 00 00 00	 call	 ?max@?$numeric_limits@H@std@@SAHXZ ; std::numeric_limits<int>::max
  00041	89 45 f4	 mov	 DWORD PTR $T1[ebp], eax
  00044	8d 45 f8	 lea	 eax, DWORD PTR $T2[ebp]
  00047	50		 push	 eax
  00048	8d 4d f4	 lea	 ecx, DWORD PTR $T1[ebp]
  0004b	51		 push	 ecx
  0004c	e8 00 00 00 00	 call	 ??$min@I@std@@YAABIABI0@Z ; std::min<unsigned int>
  00051	83 c4 08	 add	 esp, 8
  00054	8b 00		 mov	 eax, DWORD PTR [eax]

; 1554 :             static_cast<size_type>((numeric_limits<difference_type>::max)()), _Alty_traits::max_size(_Getal()));
; 1555 :     }

  00056	83 c4 0c	 add	 esp, 12			; 0000000cH
  00059	3b ec		 cmp	 ebp, esp
  0005b	e8 00 00 00 00	 call	 __RTC_CheckEsp
  00060	8b e5		 mov	 esp, ebp
  00062	5d		 pop	 ebp
  00063	c3		 ret	 0
?max_size@?$vector@PAVTexture@sf@@V?$allocator@PAVTexture@sf@@@std@@@std@@QBEIXZ ENDP ; std::vector<sf::Texture *,std::allocator<sf::Texture *> >::max_size
_TEXT	ENDS
; Function compile flags: /Odtp /RTCsu
; File C:\Program Files (x86)\Microsoft Visual Studio\2019\Community\VC\Tools\MSVC\14.29.30133\include\vector
;	COMDAT ?push_back@?$vector@PAVTexture@sf@@V?$allocator@PAVTexture@sf@@@std@@@std@@QAEXABQAVTexture@sf@@@Z
_TEXT	SEGMENT
_this$ = -4						; size = 4
__Val$ = 8						; size = 4
?push_back@?$vector@PAVTexture@sf@@V?$allocator@PAVTexture@sf@@@std@@@std@@QAEXABQAVTexture@sf@@@Z PROC ; std::vector<sf::Texture *,std::allocator<sf::Texture *> >::push_back, COMDAT
; _this$ = ecx

; 755  :     _CONSTEXPR20_CONTAINER void push_back(const _Ty& _Val) { // insert element at end, provide strong guarantee

  00000	55		 push	 ebp
  00001	8b ec		 mov	 ebp, esp
  00003	51		 push	 ecx
  00004	c7 45 fc cc cc
	cc cc		 mov	 DWORD PTR [ebp-4], -858993460 ; ccccccccH
  0000b	89 4d fc	 mov	 DWORD PTR _this$[ebp], ecx
  0000e	b9 00 00 00 00	 mov	 ecx, OFFSET __324884E2_vector
  00013	e8 00 00 00 00	 call	 @__CheckForDebuggerJustMyCode@4

; 756  :         emplace_back(_Val);

  00018	8b 45 08	 mov	 eax, DWORD PTR __Val$[ebp]
  0001b	50		 push	 eax
  0001c	8b 4d fc	 mov	 ecx, DWORD PTR _this$[ebp]
  0001f	e8 00 00 00 00	 call	 ??$emplace_back@ABQAVTexture@sf@@@?$vector@PAVTexture@sf@@V?$allocator@PAVTexture@sf@@@std@@@std@@QAE?A_TABQAVTexture@sf@@@Z ; std::vector<sf::Texture *,std::allocator<sf::Texture *> >::emplace_back<sf::Texture * const &>

; 757  :     }

  00024	83 c4 04	 add	 esp, 4
  00027	3b ec		 cmp	 ebp, esp
  00029	e8 00 00 00 00	 call	 __RTC_CheckEsp
  0002e	8b e5		 mov	 esp, ebp
  00030	5d		 pop	 ebp
  00031	c2 04 00	 ret	 4
?push_back@?$vector@PAVTexture@sf@@V?$allocator@PAVTexture@sf@@@std@@@std@@QAEXABQAVTexture@sf@@@Z ENDP ; std::vector<sf::Texture *,std::allocator<sf::Texture *> >::push_back
_TEXT	ENDS
; Function compile flags: /Odtp /RTCsu
; File C:\Program Files (x86)\Microsoft Visual Studio\2019\Community\VC\Tools\MSVC\14.29.30133\include\vector
;	COMDAT ??1?$vector@PAVTexture@sf@@V?$allocator@PAVTexture@sf@@@std@@@std@@QAE@XZ
_TEXT	SEGMENT
$T1 = -28						; size = 4
_$S1$ = -17						; size = 1
__Alproxy$ = -12					; size = 4
_this$ = -8						; size = 4
__$ArrayPad$ = -4					; size = 4
??1?$vector@PAVTexture@sf@@V?$allocator@PAVTexture@sf@@@std@@@std@@QAE@XZ PROC ; std::vector<sf::Texture *,std::allocator<sf::Texture *> >::~vector<sf::Texture *,std::allocator<sf::Texture *> >, COMDAT
; _this$ = ecx

; 711  :     _CONSTEXPR20_CONTAINER ~vector() noexcept {

  00000	55		 push	 ebp
  00001	8b ec		 mov	 ebp, esp
  00003	83 ec 1c	 sub	 esp, 28			; 0000001cH
  00006	b8 cc cc cc cc	 mov	 eax, -858993460		; ccccccccH
  0000b	89 45 e4	 mov	 DWORD PTR [ebp-28], eax
  0000e	89 45 e8	 mov	 DWORD PTR [ebp-24], eax
  00011	89 45 ec	 mov	 DWORD PTR [ebp-20], eax
  00014	89 45 f0	 mov	 DWORD PTR [ebp-16], eax
  00017	89 45 f4	 mov	 DWORD PTR [ebp-12], eax
  0001a	89 45 f8	 mov	 DWORD PTR [ebp-8], eax
  0001d	89 45 fc	 mov	 DWORD PTR [ebp-4], eax
  00020	a1 00 00 00 00	 mov	 eax, DWORD PTR ___security_cookie
  00025	33 c5		 xor	 eax, ebp
  00027	89 45 fc	 mov	 DWORD PTR __$ArrayPad$[ebp], eax
  0002a	89 4d f8	 mov	 DWORD PTR _this$[ebp], ecx
  0002d	b9 00 00 00 00	 mov	 ecx, OFFSET __324884E2_vector
  00032	e8 00 00 00 00	 call	 @__CheckForDebuggerJustMyCode@4

; 712  :         _Tidy();

  00037	8b 4d f8	 mov	 ecx, DWORD PTR _this$[ebp]
  0003a	e8 00 00 00 00	 call	 ?_Tidy@?$vector@PAVTexture@sf@@V?$allocator@PAVTexture@sf@@@std@@@std@@AAEXXZ ; std::vector<sf::Texture *,std::allocator<sf::Texture *> >::_Tidy

; 713  : #if _ITERATOR_DEBUG_LEVEL != 0
; 714  :         auto&& _Alproxy = _GET_PROXY_ALLOCATOR(_Alty, _Getal());

  0003f	8b 4d f8	 mov	 ecx, DWORD PTR _this$[ebp]
  00042	e8 00 00 00 00	 call	 ?_Getal@?$vector@PAVTexture@sf@@V?$allocator@PAVTexture@sf@@@std@@@std@@AAEAAV?$allocator@PAVTexture@sf@@@2@XZ ; std::vector<sf::Texture *,std::allocator<sf::Texture *> >::_Getal
  00047	50		 push	 eax
  00048	8d 4d ef	 lea	 ecx, DWORD PTR _$S1$[ebp]
  0004b	e8 00 00 00 00	 call	 ??$?0PAVTexture@sf@@@?$allocator@U_Container_proxy@std@@@std@@QAE@ABV?$allocator@PAVTexture@sf@@@1@@Z ; std::allocator<std::_Container_proxy>::allocator<std::_Container_proxy><sf::Texture *>
  00050	8d 45 ef	 lea	 eax, DWORD PTR _$S1$[ebp]
  00053	89 45 f4	 mov	 DWORD PTR __Alproxy$[ebp], eax

; 715  :         _Delete_plain_internal(_Alproxy, _STD exchange(_Mypair._Myval2._Myproxy, nullptr));

  00056	c7 45 e4 00 00
	00 00		 mov	 DWORD PTR $T1[ebp], 0
  0005d	8d 4d e4	 lea	 ecx, DWORD PTR $T1[ebp]
  00060	51		 push	 ecx
  00061	8b 55 f8	 mov	 edx, DWORD PTR _this$[ebp]
  00064	52		 push	 edx
  00065	e8 00 00 00 00	 call	 ??$exchange@PAU_Container_proxy@std@@$$T@std@@YAPAU_Container_proxy@0@AAPAU10@$$QA$$T@Z ; std::exchange<std::_Container_proxy *,std::nullptr_t>
  0006a	83 c4 08	 add	 esp, 8
  0006d	50		 push	 eax
  0006e	8b 45 f4	 mov	 eax, DWORD PTR __Alproxy$[ebp]
  00071	50		 push	 eax
  00072	e8 00 00 00 00	 call	 ??$_Delete_plain_internal@V?$allocator@U_Container_proxy@std@@@std@@@std@@YAXAAV?$allocator@U_Container_proxy@std@@@0@QAU_Container_proxy@0@@Z ; std::_Delete_plain_internal<std::allocator<std::_Container_proxy> >
  00077	83 c4 08	 add	 esp, 8

; 716  : #endif // _ITERATOR_DEBUG_LEVEL != 0
; 717  :     }

  0007a	52		 push	 edx
  0007b	8b cd		 mov	 ecx, ebp
  0007d	50		 push	 eax
  0007e	8d 15 00 00 00
	00		 lea	 edx, DWORD PTR $LN5@vector
  00084	e8 00 00 00 00	 call	 @_RTC_CheckStackVars@8
  00089	58		 pop	 eax
  0008a	5a		 pop	 edx
  0008b	8b 4d fc	 mov	 ecx, DWORD PTR __$ArrayPad$[ebp]
  0008e	33 cd		 xor	 ecx, ebp
  00090	e8 00 00 00 00	 call	 @__security_check_cookie@4
  00095	83 c4 1c	 add	 esp, 28			; 0000001cH
  00098	3b ec		 cmp	 ebp, esp
  0009a	e8 00 00 00 00	 call	 __RTC_CheckEsp
  0009f	8b e5		 mov	 esp, ebp
  000a1	5d		 pop	 ebp
  000a2	c3		 ret	 0
  000a3	90		 npad	 1
$LN5@vector:
  000a4	01 00 00 00	 DD	 1
  000a8	00 00 00 00	 DD	 $LN4@vector
$LN4@vector:
  000ac	ef ff ff ff	 DD	 -17			; ffffffefH
  000b0	01 00 00 00	 DD	 1
  000b4	00 00 00 00	 DD	 $LN3@vector
$LN3@vector:
  000b8	24		 DB	 36			; 00000024H
  000b9	53		 DB	 83			; 00000053H
  000ba	31		 DB	 49			; 00000031H
  000bb	00		 DB	 0
??1?$vector@PAVTexture@sf@@V?$allocator@PAVTexture@sf@@@std@@@std@@QAE@XZ ENDP ; std::vector<sf::Texture *,std::allocator<sf::Texture *> >::~vector<sf::Texture *,std::allocator<sf::Texture *> >
_TEXT	ENDS
; Function compile flags: /Odtp /RTCsu
; File C:\Program Files (x86)\Microsoft Visual Studio\2019\Community\VC\Tools\MSVC\14.29.30133\include\vector
;	COMDAT ??0?$vector@PAVTexture@sf@@V?$allocator@PAVTexture@sf@@@std@@@std@@QAE@XZ
_TEXT	SEGMENT
tv83 = -28						; size = 4
tv69 = -24						; size = 4
$T2 = -18						; size = 1
$T3 = -17						; size = 1
_this$ = -16						; size = 4
__$EHRec$ = -12						; size = 12
??0?$vector@PAVTexture@sf@@V?$allocator@PAVTexture@sf@@@std@@@std@@QAE@XZ PROC ; std::vector<sf::Texture *,std::allocator<sf::Texture *> >::vector<sf::Texture *,std::allocator<sf::Texture *> >, COMDAT
; _this$ = ecx

; 476  :         : _Mypair(_Zero_then_variadic_args_t{}) {

  00000	55		 push	 ebp
  00001	8b ec		 mov	 ebp, esp
  00003	6a ff		 push	 -1
  00005	68 00 00 00 00	 push	 __ehhandler$??0?$vector@PAVTexture@sf@@V?$allocator@PAVTexture@sf@@@std@@@std@@QAE@XZ
  0000a	64 a1 00 00 00
	00		 mov	 eax, DWORD PTR fs:0
  00010	50		 push	 eax
  00011	83 ec 10	 sub	 esp, 16			; 00000010H
  00014	b8 cc cc cc cc	 mov	 eax, -858993460		; ccccccccH
  00019	89 45 e4	 mov	 DWORD PTR [ebp-28], eax
  0001c	89 45 e8	 mov	 DWORD PTR [ebp-24], eax
  0001f	89 45 ec	 mov	 DWORD PTR [ebp-20], eax
  00022	89 45 f0	 mov	 DWORD PTR [ebp-16], eax
  00025	a1 00 00 00 00	 mov	 eax, DWORD PTR ___security_cookie
  0002a	33 c5		 xor	 eax, ebp
  0002c	50		 push	 eax
  0002d	8d 45 f4	 lea	 eax, DWORD PTR __$EHRec$[ebp]
  00030	64 a3 00 00 00
	00		 mov	 DWORD PTR fs:0, eax
  00036	89 4d f0	 mov	 DWORD PTR _this$[ebp], ecx
  00039	b9 00 00 00 00	 mov	 ecx, OFFSET __324884E2_vector
  0003e	e8 00 00 00 00	 call	 @__CheckForDebuggerJustMyCode@4
  00043	8b 45 f0	 mov	 eax, DWORD PTR _this$[ebp]
  00046	89 45 e8	 mov	 DWORD PTR tv69[ebp], eax
  00049	0f b6 4d ef	 movzx	 ecx, BYTE PTR $T3[ebp]
  0004d	51		 push	 ecx
  0004e	8b 4d e8	 mov	 ecx, DWORD PTR tv69[ebp]
  00051	e8 00 00 00 00	 call	 ??$?0$$V@?$_Compressed_pair@V?$allocator@PAVTexture@sf@@@std@@V?$_Vector_val@U?$_Simple_types@PAVTexture@sf@@@std@@@2@$00@std@@QAE@U_Zero_then_variadic_args_t@1@@Z ; std::_Compressed_pair<std::allocator<sf::Texture *>,std::_Vector_val<std::_Simple_types<sf::Texture *> >,1>::_Compressed_pair<std::allocator<sf::Texture *>,std::_Vector_val<std::_Simple_types<sf::Texture *> >,1><>

; 477  :         _Mypair._Myval2._Alloc_proxy(_GET_PROXY_ALLOCATOR(_Alty, _Getal()));

  00056	8b 55 f0	 mov	 edx, DWORD PTR _this$[ebp]
  00059	89 55 e4	 mov	 DWORD PTR tv83[ebp], edx
  0005c	8b 4d f0	 mov	 ecx, DWORD PTR _this$[ebp]
  0005f	e8 00 00 00 00	 call	 ?_Getal@?$vector@PAVTexture@sf@@V?$allocator@PAVTexture@sf@@@std@@@std@@AAEAAV?$allocator@PAVTexture@sf@@@2@XZ ; std::vector<sf::Texture *,std::allocator<sf::Texture *> >::_Getal
  00064	50		 push	 eax
  00065	8d 4d ee	 lea	 ecx, DWORD PTR $T2[ebp]
  00068	e8 00 00 00 00	 call	 ??$?0PAVTexture@sf@@@?$allocator@U_Container_proxy@std@@@std@@QAE@ABV?$allocator@PAVTexture@sf@@@1@@Z ; std::allocator<std::_Container_proxy>::allocator<std::_Container_proxy><sf::Texture *>
  0006d	50		 push	 eax
  0006e	8b 4d e4	 mov	 ecx, DWORD PTR tv83[ebp]
  00071	e8 00 00 00 00	 call	 ??$_Alloc_proxy@V?$allocator@U_Container_proxy@std@@@std@@@_Container_base12@std@@QAEX$$QAV?$allocator@U_Container_proxy@std@@@1@@Z ; std::_Container_base12::_Alloc_proxy<std::allocator<std::_Container_proxy> >

; 478  :     }

  00076	8b 45 f0	 mov	 eax, DWORD PTR _this$[ebp]
  00079	8b 4d f4	 mov	 ecx, DWORD PTR __$EHRec$[ebp]
  0007c	64 89 0d 00 00
	00 00		 mov	 DWORD PTR fs:0, ecx
  00083	59		 pop	 ecx
  00084	83 c4 1c	 add	 esp, 28			; 0000001cH
  00087	3b ec		 cmp	 ebp, esp
  00089	e8 00 00 00 00	 call	 __RTC_CheckEsp
  0008e	8b e5		 mov	 esp, ebp
  00090	5d		 pop	 ebp
  00091	c3		 ret	 0
  00092	cc		 int	 3
  00093	cc		 int	 3
  00094	cc		 int	 3
  00095	cc		 int	 3
  00096	cc		 int	 3
_TEXT	ENDS
;	COMDAT text$x
text$x	SEGMENT
__ehhandler$??0?$vector@PAVTexture@sf@@V?$allocator@PAVTexture@sf@@@std@@@std@@QAE@XZ:
  00000	90		 npad	 1
  00001	90		 npad	 1
  00002	8b 54 24 08	 mov	 edx, DWORD PTR [esp+8]
  00006	8d 42 0c	 lea	 eax, DWORD PTR [edx+12]
  00009	8b 4a ec	 mov	 ecx, DWORD PTR [edx-20]
  0000c	33 c8		 xor	 ecx, eax
  0000e	e8 00 00 00 00	 call	 @__security_check_cookie@4
  00013	b8 00 00 00 00	 mov	 eax, OFFSET __ehfuncinfo$??0?$vector@PAVTexture@sf@@V?$allocator@PAVTexture@sf@@@std@@@std@@QAE@XZ
  00018	e9 00 00 00 00	 jmp	 ___CxxFrameHandler3
text$x	ENDS
??0?$vector@PAVTexture@sf@@V?$allocator@PAVTexture@sf@@@std@@@std@@QAE@XZ ENDP ; std::vector<sf::Texture *,std::allocator<sf::Texture *> >::vector<sf::Texture *,std::allocator<sf::Texture *> >
; Function compile flags: /Odtp /RTCsu
; File C:\Program Files (x86)\Microsoft Visual Studio\2019\Community\VC\Tools\MSVC\14.29.30133\include\xmemory
;	COMDAT ?max_size@?$_Default_allocator_traits@V?$allocator@PAVTexture@sf@@@std@@@std@@SAIABV?$allocator@PAVTexture@sf@@@2@@Z
_TEXT	SEGMENT
___formal$ = 8						; size = 4
?max_size@?$_Default_allocator_traits@V?$allocator@PAVTexture@sf@@@std@@@std@@SAIABV?$allocator@PAVTexture@sf@@@2@@Z PROC ; std::_Default_allocator_traits<std::allocator<sf::Texture *> >::max_size, COMDAT

; 727  :     _NODISCARD static _CONSTEXPR20_DYNALLOC size_type max_size(const _Alloc&) noexcept {

  00000	55		 push	 ebp
  00001	8b ec		 mov	 ebp, esp
  00003	b9 00 00 00 00	 mov	 ecx, OFFSET __79D216CD_xmemory
  00008	e8 00 00 00 00	 call	 @__CheckForDebuggerJustMyCode@4

; 728  :         return static_cast<size_t>(-1) / sizeof(value_type);

  0000d	b8 ff ff ff 3f	 mov	 eax, 1073741823		; 3fffffffH

; 729  :     }

  00012	3b ec		 cmp	 ebp, esp
  00014	e8 00 00 00 00	 call	 __RTC_CheckEsp
  00019	5d		 pop	 ebp
  0001a	c3		 ret	 0
?max_size@?$_Default_allocator_traits@V?$allocator@PAVTexture@sf@@@std@@@std@@SAIABV?$allocator@PAVTexture@sf@@@2@@Z ENDP ; std::_Default_allocator_traits<std::allocator<sf::Texture *> >::max_size
_TEXT	ENDS
; Function compile flags: /Odtp /RTCsu
; File C:\Program Files (x86)\Microsoft Visual Studio\2019\Community\VC\Tools\MSVC\14.29.30133\include\xmemory
;	COMDAT ?allocate@?$allocator@PAVTexture@sf@@@std@@QAEPAPAVTexture@sf@@I@Z
_TEXT	SEGMENT
_this$ = -4						; size = 4
__Count$ = 8						; size = 4
?allocate@?$allocator@PAVTexture@sf@@@std@@QAEPAPAVTexture@sf@@I@Z PROC ; std::allocator<sf::Texture *>::allocate, COMDAT
; _this$ = ecx

; 838  :     _NODISCARD _CONSTEXPR20_DYNALLOC __declspec(allocator) _Ty* allocate(_CRT_GUARDOVERFLOW const size_t _Count) {

  00000	55		 push	 ebp
  00001	8b ec		 mov	 ebp, esp
  00003	51		 push	 ecx
  00004	c7 45 fc cc cc
	cc cc		 mov	 DWORD PTR [ebp-4], -858993460 ; ccccccccH
  0000b	89 4d fc	 mov	 DWORD PTR _this$[ebp], ecx
  0000e	b9 00 00 00 00	 mov	 ecx, OFFSET __79D216CD_xmemory
  00013	e8 00 00 00 00	 call	 @__CheckForDebuggerJustMyCode@4

; 839  :         return static_cast<_Ty*>(_Allocate<_New_alignof<_Ty>>(_Get_size_of_n<sizeof(_Ty)>(_Count)));

  00018	8b 45 08	 mov	 eax, DWORD PTR __Count$[ebp]
  0001b	50		 push	 eax
  0001c	e8 00 00 00 00	 call	 ??$_Get_size_of_n@$03@std@@YAII@Z ; std::_Get_size_of_n<4>
  00021	83 c4 04	 add	 esp, 4
  00024	50		 push	 eax
  00025	e8 00 00 00 00	 call	 ??$_Allocate@$07U_Default_allocate_traits@std@@$0A@@std@@YAPAXI@Z ; std::_Allocate<8,std::_Default_allocate_traits,0>
  0002a	83 c4 04	 add	 esp, 4

; 840  :     }

  0002d	83 c4 04	 add	 esp, 4
  00030	3b ec		 cmp	 ebp, esp
  00032	e8 00 00 00 00	 call	 __RTC_CheckEsp
  00037	8b e5		 mov	 esp, ebp
  00039	5d		 pop	 ebp
  0003a	c2 04 00	 ret	 4
?allocate@?$allocator@PAVTexture@sf@@@std@@QAEPAPAVTexture@sf@@I@Z ENDP ; std::allocator<sf::Texture *>::allocate
_TEXT	ENDS
; Function compile flags: /Odtp /RTCsu
; File C:\Program Files (x86)\Microsoft Visual Studio\2019\Community\VC\Tools\MSVC\14.29.30133\include\xmemory
;	COMDAT ?deallocate@?$allocator@PAVTexture@sf@@@std@@QAEXQAPAVTexture@sf@@I@Z
_TEXT	SEGMENT
_this$ = -4						; size = 4
__Ptr$ = 8						; size = 4
__Count$ = 12						; size = 4
?deallocate@?$allocator@PAVTexture@sf@@@std@@QAEXQAPAVTexture@sf@@I@Z PROC ; std::allocator<sf::Texture *>::deallocate, COMDAT
; _this$ = ecx

; 833  :     _CONSTEXPR20_DYNALLOC void deallocate(_Ty* const _Ptr, const size_t _Count) {

  00000	55		 push	 ebp
  00001	8b ec		 mov	 ebp, esp
  00003	51		 push	 ecx
  00004	c7 45 fc cc cc
	cc cc		 mov	 DWORD PTR [ebp-4], -858993460 ; ccccccccH
  0000b	89 4d fc	 mov	 DWORD PTR _this$[ebp], ecx
  0000e	b9 00 00 00 00	 mov	 ecx, OFFSET __79D216CD_xmemory
  00013	e8 00 00 00 00	 call	 @__CheckForDebuggerJustMyCode@4

; 834  :         // no overflow check on the following multiply; we assume _Allocate did that check
; 835  :         _Deallocate<_New_alignof<_Ty>>(_Ptr, sizeof(_Ty) * _Count);

  00018	8b 45 0c	 mov	 eax, DWORD PTR __Count$[ebp]
  0001b	c1 e0 02	 shl	 eax, 2
  0001e	50		 push	 eax
  0001f	8b 4d 08	 mov	 ecx, DWORD PTR __Ptr$[ebp]
  00022	51		 push	 ecx
  00023	e8 00 00 00 00	 call	 ??$_Deallocate@$07$0A@@std@@YAXPAXI@Z ; std::_Deallocate<8,0>
  00028	83 c4 08	 add	 esp, 8

; 836  :     }

  0002b	83 c4 04	 add	 esp, 4
  0002e	3b ec		 cmp	 ebp, esp
  00030	e8 00 00 00 00	 call	 __RTC_CheckEsp
  00035	8b e5		 mov	 esp, ebp
  00037	5d		 pop	 ebp
  00038	c2 08 00	 ret	 8
?deallocate@?$allocator@PAVTexture@sf@@@std@@QAEXQAPAVTexture@sf@@I@Z ENDP ; std::allocator<sf::Texture *>::deallocate
_TEXT	ENDS
; Function compile flags: /Odtp /RTCsu
; File C:\Program Files (x86)\Microsoft Visual Studio\2019\Community\VC\Tools\MSVC\14.29.30133\include\xmemory
;	COMDAT ??0?$allocator@PAVTexture@sf@@@std@@QAE@XZ
_TEXT	SEGMENT
_this$ = -4						; size = 4
??0?$allocator@PAVTexture@sf@@@std@@QAE@XZ PROC		; std::allocator<sf::Texture *>::allocator<sf::Texture *>, COMDAT
; _this$ = ecx

; 825  :     constexpr allocator() noexcept {}

  00000	55		 push	 ebp
  00001	8b ec		 mov	 ebp, esp
  00003	51		 push	 ecx
  00004	c7 45 fc cc cc
	cc cc		 mov	 DWORD PTR [ebp-4], -858993460 ; ccccccccH
  0000b	89 4d fc	 mov	 DWORD PTR _this$[ebp], ecx
  0000e	b9 00 00 00 00	 mov	 ecx, OFFSET __79D216CD_xmemory
  00013	e8 00 00 00 00	 call	 @__CheckForDebuggerJustMyCode@4
  00018	8b 45 fc	 mov	 eax, DWORD PTR _this$[ebp]
  0001b	83 c4 04	 add	 esp, 4
  0001e	3b ec		 cmp	 ebp, esp
  00020	e8 00 00 00 00	 call	 __RTC_CheckEsp
  00025	8b e5		 mov	 esp, ebp
  00027	5d		 pop	 ebp
  00028	c3		 ret	 0
??0?$allocator@PAVTexture@sf@@@std@@QAE@XZ ENDP		; std::allocator<sf::Texture *>::allocator<sf::Texture *>
_TEXT	ENDS
; Function compile flags: /Odtp /RTCsu
; File C:\Program Files (x86)\Microsoft Visual Studio\2019\Community\VC\Tools\MSVC\14.29.30133\include\vector
;	COMDAT ?_Xrange@?$vector@PAVImage@sf@@V?$allocator@PAVImage@sf@@@std@@@std@@CAXXZ
_TEXT	SEGMENT
?_Xrange@?$vector@PAVImage@sf@@V?$allocator@PAVImage@sf@@@std@@@std@@CAXXZ PROC ; std::vector<sf::Image *,std::allocator<sf::Image *> >::_Xrange, COMDAT

; 1777 :     [[noreturn]] static void _Xrange() {

  00000	55		 push	 ebp
  00001	8b ec		 mov	 ebp, esp
  00003	b9 00 00 00 00	 mov	 ecx, OFFSET __324884E2_vector
  00008	e8 00 00 00 00	 call	 @__CheckForDebuggerJustMyCode@4

; 1778 :         _Xout_of_range("invalid vector subscript");

  0000d	68 00 00 00 00	 push	 OFFSET ??_C@_0BJ@DHFDPMIM@invalid?5vector?5subscript@
  00012	e8 00 00 00 00	 call	 ?_Xout_of_range@std@@YAXPBD@Z ; std::_Xout_of_range
$LN2@Xrange:

; 1779 :     }

  00017	3b ec		 cmp	 ebp, esp
  00019	e8 00 00 00 00	 call	 __RTC_CheckEsp
  0001e	5d		 pop	 ebp
  0001f	c3		 ret	 0
?_Xrange@?$vector@PAVImage@sf@@V?$allocator@PAVImage@sf@@@std@@@std@@CAXXZ ENDP ; std::vector<sf::Image *,std::allocator<sf::Image *> >::_Xrange
_TEXT	ENDS
; Function compile flags: /Odtp /RTCsu
; File C:\Program Files (x86)\Microsoft Visual Studio\2019\Community\VC\Tools\MSVC\14.29.30133\include\vector
;	COMDAT ?at@?$vector@PAVImage@sf@@V?$allocator@PAVImage@sf@@@std@@@std@@QAEAAPAVImage@sf@@I@Z
_TEXT	SEGMENT
__My_data$ = -8						; size = 4
_this$ = -4						; size = 4
__Pos$ = 8						; size = 4
?at@?$vector@PAVImage@sf@@V?$allocator@PAVImage@sf@@@std@@@std@@QAEAAPAVImage@sf@@I@Z PROC ; std::vector<sf::Image *,std::allocator<sf::Image *> >::at, COMDAT
; _this$ = ecx

; 1582 :     _NODISCARD _CONSTEXPR20_CONTAINER _Ty& at(const size_type _Pos) {

  00000	55		 push	 ebp
  00001	8b ec		 mov	 ebp, esp
  00003	83 ec 08	 sub	 esp, 8
  00006	c7 45 f8 cc cc
	cc cc		 mov	 DWORD PTR [ebp-8], -858993460 ; ccccccccH
  0000d	c7 45 fc cc cc
	cc cc		 mov	 DWORD PTR [ebp-4], -858993460 ; ccccccccH
  00014	89 4d fc	 mov	 DWORD PTR _this$[ebp], ecx
  00017	b9 00 00 00 00	 mov	 ecx, OFFSET __324884E2_vector
  0001c	e8 00 00 00 00	 call	 @__CheckForDebuggerJustMyCode@4

; 1583 :         auto& _My_data = _Mypair._Myval2;

  00021	8b 45 fc	 mov	 eax, DWORD PTR _this$[ebp]
  00024	89 45 f8	 mov	 DWORD PTR __My_data$[ebp], eax

; 1584 :         if (static_cast<size_type>(_My_data._Mylast - _My_data._Myfirst) <= _Pos) {

  00027	8b 4d f8	 mov	 ecx, DWORD PTR __My_data$[ebp]
  0002a	8b 55 f8	 mov	 edx, DWORD PTR __My_data$[ebp]
  0002d	8b 41 08	 mov	 eax, DWORD PTR [ecx+8]
  00030	2b 42 04	 sub	 eax, DWORD PTR [edx+4]
  00033	c1 f8 02	 sar	 eax, 2
  00036	3b 45 08	 cmp	 eax, DWORD PTR __Pos$[ebp]
  00039	77 05		 ja	 SHORT $LN2@at

; 1585 :             _Xrange();

  0003b	e8 00 00 00 00	 call	 ?_Xrange@?$vector@PAVImage@sf@@V?$allocator@PAVImage@sf@@@std@@@std@@CAXXZ ; std::vector<sf::Image *,std::allocator<sf::Image *> >::_Xrange
$LN2@at:

; 1586 :         }
; 1587 : 
; 1588 :         return _My_data._Myfirst[_Pos];

  00040	8b 4d f8	 mov	 ecx, DWORD PTR __My_data$[ebp]
  00043	8b 51 04	 mov	 edx, DWORD PTR [ecx+4]
  00046	8b 45 08	 mov	 eax, DWORD PTR __Pos$[ebp]
  00049	8d 04 82	 lea	 eax, DWORD PTR [edx+eax*4]
$LN3@at:

; 1589 :     }

  0004c	83 c4 08	 add	 esp, 8
  0004f	3b ec		 cmp	 ebp, esp
  00051	e8 00 00 00 00	 call	 __RTC_CheckEsp
  00056	8b e5		 mov	 esp, ebp
  00058	5d		 pop	 ebp
  00059	c2 04 00	 ret	 4
?at@?$vector@PAVImage@sf@@V?$allocator@PAVImage@sf@@@std@@@std@@QAEAAPAVImage@sf@@I@Z ENDP ; std::vector<sf::Image *,std::allocator<sf::Image *> >::at
_TEXT	ENDS
; Function compile flags: /Odtp /RTCsu
; File C:\Program Files (x86)\Microsoft Visual Studio\2019\Community\VC\Tools\MSVC\14.29.30133\include\vector
;	COMDAT ?size@?$vector@PAVImage@sf@@V?$allocator@PAVImage@sf@@@std@@@std@@QBEIXZ
_TEXT	SEGMENT
__My_data$ = -8						; size = 4
_this$ = -4						; size = 4
?size@?$vector@PAVImage@sf@@V?$allocator@PAVImage@sf@@@std@@@std@@QBEIXZ PROC ; std::vector<sf::Image *,std::allocator<sf::Image *> >::size, COMDAT
; _this$ = ecx

; 1547 :     _NODISCARD _CONSTEXPR20_CONTAINER size_type size() const noexcept {

  00000	55		 push	 ebp
  00001	8b ec		 mov	 ebp, esp
  00003	83 ec 08	 sub	 esp, 8
  00006	c7 45 f8 cc cc
	cc cc		 mov	 DWORD PTR [ebp-8], -858993460 ; ccccccccH
  0000d	c7 45 fc cc cc
	cc cc		 mov	 DWORD PTR [ebp-4], -858993460 ; ccccccccH
  00014	89 4d fc	 mov	 DWORD PTR _this$[ebp], ecx
  00017	b9 00 00 00 00	 mov	 ecx, OFFSET __324884E2_vector
  0001c	e8 00 00 00 00	 call	 @__CheckForDebuggerJustMyCode@4

; 1548 :         auto& _My_data = _Mypair._Myval2;

  00021	8b 45 fc	 mov	 eax, DWORD PTR _this$[ebp]
  00024	89 45 f8	 mov	 DWORD PTR __My_data$[ebp], eax

; 1549 :         return static_cast<size_type>(_My_data._Mylast - _My_data._Myfirst);

  00027	8b 4d f8	 mov	 ecx, DWORD PTR __My_data$[ebp]
  0002a	8b 55 f8	 mov	 edx, DWORD PTR __My_data$[ebp]
  0002d	8b 41 08	 mov	 eax, DWORD PTR [ecx+8]
  00030	2b 42 04	 sub	 eax, DWORD PTR [edx+4]
  00033	c1 f8 02	 sar	 eax, 2

; 1550 :     }

  00036	83 c4 08	 add	 esp, 8
  00039	3b ec		 cmp	 ebp, esp
  0003b	e8 00 00 00 00	 call	 __RTC_CheckEsp
  00040	8b e5		 mov	 esp, ebp
  00042	5d		 pop	 ebp
  00043	c3		 ret	 0
?size@?$vector@PAVImage@sf@@V?$allocator@PAVImage@sf@@@std@@@std@@QBEIXZ ENDP ; std::vector<sf::Image *,std::allocator<sf::Image *> >::size
_TEXT	ENDS
; Function compile flags: /Odtp /RTCsu
;	COMDAT ??_G?$vector@PAVSprite@sf@@V?$allocator@PAVSprite@sf@@@std@@@std@@QAEPAXI@Z
_TEXT	SEGMENT
_this$ = -4						; size = 4
___flags$ = 8						; size = 4
??_G?$vector@PAVSprite@sf@@V?$allocator@PAVSprite@sf@@@std@@@std@@QAEPAXI@Z PROC ; std::vector<sf::Sprite *,std::allocator<sf::Sprite *> >::`scalar deleting destructor', COMDAT
; _this$ = ecx
  00000	55		 push	 ebp
  00001	8b ec		 mov	 ebp, esp
  00003	51		 push	 ecx
  00004	c7 45 fc cc cc
	cc cc		 mov	 DWORD PTR [ebp-4], -858993460 ; ccccccccH
  0000b	89 4d fc	 mov	 DWORD PTR _this$[ebp], ecx
  0000e	8b 4d fc	 mov	 ecx, DWORD PTR _this$[ebp]
  00011	e8 00 00 00 00	 call	 ??1?$vector@PAVSprite@sf@@V?$allocator@PAVSprite@sf@@@std@@@std@@QAE@XZ ; std::vector<sf::Sprite *,std::allocator<sf::Sprite *> >::~vector<sf::Sprite *,std::allocator<sf::Sprite *> >
  00016	8b 45 08	 mov	 eax, DWORD PTR ___flags$[ebp]
  00019	83 e0 01	 and	 eax, 1
  0001c	74 0e		 je	 SHORT $LN2@scalar
  0001e	6a 10		 push	 16			; 00000010H
  00020	8b 4d fc	 mov	 ecx, DWORD PTR _this$[ebp]
  00023	51		 push	 ecx
  00024	e8 00 00 00 00	 call	 ??3@YAXPAXI@Z		; operator delete
  00029	83 c4 08	 add	 esp, 8
$LN2@scalar:
  0002c	8b 45 fc	 mov	 eax, DWORD PTR _this$[ebp]
  0002f	83 c4 04	 add	 esp, 4
  00032	3b ec		 cmp	 ebp, esp
  00034	e8 00 00 00 00	 call	 __RTC_CheckEsp
  00039	8b e5		 mov	 esp, ebp
  0003b	5d		 pop	 ebp
  0003c	c2 04 00	 ret	 4
??_G?$vector@PAVSprite@sf@@V?$allocator@PAVSprite@sf@@@std@@@std@@QAEPAXI@Z ENDP ; std::vector<sf::Sprite *,std::allocator<sf::Sprite *> >::`scalar deleting destructor'
_TEXT	ENDS
; Function compile flags: /Odtp /RTCsu
;	COMDAT ?__autoclassinit2@?$vector@PAVSprite@sf@@V?$allocator@PAVSprite@sf@@@std@@@std@@QAEXI@Z
_TEXT	SEGMENT
_this$ = -4						; size = 4
_classSize$ = 8						; size = 4
?__autoclassinit2@?$vector@PAVSprite@sf@@V?$allocator@PAVSprite@sf@@@std@@@std@@QAEXI@Z PROC ; std::vector<sf::Sprite *,std::allocator<sf::Sprite *> >::__autoclassinit2, COMDAT
; _this$ = ecx
  00000	55		 push	 ebp
  00001	8b ec		 mov	 ebp, esp
  00003	51		 push	 ecx
  00004	c7 45 fc cc cc
	cc cc		 mov	 DWORD PTR [ebp-4], -858993460 ; ccccccccH
  0000b	89 4d fc	 mov	 DWORD PTR _this$[ebp], ecx
  0000e	8b 45 08	 mov	 eax, DWORD PTR _classSize$[ebp]
  00011	50		 push	 eax
  00012	6a 00		 push	 0
  00014	8b 4d fc	 mov	 ecx, DWORD PTR _this$[ebp]
  00017	51		 push	 ecx
  00018	e8 00 00 00 00	 call	 _memset
  0001d	83 c4 0c	 add	 esp, 12			; 0000000cH
  00020	83 c4 04	 add	 esp, 4
  00023	3b ec		 cmp	 ebp, esp
  00025	e8 00 00 00 00	 call	 __RTC_CheckEsp
  0002a	8b e5		 mov	 esp, ebp
  0002c	5d		 pop	 ebp
  0002d	c2 04 00	 ret	 4
?__autoclassinit2@?$vector@PAVSprite@sf@@V?$allocator@PAVSprite@sf@@@std@@@std@@QAEXI@Z ENDP ; std::vector<sf::Sprite *,std::allocator<sf::Sprite *> >::__autoclassinit2
_TEXT	ENDS
; Function compile flags: /Odtp /RTCsu
; File C:\Program Files (x86)\Microsoft Visual Studio\2019\Community\VC\Tools\MSVC\14.29.30133\include\xmemory
;	COMDAT ?_Get_first@?$_Compressed_pair@V?$allocator@PAVSprite@sf@@@std@@V?$_Vector_val@U?$_Simple_types@PAVSprite@sf@@@std@@@2@$00@std@@QBEABV?$allocator@PAVSprite@sf@@@2@XZ
_TEXT	SEGMENT
_this$ = -4						; size = 4
?_Get_first@?$_Compressed_pair@V?$allocator@PAVSprite@sf@@@std@@V?$_Vector_val@U?$_Simple_types@PAVSprite@sf@@@std@@@2@$00@std@@QBEABV?$allocator@PAVSprite@sf@@@2@XZ PROC ; std::_Compressed_pair<std::allocator<sf::Sprite *>,std::_Vector_val<std::_Simple_types<sf::Sprite *> >,1>::_Get_first, COMDAT
; _this$ = ecx

; 1401 :     constexpr const _Ty1& _Get_first() const noexcept {

  00000	55		 push	 ebp
  00001	8b ec		 mov	 ebp, esp
  00003	51		 push	 ecx
  00004	c7 45 fc cc cc
	cc cc		 mov	 DWORD PTR [ebp-4], -858993460 ; ccccccccH
  0000b	89 4d fc	 mov	 DWORD PTR _this$[ebp], ecx
  0000e	b9 00 00 00 00	 mov	 ecx, OFFSET __79D216CD_xmemory
  00013	e8 00 00 00 00	 call	 @__CheckForDebuggerJustMyCode@4

; 1402 :         return *this;

  00018	8b 45 fc	 mov	 eax, DWORD PTR _this$[ebp]

; 1403 :     }

  0001b	83 c4 04	 add	 esp, 4
  0001e	3b ec		 cmp	 ebp, esp
  00020	e8 00 00 00 00	 call	 __RTC_CheckEsp
  00025	8b e5		 mov	 esp, ebp
  00027	5d		 pop	 ebp
  00028	c3		 ret	 0
?_Get_first@?$_Compressed_pair@V?$allocator@PAVSprite@sf@@@std@@V?$_Vector_val@U?$_Simple_types@PAVSprite@sf@@@std@@@2@$00@std@@QBEABV?$allocator@PAVSprite@sf@@@2@XZ ENDP ; std::_Compressed_pair<std::allocator<sf::Sprite *>,std::_Vector_val<std::_Simple_types<sf::Sprite *> >,1>::_Get_first
_TEXT	ENDS
; Function compile flags: /Odtp /RTCsu
; File C:\Program Files (x86)\Microsoft Visual Studio\2019\Community\VC\Tools\MSVC\14.29.30133\include\xmemory
;	COMDAT ?_Get_first@?$_Compressed_pair@V?$allocator@PAVSprite@sf@@@std@@V?$_Vector_val@U?$_Simple_types@PAVSprite@sf@@@std@@@2@$00@std@@QAEAAV?$allocator@PAVSprite@sf@@@2@XZ
_TEXT	SEGMENT
_this$ = -4						; size = 4
?_Get_first@?$_Compressed_pair@V?$allocator@PAVSprite@sf@@@std@@V?$_Vector_val@U?$_Simple_types@PAVSprite@sf@@@std@@@2@$00@std@@QAEAAV?$allocator@PAVSprite@sf@@@2@XZ PROC ; std::_Compressed_pair<std::allocator<sf::Sprite *>,std::_Vector_val<std::_Simple_types<sf::Sprite *> >,1>::_Get_first, COMDAT
; _this$ = ecx

; 1397 :     constexpr _Ty1& _Get_first() noexcept {

  00000	55		 push	 ebp
  00001	8b ec		 mov	 ebp, esp
  00003	51		 push	 ecx
  00004	c7 45 fc cc cc
	cc cc		 mov	 DWORD PTR [ebp-4], -858993460 ; ccccccccH
  0000b	89 4d fc	 mov	 DWORD PTR _this$[ebp], ecx
  0000e	b9 00 00 00 00	 mov	 ecx, OFFSET __79D216CD_xmemory
  00013	e8 00 00 00 00	 call	 @__CheckForDebuggerJustMyCode@4

; 1398 :         return *this;

  00018	8b 45 fc	 mov	 eax, DWORD PTR _this$[ebp]

; 1399 :     }

  0001b	83 c4 04	 add	 esp, 4
  0001e	3b ec		 cmp	 ebp, esp
  00020	e8 00 00 00 00	 call	 __RTC_CheckEsp
  00025	8b e5		 mov	 esp, ebp
  00027	5d		 pop	 ebp
  00028	c3		 ret	 0
?_Get_first@?$_Compressed_pair@V?$allocator@PAVSprite@sf@@@std@@V?$_Vector_val@U?$_Simple_types@PAVSprite@sf@@@std@@@2@$00@std@@QAEAAV?$allocator@PAVSprite@sf@@@2@XZ ENDP ; std::_Compressed_pair<std::allocator<sf::Sprite *>,std::_Vector_val<std::_Simple_types<sf::Sprite *> >,1>::_Get_first
_TEXT	ENDS
; Function compile flags: /Odtp /RTCsu
; File C:\Program Files (x86)\Microsoft Visual Studio\2019\Community\VC\Tools\MSVC\14.29.30133\include\vector
;	COMDAT ??0?$_Vector_val@U?$_Simple_types@PAVSprite@sf@@@std@@@std@@QAE@XZ
_TEXT	SEGMENT
_this$ = -4						; size = 4
??0?$_Vector_val@U?$_Simple_types@PAVSprite@sf@@@std@@@std@@QAE@XZ PROC ; std::_Vector_val<std::_Simple_types<sf::Sprite *> >::_Vector_val<std::_Simple_types<sf::Sprite *> >, COMDAT
; _this$ = ecx

; 401  :     _CONSTEXPR20_CONTAINER _Vector_val() noexcept : _Myfirst(), _Mylast(), _Myend() {}

  00000	55		 push	 ebp
  00001	8b ec		 mov	 ebp, esp
  00003	51		 push	 ecx
  00004	c7 45 fc cc cc
	cc cc		 mov	 DWORD PTR [ebp-4], -858993460 ; ccccccccH
  0000b	89 4d fc	 mov	 DWORD PTR _this$[ebp], ecx
  0000e	b9 00 00 00 00	 mov	 ecx, OFFSET __324884E2_vector
  00013	e8 00 00 00 00	 call	 @__CheckForDebuggerJustMyCode@4
  00018	8b 4d fc	 mov	 ecx, DWORD PTR _this$[ebp]
  0001b	e8 00 00 00 00	 call	 ??0_Container_base12@std@@QAE@XZ ; std::_Container_base12::_Container_base12
  00020	8b 45 fc	 mov	 eax, DWORD PTR _this$[ebp]
  00023	c7 40 04 00 00
	00 00		 mov	 DWORD PTR [eax+4], 0
  0002a	8b 4d fc	 mov	 ecx, DWORD PTR _this$[ebp]
  0002d	c7 41 08 00 00
	00 00		 mov	 DWORD PTR [ecx+8], 0
  00034	8b 55 fc	 mov	 edx, DWORD PTR _this$[ebp]
  00037	c7 42 0c 00 00
	00 00		 mov	 DWORD PTR [edx+12], 0
  0003e	8b 45 fc	 mov	 eax, DWORD PTR _this$[ebp]
  00041	83 c4 04	 add	 esp, 4
  00044	3b ec		 cmp	 ebp, esp
  00046	e8 00 00 00 00	 call	 __RTC_CheckEsp
  0004b	8b e5		 mov	 esp, ebp
  0004d	5d		 pop	 ebp
  0004e	c3		 ret	 0
??0?$_Vector_val@U?$_Simple_types@PAVSprite@sf@@@std@@@std@@QAE@XZ ENDP ; std::_Vector_val<std::_Simple_types<sf::Sprite *> >::_Vector_val<std::_Simple_types<sf::Sprite *> >
_TEXT	ENDS
; Function compile flags: /Odtp /RTCsu
; File C:\Program Files (x86)\Microsoft Visual Studio\2019\Community\VC\Tools\MSVC\14.29.30133\include\vector
;	COMDAT ?_Getal@?$vector@PAVSprite@sf@@V?$allocator@PAVSprite@sf@@@std@@@std@@ABEABV?$allocator@PAVSprite@sf@@@2@XZ
_TEXT	SEGMENT
_this$ = -4						; size = 4
?_Getal@?$vector@PAVSprite@sf@@V?$allocator@PAVSprite@sf@@@std@@@std@@ABEABV?$allocator@PAVSprite@sf@@@2@XZ PROC ; std::vector<sf::Sprite *,std::allocator<sf::Sprite *> >::_Getal, COMDAT
; _this$ = ecx

; 1821 :     _NODISCARD _CONSTEXPR20_CONTAINER const _Alty& _Getal() const noexcept {

  00000	55		 push	 ebp
  00001	8b ec		 mov	 ebp, esp
  00003	51		 push	 ecx
  00004	c7 45 fc cc cc
	cc cc		 mov	 DWORD PTR [ebp-4], -858993460 ; ccccccccH
  0000b	89 4d fc	 mov	 DWORD PTR _this$[ebp], ecx
  0000e	b9 00 00 00 00	 mov	 ecx, OFFSET __324884E2_vector
  00013	e8 00 00 00 00	 call	 @__CheckForDebuggerJustMyCode@4

; 1822 :         return _Mypair._Get_first();

  00018	8b 4d fc	 mov	 ecx, DWORD PTR _this$[ebp]
  0001b	e8 00 00 00 00	 call	 ?_Get_first@?$_Compressed_pair@V?$allocator@PAVSprite@sf@@@std@@V?$_Vector_val@U?$_Simple_types@PAVSprite@sf@@@std@@@2@$00@std@@QBEABV?$allocator@PAVSprite@sf@@@2@XZ ; std::_Compressed_pair<std::allocator<sf::Sprite *>,std::_Vector_val<std::_Simple_types<sf::Sprite *> >,1>::_Get_first

; 1823 :     }

  00020	83 c4 04	 add	 esp, 4
  00023	3b ec		 cmp	 ebp, esp
  00025	e8 00 00 00 00	 call	 __RTC_CheckEsp
  0002a	8b e5		 mov	 esp, ebp
  0002c	5d		 pop	 ebp
  0002d	c3		 ret	 0
?_Getal@?$vector@PAVSprite@sf@@V?$allocator@PAVSprite@sf@@@std@@@std@@ABEABV?$allocator@PAVSprite@sf@@@2@XZ ENDP ; std::vector<sf::Sprite *,std::allocator<sf::Sprite *> >::_Getal
_TEXT	ENDS
; Function compile flags: /Odtp /RTCsu
; File C:\Program Files (x86)\Microsoft Visual Studio\2019\Community\VC\Tools\MSVC\14.29.30133\include\vector
;	COMDAT ?_Getal@?$vector@PAVSprite@sf@@V?$allocator@PAVSprite@sf@@@std@@@std@@AAEAAV?$allocator@PAVSprite@sf@@@2@XZ
_TEXT	SEGMENT
_this$ = -4						; size = 4
?_Getal@?$vector@PAVSprite@sf@@V?$allocator@PAVSprite@sf@@@std@@@std@@AAEAAV?$allocator@PAVSprite@sf@@@2@XZ PROC ; std::vector<sf::Sprite *,std::allocator<sf::Sprite *> >::_Getal, COMDAT
; _this$ = ecx

; 1817 :     _NODISCARD _CONSTEXPR20_CONTAINER _Alty& _Getal() noexcept {

  00000	55		 push	 ebp
  00001	8b ec		 mov	 ebp, esp
  00003	51		 push	 ecx
  00004	c7 45 fc cc cc
	cc cc		 mov	 DWORD PTR [ebp-4], -858993460 ; ccccccccH
  0000b	89 4d fc	 mov	 DWORD PTR _this$[ebp], ecx
  0000e	b9 00 00 00 00	 mov	 ecx, OFFSET __324884E2_vector
  00013	e8 00 00 00 00	 call	 @__CheckForDebuggerJustMyCode@4

; 1818 :         return _Mypair._Get_first();

  00018	8b 4d fc	 mov	 ecx, DWORD PTR _this$[ebp]
  0001b	e8 00 00 00 00	 call	 ?_Get_first@?$_Compressed_pair@V?$allocator@PAVSprite@sf@@@std@@V?$_Vector_val@U?$_Simple_types@PAVSprite@sf@@@std@@@2@$00@std@@QAEAAV?$allocator@PAVSprite@sf@@@2@XZ ; std::_Compressed_pair<std::allocator<sf::Sprite *>,std::_Vector_val<std::_Simple_types<sf::Sprite *> >,1>::_Get_first

; 1819 :     }

  00020	83 c4 04	 add	 esp, 4
  00023	3b ec		 cmp	 ebp, esp
  00025	e8 00 00 00 00	 call	 __RTC_CheckEsp
  0002a	8b e5		 mov	 esp, ebp
  0002c	5d		 pop	 ebp
  0002d	c3		 ret	 0
?_Getal@?$vector@PAVSprite@sf@@V?$allocator@PAVSprite@sf@@@std@@@std@@AAEAAV?$allocator@PAVSprite@sf@@@2@XZ ENDP ; std::vector<sf::Sprite *,std::allocator<sf::Sprite *> >::_Getal
_TEXT	ENDS
; Function compile flags: /Odtp /RTCsu
; File C:\Program Files (x86)\Microsoft Visual Studio\2019\Community\VC\Tools\MSVC\14.29.30133\include\vector
;	COMDAT ?_Xrange@?$vector@PAVSprite@sf@@V?$allocator@PAVSprite@sf@@@std@@@std@@CAXXZ
_TEXT	SEGMENT
?_Xrange@?$vector@PAVSprite@sf@@V?$allocator@PAVSprite@sf@@@std@@@std@@CAXXZ PROC ; std::vector<sf::Sprite *,std::allocator<sf::Sprite *> >::_Xrange, COMDAT

; 1777 :     [[noreturn]] static void _Xrange() {

  00000	55		 push	 ebp
  00001	8b ec		 mov	 ebp, esp
  00003	b9 00 00 00 00	 mov	 ecx, OFFSET __324884E2_vector
  00008	e8 00 00 00 00	 call	 @__CheckForDebuggerJustMyCode@4

; 1778 :         _Xout_of_range("invalid vector subscript");

  0000d	68 00 00 00 00	 push	 OFFSET ??_C@_0BJ@DHFDPMIM@invalid?5vector?5subscript@
  00012	e8 00 00 00 00	 call	 ?_Xout_of_range@std@@YAXPBD@Z ; std::_Xout_of_range
$LN2@Xrange:

; 1779 :     }

  00017	3b ec		 cmp	 ebp, esp
  00019	e8 00 00 00 00	 call	 __RTC_CheckEsp
  0001e	5d		 pop	 ebp
  0001f	c3		 ret	 0
?_Xrange@?$vector@PAVSprite@sf@@V?$allocator@PAVSprite@sf@@@std@@@std@@CAXXZ ENDP ; std::vector<sf::Sprite *,std::allocator<sf::Sprite *> >::_Xrange
_TEXT	ENDS
; Function compile flags: /Odtp /RTCsu
; File C:\Program Files (x86)\Microsoft Visual Studio\2019\Community\VC\Tools\MSVC\14.29.30133\include\vector
;	COMDAT ?_Xlength@?$vector@PAVSprite@sf@@V?$allocator@PAVSprite@sf@@@std@@@std@@CAXXZ
_TEXT	SEGMENT
?_Xlength@?$vector@PAVSprite@sf@@V?$allocator@PAVSprite@sf@@@std@@@std@@CAXXZ PROC ; std::vector<sf::Sprite *,std::allocator<sf::Sprite *> >::_Xlength, COMDAT

; 1773 :     [[noreturn]] static void _Xlength() {

  00000	55		 push	 ebp
  00001	8b ec		 mov	 ebp, esp
  00003	b9 00 00 00 00	 mov	 ecx, OFFSET __324884E2_vector
  00008	e8 00 00 00 00	 call	 @__CheckForDebuggerJustMyCode@4

; 1774 :         _Xlength_error("vector too long");

  0000d	68 00 00 00 00	 push	 OFFSET ??_C@_0BA@FOIKENOD@vector?5too?5long@
  00012	e8 00 00 00 00	 call	 ?_Xlength_error@std@@YAXPBD@Z ; std::_Xlength_error
$LN2@Xlength:

; 1775 :     }

  00017	3b ec		 cmp	 ebp, esp
  00019	e8 00 00 00 00	 call	 __RTC_CheckEsp
  0001e	5d		 pop	 ebp
  0001f	c3		 ret	 0
?_Xlength@?$vector@PAVSprite@sf@@V?$allocator@PAVSprite@sf@@@std@@@std@@CAXXZ ENDP ; std::vector<sf::Sprite *,std::allocator<sf::Sprite *> >::_Xlength
_TEXT	ENDS
; Function compile flags: /Odtp /RTCsu
; File C:\Program Files (x86)\Microsoft Visual Studio\2019\Community\VC\Tools\MSVC\14.29.30133\include\vector
;	COMDAT ?_Tidy@?$vector@PAVSprite@sf@@V?$allocator@PAVSprite@sf@@@std@@@std@@AAEXXZ
_TEXT	SEGMENT
tv86 = -44						; size = 4
tv88 = -40						; size = 4
tv90 = -36						; size = 4
__Myend$ = -32						; size = 4
__Mylast$ = -28						; size = 4
__Myfirst$ = -24					; size = 4
__My_data$ = -20					; size = 4
_this$ = -16						; size = 4
__$EHRec$ = -12						; size = 12
?_Tidy@?$vector@PAVSprite@sf@@V?$allocator@PAVSprite@sf@@@std@@@std@@AAEXXZ PROC ; std::vector<sf::Sprite *,std::allocator<sf::Sprite *> >::_Tidy, COMDAT
; _this$ = ecx

; 1755 :     _CONSTEXPR20_CONTAINER void _Tidy() noexcept { // free all storage

  00000	55		 push	 ebp
  00001	8b ec		 mov	 ebp, esp
  00003	6a ff		 push	 -1
  00005	68 00 00 00 00	 push	 __ehhandler$?_Tidy@?$vector@PAVSprite@sf@@V?$allocator@PAVSprite@sf@@@std@@@std@@AAEXXZ
  0000a	64 a1 00 00 00
	00		 mov	 eax, DWORD PTR fs:0
  00010	50		 push	 eax
  00011	83 ec 20	 sub	 esp, 32			; 00000020H
  00014	b8 cc cc cc cc	 mov	 eax, -858993460		; ccccccccH
  00019	89 45 d4	 mov	 DWORD PTR [ebp-44], eax
  0001c	89 45 d8	 mov	 DWORD PTR [ebp-40], eax
  0001f	89 45 dc	 mov	 DWORD PTR [ebp-36], eax
  00022	89 45 e0	 mov	 DWORD PTR [ebp-32], eax
  00025	89 45 e4	 mov	 DWORD PTR [ebp-28], eax
  00028	89 45 e8	 mov	 DWORD PTR [ebp-24], eax
  0002b	89 45 ec	 mov	 DWORD PTR [ebp-20], eax
  0002e	89 45 f0	 mov	 DWORD PTR [ebp-16], eax
  00031	a1 00 00 00 00	 mov	 eax, DWORD PTR ___security_cookie
  00036	33 c5		 xor	 eax, ebp
  00038	50		 push	 eax
  00039	8d 45 f4	 lea	 eax, DWORD PTR __$EHRec$[ebp]
  0003c	64 a3 00 00 00
	00		 mov	 DWORD PTR fs:0, eax
  00042	89 4d f0	 mov	 DWORD PTR _this$[ebp], ecx
  00045	b9 00 00 00 00	 mov	 ecx, OFFSET __324884E2_vector
  0004a	e8 00 00 00 00	 call	 @__CheckForDebuggerJustMyCode@4

; 1756 :         auto& _My_data    = _Mypair._Myval2;

  0004f	8b 45 f0	 mov	 eax, DWORD PTR _this$[ebp]
  00052	89 45 ec	 mov	 DWORD PTR __My_data$[ebp], eax

; 1757 :         pointer& _Myfirst = _My_data._Myfirst;

  00055	8b 4d ec	 mov	 ecx, DWORD PTR __My_data$[ebp]
  00058	83 c1 04	 add	 ecx, 4
  0005b	89 4d e8	 mov	 DWORD PTR __Myfirst$[ebp], ecx

; 1758 :         pointer& _Mylast  = _My_data._Mylast;

  0005e	8b 55 ec	 mov	 edx, DWORD PTR __My_data$[ebp]
  00061	83 c2 08	 add	 edx, 8
  00064	89 55 e4	 mov	 DWORD PTR __Mylast$[ebp], edx

; 1759 :         pointer& _Myend   = _My_data._Myend;

  00067	8b 45 ec	 mov	 eax, DWORD PTR __My_data$[ebp]
  0006a	83 c0 0c	 add	 eax, 12			; 0000000cH
  0006d	89 45 e0	 mov	 DWORD PTR __Myend$[ebp], eax

; 1760 : 
; 1761 :         _My_data._Orphan_all();

  00070	8b 4d ec	 mov	 ecx, DWORD PTR __My_data$[ebp]
  00073	e8 00 00 00 00	 call	 ?_Orphan_all@_Container_base12@std@@QAEXXZ ; std::_Container_base12::_Orphan_all

; 1762 : 
; 1763 :         if (_Myfirst) { // destroy and deallocate old array

  00078	8b 4d e8	 mov	 ecx, DWORD PTR __Myfirst$[ebp]
  0007b	83 39 00	 cmp	 DWORD PTR [ecx], 0
  0007e	74 62		 je	 SHORT $LN3@Tidy

; 1764 :             _Destroy(_Myfirst, _Mylast);

  00080	8b 55 e4	 mov	 edx, DWORD PTR __Mylast$[ebp]
  00083	8b 02		 mov	 eax, DWORD PTR [edx]
  00085	50		 push	 eax
  00086	8b 4d e8	 mov	 ecx, DWORD PTR __Myfirst$[ebp]
  00089	8b 11		 mov	 edx, DWORD PTR [ecx]
  0008b	52		 push	 edx
  0008c	8b 4d f0	 mov	 ecx, DWORD PTR _this$[ebp]
  0008f	e8 00 00 00 00	 call	 ?_Destroy@?$vector@PAVSprite@sf@@V?$allocator@PAVSprite@sf@@@std@@@std@@AAEXPAPAVSprite@sf@@0@Z ; std::vector<sf::Sprite *,std::allocator<sf::Sprite *> >::_Destroy

; 1765 :             _Getal().deallocate(_Myfirst, static_cast<size_type>(_Myend - _Myfirst));

  00094	8b 4d f0	 mov	 ecx, DWORD PTR _this$[ebp]
  00097	e8 00 00 00 00	 call	 ?_Getal@?$vector@PAVSprite@sf@@V?$allocator@PAVSprite@sf@@@std@@@std@@AAEAAV?$allocator@PAVSprite@sf@@@2@XZ ; std::vector<sf::Sprite *,std::allocator<sf::Sprite *> >::_Getal
  0009c	89 45 dc	 mov	 DWORD PTR tv90[ebp], eax
  0009f	8b 45 e0	 mov	 eax, DWORD PTR __Myend$[ebp]
  000a2	8b 4d e8	 mov	 ecx, DWORD PTR __Myfirst$[ebp]
  000a5	8b 10		 mov	 edx, DWORD PTR [eax]
  000a7	2b 11		 sub	 edx, DWORD PTR [ecx]
  000a9	c1 fa 02	 sar	 edx, 2
  000ac	89 55 d8	 mov	 DWORD PTR tv88[ebp], edx
  000af	8b 45 e8	 mov	 eax, DWORD PTR __Myfirst$[ebp]
  000b2	8b 08		 mov	 ecx, DWORD PTR [eax]
  000b4	89 4d d4	 mov	 DWORD PTR tv86[ebp], ecx
  000b7	8b 55 d8	 mov	 edx, DWORD PTR tv88[ebp]
  000ba	52		 push	 edx
  000bb	8b 45 d4	 mov	 eax, DWORD PTR tv86[ebp]
  000be	50		 push	 eax
  000bf	8b 4d dc	 mov	 ecx, DWORD PTR tv90[ebp]
  000c2	e8 00 00 00 00	 call	 ?deallocate@?$allocator@PAVSprite@sf@@@std@@QAEXQAPAVSprite@sf@@I@Z ; std::allocator<sf::Sprite *>::deallocate

; 1766 : 
; 1767 :             _Myfirst = nullptr;

  000c7	8b 4d e8	 mov	 ecx, DWORD PTR __Myfirst$[ebp]
  000ca	c7 01 00 00 00
	00		 mov	 DWORD PTR [ecx], 0

; 1768 :             _Mylast  = nullptr;

  000d0	8b 55 e4	 mov	 edx, DWORD PTR __Mylast$[ebp]
  000d3	c7 02 00 00 00
	00		 mov	 DWORD PTR [edx], 0

; 1769 :             _Myend   = nullptr;

  000d9	8b 45 e0	 mov	 eax, DWORD PTR __Myend$[ebp]
  000dc	c7 00 00 00 00
	00		 mov	 DWORD PTR [eax], 0
$LN3@Tidy:

; 1770 :         }
; 1771 :     }

  000e2	8b 4d f4	 mov	 ecx, DWORD PTR __$EHRec$[ebp]
  000e5	64 89 0d 00 00
	00 00		 mov	 DWORD PTR fs:0, ecx
  000ec	59		 pop	 ecx
  000ed	83 c4 2c	 add	 esp, 44			; 0000002cH
  000f0	3b ec		 cmp	 ebp, esp
  000f2	e8 00 00 00 00	 call	 __RTC_CheckEsp
  000f7	8b e5		 mov	 esp, ebp
  000f9	5d		 pop	 ebp
  000fa	c3		 ret	 0
  000fb	cc		 int	 3
  000fc	cc		 int	 3
  000fd	cc		 int	 3
  000fe	cc		 int	 3
  000ff	cc		 int	 3
_TEXT	ENDS
;	COMDAT text$x
text$x	SEGMENT
__ehhandler$?_Tidy@?$vector@PAVSprite@sf@@V?$allocator@PAVSprite@sf@@@std@@@std@@AAEXXZ:
  00000	90		 npad	 1
  00001	90		 npad	 1
  00002	8b 54 24 08	 mov	 edx, DWORD PTR [esp+8]
  00006	8d 42 0c	 lea	 eax, DWORD PTR [edx+12]
  00009	8b 4a dc	 mov	 ecx, DWORD PTR [edx-36]
  0000c	33 c8		 xor	 ecx, eax
  0000e	e8 00 00 00 00	 call	 @__security_check_cookie@4
  00013	b8 00 00 00 00	 mov	 eax, OFFSET __ehfuncinfo$?_Tidy@?$vector@PAVSprite@sf@@V?$allocator@PAVSprite@sf@@@std@@@std@@AAEXXZ
  00018	e9 00 00 00 00	 jmp	 ___CxxFrameHandler3
text$x	ENDS
?_Tidy@?$vector@PAVSprite@sf@@V?$allocator@PAVSprite@sf@@@std@@@std@@AAEXXZ ENDP ; std::vector<sf::Sprite *,std::allocator<sf::Sprite *> >::_Tidy
; Function compile flags: /Odtp /RTCsu
; File C:\Program Files (x86)\Microsoft Visual Studio\2019\Community\VC\Tools\MSVC\14.29.30133\include\vector
;	COMDAT ?_Buy_nonzero@?$vector@PAVSprite@sf@@V?$allocator@PAVSprite@sf@@@std@@@std@@AAEXI@Z
_TEXT	SEGMENT
_this$ = -4						; size = 4
__Newcapacity$ = 8					; size = 4
?_Buy_nonzero@?$vector@PAVSprite@sf@@V?$allocator@PAVSprite@sf@@@std@@@std@@AAEXI@Z PROC ; std::vector<sf::Sprite *,std::allocator<sf::Sprite *> >::_Buy_nonzero, COMDAT
; _this$ = ecx

; 1717 :     _CONSTEXPR20_CONTAINER void _Buy_nonzero(const size_type _Newcapacity) {

  00000	55		 push	 ebp
  00001	8b ec		 mov	 ebp, esp
  00003	51		 push	 ecx
  00004	c7 45 fc cc cc
	cc cc		 mov	 DWORD PTR [ebp-4], -858993460 ; ccccccccH
  0000b	89 4d fc	 mov	 DWORD PTR _this$[ebp], ecx
  0000e	b9 00 00 00 00	 mov	 ecx, OFFSET __324884E2_vector
  00013	e8 00 00 00 00	 call	 @__CheckForDebuggerJustMyCode@4

; 1718 :         // allocate array with _Newcapacity elements
; 1719 : #ifdef _ENABLE_STL_INTERNAL_CHECK
; 1720 :         auto& _My_data    = _Mypair._Myval2;
; 1721 :         pointer& _Myfirst = _My_data._Myfirst;
; 1722 :         pointer& _Mylast  = _My_data._Mylast;
; 1723 :         pointer& _Myend   = _My_data._Myend;
; 1724 :         _STL_INTERNAL_CHECK(!_Myfirst && !_Mylast && !_Myend); // check that *this is tidy
; 1725 :         _STL_INTERNAL_CHECK(0 < _Newcapacity);
; 1726 : #endif // _ENABLE_STL_INTERNAL_CHECK
; 1727 : 
; 1728 :         if (_Newcapacity > max_size()) {

  00018	8b 4d fc	 mov	 ecx, DWORD PTR _this$[ebp]
  0001b	e8 00 00 00 00	 call	 ?max_size@?$vector@PAVSprite@sf@@V?$allocator@PAVSprite@sf@@@std@@@std@@QBEIXZ ; std::vector<sf::Sprite *,std::allocator<sf::Sprite *> >::max_size
  00020	39 45 08	 cmp	 DWORD PTR __Newcapacity$[ebp], eax
  00023	76 05		 jbe	 SHORT $LN2@Buy_nonzer

; 1729 :             _Xlength();

  00025	e8 00 00 00 00	 call	 ?_Xlength@?$vector@PAVSprite@sf@@V?$allocator@PAVSprite@sf@@@std@@@std@@CAXXZ ; std::vector<sf::Sprite *,std::allocator<sf::Sprite *> >::_Xlength
$LN2@Buy_nonzer:

; 1730 :         }
; 1731 : 
; 1732 :         _Buy_raw(_Newcapacity);

  0002a	8b 45 08	 mov	 eax, DWORD PTR __Newcapacity$[ebp]
  0002d	50		 push	 eax
  0002e	8b 4d fc	 mov	 ecx, DWORD PTR _this$[ebp]
  00031	e8 00 00 00 00	 call	 ?_Buy_raw@?$vector@PAVSprite@sf@@V?$allocator@PAVSprite@sf@@@std@@@std@@AAEXI@Z ; std::vector<sf::Sprite *,std::allocator<sf::Sprite *> >::_Buy_raw
$LN3@Buy_nonzer:

; 1733 :     }

  00036	83 c4 04	 add	 esp, 4
  00039	3b ec		 cmp	 ebp, esp
  0003b	e8 00 00 00 00	 call	 __RTC_CheckEsp
  00040	8b e5		 mov	 esp, ebp
  00042	5d		 pop	 ebp
  00043	c2 04 00	 ret	 4
?_Buy_nonzero@?$vector@PAVSprite@sf@@V?$allocator@PAVSprite@sf@@@std@@@std@@AAEXI@Z ENDP ; std::vector<sf::Sprite *,std::allocator<sf::Sprite *> >::_Buy_nonzero
_TEXT	ENDS
; Function compile flags: /Odtp /RTCsu
; File C:\Program Files (x86)\Microsoft Visual Studio\2019\Community\VC\Tools\MSVC\14.29.30133\include\vector
;	COMDAT ?_Buy_raw@?$vector@PAVSprite@sf@@V?$allocator@PAVSprite@sf@@@std@@@std@@AAEXI@Z
_TEXT	SEGMENT
tv77 = -28						; size = 4
__Newvec$ = -24						; size = 4
__Myend$ = -20						; size = 4
__Mylast$ = -16						; size = 4
__Myfirst$ = -12					; size = 4
__My_data$ = -8						; size = 4
_this$ = -4						; size = 4
__Newcapacity$ = 8					; size = 4
?_Buy_raw@?$vector@PAVSprite@sf@@V?$allocator@PAVSprite@sf@@@std@@@std@@AAEXI@Z PROC ; std::vector<sf::Sprite *,std::allocator<sf::Sprite *> >::_Buy_raw, COMDAT
; _this$ = ecx

; 1701 :     _CONSTEXPR20_CONTAINER void _Buy_raw(const size_type _Newcapacity) {

  00000	55		 push	 ebp
  00001	8b ec		 mov	 ebp, esp
  00003	83 ec 1c	 sub	 esp, 28			; 0000001cH
  00006	b8 cc cc cc cc	 mov	 eax, -858993460		; ccccccccH
  0000b	89 45 e4	 mov	 DWORD PTR [ebp-28], eax
  0000e	89 45 e8	 mov	 DWORD PTR [ebp-24], eax
  00011	89 45 ec	 mov	 DWORD PTR [ebp-20], eax
  00014	89 45 f0	 mov	 DWORD PTR [ebp-16], eax
  00017	89 45 f4	 mov	 DWORD PTR [ebp-12], eax
  0001a	89 45 f8	 mov	 DWORD PTR [ebp-8], eax
  0001d	89 45 fc	 mov	 DWORD PTR [ebp-4], eax
  00020	89 4d fc	 mov	 DWORD PTR _this$[ebp], ecx
  00023	b9 00 00 00 00	 mov	 ecx, OFFSET __324884E2_vector
  00028	e8 00 00 00 00	 call	 @__CheckForDebuggerJustMyCode@4

; 1702 :         // allocate array with _Newcapacity elements
; 1703 :         auto& _My_data    = _Mypair._Myval2;

  0002d	8b 45 fc	 mov	 eax, DWORD PTR _this$[ebp]
  00030	89 45 f8	 mov	 DWORD PTR __My_data$[ebp], eax

; 1704 :         pointer& _Myfirst = _My_data._Myfirst;

  00033	8b 4d f8	 mov	 ecx, DWORD PTR __My_data$[ebp]
  00036	83 c1 04	 add	 ecx, 4
  00039	89 4d f4	 mov	 DWORD PTR __Myfirst$[ebp], ecx

; 1705 :         pointer& _Mylast  = _My_data._Mylast;

  0003c	8b 55 f8	 mov	 edx, DWORD PTR __My_data$[ebp]
  0003f	83 c2 08	 add	 edx, 8
  00042	89 55 f0	 mov	 DWORD PTR __Mylast$[ebp], edx

; 1706 :         pointer& _Myend   = _My_data._Myend;

  00045	8b 45 f8	 mov	 eax, DWORD PTR __My_data$[ebp]
  00048	83 c0 0c	 add	 eax, 12			; 0000000cH
  0004b	89 45 ec	 mov	 DWORD PTR __Myend$[ebp], eax

; 1707 : 
; 1708 :         _STL_INTERNAL_CHECK(!_Myfirst && !_Mylast && !_Myend); // check that *this is tidy
; 1709 :         _STL_INTERNAL_CHECK(0 < _Newcapacity && _Newcapacity <= max_size());
; 1710 : 
; 1711 :         const auto _Newvec = _Getal().allocate(_Newcapacity);

  0004e	8b 4d fc	 mov	 ecx, DWORD PTR _this$[ebp]
  00051	e8 00 00 00 00	 call	 ?_Getal@?$vector@PAVSprite@sf@@V?$allocator@PAVSprite@sf@@@std@@@std@@AAEAAV?$allocator@PAVSprite@sf@@@2@XZ ; std::vector<sf::Sprite *,std::allocator<sf::Sprite *> >::_Getal
  00056	89 45 e4	 mov	 DWORD PTR tv77[ebp], eax
  00059	8b 4d 08	 mov	 ecx, DWORD PTR __Newcapacity$[ebp]
  0005c	51		 push	 ecx
  0005d	8b 4d e4	 mov	 ecx, DWORD PTR tv77[ebp]
  00060	e8 00 00 00 00	 call	 ?allocate@?$allocator@PAVSprite@sf@@@std@@QAEPAPAVSprite@sf@@I@Z ; std::allocator<sf::Sprite *>::allocate
  00065	89 45 e8	 mov	 DWORD PTR __Newvec$[ebp], eax

; 1712 :         _Myfirst           = _Newvec;

  00068	8b 55 f4	 mov	 edx, DWORD PTR __Myfirst$[ebp]
  0006b	8b 45 e8	 mov	 eax, DWORD PTR __Newvec$[ebp]
  0006e	89 02		 mov	 DWORD PTR [edx], eax

; 1713 :         _Mylast            = _Newvec;

  00070	8b 4d f0	 mov	 ecx, DWORD PTR __Mylast$[ebp]
  00073	8b 55 e8	 mov	 edx, DWORD PTR __Newvec$[ebp]
  00076	89 11		 mov	 DWORD PTR [ecx], edx

; 1714 :         _Myend             = _Newvec + _Newcapacity;

  00078	8b 45 08	 mov	 eax, DWORD PTR __Newcapacity$[ebp]
  0007b	8b 4d e8	 mov	 ecx, DWORD PTR __Newvec$[ebp]
  0007e	8d 14 81	 lea	 edx, DWORD PTR [ecx+eax*4]
  00081	8b 45 ec	 mov	 eax, DWORD PTR __Myend$[ebp]
  00084	89 10		 mov	 DWORD PTR [eax], edx

; 1715 :     }

  00086	83 c4 1c	 add	 esp, 28			; 0000001cH
  00089	3b ec		 cmp	 ebp, esp
  0008b	e8 00 00 00 00	 call	 __RTC_CheckEsp
  00090	8b e5		 mov	 esp, ebp
  00092	5d		 pop	 ebp
  00093	c2 04 00	 ret	 4
?_Buy_raw@?$vector@PAVSprite@sf@@V?$allocator@PAVSprite@sf@@@std@@@std@@AAEXI@Z ENDP ; std::vector<sf::Sprite *,std::allocator<sf::Sprite *> >::_Buy_raw
_TEXT	ENDS
; Function compile flags: /Odtp /RTCsu
; File C:\Program Files (x86)\Microsoft Visual Studio\2019\Community\VC\Tools\MSVC\14.29.30133\include\vector
;	COMDAT ?_Destroy@?$vector@PAVSprite@sf@@V?$allocator@PAVSprite@sf@@@std@@@std@@AAEXPAPAVSprite@sf@@0@Z
_TEXT	SEGMENT
_this$ = -4						; size = 4
__First$ = 8						; size = 4
__Last$ = 12						; size = 4
?_Destroy@?$vector@PAVSprite@sf@@V?$allocator@PAVSprite@sf@@@std@@@std@@AAEXPAPAVSprite@sf@@0@Z PROC ; std::vector<sf::Sprite *,std::allocator<sf::Sprite *> >::_Destroy, COMDAT
; _this$ = ecx

; 1678 :     _CONSTEXPR20_CONTAINER void _Destroy(pointer _First, pointer _Last) {

  00000	55		 push	 ebp
  00001	8b ec		 mov	 ebp, esp
  00003	51		 push	 ecx
  00004	c7 45 fc cc cc
	cc cc		 mov	 DWORD PTR [ebp-4], -858993460 ; ccccccccH
  0000b	89 4d fc	 mov	 DWORD PTR _this$[ebp], ecx
  0000e	b9 00 00 00 00	 mov	 ecx, OFFSET __324884E2_vector
  00013	e8 00 00 00 00	 call	 @__CheckForDebuggerJustMyCode@4

; 1679 :         // destroy [_First, _Last) using allocator
; 1680 :         _Destroy_range(_First, _Last, _Getal());

  00018	8b 4d fc	 mov	 ecx, DWORD PTR _this$[ebp]
  0001b	e8 00 00 00 00	 call	 ?_Getal@?$vector@PAVSprite@sf@@V?$allocator@PAVSprite@sf@@@std@@@std@@AAEAAV?$allocator@PAVSprite@sf@@@2@XZ ; std::vector<sf::Sprite *,std::allocator<sf::Sprite *> >::_Getal
  00020	50		 push	 eax
  00021	8b 45 0c	 mov	 eax, DWORD PTR __Last$[ebp]
  00024	50		 push	 eax
  00025	8b 4d 08	 mov	 ecx, DWORD PTR __First$[ebp]
  00028	51		 push	 ecx
  00029	e8 00 00 00 00	 call	 ??$_Destroy_range@V?$allocator@PAVSprite@sf@@@std@@@std@@YAXPAPAVSprite@sf@@QAPAV12@AAV?$allocator@PAVSprite@sf@@@0@@Z ; std::_Destroy_range<std::allocator<sf::Sprite *> >
  0002e	83 c4 0c	 add	 esp, 12			; 0000000cH

; 1681 :     }

  00031	83 c4 04	 add	 esp, 4
  00034	3b ec		 cmp	 ebp, esp
  00036	e8 00 00 00 00	 call	 __RTC_CheckEsp
  0003b	8b e5		 mov	 esp, ebp
  0003d	5d		 pop	 ebp
  0003e	c2 08 00	 ret	 8
?_Destroy@?$vector@PAVSprite@sf@@V?$allocator@PAVSprite@sf@@@std@@@std@@AAEXPAPAVSprite@sf@@0@Z ENDP ; std::vector<sf::Sprite *,std::allocator<sf::Sprite *> >::_Destroy
_TEXT	ENDS
; Function compile flags: /Odtp /RTCsu
; File C:\Program Files (x86)\Microsoft Visual Studio\2019\Community\VC\Tools\MSVC\14.29.30133\include\vector
;	COMDAT ?_Ufill@?$vector@PAVSprite@sf@@V?$allocator@PAVSprite@sf@@@std@@@std@@AAEPAPAVSprite@sf@@PAPAV34@IU_Value_init_tag@2@@Z
_TEXT	SEGMENT
_this$ = -4						; size = 4
__Dest$ = 8						; size = 4
__Count$ = 12						; size = 4
___formal$ = 16						; size = 1
?_Ufill@?$vector@PAVSprite@sf@@V?$allocator@PAVSprite@sf@@@std@@@std@@AAEPAPAVSprite@sf@@PAPAV34@IU_Value_init_tag@2@@Z PROC ; std::vector<sf::Sprite *,std::allocator<sf::Sprite *> >::_Ufill, COMDAT
; _this$ = ecx

; 1646 :     _CONSTEXPR20_CONTAINER pointer _Ufill(pointer _Dest, const size_type _Count, _Value_init_tag) {

  00000	55		 push	 ebp
  00001	8b ec		 mov	 ebp, esp
  00003	51		 push	 ecx
  00004	c7 45 fc cc cc
	cc cc		 mov	 DWORD PTR [ebp-4], -858993460 ; ccccccccH
  0000b	89 4d fc	 mov	 DWORD PTR _this$[ebp], ecx
  0000e	b9 00 00 00 00	 mov	 ecx, OFFSET __324884E2_vector
  00013	e8 00 00 00 00	 call	 @__CheckForDebuggerJustMyCode@4

; 1647 :         // fill raw _Dest with _Count value-initialized objects, using allocator
; 1648 :         return _Uninitialized_value_construct_n(_Dest, _Count, _Getal());

  00018	8b 4d fc	 mov	 ecx, DWORD PTR _this$[ebp]
  0001b	e8 00 00 00 00	 call	 ?_Getal@?$vector@PAVSprite@sf@@V?$allocator@PAVSprite@sf@@@std@@@std@@AAEAAV?$allocator@PAVSprite@sf@@@2@XZ ; std::vector<sf::Sprite *,std::allocator<sf::Sprite *> >::_Getal
  00020	50		 push	 eax
  00021	8b 45 0c	 mov	 eax, DWORD PTR __Count$[ebp]
  00024	50		 push	 eax
  00025	8b 4d 08	 mov	 ecx, DWORD PTR __Dest$[ebp]
  00028	51		 push	 ecx
  00029	e8 00 00 00 00	 call	 ??$_Uninitialized_value_construct_n@V?$allocator@PAVSprite@sf@@@std@@@std@@YAPAPAVSprite@sf@@PAPAV12@IAAV?$allocator@PAVSprite@sf@@@0@@Z ; std::_Uninitialized_value_construct_n<std::allocator<sf::Sprite *> >
  0002e	83 c4 0c	 add	 esp, 12			; 0000000cH

; 1649 :     }

  00031	83 c4 04	 add	 esp, 4
  00034	3b ec		 cmp	 ebp, esp
  00036	e8 00 00 00 00	 call	 __RTC_CheckEsp
  0003b	8b e5		 mov	 esp, ebp
  0003d	5d		 pop	 ebp
  0003e	c2 0c 00	 ret	 12			; 0000000cH
?_Ufill@?$vector@PAVSprite@sf@@V?$allocator@PAVSprite@sf@@@std@@@std@@AAEPAPAVSprite@sf@@PAPAV34@IU_Value_init_tag@2@@Z ENDP ; std::vector<sf::Sprite *,std::allocator<sf::Sprite *> >::_Ufill
_TEXT	ENDS
; Function compile flags: /Odtp /RTCsu
; File C:\Program Files (x86)\Microsoft Visual Studio\2019\Community\VC\Tools\MSVC\14.29.30133\include\vector
;	COMDAT ?at@?$vector@PAVSprite@sf@@V?$allocator@PAVSprite@sf@@@std@@@std@@QAEAAPAVSprite@sf@@I@Z
_TEXT	SEGMENT
__My_data$ = -8						; size = 4
_this$ = -4						; size = 4
__Pos$ = 8						; size = 4
?at@?$vector@PAVSprite@sf@@V?$allocator@PAVSprite@sf@@@std@@@std@@QAEAAPAVSprite@sf@@I@Z PROC ; std::vector<sf::Sprite *,std::allocator<sf::Sprite *> >::at, COMDAT
; _this$ = ecx

; 1582 :     _NODISCARD _CONSTEXPR20_CONTAINER _Ty& at(const size_type _Pos) {

  00000	55		 push	 ebp
  00001	8b ec		 mov	 ebp, esp
  00003	83 ec 08	 sub	 esp, 8
  00006	c7 45 f8 cc cc
	cc cc		 mov	 DWORD PTR [ebp-8], -858993460 ; ccccccccH
  0000d	c7 45 fc cc cc
	cc cc		 mov	 DWORD PTR [ebp-4], -858993460 ; ccccccccH
  00014	89 4d fc	 mov	 DWORD PTR _this$[ebp], ecx
  00017	b9 00 00 00 00	 mov	 ecx, OFFSET __324884E2_vector
  0001c	e8 00 00 00 00	 call	 @__CheckForDebuggerJustMyCode@4

; 1583 :         auto& _My_data = _Mypair._Myval2;

  00021	8b 45 fc	 mov	 eax, DWORD PTR _this$[ebp]
  00024	89 45 f8	 mov	 DWORD PTR __My_data$[ebp], eax

; 1584 :         if (static_cast<size_type>(_My_data._Mylast - _My_data._Myfirst) <= _Pos) {

  00027	8b 4d f8	 mov	 ecx, DWORD PTR __My_data$[ebp]
  0002a	8b 55 f8	 mov	 edx, DWORD PTR __My_data$[ebp]
  0002d	8b 41 08	 mov	 eax, DWORD PTR [ecx+8]
  00030	2b 42 04	 sub	 eax, DWORD PTR [edx+4]
  00033	c1 f8 02	 sar	 eax, 2
  00036	3b 45 08	 cmp	 eax, DWORD PTR __Pos$[ebp]
  00039	77 05		 ja	 SHORT $LN2@at

; 1585 :             _Xrange();

  0003b	e8 00 00 00 00	 call	 ?_Xrange@?$vector@PAVSprite@sf@@V?$allocator@PAVSprite@sf@@@std@@@std@@CAXXZ ; std::vector<sf::Sprite *,std::allocator<sf::Sprite *> >::_Xrange
$LN2@at:

; 1586 :         }
; 1587 : 
; 1588 :         return _My_data._Myfirst[_Pos];

  00040	8b 4d f8	 mov	 ecx, DWORD PTR __My_data$[ebp]
  00043	8b 51 04	 mov	 edx, DWORD PTR [ecx+4]
  00046	8b 45 08	 mov	 eax, DWORD PTR __Pos$[ebp]
  00049	8d 04 82	 lea	 eax, DWORD PTR [edx+eax*4]
$LN3@at:

; 1589 :     }

  0004c	83 c4 08	 add	 esp, 8
  0004f	3b ec		 cmp	 ebp, esp
  00051	e8 00 00 00 00	 call	 __RTC_CheckEsp
  00056	8b e5		 mov	 esp, ebp
  00058	5d		 pop	 ebp
  00059	c2 04 00	 ret	 4
?at@?$vector@PAVSprite@sf@@V?$allocator@PAVSprite@sf@@@std@@@std@@QAEAAPAVSprite@sf@@I@Z ENDP ; std::vector<sf::Sprite *,std::allocator<sf::Sprite *> >::at
_TEXT	ENDS
; Function compile flags: /Odtp /RTCsu
; File C:\Program Files (x86)\Microsoft Visual Studio\2019\Community\VC\Tools\MSVC\14.29.30133\include\vector
;	COMDAT ?max_size@?$vector@PAVSprite@sf@@V?$allocator@PAVSprite@sf@@@std@@@std@@QBEIXZ
_TEXT	SEGMENT
$T1 = -12						; size = 4
$T2 = -8						; size = 4
_this$ = -4						; size = 4
?max_size@?$vector@PAVSprite@sf@@V?$allocator@PAVSprite@sf@@@std@@@std@@QBEIXZ PROC ; std::vector<sf::Sprite *,std::allocator<sf::Sprite *> >::max_size, COMDAT
; _this$ = ecx

; 1552 :     _NODISCARD _CONSTEXPR20_CONTAINER size_type max_size() const noexcept {

  00000	55		 push	 ebp
  00001	8b ec		 mov	 ebp, esp
  00003	83 ec 0c	 sub	 esp, 12			; 0000000cH
  00006	c7 45 f4 cc cc
	cc cc		 mov	 DWORD PTR [ebp-12], -858993460 ; ccccccccH
  0000d	c7 45 f8 cc cc
	cc cc		 mov	 DWORD PTR [ebp-8], -858993460 ; ccccccccH
  00014	c7 45 fc cc cc
	cc cc		 mov	 DWORD PTR [ebp-4], -858993460 ; ccccccccH
  0001b	89 4d fc	 mov	 DWORD PTR _this$[ebp], ecx
  0001e	b9 00 00 00 00	 mov	 ecx, OFFSET __324884E2_vector
  00023	e8 00 00 00 00	 call	 @__CheckForDebuggerJustMyCode@4

; 1553 :         return (_STD min)(

  00028	8b 4d fc	 mov	 ecx, DWORD PTR _this$[ebp]
  0002b	e8 00 00 00 00	 call	 ?_Getal@?$vector@PAVSprite@sf@@V?$allocator@PAVSprite@sf@@@std@@@std@@ABEABV?$allocator@PAVSprite@sf@@@2@XZ ; std::vector<sf::Sprite *,std::allocator<sf::Sprite *> >::_Getal
  00030	50		 push	 eax
  00031	e8 00 00 00 00	 call	 ?max_size@?$_Default_allocator_traits@V?$allocator@PAVSprite@sf@@@std@@@std@@SAIABV?$allocator@PAVSprite@sf@@@2@@Z ; std::_Default_allocator_traits<std::allocator<sf::Sprite *> >::max_size
  00036	83 c4 04	 add	 esp, 4
  00039	89 45 f8	 mov	 DWORD PTR $T2[ebp], eax
  0003c	e8 00 00 00 00	 call	 ?max@?$numeric_limits@H@std@@SAHXZ ; std::numeric_limits<int>::max
  00041	89 45 f4	 mov	 DWORD PTR $T1[ebp], eax
  00044	8d 45 f8	 lea	 eax, DWORD PTR $T2[ebp]
  00047	50		 push	 eax
  00048	8d 4d f4	 lea	 ecx, DWORD PTR $T1[ebp]
  0004b	51		 push	 ecx
  0004c	e8 00 00 00 00	 call	 ??$min@I@std@@YAABIABI0@Z ; std::min<unsigned int>
  00051	83 c4 08	 add	 esp, 8
  00054	8b 00		 mov	 eax, DWORD PTR [eax]

; 1554 :             static_cast<size_type>((numeric_limits<difference_type>::max)()), _Alty_traits::max_size(_Getal()));
; 1555 :     }

  00056	83 c4 0c	 add	 esp, 12			; 0000000cH
  00059	3b ec		 cmp	 ebp, esp
  0005b	e8 00 00 00 00	 call	 __RTC_CheckEsp
  00060	8b e5		 mov	 esp, ebp
  00062	5d		 pop	 ebp
  00063	c3		 ret	 0
?max_size@?$vector@PAVSprite@sf@@V?$allocator@PAVSprite@sf@@@std@@@std@@QBEIXZ ENDP ; std::vector<sf::Sprite *,std::allocator<sf::Sprite *> >::max_size
_TEXT	ENDS
; Function compile flags: /Odtp /RTCsu
; File C:\Program Files (x86)\Microsoft Visual Studio\2019\Community\VC\Tools\MSVC\14.29.30133\include\vector
;	COMDAT ??1?$vector@PAVSprite@sf@@V?$allocator@PAVSprite@sf@@@std@@@std@@QAE@XZ
_TEXT	SEGMENT
$T1 = -28						; size = 4
_$S2$ = -17						; size = 1
__Alproxy$ = -12					; size = 4
_this$ = -8						; size = 4
__$ArrayPad$ = -4					; size = 4
??1?$vector@PAVSprite@sf@@V?$allocator@PAVSprite@sf@@@std@@@std@@QAE@XZ PROC ; std::vector<sf::Sprite *,std::allocator<sf::Sprite *> >::~vector<sf::Sprite *,std::allocator<sf::Sprite *> >, COMDAT
; _this$ = ecx

; 711  :     _CONSTEXPR20_CONTAINER ~vector() noexcept {

  00000	55		 push	 ebp
  00001	8b ec		 mov	 ebp, esp
  00003	83 ec 1c	 sub	 esp, 28			; 0000001cH
  00006	b8 cc cc cc cc	 mov	 eax, -858993460		; ccccccccH
  0000b	89 45 e4	 mov	 DWORD PTR [ebp-28], eax
  0000e	89 45 e8	 mov	 DWORD PTR [ebp-24], eax
  00011	89 45 ec	 mov	 DWORD PTR [ebp-20], eax
  00014	89 45 f0	 mov	 DWORD PTR [ebp-16], eax
  00017	89 45 f4	 mov	 DWORD PTR [ebp-12], eax
  0001a	89 45 f8	 mov	 DWORD PTR [ebp-8], eax
  0001d	89 45 fc	 mov	 DWORD PTR [ebp-4], eax
  00020	a1 00 00 00 00	 mov	 eax, DWORD PTR ___security_cookie
  00025	33 c5		 xor	 eax, ebp
  00027	89 45 fc	 mov	 DWORD PTR __$ArrayPad$[ebp], eax
  0002a	89 4d f8	 mov	 DWORD PTR _this$[ebp], ecx
  0002d	b9 00 00 00 00	 mov	 ecx, OFFSET __324884E2_vector
  00032	e8 00 00 00 00	 call	 @__CheckForDebuggerJustMyCode@4

; 712  :         _Tidy();

  00037	8b 4d f8	 mov	 ecx, DWORD PTR _this$[ebp]
  0003a	e8 00 00 00 00	 call	 ?_Tidy@?$vector@PAVSprite@sf@@V?$allocator@PAVSprite@sf@@@std@@@std@@AAEXXZ ; std::vector<sf::Sprite *,std::allocator<sf::Sprite *> >::_Tidy

; 713  : #if _ITERATOR_DEBUG_LEVEL != 0
; 714  :         auto&& _Alproxy = _GET_PROXY_ALLOCATOR(_Alty, _Getal());

  0003f	8b 4d f8	 mov	 ecx, DWORD PTR _this$[ebp]
  00042	e8 00 00 00 00	 call	 ?_Getal@?$vector@PAVSprite@sf@@V?$allocator@PAVSprite@sf@@@std@@@std@@AAEAAV?$allocator@PAVSprite@sf@@@2@XZ ; std::vector<sf::Sprite *,std::allocator<sf::Sprite *> >::_Getal
  00047	50		 push	 eax
  00048	8d 4d ef	 lea	 ecx, DWORD PTR _$S2$[ebp]
  0004b	e8 00 00 00 00	 call	 ??$?0PAVSprite@sf@@@?$allocator@U_Container_proxy@std@@@std@@QAE@ABV?$allocator@PAVSprite@sf@@@1@@Z ; std::allocator<std::_Container_proxy>::allocator<std::_Container_proxy><sf::Sprite *>
  00050	8d 45 ef	 lea	 eax, DWORD PTR _$S2$[ebp]
  00053	89 45 f4	 mov	 DWORD PTR __Alproxy$[ebp], eax

; 715  :         _Delete_plain_internal(_Alproxy, _STD exchange(_Mypair._Myval2._Myproxy, nullptr));

  00056	c7 45 e4 00 00
	00 00		 mov	 DWORD PTR $T1[ebp], 0
  0005d	8d 4d e4	 lea	 ecx, DWORD PTR $T1[ebp]
  00060	51		 push	 ecx
  00061	8b 55 f8	 mov	 edx, DWORD PTR _this$[ebp]
  00064	52		 push	 edx
  00065	e8 00 00 00 00	 call	 ??$exchange@PAU_Container_proxy@std@@$$T@std@@YAPAU_Container_proxy@0@AAPAU10@$$QA$$T@Z ; std::exchange<std::_Container_proxy *,std::nullptr_t>
  0006a	83 c4 08	 add	 esp, 8
  0006d	50		 push	 eax
  0006e	8b 45 f4	 mov	 eax, DWORD PTR __Alproxy$[ebp]
  00071	50		 push	 eax
  00072	e8 00 00 00 00	 call	 ??$_Delete_plain_internal@V?$allocator@U_Container_proxy@std@@@std@@@std@@YAXAAV?$allocator@U_Container_proxy@std@@@0@QAU_Container_proxy@0@@Z ; std::_Delete_plain_internal<std::allocator<std::_Container_proxy> >
  00077	83 c4 08	 add	 esp, 8

; 716  : #endif // _ITERATOR_DEBUG_LEVEL != 0
; 717  :     }

  0007a	52		 push	 edx
  0007b	8b cd		 mov	 ecx, ebp
  0007d	50		 push	 eax
  0007e	8d 15 00 00 00
	00		 lea	 edx, DWORD PTR $LN5@vector
  00084	e8 00 00 00 00	 call	 @_RTC_CheckStackVars@8
  00089	58		 pop	 eax
  0008a	5a		 pop	 edx
  0008b	8b 4d fc	 mov	 ecx, DWORD PTR __$ArrayPad$[ebp]
  0008e	33 cd		 xor	 ecx, ebp
  00090	e8 00 00 00 00	 call	 @__security_check_cookie@4
  00095	83 c4 1c	 add	 esp, 28			; 0000001cH
  00098	3b ec		 cmp	 ebp, esp
  0009a	e8 00 00 00 00	 call	 __RTC_CheckEsp
  0009f	8b e5		 mov	 esp, ebp
  000a1	5d		 pop	 ebp
  000a2	c3		 ret	 0
  000a3	90		 npad	 1
$LN5@vector:
  000a4	01 00 00 00	 DD	 1
  000a8	00 00 00 00	 DD	 $LN4@vector
$LN4@vector:
  000ac	ef ff ff ff	 DD	 -17			; ffffffefH
  000b0	01 00 00 00	 DD	 1
  000b4	00 00 00 00	 DD	 $LN3@vector
$LN3@vector:
  000b8	24		 DB	 36			; 00000024H
  000b9	53		 DB	 83			; 00000053H
  000ba	32		 DB	 50			; 00000032H
  000bb	00		 DB	 0
??1?$vector@PAVSprite@sf@@V?$allocator@PAVSprite@sf@@@std@@@std@@QAE@XZ ENDP ; std::vector<sf::Sprite *,std::allocator<sf::Sprite *> >::~vector<sf::Sprite *,std::allocator<sf::Sprite *> >
_TEXT	ENDS
; Function compile flags: /Odtp /RTCsu
; File C:\Program Files (x86)\Microsoft Visual Studio\2019\Community\VC\Tools\MSVC\14.29.30133\include\vector
;	COMDAT ??0?$vector@PAVSprite@sf@@V?$allocator@PAVSprite@sf@@@std@@@std@@QAE@IABV?$allocator@PAVSprite@sf@@@1@@Z
_TEXT	SEGMENT
tv70 = -12						; size = 4
$T1 = -6						; size = 1
$T2 = -5						; size = 1
_this$ = -4						; size = 4
__Count$ = 8						; size = 4
__Al$ = 12						; size = 4
??0?$vector@PAVSprite@sf@@V?$allocator@PAVSprite@sf@@@std@@@std@@QAE@IABV?$allocator@PAVSprite@sf@@@1@@Z PROC ; std::vector<sf::Sprite *,std::allocator<sf::Sprite *> >::vector<sf::Sprite *,std::allocator<sf::Sprite *> >, COMDAT
; _this$ = ecx

; 502  :         : _Mypair(_One_then_variadic_args_t{}, _Al) {

  00000	55		 push	 ebp
  00001	8b ec		 mov	 ebp, esp
  00003	83 ec 0c	 sub	 esp, 12			; 0000000cH
  00006	c7 45 f4 cc cc
	cc cc		 mov	 DWORD PTR [ebp-12], -858993460 ; ccccccccH
  0000d	c7 45 f8 cc cc
	cc cc		 mov	 DWORD PTR [ebp-8], -858993460 ; ccccccccH
  00014	c7 45 fc cc cc
	cc cc		 mov	 DWORD PTR [ebp-4], -858993460 ; ccccccccH
  0001b	89 4d fc	 mov	 DWORD PTR _this$[ebp], ecx
  0001e	b9 00 00 00 00	 mov	 ecx, OFFSET __324884E2_vector
  00023	e8 00 00 00 00	 call	 @__CheckForDebuggerJustMyCode@4
  00028	8b 45 fc	 mov	 eax, DWORD PTR _this$[ebp]
  0002b	89 45 f4	 mov	 DWORD PTR tv70[ebp], eax
  0002e	8b 4d 0c	 mov	 ecx, DWORD PTR __Al$[ebp]
  00031	51		 push	 ecx
  00032	0f b6 55 fb	 movzx	 edx, BYTE PTR $T2[ebp]
  00036	52		 push	 edx
  00037	8b 4d f4	 mov	 ecx, DWORD PTR tv70[ebp]
  0003a	e8 00 00 00 00	 call	 ??$?0ABV?$allocator@PAVSprite@sf@@@std@@$$V@?$_Compressed_pair@V?$allocator@PAVSprite@sf@@@std@@V?$_Vector_val@U?$_Simple_types@PAVSprite@sf@@@std@@@2@$00@std@@QAE@U_One_then_variadic_args_t@1@ABV?$allocator@PAVSprite@sf@@@1@@Z ; std::_Compressed_pair<std::allocator<sf::Sprite *>,std::_Vector_val<std::_Simple_types<sf::Sprite *> >,1>::_Compressed_pair<std::allocator<sf::Sprite *>,std::_Vector_val<std::_Simple_types<sf::Sprite *> >,1><std::allocator<sf::Sprite *> const &>

; 503  :         _Construct_n_copies_of_ty(_Count, _Value_init_tag{});

  0003f	8d 45 fa	 lea	 eax, DWORD PTR $T1[ebp]
  00042	50		 push	 eax
  00043	8b 4d 08	 mov	 ecx, DWORD PTR __Count$[ebp]
  00046	51		 push	 ecx
  00047	8b 4d fc	 mov	 ecx, DWORD PTR _this$[ebp]
  0004a	e8 00 00 00 00	 call	 ??$_Construct_n_copies_of_ty@U_Value_init_tag@std@@@?$vector@PAVSprite@sf@@V?$allocator@PAVSprite@sf@@@std@@@std@@AAEXIABU_Value_init_tag@1@@Z ; std::vector<sf::Sprite *,std::allocator<sf::Sprite *> >::_Construct_n_copies_of_ty<std::_Value_init_tag>

; 504  :     }

  0004f	8b 45 fc	 mov	 eax, DWORD PTR _this$[ebp]
  00052	83 c4 0c	 add	 esp, 12			; 0000000cH
  00055	3b ec		 cmp	 ebp, esp
  00057	e8 00 00 00 00	 call	 __RTC_CheckEsp
  0005c	8b e5		 mov	 esp, ebp
  0005e	5d		 pop	 ebp
  0005f	c2 08 00	 ret	 8
??0?$vector@PAVSprite@sf@@V?$allocator@PAVSprite@sf@@@std@@@std@@QAE@IABV?$allocator@PAVSprite@sf@@@1@@Z ENDP ; std::vector<sf::Sprite *,std::allocator<sf::Sprite *> >::vector<sf::Sprite *,std::allocator<sf::Sprite *> >
_TEXT	ENDS
; Function compile flags: /Odtp /RTCsu
; File C:\Program Files (x86)\Microsoft Visual Studio\2019\Community\VC\Tools\MSVC\14.29.30133\include\xmemory
;	COMDAT ?max_size@?$_Default_allocator_traits@V?$allocator@PAVSprite@sf@@@std@@@std@@SAIABV?$allocator@PAVSprite@sf@@@2@@Z
_TEXT	SEGMENT
___formal$ = 8						; size = 4
?max_size@?$_Default_allocator_traits@V?$allocator@PAVSprite@sf@@@std@@@std@@SAIABV?$allocator@PAVSprite@sf@@@2@@Z PROC ; std::_Default_allocator_traits<std::allocator<sf::Sprite *> >::max_size, COMDAT

; 727  :     _NODISCARD static _CONSTEXPR20_DYNALLOC size_type max_size(const _Alloc&) noexcept {

  00000	55		 push	 ebp
  00001	8b ec		 mov	 ebp, esp
  00003	b9 00 00 00 00	 mov	 ecx, OFFSET __79D216CD_xmemory
  00008	e8 00 00 00 00	 call	 @__CheckForDebuggerJustMyCode@4

; 728  :         return static_cast<size_t>(-1) / sizeof(value_type);

  0000d	b8 ff ff ff 3f	 mov	 eax, 1073741823		; 3fffffffH

; 729  :     }

  00012	3b ec		 cmp	 ebp, esp
  00014	e8 00 00 00 00	 call	 __RTC_CheckEsp
  00019	5d		 pop	 ebp
  0001a	c3		 ret	 0
?max_size@?$_Default_allocator_traits@V?$allocator@PAVSprite@sf@@@std@@@std@@SAIABV?$allocator@PAVSprite@sf@@@2@@Z ENDP ; std::_Default_allocator_traits<std::allocator<sf::Sprite *> >::max_size
_TEXT	ENDS
; Function compile flags: /Odtp /RTCsu
; File C:\Program Files (x86)\Microsoft Visual Studio\2019\Community\VC\Tools\MSVC\14.29.30133\include\xmemory
;	COMDAT ?allocate@?$allocator@PAVSprite@sf@@@std@@QAEPAPAVSprite@sf@@I@Z
_TEXT	SEGMENT
_this$ = -4						; size = 4
__Count$ = 8						; size = 4
?allocate@?$allocator@PAVSprite@sf@@@std@@QAEPAPAVSprite@sf@@I@Z PROC ; std::allocator<sf::Sprite *>::allocate, COMDAT
; _this$ = ecx

; 838  :     _NODISCARD _CONSTEXPR20_DYNALLOC __declspec(allocator) _Ty* allocate(_CRT_GUARDOVERFLOW const size_t _Count) {

  00000	55		 push	 ebp
  00001	8b ec		 mov	 ebp, esp
  00003	51		 push	 ecx
  00004	c7 45 fc cc cc
	cc cc		 mov	 DWORD PTR [ebp-4], -858993460 ; ccccccccH
  0000b	89 4d fc	 mov	 DWORD PTR _this$[ebp], ecx
  0000e	b9 00 00 00 00	 mov	 ecx, OFFSET __79D216CD_xmemory
  00013	e8 00 00 00 00	 call	 @__CheckForDebuggerJustMyCode@4

; 839  :         return static_cast<_Ty*>(_Allocate<_New_alignof<_Ty>>(_Get_size_of_n<sizeof(_Ty)>(_Count)));

  00018	8b 45 08	 mov	 eax, DWORD PTR __Count$[ebp]
  0001b	50		 push	 eax
  0001c	e8 00 00 00 00	 call	 ??$_Get_size_of_n@$03@std@@YAII@Z ; std::_Get_size_of_n<4>
  00021	83 c4 04	 add	 esp, 4
  00024	50		 push	 eax
  00025	e8 00 00 00 00	 call	 ??$_Allocate@$07U_Default_allocate_traits@std@@$0A@@std@@YAPAXI@Z ; std::_Allocate<8,std::_Default_allocate_traits,0>
  0002a	83 c4 04	 add	 esp, 4

; 840  :     }

  0002d	83 c4 04	 add	 esp, 4
  00030	3b ec		 cmp	 ebp, esp
  00032	e8 00 00 00 00	 call	 __RTC_CheckEsp
  00037	8b e5		 mov	 esp, ebp
  00039	5d		 pop	 ebp
  0003a	c2 04 00	 ret	 4
?allocate@?$allocator@PAVSprite@sf@@@std@@QAEPAPAVSprite@sf@@I@Z ENDP ; std::allocator<sf::Sprite *>::allocate
_TEXT	ENDS
; Function compile flags: /Odtp /RTCsu
; File C:\Program Files (x86)\Microsoft Visual Studio\2019\Community\VC\Tools\MSVC\14.29.30133\include\xmemory
;	COMDAT ?deallocate@?$allocator@PAVSprite@sf@@@std@@QAEXQAPAVSprite@sf@@I@Z
_TEXT	SEGMENT
_this$ = -4						; size = 4
__Ptr$ = 8						; size = 4
__Count$ = 12						; size = 4
?deallocate@?$allocator@PAVSprite@sf@@@std@@QAEXQAPAVSprite@sf@@I@Z PROC ; std::allocator<sf::Sprite *>::deallocate, COMDAT
; _this$ = ecx

; 833  :     _CONSTEXPR20_DYNALLOC void deallocate(_Ty* const _Ptr, const size_t _Count) {

  00000	55		 push	 ebp
  00001	8b ec		 mov	 ebp, esp
  00003	51		 push	 ecx
  00004	c7 45 fc cc cc
	cc cc		 mov	 DWORD PTR [ebp-4], -858993460 ; ccccccccH
  0000b	89 4d fc	 mov	 DWORD PTR _this$[ebp], ecx
  0000e	b9 00 00 00 00	 mov	 ecx, OFFSET __79D216CD_xmemory
  00013	e8 00 00 00 00	 call	 @__CheckForDebuggerJustMyCode@4

; 834  :         // no overflow check on the following multiply; we assume _Allocate did that check
; 835  :         _Deallocate<_New_alignof<_Ty>>(_Ptr, sizeof(_Ty) * _Count);

  00018	8b 45 0c	 mov	 eax, DWORD PTR __Count$[ebp]
  0001b	c1 e0 02	 shl	 eax, 2
  0001e	50		 push	 eax
  0001f	8b 4d 08	 mov	 ecx, DWORD PTR __Ptr$[ebp]
  00022	51		 push	 ecx
  00023	e8 00 00 00 00	 call	 ??$_Deallocate@$07$0A@@std@@YAXPAXI@Z ; std::_Deallocate<8,0>
  00028	83 c4 08	 add	 esp, 8

; 836  :     }

  0002b	83 c4 04	 add	 esp, 4
  0002e	3b ec		 cmp	 ebp, esp
  00030	e8 00 00 00 00	 call	 __RTC_CheckEsp
  00035	8b e5		 mov	 esp, ebp
  00037	5d		 pop	 ebp
  00038	c2 08 00	 ret	 8
?deallocate@?$allocator@PAVSprite@sf@@@std@@QAEXQAPAVSprite@sf@@I@Z ENDP ; std::allocator<sf::Sprite *>::deallocate
_TEXT	ENDS
; Function compile flags: /Odtp /RTCsu
; File C:\Program Files (x86)\Microsoft Visual Studio\2019\Community\VC\Tools\MSVC\14.29.30133\include\xmemory
;	COMDAT ??0?$allocator@PAVSprite@sf@@@std@@QAE@XZ
_TEXT	SEGMENT
_this$ = -4						; size = 4
??0?$allocator@PAVSprite@sf@@@std@@QAE@XZ PROC		; std::allocator<sf::Sprite *>::allocator<sf::Sprite *>, COMDAT
; _this$ = ecx

; 825  :     constexpr allocator() noexcept {}

  00000	55		 push	 ebp
  00001	8b ec		 mov	 ebp, esp
  00003	51		 push	 ecx
  00004	c7 45 fc cc cc
	cc cc		 mov	 DWORD PTR [ebp-4], -858993460 ; ccccccccH
  0000b	89 4d fc	 mov	 DWORD PTR _this$[ebp], ecx
  0000e	b9 00 00 00 00	 mov	 ecx, OFFSET __79D216CD_xmemory
  00013	e8 00 00 00 00	 call	 @__CheckForDebuggerJustMyCode@4
  00018	8b 45 fc	 mov	 eax, DWORD PTR _this$[ebp]
  0001b	83 c4 04	 add	 esp, 4
  0001e	3b ec		 cmp	 ebp, esp
  00020	e8 00 00 00 00	 call	 __RTC_CheckEsp
  00025	8b e5		 mov	 esp, ebp
  00027	5d		 pop	 ebp
  00028	c3		 ret	 0
??0?$allocator@PAVSprite@sf@@@std@@QAE@XZ ENDP		; std::allocator<sf::Sprite *>::allocator<sf::Sprite *>
_TEXT	ENDS
; Function compile flags: /Odtp /RTCsu
; File C:\Users\theob\Documents\GitHub\as-pts1\rendu2\Player.cpp
_TEXT	SEGMENT
tv75 = -24						; size = 4
tv69 = -20						; size = 4
$T1 = -16						; size = 4
$T2 = -12						; size = 4
$T3 = -8						; size = 4
_this$ = -4						; size = 4
??1Player@@QAE@XZ PROC					; Player::~Player
; _this$ = ecx

; 77   : {

  00000	55		 push	 ebp
  00001	8b ec		 mov	 ebp, esp
  00003	83 ec 18	 sub	 esp, 24			; 00000018H
  00006	b8 cc cc cc cc	 mov	 eax, -858993460		; ccccccccH
  0000b	89 45 e8	 mov	 DWORD PTR [ebp-24], eax
  0000e	89 45 ec	 mov	 DWORD PTR [ebp-20], eax
  00011	89 45 f0	 mov	 DWORD PTR [ebp-16], eax
  00014	89 45 f4	 mov	 DWORD PTR [ebp-12], eax
  00017	89 45 f8	 mov	 DWORD PTR [ebp-8], eax
  0001a	89 45 fc	 mov	 DWORD PTR [ebp-4], eax
  0001d	89 4d fc	 mov	 DWORD PTR _this$[ebp], ecx
  00020	b9 00 00 00 00	 mov	 ecx, OFFSET __4D0513DE_Player@cpp
  00025	e8 00 00 00 00	 call	 @__CheckForDebuggerJustMyCode@4

; 78   : 	delete(_sprite);

  0002a	8b 45 fc	 mov	 eax, DWORD PTR _this$[ebp]
  0002d	8b 48 0c	 mov	 ecx, DWORD PTR [eax+12]
  00030	89 4d f8	 mov	 DWORD PTR $T3[ebp], ecx
  00033	83 7d f8 00	 cmp	 DWORD PTR $T3[ebp], 0
  00037	74 0f		 je	 SHORT $LN3@Player
  00039	6a 01		 push	 1
  0003b	8b 4d f8	 mov	 ecx, DWORD PTR $T3[ebp]
  0003e	e8 00 00 00 00	 call	 ??_G?$vector@PAVSprite@sf@@V?$allocator@PAVSprite@sf@@@std@@@std@@QAEPAXI@Z
  00043	89 45 ec	 mov	 DWORD PTR tv69[ebp], eax
  00046	eb 07		 jmp	 SHORT $LN4@Player
$LN3@Player:
  00048	c7 45 ec 00 00
	00 00		 mov	 DWORD PTR tv69[ebp], 0
$LN4@Player:

; 79   : 	delete(_tex);

  0004f	8b 55 fc	 mov	 edx, DWORD PTR _this$[ebp]
  00052	8b 42 10	 mov	 eax, DWORD PTR [edx+16]
  00055	89 45 f4	 mov	 DWORD PTR $T2[ebp], eax
  00058	83 7d f4 00	 cmp	 DWORD PTR $T2[ebp], 0
  0005c	74 0f		 je	 SHORT $LN5@Player
  0005e	6a 01		 push	 1
  00060	8b 4d f4	 mov	 ecx, DWORD PTR $T2[ebp]
  00063	e8 00 00 00 00	 call	 ??_G?$vector@PAVTexture@sf@@V?$allocator@PAVTexture@sf@@@std@@@std@@QAEPAXI@Z
  00068	89 45 e8	 mov	 DWORD PTR tv75[ebp], eax
  0006b	eb 07		 jmp	 SHORT $LN6@Player
$LN5@Player:
  0006d	c7 45 e8 00 00
	00 00		 mov	 DWORD PTR tv75[ebp], 0
$LN6@Player:

; 80   : 	delete(_rect);

  00074	8b 4d fc	 mov	 ecx, DWORD PTR _this$[ebp]
  00077	8b 51 08	 mov	 edx, DWORD PTR [ecx+8]
  0007a	89 55 f0	 mov	 DWORD PTR $T1[ebp], edx
  0007d	6a 10		 push	 16			; 00000010H
  0007f	8b 45 f0	 mov	 eax, DWORD PTR $T1[ebp]
  00082	50		 push	 eax
  00083	e8 00 00 00 00	 call	 ??3@YAXPAXI@Z		; operator delete
  00088	83 c4 08	 add	 esp, 8

; 81   : }

  0008b	83 c4 18	 add	 esp, 24			; 00000018H
  0008e	3b ec		 cmp	 ebp, esp
  00090	e8 00 00 00 00	 call	 __RTC_CheckEsp
  00095	8b e5		 mov	 esp, ebp
  00097	5d		 pop	 ebp
  00098	c3		 ret	 0
??1Player@@QAE@XZ ENDP					; Player::~Player
_TEXT	ENDS
; Function compile flags: /Odtp /RTCsu
; File C:\Users\theob\Documents\GitHub\as-pts1\rendu2\Player.cpp
_TEXT	SEGMENT
tv252 = -196						; size = 4
tv254 = -192						; size = 4
tv256 = -188						; size = 4
tv242 = -184						; size = 4
tv222 = -180						; size = 4
tv294 = -176						; size = 4
tv199 = -172						; size = 4
tv287 = -168						; size = 4
tv186 = -164						; size = 4
tv171 = -160						; size = 4
tv278 = -156						; size = 4
tv273 = -152						; size = 4
tv150 = -148						; size = 4
tv268 = -144						; size = 4
tv266 = -140						; size = 4
$T2 = -136						; size = 4
$T3 = -132						; size = 16
$T4 = -113						; size = 1
$T5 = -112						; size = 16
$T6 = -93						; size = 1
$T7 = -92						; size = 16
$T8 = -76						; size = 16
$T9 = -57						; size = 1
$T10 = -56						; size = 16
$T11 = -37						; size = 1
$T12 = -36						; size = 16
$T13 = -17						; size = 1
_this$ = -16						; size = 4
__$EHRec$ = -12						; size = 12
_dir$ = 8						; size = 8
_cols$ = 16						; size = 24
?move@Player@@QAEXV?$tuple@W4DIRDEP@@W41@@std@@V?$vector@_NV?$allocator@_N@std@@@3@@Z PROC ; Player::move
; _this$ = ecx

; 24   : {

  00000	55		 push	 ebp
  00001	8b ec		 mov	 ebp, esp
  00003	6a ff		 push	 -1
  00005	68 00 00 00 00	 push	 __ehhandler$?move@Player@@QAEXV?$tuple@W4DIRDEP@@W41@@std@@V?$vector@_NV?$allocator@_N@std@@@3@@Z
  0000a	64 a1 00 00 00
	00		 mov	 eax, DWORD PTR fs:0
  00010	50		 push	 eax
  00011	81 ec b8 00 00
	00		 sub	 esp, 184		; 000000b8H
  00017	56		 push	 esi
  00018	57		 push	 edi
  00019	51		 push	 ecx
  0001a	8d bd 3c ff ff
	ff		 lea	 edi, DWORD PTR [ebp-196]
  00020	b9 2e 00 00 00	 mov	 ecx, 46			; 0000002eH
  00025	b8 cc cc cc cc	 mov	 eax, -858993460		; ccccccccH
  0002a	f3 ab		 rep stosd
  0002c	59		 pop	 ecx
  0002d	a1 00 00 00 00	 mov	 eax, DWORD PTR ___security_cookie
  00032	33 c5		 xor	 eax, ebp
  00034	50		 push	 eax
  00035	8d 45 f4	 lea	 eax, DWORD PTR __$EHRec$[ebp]
  00038	64 a3 00 00 00
	00		 mov	 DWORD PTR fs:0, eax
  0003e	89 4d f0	 mov	 DWORD PTR _this$[ebp], ecx
  00041	c7 85 78 ff ff
	ff 00 00 00 00	 mov	 DWORD PTR $T2[ebp], 0
  0004b	c7 45 fc 00 00
	00 00		 mov	 DWORD PTR __$EHRec$[ebp+8], 0
  00052	b9 00 00 00 00	 mov	 ecx, OFFSET __4D0513DE_Player@cpp
  00057	e8 00 00 00 00	 call	 @__CheckForDebuggerJustMyCode@4

; 25   : 
; 26   : 	if (cols.at(COLDIR::BOTTOM) ) { //On est sur le sol 

  0005c	6a 01		 push	 1
  0005e	8d 45 dc	 lea	 eax, DWORD PTR $T12[ebp]
  00061	50		 push	 eax
  00062	8d 4d 10	 lea	 ecx, DWORD PTR _cols$[ebp]
  00065	e8 00 00 00 00	 call	 ?at@?$vector@_NV?$allocator@_N@std@@@std@@QAE?AV?$_Vb_reference@U?$_Wrap_alloc@V?$allocator@I@std@@@std@@@2@I@Z ; std::vector<bool,std::allocator<bool> >::at
  0006a	89 85 74 ff ff
	ff		 mov	 DWORD PTR tv266[ebp], eax
  00070	8b 8d 74 ff ff
	ff		 mov	 ecx, DWORD PTR tv266[ebp]
  00076	e8 00 00 00 00	 call	 ??B?$_Vb_reference@U?$_Wrap_alloc@V?$allocator@I@std@@@std@@@std@@QBE_NXZ ; std::_Vb_reference<std::_Wrap_alloc<std::allocator<unsigned int> > >::operator bool
  0007b	88 45 ef	 mov	 BYTE PTR $T13[ebp], al
  0007e	8d 4d dc	 lea	 ecx, DWORD PTR $T12[ebp]
  00081	e8 00 00 00 00	 call	 ??1?$_Vb_reference@U?$_Wrap_alloc@V?$allocator@I@std@@@std@@@std@@QAE@XZ
  00086	0f b6 4d ef	 movzx	 ecx, BYTE PTR $T13[ebp]
  0008a	85 c9		 test	 ecx, ecx
  0008c	74 31		 je	 SHORT $LN6@move

; 27   : 		_accel = 0; // On verifie que l'accelration est bien nul

  0008e	8b 55 f0	 mov	 edx, DWORD PTR _this$[ebp]
  00091	0f 57 c0	 xorps	 xmm0, xmm0
  00094	f3 0f 11 42 14	 movss	 DWORD PTR [edx+20], xmm0

; 28   : 		_y-=0.1f; // On remonte lgrement vers le plafond pour eviter de fusionner avec le sol

  00099	8b 45 f0	 mov	 eax, DWORD PTR _this$[ebp]
  0009c	f3 0f 2a 40 04	 cvtsi2ss xmm0, DWORD PTR [eax+4]
  000a1	f3 0f 5c 05 00
	00 00 00	 subss	 xmm0, DWORD PTR __real@3dcccccd
  000a9	f3 0f 2c c8	 cvttss2si ecx, xmm0
  000ad	8b 55 f0	 mov	 edx, DWORD PTR _this$[ebp]
  000b0	89 4a 04	 mov	 DWORD PTR [edx+4], ecx

; 29   : 		_place = DOWN;

  000b3	8b 45 f0	 mov	 eax, DWORD PTR _this$[ebp]
  000b6	c7 40 1c 03 00
	00 00		 mov	 DWORD PTR [eax+28], 3

; 30   : 	}else {

  000bd	eb 3c		 jmp	 SHORT $LN7@move
$LN6@move:

; 31   : 		_y += _accel; // sinon on accelere vers le sol

  000bf	8b 4d f0	 mov	 ecx, DWORD PTR _this$[ebp]
  000c2	f3 0f 2a 41 04	 cvtsi2ss xmm0, DWORD PTR [ecx+4]
  000c7	8b 55 f0	 mov	 edx, DWORD PTR _this$[ebp]
  000ca	f3 0f 58 42 14	 addss	 xmm0, DWORD PTR [edx+20]
  000cf	f3 0f 2c c0	 cvttss2si eax, xmm0
  000d3	8b 4d f0	 mov	 ecx, DWORD PTR _this$[ebp]
  000d6	89 41 04	 mov	 DWORD PTR [ecx+4], eax

; 32   : 		_accel += DECEL;

  000d9	8b 55 f0	 mov	 edx, DWORD PTR _this$[ebp]
  000dc	f3 0f 10 42 14	 movss	 xmm0, DWORD PTR [edx+20]
  000e1	f3 0f 58 05 00
	00 00 00	 addss	 xmm0, DWORD PTR __real@3e4ccccd
  000e9	8b 45 f0	 mov	 eax, DWORD PTR _this$[ebp]
  000ec	f3 0f 11 40 14	 movss	 DWORD PTR [eax+20], xmm0

; 33   : 		_place = DOWN;

  000f1	8b 4d f0	 mov	 ecx, DWORD PTR _this$[ebp]
  000f4	c7 41 1c 03 00
	00 00		 mov	 DWORD PTR [ecx+28], 3
$LN7@move:

; 34   : 
; 35   : 	}
; 36   : 	if (cols.at(COLDIR::TOP)) {

  000fb	6a 00		 push	 0
  000fd	8d 55 c8	 lea	 edx, DWORD PTR $T10[ebp]
  00100	52		 push	 edx
  00101	8d 4d 10	 lea	 ecx, DWORD PTR _cols$[ebp]
  00104	e8 00 00 00 00	 call	 ?at@?$vector@_NV?$allocator@_N@std@@@std@@QAE?AV?$_Vb_reference@U?$_Wrap_alloc@V?$allocator@I@std@@@std@@@2@I@Z ; std::vector<bool,std::allocator<bool> >::at
  00109	89 85 70 ff ff
	ff		 mov	 DWORD PTR tv268[ebp], eax
  0010f	8b 8d 70 ff ff
	ff		 mov	 ecx, DWORD PTR tv268[ebp]
  00115	e8 00 00 00 00	 call	 ??B?$_Vb_reference@U?$_Wrap_alloc@V?$allocator@I@std@@@std@@@std@@QBE_NXZ ; std::_Vb_reference<std::_Wrap_alloc<std::allocator<unsigned int> > >::operator bool
  0011a	88 45 db	 mov	 BYTE PTR $T11[ebp], al
  0011d	8d 4d c8	 lea	 ecx, DWORD PTR $T10[ebp]
  00120	e8 00 00 00 00	 call	 ??1?$_Vb_reference@U?$_Wrap_alloc@V?$allocator@I@std@@@std@@@std@@QAE@XZ
  00125	0f b6 45 db	 movzx	 eax, BYTE PTR $T11[ebp]
  00129	85 c0		 test	 eax, eax
  0012b	74 5f		 je	 SHORT $LN8@move

; 37   : 		if (_accel < 0) {

  0012d	8b 4d f0	 mov	 ecx, DWORD PTR _this$[ebp]
  00130	0f 57 c0	 xorps	 xmm0, xmm0
  00133	0f 2f 41 14	 comiss	 xmm0, DWORD PTR [ecx+20]
  00137	76 0b		 jbe	 SHORT $LN9@move

; 38   : 			_accel = 0;

  00139	8b 55 f0	 mov	 edx, DWORD PTR _this$[ebp]
  0013c	0f 57 c0	 xorps	 xmm0, xmm0
  0013f	f3 0f 11 42 14	 movss	 DWORD PTR [edx+20], xmm0
$LN9@move:

; 39   : 		}
; 40   : 		_y += _accel +5; // si on se tape la tte dans le plafond

  00144	8b 45 f0	 mov	 eax, DWORD PTR _this$[ebp]
  00147	f3 0f 10 40 14	 movss	 xmm0, DWORD PTR [eax+20]
  0014c	f3 0f 58 05 00
	00 00 00	 addss	 xmm0, DWORD PTR __real@40a00000
  00154	8b 4d f0	 mov	 ecx, DWORD PTR _this$[ebp]
  00157	f3 0f 2a 49 04	 cvtsi2ss xmm1, DWORD PTR [ecx+4]
  0015c	f3 0f 58 c8	 addss	 xmm1, xmm0
  00160	f3 0f 2c d1	 cvttss2si edx, xmm1
  00164	8b 45 f0	 mov	 eax, DWORD PTR _this$[ebp]
  00167	89 50 04	 mov	 DWORD PTR [eax+4], edx

; 41   : 		_accel += DECEL;

  0016a	8b 4d f0	 mov	 ecx, DWORD PTR _this$[ebp]
  0016d	f3 0f 10 41 14	 movss	 xmm0, DWORD PTR [ecx+20]
  00172	f3 0f 58 05 00
	00 00 00	 addss	 xmm0, DWORD PTR __real@3e4ccccd
  0017a	8b 55 f0	 mov	 edx, DWORD PTR _this$[ebp]
  0017d	f3 0f 11 42 14	 movss	 DWORD PTR [edx+20], xmm0

; 42   : 		_place = UP;

  00182	8b 45 f0	 mov	 eax, DWORD PTR _this$[ebp]
  00185	c7 40 1c 02 00
	00 00		 mov	 DWORD PTR [eax+28], 2
$LN8@move:

; 43   : 	}
; 44   : 	switch (std::get<0>(dir)) {

  0018c	8d 4d 08	 lea	 ecx, DWORD PTR _dir$[ebp]
  0018f	51		 push	 ecx
  00190	e8 00 00 00 00	 call	 ??$get@$0A@W4DIRDEP@@W41@@std@@YAAAW4DIRDEP@@AAV?$tuple@W4DIRDEP@@W41@@0@@Z ; std::get<0,enum DIRDEP,enum DIRDEP>
  00195	83 c4 04	 add	 esp, 4
  00198	8b 10		 mov	 edx, DWORD PTR [eax]
  0019a	89 95 6c ff ff
	ff		 mov	 DWORD PTR tv150[ebp], edx
  001a0	83 bd 6c ff ff
	ff 02		 cmp	 DWORD PTR tv150[ebp], 2
  001a7	74 05		 je	 SHORT $LN10@move
  001a9	e9 f9 00 00 00	 jmp	 $LN2@move
$LN10@move:

; 45   : 	case DIRDEP::UP:
; 46   : 		if (cols[COLDIR::BOTTOM] && !cols[COLDIR::TOP]) {//on est sur le sol et il n'y a pas de mur au dessus

  001ae	6a 01		 push	 1
  001b0	8d 45 b4	 lea	 eax, DWORD PTR $T8[ebp]
  001b3	50		 push	 eax
  001b4	8d 4d 10	 lea	 ecx, DWORD PTR _cols$[ebp]
  001b7	e8 00 00 00 00	 call	 ??A?$vector@_NV?$allocator@_N@std@@@std@@QAE?AV?$_Vb_reference@U?$_Wrap_alloc@V?$allocator@I@std@@@std@@@1@I@Z ; std::vector<bool,std::allocator<bool> >::operator[]
  001bc	89 85 68 ff ff
	ff		 mov	 DWORD PTR tv273[ebp], eax
  001c2	8b 8d 78 ff ff
	ff		 mov	 ecx, DWORD PTR $T2[ebp]
  001c8	83 c9 01	 or	 ecx, 1
  001cb	89 8d 78 ff ff
	ff		 mov	 DWORD PTR $T2[ebp], ecx
  001d1	8b 8d 68 ff ff
	ff		 mov	 ecx, DWORD PTR tv273[ebp]
  001d7	e8 00 00 00 00	 call	 ??B?$_Vb_reference@U?$_Wrap_alloc@V?$allocator@I@std@@@std@@@std@@QBE_NXZ ; std::_Vb_reference<std::_Wrap_alloc<std::allocator<unsigned int> > >::operator bool
  001dc	0f b6 d0	 movzx	 edx, al
  001df	85 d2		 test	 edx, edx
  001e1	74 41		 je	 SHORT $LN18@move
  001e3	6a 00		 push	 0
  001e5	8d 45 a4	 lea	 eax, DWORD PTR $T7[ebp]
  001e8	50		 push	 eax
  001e9	8d 4d 10	 lea	 ecx, DWORD PTR _cols$[ebp]
  001ec	e8 00 00 00 00	 call	 ??A?$vector@_NV?$allocator@_N@std@@@std@@QAE?AV?$_Vb_reference@U?$_Wrap_alloc@V?$allocator@I@std@@@std@@@1@I@Z ; std::vector<bool,std::allocator<bool> >::operator[]
  001f1	89 85 64 ff ff
	ff		 mov	 DWORD PTR tv278[ebp], eax
  001f7	8b 8d 78 ff ff
	ff		 mov	 ecx, DWORD PTR $T2[ebp]
  001fd	83 c9 02	 or	 ecx, 2
  00200	89 8d 78 ff ff
	ff		 mov	 DWORD PTR $T2[ebp], ecx
  00206	8b 8d 64 ff ff
	ff		 mov	 ecx, DWORD PTR tv278[ebp]
  0020c	e8 00 00 00 00	 call	 ??B?$_Vb_reference@U?$_Wrap_alloc@V?$allocator@I@std@@@std@@@std@@QBE_NXZ ; std::_Vb_reference<std::_Wrap_alloc<std::allocator<unsigned int> > >::operator bool
  00211	0f b6 d0	 movzx	 edx, al
  00214	85 d2		 test	 edx, edx
  00216	75 0c		 jne	 SHORT $LN18@move
  00218	c7 85 60 ff ff
	ff 01 00 00 00	 mov	 DWORD PTR tv171[ebp], 1
  00222	eb 0a		 jmp	 SHORT $LN19@move
$LN18@move:
  00224	c7 85 60 ff ff
	ff 00 00 00 00	 mov	 DWORD PTR tv171[ebp], 0
$LN19@move:
  0022e	8a 85 60 ff ff
	ff		 mov	 al, BYTE PTR tv171[ebp]
  00234	88 45 c7	 mov	 BYTE PTR $T9[ebp], al
  00237	8b 8d 78 ff ff
	ff		 mov	 ecx, DWORD PTR $T2[ebp]
  0023d	83 e1 02	 and	 ecx, 2
  00240	74 0f		 je	 SHORT $LN31@move
  00242	83 a5 78 ff ff
	ff fd		 and	 DWORD PTR $T2[ebp], -3	; fffffffdH
  00249	8d 4d a4	 lea	 ecx, DWORD PTR $T7[ebp]
  0024c	e8 00 00 00 00	 call	 ??1?$_Vb_reference@U?$_Wrap_alloc@V?$allocator@I@std@@@std@@@std@@QAE@XZ
$LN31@move:
  00251	8b 95 78 ff ff
	ff		 mov	 edx, DWORD PTR $T2[ebp]
  00257	83 e2 01	 and	 edx, 1
  0025a	74 0f		 je	 SHORT $LN32@move
  0025c	83 a5 78 ff ff
	ff fe		 and	 DWORD PTR $T2[ebp], -2	; fffffffeH
  00263	8d 4d b4	 lea	 ecx, DWORD PTR $T8[ebp]
  00266	e8 00 00 00 00	 call	 ??1?$_Vb_reference@U?$_Wrap_alloc@V?$allocator@I@std@@@std@@@std@@QAE@XZ
$LN32@move:
  0026b	0f b6 45 c7	 movzx	 eax, BYTE PTR $T9[ebp]
  0026f	85 c0		 test	 eax, eax
  00271	74 34		 je	 SHORT $LN11@move

; 47   : 			_accel = -MAXACC;

  00273	8b 4d f0	 mov	 ecx, DWORD PTR _this$[ebp]
  00276	f3 0f 10 05 00
	00 00 00	 movss	 xmm0, DWORD PTR __real@c0a00000
  0027e	f3 0f 11 41 14	 movss	 DWORD PTR [ecx+20], xmm0

; 48   : 			_y += _accel;

  00283	8b 55 f0	 mov	 edx, DWORD PTR _this$[ebp]
  00286	f3 0f 2a 42 04	 cvtsi2ss xmm0, DWORD PTR [edx+4]
  0028b	8b 45 f0	 mov	 eax, DWORD PTR _this$[ebp]
  0028e	f3 0f 58 40 14	 addss	 xmm0, DWORD PTR [eax+20]
  00293	f3 0f 2c c8	 cvttss2si ecx, xmm0
  00297	8b 55 f0	 mov	 edx, DWORD PTR _this$[ebp]
  0029a	89 4a 04	 mov	 DWORD PTR [edx+4], ecx

; 49   : 			_place = UP;

  0029d	8b 45 f0	 mov	 eax, DWORD PTR _this$[ebp]
  002a0	c7 40 1c 02 00
	00 00		 mov	 DWORD PTR [eax+28], 2
$LN11@move:
$LN2@move:

; 50   : 		}
; 51   : 		break;
; 52   : 	case DIRDEP::DOWN:
; 53   :  		break;
; 54   : 
; 55   : 	}switch (std::get<1>(dir)) {

  002a7	8d 4d 08	 lea	 ecx, DWORD PTR _dir$[ebp]
  002aa	51		 push	 ecx
  002ab	e8 00 00 00 00	 call	 ??$get@$00W4DIRDEP@@W41@@std@@YAAAW4DIRDEP@@AAV?$tuple@W4DIRDEP@@W41@@0@@Z ; std::get<1,enum DIRDEP,enum DIRDEP>
  002b0	83 c4 04	 add	 esp, 4
  002b3	8b 10		 mov	 edx, DWORD PTR [eax]
  002b5	89 95 5c ff ff
	ff		 mov	 DWORD PTR tv186[ebp], edx
  002bb	83 bd 5c ff ff
	ff 00		 cmp	 DWORD PTR tv186[ebp], 0
  002c2	74 12		 je	 SHORT $LN13@move
  002c4	83 bd 5c ff ff
	ff 01		 cmp	 DWORD PTR tv186[ebp], 1
  002cb	0f 84 9f 00 00
	00		 je	 $LN15@move
  002d1	e9 3d 01 00 00	 jmp	 $LN4@move
$LN13@move:

; 56   : 	case DIRDEP::LEFT:
; 57   : 		if (_x > 0 && !cols[COLDIR::LEFT]) {

  002d6	8b 45 f0	 mov	 eax, DWORD PTR _this$[ebp]
  002d9	83 38 00	 cmp	 DWORD PTR [eax], 0
  002dc	7e 41		 jle	 SHORT $LN20@move
  002de	6a 02		 push	 2
  002e0	8d 4d 90	 lea	 ecx, DWORD PTR $T5[ebp]
  002e3	51		 push	 ecx
  002e4	8d 4d 10	 lea	 ecx, DWORD PTR _cols$[ebp]
  002e7	e8 00 00 00 00	 call	 ??A?$vector@_NV?$allocator@_N@std@@@std@@QAE?AV?$_Vb_reference@U?$_Wrap_alloc@V?$allocator@I@std@@@std@@@1@I@Z ; std::vector<bool,std::allocator<bool> >::operator[]
  002ec	89 85 58 ff ff
	ff		 mov	 DWORD PTR tv287[ebp], eax
  002f2	8b 95 78 ff ff
	ff		 mov	 edx, DWORD PTR $T2[ebp]
  002f8	83 ca 04	 or	 edx, 4
  002fb	89 95 78 ff ff
	ff		 mov	 DWORD PTR $T2[ebp], edx
  00301	8b 8d 58 ff ff
	ff		 mov	 ecx, DWORD PTR tv287[ebp]
  00307	e8 00 00 00 00	 call	 ??B?$_Vb_reference@U?$_Wrap_alloc@V?$allocator@I@std@@@std@@@std@@QBE_NXZ ; std::_Vb_reference<std::_Wrap_alloc<std::allocator<unsigned int> > >::operator bool
  0030c	0f b6 c0	 movzx	 eax, al
  0030f	85 c0		 test	 eax, eax
  00311	75 0c		 jne	 SHORT $LN20@move
  00313	c7 85 54 ff ff
	ff 01 00 00 00	 mov	 DWORD PTR tv199[ebp], 1
  0031d	eb 0a		 jmp	 SHORT $LN21@move
$LN20@move:
  0031f	c7 85 54 ff ff
	ff 00 00 00 00	 mov	 DWORD PTR tv199[ebp], 0
$LN21@move:
  00329	8a 8d 54 ff ff
	ff		 mov	 cl, BYTE PTR tv199[ebp]
  0032f	88 4d a3	 mov	 BYTE PTR $T6[ebp], cl
  00332	8b 95 78 ff ff
	ff		 mov	 edx, DWORD PTR $T2[ebp]
  00338	83 e2 04	 and	 edx, 4
  0033b	74 0f		 je	 SHORT $LN35@move
  0033d	83 a5 78 ff ff
	ff fb		 and	 DWORD PTR $T2[ebp], -5	; fffffffbH
  00344	8d 4d 90	 lea	 ecx, DWORD PTR $T5[ebp]
  00347	e8 00 00 00 00	 call	 ??1?$_Vb_reference@U?$_Wrap_alloc@V?$allocator@I@std@@@std@@@std@@QAE@XZ
$LN35@move:
  0034c	0f b6 45 a3	 movzx	 eax, BYTE PTR $T6[ebp]
  00350	85 c0		 test	 eax, eax
  00352	74 17		 je	 SHORT $LN14@move

; 58   : 			_x--;

  00354	8b 4d f0	 mov	 ecx, DWORD PTR _this$[ebp]
  00357	8b 11		 mov	 edx, DWORD PTR [ecx]
  00359	83 ea 01	 sub	 edx, 1
  0035c	8b 45 f0	 mov	 eax, DWORD PTR _this$[ebp]
  0035f	89 10		 mov	 DWORD PTR [eax], edx

; 59   : 			_place = LEFT;

  00361	8b 4d f0	 mov	 ecx, DWORD PTR _this$[ebp]
  00364	c7 41 1c 00 00
	00 00		 mov	 DWORD PTR [ecx+28], 0
$LN14@move:

; 60   : 		}
; 61   : 		break;

  0036b	e9 a3 00 00 00	 jmp	 $LN4@move
$LN15@move:

; 62   : 	case DIRDEP::RIGHT:
; 63   : 		if (!cols[COLDIR::RIGHT] && _x + BLOCKWIDTH < _maxX) { //TODO : Ajouter la vrification du max 

  00370	6a 03		 push	 3
  00372	8d 95 7c ff ff
	ff		 lea	 edx, DWORD PTR $T3[ebp]
  00378	52		 push	 edx
  00379	8d 4d 10	 lea	 ecx, DWORD PTR _cols$[ebp]
  0037c	e8 00 00 00 00	 call	 ??A?$vector@_NV?$allocator@_N@std@@@std@@QAE?AV?$_Vb_reference@U?$_Wrap_alloc@V?$allocator@I@std@@@std@@@1@I@Z ; std::vector<bool,std::allocator<bool> >::operator[]
  00381	89 85 50 ff ff
	ff		 mov	 DWORD PTR tv294[ebp], eax
  00387	8b 85 78 ff ff
	ff		 mov	 eax, DWORD PTR $T2[ebp]
  0038d	83 c8 08	 or	 eax, 8
  00390	89 85 78 ff ff
	ff		 mov	 DWORD PTR $T2[ebp], eax
  00396	8b 8d 50 ff ff
	ff		 mov	 ecx, DWORD PTR tv294[ebp]
  0039c	e8 00 00 00 00	 call	 ??B?$_Vb_reference@U?$_Wrap_alloc@V?$allocator@I@std@@@std@@@std@@QBE_NXZ ; std::_Vb_reference<std::_Wrap_alloc<std::allocator<unsigned int> > >::operator bool
  003a1	0f b6 c8	 movzx	 ecx, al
  003a4	85 c9		 test	 ecx, ecx
  003a6	75 1c		 jne	 SHORT $LN22@move
  003a8	8b 55 f0	 mov	 edx, DWORD PTR _this$[ebp]
  003ab	8b 02		 mov	 eax, DWORD PTR [edx]
  003ad	83 c0 32	 add	 eax, 50			; 00000032H
  003b0	8b 4d f0	 mov	 ecx, DWORD PTR _this$[ebp]
  003b3	3b 41 18	 cmp	 eax, DWORD PTR [ecx+24]
  003b6	7d 0c		 jge	 SHORT $LN22@move
  003b8	c7 85 4c ff ff
	ff 01 00 00 00	 mov	 DWORD PTR tv222[ebp], 1
  003c2	eb 0a		 jmp	 SHORT $LN23@move
$LN22@move:
  003c4	c7 85 4c ff ff
	ff 00 00 00 00	 mov	 DWORD PTR tv222[ebp], 0
$LN23@move:
  003ce	8a 95 4c ff ff
	ff		 mov	 dl, BYTE PTR tv222[ebp]
  003d4	88 55 8f	 mov	 BYTE PTR $T4[ebp], dl
  003d7	8b 85 78 ff ff
	ff		 mov	 eax, DWORD PTR $T2[ebp]
  003dd	83 e0 08	 and	 eax, 8
  003e0	74 12		 je	 SHORT $LN38@move
  003e2	83 a5 78 ff ff
	ff f7		 and	 DWORD PTR $T2[ebp], -9	; fffffff7H
  003e9	8d 8d 7c ff ff
	ff		 lea	 ecx, DWORD PTR $T3[ebp]
  003ef	e8 00 00 00 00	 call	 ??1?$_Vb_reference@U?$_Wrap_alloc@V?$allocator@I@std@@@std@@@std@@QAE@XZ
$LN38@move:
  003f4	0f b6 4d 8f	 movzx	 ecx, BYTE PTR $T4[ebp]
  003f8	85 c9		 test	 ecx, ecx
  003fa	74 17		 je	 SHORT $LN16@move

; 64   : 			_x++;

  003fc	8b 55 f0	 mov	 edx, DWORD PTR _this$[ebp]
  003ff	8b 02		 mov	 eax, DWORD PTR [edx]
  00401	83 c0 01	 add	 eax, 1
  00404	8b 4d f0	 mov	 ecx, DWORD PTR _this$[ebp]
  00407	89 01		 mov	 DWORD PTR [ecx], eax

; 65   : 			_place = RIGHT;

  00409	8b 55 f0	 mov	 edx, DWORD PTR _this$[ebp]
  0040c	c7 42 1c 01 00
	00 00		 mov	 DWORD PTR [edx+28], 1
$LN16@move:
$LN4@move:

; 66   : 
; 67   : 		}
; 68   : 		break;
; 69   : 	}
; 70   : 	_sprite->at(_place)->setPosition(_x, _y);

  00413	8b 45 f0	 mov	 eax, DWORD PTR _this$[ebp]
  00416	8b 48 0c	 mov	 ecx, DWORD PTR [eax+12]
  00419	89 8d 48 ff ff
	ff		 mov	 DWORD PTR tv242[ebp], ecx
  0041f	8b 55 f0	 mov	 edx, DWORD PTR _this$[ebp]
  00422	8b 42 1c	 mov	 eax, DWORD PTR [edx+28]
  00425	50		 push	 eax
  00426	8b 8d 48 ff ff
	ff		 mov	 ecx, DWORD PTR tv242[ebp]
  0042c	e8 00 00 00 00	 call	 ?at@?$vector@PAVSprite@sf@@V?$allocator@PAVSprite@sf@@@std@@@std@@QAEAAPAVSprite@sf@@I@Z ; std::vector<sf::Sprite *,std::allocator<sf::Sprite *> >::at
  00431	8b 08		 mov	 ecx, DWORD PTR [eax]
  00433	83 c1 04	 add	 ecx, 4
  00436	89 8d 44 ff ff
	ff		 mov	 DWORD PTR tv256[ebp], ecx
  0043c	8b 55 f0	 mov	 edx, DWORD PTR _this$[ebp]
  0043f	f3 0f 2a 42 04	 cvtsi2ss xmm0, DWORD PTR [edx+4]
  00444	f3 0f 11 85 40
	ff ff ff	 movss	 DWORD PTR tv254[ebp], xmm0
  0044c	8b 45 f0	 mov	 eax, DWORD PTR _this$[ebp]
  0044f	f3 0f 2a 00	 cvtsi2ss xmm0, DWORD PTR [eax]
  00453	f3 0f 11 85 3c
	ff ff ff	 movss	 DWORD PTR tv252[ebp], xmm0
  0045b	8b f4		 mov	 esi, esp
  0045d	51		 push	 ecx
  0045e	f3 0f 10 85 40
	ff ff ff	 movss	 xmm0, DWORD PTR tv254[ebp]
  00466	f3 0f 11 04 24	 movss	 DWORD PTR [esp], xmm0
  0046b	51		 push	 ecx
  0046c	f3 0f 10 85 3c
	ff ff ff	 movss	 xmm0, DWORD PTR tv252[ebp]
  00474	f3 0f 11 04 24	 movss	 DWORD PTR [esp], xmm0
  00479	8b 8d 44 ff ff
	ff		 mov	 ecx, DWORD PTR tv256[ebp]
  0047f	ff 15 00 00 00
	00		 call	 DWORD PTR __imp_?setPosition@Transformable@sf@@QAEXMM@Z
  00485	3b f4		 cmp	 esi, esp
  00487	e8 00 00 00 00	 call	 __RTC_CheckEsp

; 71   : 	_rect->top = _y;

  0048c	8b 4d f0	 mov	 ecx, DWORD PTR _this$[ebp]
  0048f	8b 51 08	 mov	 edx, DWORD PTR [ecx+8]
  00492	8b 45 f0	 mov	 eax, DWORD PTR _this$[ebp]
  00495	8b 48 04	 mov	 ecx, DWORD PTR [eax+4]
  00498	89 4a 04	 mov	 DWORD PTR [edx+4], ecx

; 72   : 	_rect->left = _x;

  0049b	8b 55 f0	 mov	 edx, DWORD PTR _this$[ebp]
  0049e	8b 42 08	 mov	 eax, DWORD PTR [edx+8]
  004a1	8b 4d f0	 mov	 ecx, DWORD PTR _this$[ebp]
  004a4	8b 11		 mov	 edx, DWORD PTR [ecx]
  004a6	89 10		 mov	 DWORD PTR [eax], edx

; 73   : 
; 74   : }

  004a8	c7 45 fc ff ff
	ff ff		 mov	 DWORD PTR __$EHRec$[ebp+8], -1
  004af	8d 4d 10	 lea	 ecx, DWORD PTR _cols$[ebp]
  004b2	e8 00 00 00 00	 call	 ??1?$vector@_NV?$allocator@_N@std@@@std@@QAE@XZ ; std::vector<bool,std::allocator<bool> >::~vector<bool,std::allocator<bool> >
  004b7	8b 4d f4	 mov	 ecx, DWORD PTR __$EHRec$[ebp]
  004ba	64 89 0d 00 00
	00 00		 mov	 DWORD PTR fs:0, ecx
  004c1	59		 pop	 ecx
  004c2	5f		 pop	 edi
  004c3	5e		 pop	 esi
  004c4	81 c4 c4 00 00
	00		 add	 esp, 196		; 000000c4H
  004ca	3b ec		 cmp	 ebp, esp
  004cc	e8 00 00 00 00	 call	 __RTC_CheckEsp
  004d1	8b e5		 mov	 esp, ebp
  004d3	5d		 pop	 ebp
  004d4	c2 20 00	 ret	 32			; 00000020H
_TEXT	ENDS
text$x	SEGMENT
__unwindfunclet$?move@Player@@QAEXV?$tuple@W4DIRDEP@@W41@@std@@V?$vector@_NV?$allocator@_N@std@@@3@@Z$0:
  00000	8d 4d 10	 lea	 ecx, DWORD PTR _cols$[ebp]
  00003	e9 00 00 00 00	 jmp	 ??1?$vector@_NV?$allocator@_N@std@@@std@@QAE@XZ ; std::vector<bool,std::allocator<bool> >::~vector<bool,std::allocator<bool> >
  00008	cc		 int	 3
  00009	cc		 int	 3
  0000a	cc		 int	 3
  0000b	cc		 int	 3
  0000c	cc		 int	 3
__ehhandler$?move@Player@@QAEXV?$tuple@W4DIRDEP@@W41@@std@@V?$vector@_NV?$allocator@_N@std@@@3@@Z:
  0000d	90		 npad	 1
  0000e	90		 npad	 1
  0000f	8b 54 24 08	 mov	 edx, DWORD PTR [esp+8]
  00013	8d 42 0c	 lea	 eax, DWORD PTR [edx+12]
  00016	8b 8a 3c ff ff
	ff		 mov	 ecx, DWORD PTR [edx-196]
  0001c	33 c8		 xor	 ecx, eax
  0001e	e8 00 00 00 00	 call	 @__security_check_cookie@4
  00023	b8 00 00 00 00	 mov	 eax, OFFSET __ehfuncinfo$?move@Player@@QAEXV?$tuple@W4DIRDEP@@W41@@std@@V?$vector@_NV?$allocator@_N@std@@@3@@Z
  00028	e9 00 00 00 00	 jmp	 ___CxxFrameHandler3
text$x	ENDS
?move@Player@@QAEXV?$tuple@W4DIRDEP@@W41@@std@@V?$vector@_NV?$allocator@_N@std@@@3@@Z ENDP ; Player::move
; Function compile flags: /Odtp /RTCsu
; File C:\Users\theob\Documents\GitHub\as-pts1\rendu2\Player.cpp
; File C:\Users\theob\Documents\GitHub\as-pts1\rendu2\Player.h
; File C:\Users\theob\Documents\GitHub\as-pts1\rendu2\Player.cpp
_TEXT	SEGMENT
tv224 = -164						; size = 4
tv240 = -160						; size = 4
tv235 = -156						; size = 4
tv218 = -152						; size = 4
tv210 = -148						; size = 4
tv212 = -144						; size = 4
tv200 = -140						; size = 4
tv185 = -136						; size = 4
tv184 = -132						; size = 4
tv164 = -128						; size = 4
tv153 = -124						; size = 4
tv134 = -120						; size = 4
tv80 = -116						; size = 4
$T2 = -112						; size = 4
$T3 = -108						; size = 4
$T4 = -104						; size = 16
$T5 = -88						; size = 4
$T6 = -84						; size = 4
$T7 = -77						; size = 1
$T8 = -76						; size = 4
$T9 = -72						; size = 4
$T10 = -68						; size = 4
$T11 = -64						; size = 4
$T12 = -60						; size = 4
$T13 = -56						; size = 4
$T14 = -52						; size = 4
$T15 = -48						; size = 8
_tex$16 = -36						; size = 4
_i$17 = -28						; size = 4
_texrect$ = -24						; size = 4
_this$ = -20						; size = 4
__$ArrayPad$ = -16					; size = 4
__$EHRec$ = -12						; size = 12
_x$ = 8							; size = 4
_y$ = 12						; size = 4
_imgs$ = 16						; size = 4
??0Player@@QAE@HHPAV?$vector@PAVImage@sf@@V?$allocator@PAVImage@sf@@@std@@@std@@@Z PROC ; Player::Player
; _this$ = ecx

; 4    : {

  00000	55		 push	 ebp
  00001	8b ec		 mov	 ebp, esp
  00003	6a ff		 push	 -1
  00005	68 00 00 00 00	 push	 __ehhandler$??0Player@@QAE@HHPAV?$vector@PAVImage@sf@@V?$allocator@PAVImage@sf@@@std@@@std@@@Z
  0000a	64 a1 00 00 00
	00		 mov	 eax, DWORD PTR fs:0
  00010	50		 push	 eax
  00011	81 ec 98 00 00
	00		 sub	 esp, 152		; 00000098H
  00017	56		 push	 esi
  00018	57		 push	 edi
  00019	51		 push	 ecx
  0001a	8d bd 5c ff ff
	ff		 lea	 edi, DWORD PTR [ebp-164]
  00020	b9 26 00 00 00	 mov	 ecx, 38			; 00000026H
  00025	b8 cc cc cc cc	 mov	 eax, -858993460		; ccccccccH
  0002a	f3 ab		 rep stosd
  0002c	59		 pop	 ecx
  0002d	a1 00 00 00 00	 mov	 eax, DWORD PTR ___security_cookie
  00032	33 c5		 xor	 eax, ebp
  00034	89 45 f0	 mov	 DWORD PTR __$ArrayPad$[ebp], eax
  00037	50		 push	 eax
  00038	8d 45 f4	 lea	 eax, DWORD PTR __$EHRec$[ebp]
  0003b	64 a3 00 00 00
	00		 mov	 DWORD PTR fs:0, eax
  00041	89 4d ec	 mov	 DWORD PTR _this$[ebp], ecx
  00044	b9 00 00 00 00	 mov	 ecx, OFFSET __4D0513DE_Player@cpp
  00049	e8 00 00 00 00	 call	 @__CheckForDebuggerJustMyCode@4
; File C:\Users\theob\Documents\GitHub\as-pts1\rendu2\Player.h

; 8    : 	int _x = 0;

  0004e	8b 45 ec	 mov	 eax, DWORD PTR _this$[ebp]
  00051	c7 00 00 00 00
	00		 mov	 DWORD PTR [eax], 0

; 9    : 	int _y = 0;

  00057	8b 4d ec	 mov	 ecx, DWORD PTR _this$[ebp]
  0005a	c7 41 04 00 00
	00 00		 mov	 DWORD PTR [ecx+4], 0

; 10   : 	sf::IntRect* _rect;
; 11   : 	std::vector <sf::Sprite*>* _sprite;
; 12   : 	std::vector<sf::Texture*>* _tex;
; 13   : 	float _accel = 0;

  00061	8b 55 ec	 mov	 edx, DWORD PTR _this$[ebp]
  00064	0f 57 c0	 xorps	 xmm0, xmm0
  00067	f3 0f 11 42 14	 movss	 DWORD PTR [edx+20], xmm0

; 14   : 	int _maxX;
; 15   : 	enum places { LEFT = 0, RIGHT = 1, UP = 2, DOWN = 3 };
; 16   : 	int _place = 0;

  0006c	8b 45 ec	 mov	 eax, DWORD PTR _this$[ebp]
  0006f	c7 40 1c 00 00
	00 00		 mov	 DWORD PTR [eax+28], 0
; File C:\Users\theob\Documents\GitHub\as-pts1\rendu2\Player.cpp

; 4    : {

  00076	8b 4d ec	 mov	 ecx, DWORD PTR _this$[ebp]
  00079	83 c1 20	 add	 ecx, 32			; 00000020H
  0007c	e8 00 00 00 00	 call	 ??0?$Vector2@I@sf@@QAE@XZ ; sf::Vector2<unsigned int>::Vector2<unsigned int>

; 5    : 	_x = x;

  00081	8b 4d ec	 mov	 ecx, DWORD PTR _this$[ebp]
  00084	8b 55 08	 mov	 edx, DWORD PTR _x$[ebp]
  00087	89 11		 mov	 DWORD PTR [ecx], edx

; 6    : 	_y = y;

  00089	8b 45 ec	 mov	 eax, DWORD PTR _this$[ebp]
  0008c	8b 4d 0c	 mov	 ecx, DWORD PTR _y$[ebp]
  0008f	89 48 04	 mov	 DWORD PTR [eax+4], ecx

; 7    : 	_size = imgs->at(0)->getSize();

  00092	6a 00		 push	 0
  00094	8b 4d 10	 mov	 ecx, DWORD PTR _imgs$[ebp]
  00097	e8 00 00 00 00	 call	 ?at@?$vector@PAVImage@sf@@V?$allocator@PAVImage@sf@@@std@@@std@@QAEAAPAVImage@sf@@I@Z ; std::vector<sf::Image *,std::allocator<sf::Image *> >::at
  0009c	8b 10		 mov	 edx, DWORD PTR [eax]
  0009e	89 55 8c	 mov	 DWORD PTR tv80[ebp], edx
  000a1	8b f4		 mov	 esi, esp
  000a3	8d 45 d0	 lea	 eax, DWORD PTR $T15[ebp]
  000a6	50		 push	 eax
  000a7	8b 4d 8c	 mov	 ecx, DWORD PTR tv80[ebp]
  000aa	ff 15 00 00 00
	00		 call	 DWORD PTR __imp_?getSize@Image@sf@@QBE?AV?$Vector2@I@2@XZ
  000b0	3b f4		 cmp	 esi, esp
  000b2	e8 00 00 00 00	 call	 __RTC_CheckEsp
  000b7	8b 08		 mov	 ecx, DWORD PTR [eax]
  000b9	8b 50 04	 mov	 edx, DWORD PTR [eax+4]
  000bc	8b 45 ec	 mov	 eax, DWORD PTR _this$[ebp]
  000bf	89 48 20	 mov	 DWORD PTR [eax+32], ecx
  000c2	89 50 24	 mov	 DWORD PTR [eax+36], edx

; 8    : 	_rect = new sf::IntRect(x, y,_size.x, _size.y);

  000c5	6a 10		 push	 16			; 00000010H
  000c7	e8 00 00 00 00	 call	 ??2@YAPAXI@Z		; operator new
  000cc	83 c4 04	 add	 esp, 4
  000cf	89 45 c8	 mov	 DWORD PTR $T13[ebp], eax
  000d2	c7 45 fc 00 00
	00 00		 mov	 DWORD PTR __$EHRec$[ebp+8], 0
  000d9	83 7d c8 00	 cmp	 DWORD PTR $T13[ebp], 0
  000dd	74 23		 je	 SHORT $LN6@Player
  000df	8b 4d ec	 mov	 ecx, DWORD PTR _this$[ebp]
  000e2	8b 51 24	 mov	 edx, DWORD PTR [ecx+36]
  000e5	52		 push	 edx
  000e6	8b 45 ec	 mov	 eax, DWORD PTR _this$[ebp]
  000e9	8b 48 20	 mov	 ecx, DWORD PTR [eax+32]
  000ec	51		 push	 ecx
  000ed	8b 55 0c	 mov	 edx, DWORD PTR _y$[ebp]
  000f0	52		 push	 edx
  000f1	8b 45 08	 mov	 eax, DWORD PTR _x$[ebp]
  000f4	50		 push	 eax
  000f5	8b 4d c8	 mov	 ecx, DWORD PTR $T13[ebp]
  000f8	e8 00 00 00 00	 call	 ??0?$Rect@H@sf@@QAE@HHHH@Z ; sf::Rect<int>::Rect<int>
  000fd	89 45 88	 mov	 DWORD PTR tv134[ebp], eax
  00100	eb 07		 jmp	 SHORT $LN7@Player
$LN6@Player:
  00102	c7 45 88 00 00
	00 00		 mov	 DWORD PTR tv134[ebp], 0
$LN7@Player:
  00109	8b 4d 88	 mov	 ecx, DWORD PTR tv134[ebp]
  0010c	89 4d cc	 mov	 DWORD PTR $T14[ebp], ecx
  0010f	c7 45 fc ff ff
	ff ff		 mov	 DWORD PTR __$EHRec$[ebp+8], -1
  00116	8b 55 ec	 mov	 edx, DWORD PTR _this$[ebp]
  00119	8b 45 cc	 mov	 eax, DWORD PTR $T14[ebp]
  0011c	89 42 08	 mov	 DWORD PTR [edx+8], eax

; 9    : 	sf::IntRect* texrect = new sf::IntRect(0, 0, _size.x, _size.y);

  0011f	6a 10		 push	 16			; 00000010H
  00121	e8 00 00 00 00	 call	 ??2@YAPAXI@Z		; operator new
  00126	83 c4 04	 add	 esp, 4
  00129	89 45 c0	 mov	 DWORD PTR $T11[ebp], eax
  0012c	c7 45 fc 01 00
	00 00		 mov	 DWORD PTR __$EHRec$[ebp+8], 1
  00133	83 7d c0 00	 cmp	 DWORD PTR $T11[ebp], 0
  00137	74 1f		 je	 SHORT $LN8@Player
  00139	8b 4d ec	 mov	 ecx, DWORD PTR _this$[ebp]
  0013c	8b 51 24	 mov	 edx, DWORD PTR [ecx+36]
  0013f	52		 push	 edx
  00140	8b 45 ec	 mov	 eax, DWORD PTR _this$[ebp]
  00143	8b 48 20	 mov	 ecx, DWORD PTR [eax+32]
  00146	51		 push	 ecx
  00147	6a 00		 push	 0
  00149	6a 00		 push	 0
  0014b	8b 4d c0	 mov	 ecx, DWORD PTR $T11[ebp]
  0014e	e8 00 00 00 00	 call	 ??0?$Rect@H@sf@@QAE@HHHH@Z ; sf::Rect<int>::Rect<int>
  00153	89 45 84	 mov	 DWORD PTR tv153[ebp], eax
  00156	eb 07		 jmp	 SHORT $LN9@Player
$LN8@Player:
  00158	c7 45 84 00 00
	00 00		 mov	 DWORD PTR tv153[ebp], 0
$LN9@Player:
  0015f	8b 55 84	 mov	 edx, DWORD PTR tv153[ebp]
  00162	89 55 c4	 mov	 DWORD PTR $T12[ebp], edx
  00165	c7 45 fc ff ff
	ff ff		 mov	 DWORD PTR __$EHRec$[ebp+8], -1
  0016c	8b 45 c4	 mov	 eax, DWORD PTR $T12[ebp]
  0016f	89 45 e8	 mov	 DWORD PTR _texrect$[ebp], eax

; 10   : 	 _tex = new std::vector<sf::Texture*>;

  00172	6a 10		 push	 16			; 00000010H
  00174	e8 00 00 00 00	 call	 ??2@YAPAXI@Z		; operator new
  00179	83 c4 04	 add	 esp, 4
  0017c	89 45 bc	 mov	 DWORD PTR $T10[ebp], eax
  0017f	83 7d bc 00	 cmp	 DWORD PTR $T10[ebp], 0
  00183	74 17		 je	 SHORT $LN10@Player
  00185	6a 10		 push	 16			; 00000010H
  00187	8b 4d bc	 mov	 ecx, DWORD PTR $T10[ebp]
  0018a	e8 00 00 00 00	 call	 ?__autoclassinit2@?$vector@PAVTexture@sf@@V?$allocator@PAVTexture@sf@@@std@@@std@@QAEXI@Z
  0018f	8b 4d bc	 mov	 ecx, DWORD PTR $T10[ebp]
  00192	e8 00 00 00 00	 call	 ??0?$vector@PAVTexture@sf@@V?$allocator@PAVTexture@sf@@@std@@@std@@QAE@XZ ; std::vector<sf::Texture *,std::allocator<sf::Texture *> >::vector<sf::Texture *,std::allocator<sf::Texture *> >
  00197	89 45 80	 mov	 DWORD PTR tv164[ebp], eax
  0019a	eb 07		 jmp	 SHORT $LN11@Player
$LN10@Player:
  0019c	c7 45 80 00 00
	00 00		 mov	 DWORD PTR tv164[ebp], 0
$LN11@Player:
  001a3	8b 4d ec	 mov	 ecx, DWORD PTR _this$[ebp]
  001a6	8b 55 80	 mov	 edx, DWORD PTR tv164[ebp]
  001a9	89 51 10	 mov	 DWORD PTR [ecx+16], edx

; 11   : 	_sprite = new std::vector <sf::Sprite*>(4);

  001ac	6a 10		 push	 16			; 00000010H
  001ae	e8 00 00 00 00	 call	 ??2@YAPAXI@Z		; operator new
  001b3	83 c4 04	 add	 esp, 4
  001b6	89 45 b4	 mov	 DWORD PTR $T8[ebp], eax
  001b9	c7 45 fc 02 00
	00 00		 mov	 DWORD PTR __$EHRec$[ebp+8], 2
  001c0	83 7d b4 00	 cmp	 DWORD PTR $T8[ebp], 0
  001c4	74 31		 je	 SHORT $LN12@Player
  001c6	6a 10		 push	 16			; 00000010H
  001c8	8b 4d b4	 mov	 ecx, DWORD PTR $T8[ebp]
  001cb	e8 00 00 00 00	 call	 ?__autoclassinit2@?$vector@PAVSprite@sf@@V?$allocator@PAVSprite@sf@@@std@@@std@@QAEXI@Z
  001d0	8d 4d b3	 lea	 ecx, DWORD PTR $T7[ebp]
  001d3	e8 00 00 00 00	 call	 ??0?$allocator@PAVSprite@sf@@@std@@QAE@XZ ; std::allocator<sf::Sprite *>::allocator<sf::Sprite *>
  001d8	89 85 7c ff ff
	ff		 mov	 DWORD PTR tv184[ebp], eax
  001de	8b 85 7c ff ff
	ff		 mov	 eax, DWORD PTR tv184[ebp]
  001e4	50		 push	 eax
  001e5	6a 04		 push	 4
  001e7	8b 4d b4	 mov	 ecx, DWORD PTR $T8[ebp]
  001ea	e8 00 00 00 00	 call	 ??0?$vector@PAVSprite@sf@@V?$allocator@PAVSprite@sf@@@std@@@std@@QAE@IABV?$allocator@PAVSprite@sf@@@1@@Z ; std::vector<sf::Sprite *,std::allocator<sf::Sprite *> >::vector<sf::Sprite *,std::allocator<sf::Sprite *> >
  001ef	89 85 78 ff ff
	ff		 mov	 DWORD PTR tv185[ebp], eax
  001f5	eb 0a		 jmp	 SHORT $LN13@Player
$LN12@Player:
  001f7	c7 85 78 ff ff
	ff 00 00 00 00	 mov	 DWORD PTR tv185[ebp], 0
$LN13@Player:
  00201	8b 8d 78 ff ff
	ff		 mov	 ecx, DWORD PTR tv185[ebp]
  00207	89 4d b8	 mov	 DWORD PTR $T9[ebp], ecx
  0020a	c7 45 fc ff ff
	ff ff		 mov	 DWORD PTR __$EHRec$[ebp+8], -1
  00211	8b 55 ec	 mov	 edx, DWORD PTR _this$[ebp]
  00214	8b 45 b8	 mov	 eax, DWORD PTR $T9[ebp]
  00217	89 42 0c	 mov	 DWORD PTR [edx+12], eax

; 12   : 	for (uint32_t i = 0; i < imgs->size(); i++) {

  0021a	c7 45 e4 00 00
	00 00		 mov	 DWORD PTR _i$17[ebp], 0
  00221	eb 09		 jmp	 SHORT $LN4@Player
$LN2@Player:
  00223	8b 4d e4	 mov	 ecx, DWORD PTR _i$17[ebp]
  00226	83 c1 01	 add	 ecx, 1
  00229	89 4d e4	 mov	 DWORD PTR _i$17[ebp], ecx
$LN4@Player:
  0022c	8b 4d 10	 mov	 ecx, DWORD PTR _imgs$[ebp]
  0022f	e8 00 00 00 00	 call	 ?size@?$vector@PAVImage@sf@@V?$allocator@PAVImage@sf@@@std@@@std@@QBEIXZ ; std::vector<sf::Image *,std::allocator<sf::Image *> >::size
  00234	39 45 e4	 cmp	 DWORD PTR _i$17[ebp], eax
  00237	0f 83 65 01 00
	00		 jae	 $LN3@Player

; 13   : 		sf::Texture *tex = new sf::Texture();

  0023d	6a 28		 push	 40			; 00000028H
  0023f	e8 00 00 00 00	 call	 ??2@YAPAXI@Z		; operator new
  00244	83 c4 04	 add	 esp, 4
  00247	89 45 a8	 mov	 DWORD PTR $T5[ebp], eax
  0024a	c7 45 fc 03 00
	00 00		 mov	 DWORD PTR __$EHRec$[ebp+8], 3
  00251	83 7d a8 00	 cmp	 DWORD PTR $T5[ebp], 0
  00255	74 1a		 je	 SHORT $LN14@Player
  00257	8b f4		 mov	 esi, esp
  00259	8b 4d a8	 mov	 ecx, DWORD PTR $T5[ebp]
  0025c	ff 15 00 00 00
	00		 call	 DWORD PTR __imp_??0Texture@sf@@QAE@XZ
  00262	3b f4		 cmp	 esi, esp
  00264	e8 00 00 00 00	 call	 __RTC_CheckEsp
  00269	89 85 74 ff ff
	ff		 mov	 DWORD PTR tv200[ebp], eax
  0026f	eb 0a		 jmp	 SHORT $LN15@Player
$LN14@Player:
  00271	c7 85 74 ff ff
	ff 00 00 00 00	 mov	 DWORD PTR tv200[ebp], 0
$LN15@Player:
  0027b	8b 95 74 ff ff
	ff		 mov	 edx, DWORD PTR tv200[ebp]
  00281	89 55 ac	 mov	 DWORD PTR $T6[ebp], edx
  00284	c7 45 fc ff ff
	ff ff		 mov	 DWORD PTR __$EHRec$[ebp+8], -1
  0028b	8b 45 ac	 mov	 eax, DWORD PTR $T6[ebp]
  0028e	89 45 dc	 mov	 DWORD PTR _tex$16[ebp], eax

; 14   : 		tex->loadFromImage(*imgs->at(i));

  00291	8d 4d 98	 lea	 ecx, DWORD PTR $T4[ebp]
  00294	e8 00 00 00 00	 call	 ??0?$Rect@H@sf@@QAE@XZ	; sf::Rect<int>::Rect<int>
  00299	89 85 70 ff ff
	ff		 mov	 DWORD PTR tv212[ebp], eax
  0029f	8b 4d e4	 mov	 ecx, DWORD PTR _i$17[ebp]
  002a2	51		 push	 ecx
  002a3	8b 4d 10	 mov	 ecx, DWORD PTR _imgs$[ebp]
  002a6	e8 00 00 00 00	 call	 ?at@?$vector@PAVImage@sf@@V?$allocator@PAVImage@sf@@@std@@@std@@QAEAAPAVImage@sf@@I@Z ; std::vector<sf::Image *,std::allocator<sf::Image *> >::at
  002ab	8b 10		 mov	 edx, DWORD PTR [eax]
  002ad	89 95 6c ff ff
	ff		 mov	 DWORD PTR tv210[ebp], edx
  002b3	8b f4		 mov	 esi, esp
  002b5	8b 85 70 ff ff
	ff		 mov	 eax, DWORD PTR tv212[ebp]
  002bb	50		 push	 eax
  002bc	8b 8d 6c ff ff
	ff		 mov	 ecx, DWORD PTR tv210[ebp]
  002c2	51		 push	 ecx
  002c3	8b 4d dc	 mov	 ecx, DWORD PTR _tex$16[ebp]
  002c6	ff 15 00 00 00
	00		 call	 DWORD PTR __imp_?loadFromImage@Texture@sf@@QAE_NABVImage@2@ABV?$Rect@H@2@@Z
  002cc	3b f4		 cmp	 esi, esp
  002ce	e8 00 00 00 00	 call	 __RTC_CheckEsp

; 15   : 		tex->setSmooth(true);

  002d3	8b f4		 mov	 esi, esp
  002d5	6a 01		 push	 1
  002d7	8b 4d dc	 mov	 ecx, DWORD PTR _tex$16[ebp]
  002da	ff 15 00 00 00
	00		 call	 DWORD PTR __imp_?setSmooth@Texture@sf@@QAEX_N@Z
  002e0	3b f4		 cmp	 esi, esp
  002e2	e8 00 00 00 00	 call	 __RTC_CheckEsp

; 16   : 		_tex->push_back(tex);

  002e7	8b 55 ec	 mov	 edx, DWORD PTR _this$[ebp]
  002ea	8b 42 10	 mov	 eax, DWORD PTR [edx+16]
  002ed	89 85 68 ff ff
	ff		 mov	 DWORD PTR tv218[ebp], eax
  002f3	8d 4d dc	 lea	 ecx, DWORD PTR _tex$16[ebp]
  002f6	51		 push	 ecx
  002f7	8b 8d 68 ff ff
	ff		 mov	 ecx, DWORD PTR tv218[ebp]
  002fd	e8 00 00 00 00	 call	 ?push_back@?$vector@PAVTexture@sf@@V?$allocator@PAVTexture@sf@@@std@@@std@@QAEXABQAVTexture@sf@@@Z ; std::vector<sf::Texture *,std::allocator<sf::Texture *> >::push_back

; 17   : 		_sprite->at(i) = new sf::Sprite(*tex, *texrect);

  00302	68 10 01 00 00	 push	 272			; 00000110H
  00307	e8 00 00 00 00	 call	 ??2@YAPAXI@Z		; operator new
  0030c	83 c4 04	 add	 esp, 4
  0030f	89 45 90	 mov	 DWORD PTR $T2[ebp], eax
  00312	c7 45 fc 04 00
	00 00		 mov	 DWORD PTR __$EHRec$[ebp+8], 4
  00319	83 7d 90 00	 cmp	 DWORD PTR $T2[ebp], 0
  0031d	74 38		 je	 SHORT $LN16@Player
  0031f	8b f4		 mov	 esi, esp
  00321	8b 55 e8	 mov	 edx, DWORD PTR _texrect$[ebp]
  00324	52		 push	 edx
  00325	8b 45 dc	 mov	 eax, DWORD PTR _tex$16[ebp]
  00328	50		 push	 eax
  00329	8b 4d 90	 mov	 ecx, DWORD PTR $T2[ebp]
  0032c	ff 15 00 00 00
	00		 call	 DWORD PTR __imp_??0Sprite@sf@@QAE@ABVTexture@1@ABV?$Rect@H@1@@Z
  00332	3b f4		 cmp	 esi, esp
  00334	e8 00 00 00 00	 call	 __RTC_CheckEsp
  00339	8b 4d 90	 mov	 ecx, DWORD PTR $T2[ebp]
  0033c	c7 01 00 00 00
	00		 mov	 DWORD PTR [ecx], OFFSET ??_SSprite@sf@@6BDrawable@1@@
  00342	8b 55 90	 mov	 edx, DWORD PTR $T2[ebp]
  00345	c7 42 04 00 00
	00 00		 mov	 DWORD PTR [edx+4], OFFSET ??_SSprite@sf@@6BTransformable@1@@
  0034c	8b 45 90	 mov	 eax, DWORD PTR $T2[ebp]
  0034f	89 85 64 ff ff
	ff		 mov	 DWORD PTR tv235[ebp], eax
  00355	eb 0a		 jmp	 SHORT $LN17@Player
$LN16@Player:
  00357	c7 85 64 ff ff
	ff 00 00 00 00	 mov	 DWORD PTR tv235[ebp], 0
$LN17@Player:
  00361	8b 8d 64 ff ff
	ff		 mov	 ecx, DWORD PTR tv235[ebp]
  00367	89 4d 94	 mov	 DWORD PTR $T3[ebp], ecx
  0036a	c7 45 fc ff ff
	ff ff		 mov	 DWORD PTR __$EHRec$[ebp+8], -1
  00371	8b 55 94	 mov	 edx, DWORD PTR $T3[ebp]
  00374	89 95 60 ff ff
	ff		 mov	 DWORD PTR tv240[ebp], edx
  0037a	8b 45 ec	 mov	 eax, DWORD PTR _this$[ebp]
  0037d	8b 48 0c	 mov	 ecx, DWORD PTR [eax+12]
  00380	89 8d 5c ff ff
	ff		 mov	 DWORD PTR tv224[ebp], ecx
  00386	8b 55 e4	 mov	 edx, DWORD PTR _i$17[ebp]
  00389	52		 push	 edx
  0038a	8b 8d 5c ff ff
	ff		 mov	 ecx, DWORD PTR tv224[ebp]
  00390	e8 00 00 00 00	 call	 ?at@?$vector@PAVSprite@sf@@V?$allocator@PAVSprite@sf@@@std@@@std@@QAEAAPAVSprite@sf@@I@Z ; std::vector<sf::Sprite *,std::allocator<sf::Sprite *> >::at
  00395	8b 8d 60 ff ff
	ff		 mov	 ecx, DWORD PTR tv240[ebp]
  0039b	89 08		 mov	 DWORD PTR [eax], ecx

; 18   : 	}

  0039d	e9 81 fe ff ff	 jmp	 $LN2@Player
$LN3@Player:

; 19   : 	_maxX = 0;

  003a2	8b 55 ec	 mov	 edx, DWORD PTR _this$[ebp]
  003a5	c7 42 18 00 00
	00 00		 mov	 DWORD PTR [edx+24], 0

; 20   : 
; 21   : }

  003ac	8b 45 ec	 mov	 eax, DWORD PTR _this$[ebp]
  003af	52		 push	 edx
  003b0	8b cd		 mov	 ecx, ebp
  003b2	50		 push	 eax
  003b3	8d 15 00 00 00
	00		 lea	 edx, DWORD PTR $LN26@Player
  003b9	e8 00 00 00 00	 call	 @_RTC_CheckStackVars@8
  003be	58		 pop	 eax
  003bf	5a		 pop	 edx
  003c0	8b 4d f4	 mov	 ecx, DWORD PTR __$EHRec$[ebp]
  003c3	64 89 0d 00 00
	00 00		 mov	 DWORD PTR fs:0, ecx
  003ca	59		 pop	 ecx
  003cb	5f		 pop	 edi
  003cc	5e		 pop	 esi
  003cd	8b 4d f0	 mov	 ecx, DWORD PTR __$ArrayPad$[ebp]
  003d0	33 cd		 xor	 ecx, ebp
  003d2	e8 00 00 00 00	 call	 @__security_check_cookie@4
  003d7	81 c4 a4 00 00
	00		 add	 esp, 164		; 000000a4H
  003dd	3b ec		 cmp	 ebp, esp
  003df	e8 00 00 00 00	 call	 __RTC_CheckEsp
  003e4	8b e5		 mov	 esp, ebp
  003e6	5d		 pop	 ebp
  003e7	c2 0c 00	 ret	 12			; 0000000cH
  003ea	66 90		 npad	 2
$LN26@Player:
  003ec	01 00 00 00	 DD	 1
  003f0	00 00 00 00	 DD	 $LN25@Player
$LN25@Player:
  003f4	dc ff ff ff	 DD	 -36			; ffffffdcH
  003f8	04 00 00 00	 DD	 4
  003fc	00 00 00 00	 DD	 $LN23@Player
$LN23@Player:
  00400	74		 DB	 116			; 00000074H
  00401	65		 DB	 101			; 00000065H
  00402	78		 DB	 120			; 00000078H
  00403	00		 DB	 0
_TEXT	ENDS
text$x	SEGMENT
__unwindfunclet$??0Player@@QAE@HHPAV?$vector@PAVImage@sf@@V?$allocator@PAVImage@sf@@@std@@@std@@@Z$0:
  00000	6a 10		 push	 16			; 00000010H
  00002	8b 45 c8	 mov	 eax, DWORD PTR $T13[ebp]
  00005	50		 push	 eax
  00006	e8 00 00 00 00	 call	 ??3@YAXPAXI@Z		; operator delete
  0000b	83 c4 08	 add	 esp, 8
  0000e	c3		 ret	 0
__unwindfunclet$??0Player@@QAE@HHPAV?$vector@PAVImage@sf@@V?$allocator@PAVImage@sf@@@std@@@std@@@Z$1:
  0000f	6a 10		 push	 16			; 00000010H
  00011	8b 45 c0	 mov	 eax, DWORD PTR $T11[ebp]
  00014	50		 push	 eax
  00015	e8 00 00 00 00	 call	 ??3@YAXPAXI@Z		; operator delete
  0001a	83 c4 08	 add	 esp, 8
  0001d	c3		 ret	 0
__unwindfunclet$??0Player@@QAE@HHPAV?$vector@PAVImage@sf@@V?$allocator@PAVImage@sf@@@std@@@std@@@Z$2:
  0001e	6a 10		 push	 16			; 00000010H
  00020	8b 45 b4	 mov	 eax, DWORD PTR $T8[ebp]
  00023	50		 push	 eax
  00024	e8 00 00 00 00	 call	 ??3@YAXPAXI@Z		; operator delete
  00029	83 c4 08	 add	 esp, 8
  0002c	c3		 ret	 0
__unwindfunclet$??0Player@@QAE@HHPAV?$vector@PAVImage@sf@@V?$allocator@PAVImage@sf@@@std@@@std@@@Z$3:
  0002d	6a 28		 push	 40			; 00000028H
  0002f	8b 45 a8	 mov	 eax, DWORD PTR $T5[ebp]
  00032	50		 push	 eax
  00033	e8 00 00 00 00	 call	 ??3@YAXPAXI@Z		; operator delete
  00038	83 c4 08	 add	 esp, 8
  0003b	c3		 ret	 0
__unwindfunclet$??0Player@@QAE@HHPAV?$vector@PAVImage@sf@@V?$allocator@PAVImage@sf@@@std@@@std@@@Z$4:
  0003c	68 10 01 00 00	 push	 272			; 00000110H
  00041	8b 45 90	 mov	 eax, DWORD PTR $T2[ebp]
  00044	50		 push	 eax
  00045	e8 00 00 00 00	 call	 ??3@YAXPAXI@Z		; operator delete
  0004a	83 c4 08	 add	 esp, 8
  0004d	c3		 ret	 0
  0004e	cc		 int	 3
  0004f	cc		 int	 3
  00050	cc		 int	 3
  00051	cc		 int	 3
  00052	cc		 int	 3
__ehhandler$??0Player@@QAE@HHPAV?$vector@PAVImage@sf@@V?$allocator@PAVImage@sf@@@std@@@std@@@Z:
  00053	90		 npad	 1
  00054	90		 npad	 1
  00055	8b 54 24 08	 mov	 edx, DWORD PTR [esp+8]
  00059	8d 42 0c	 lea	 eax, DWORD PTR [edx+12]
  0005c	8b 8a 5c ff ff
	ff		 mov	 ecx, DWORD PTR [edx-164]
  00062	33 c8		 xor	 ecx, eax
  00064	e8 00 00 00 00	 call	 @__security_check_cookie@4
  00069	8b 4a fc	 mov	 ecx, DWORD PTR [edx-4]
  0006c	33 c8		 xor	 ecx, eax
  0006e	e8 00 00 00 00	 call	 @__security_check_cookie@4
  00073	b8 00 00 00 00	 mov	 eax, OFFSET __ehfuncinfo$??0Player@@QAE@HHPAV?$vector@PAVImage@sf@@V?$allocator@PAVImage@sf@@@std@@@std@@@Z
  00078	e9 00 00 00 00	 jmp	 ___CxxFrameHandler3
text$x	ENDS
??0Player@@QAE@HHPAV?$vector@PAVImage@sf@@V?$allocator@PAVImage@sf@@@std@@@std@@@Z ENDP ; Player::Player
; Function compile flags: /Odtp /RTCsu
;	COMDAT ??_GSprite@sf@@UAEPAXI@Z
_TEXT	SEGMENT
_this$ = -4						; size = 4
___flags$ = 8						; size = 4
??_GSprite@sf@@UAEPAXI@Z PROC				; sf::Sprite::`scalar deleting destructor', COMDAT
; _this$ = ecx
  00000	55		 push	 ebp
  00001	8b ec		 mov	 ebp, esp
  00003	51		 push	 ecx
  00004	56		 push	 esi
  00005	c7 45 fc cc cc
	cc cc		 mov	 DWORD PTR [ebp-4], -858993460 ; ccccccccH
  0000c	89 4d fc	 mov	 DWORD PTR _this$[ebp], ecx
  0000f	8b f4		 mov	 esi, esp
  00011	8b 4d fc	 mov	 ecx, DWORD PTR _this$[ebp]
  00014	ff 15 00 00 00
	00		 call	 DWORD PTR __imp_??1Sprite@sf@@UAE@XZ
  0001a	3b f4		 cmp	 esi, esp
  0001c	e8 00 00 00 00	 call	 __RTC_CheckEsp
  00021	8b 45 08	 mov	 eax, DWORD PTR ___flags$[ebp]
  00024	83 e0 01	 and	 eax, 1
  00027	74 11		 je	 SHORT $LN2@scalar
  00029	68 10 01 00 00	 push	 272			; 00000110H
  0002e	8b 4d fc	 mov	 ecx, DWORD PTR _this$[ebp]
  00031	51		 push	 ecx
  00032	e8 00 00 00 00	 call	 ??3@YAXPAXI@Z		; operator delete
  00037	83 c4 08	 add	 esp, 8
$LN2@scalar:
  0003a	8b 45 fc	 mov	 eax, DWORD PTR _this$[ebp]
  0003d	5e		 pop	 esi
  0003e	83 c4 04	 add	 esp, 4
  00041	3b ec		 cmp	 ebp, esp
  00043	e8 00 00 00 00	 call	 __RTC_CheckEsp
  00048	8b e5		 mov	 esp, ebp
  0004a	5d		 pop	 ebp
  0004b	c2 04 00	 ret	 4
??_GSprite@sf@@UAEPAXI@Z ENDP				; sf::Sprite::`scalar deleting destructor'
_TEXT	ENDS
; Function compile flags: /Odtp /RTCsu
; File C:\Users\theob\Documents\GitHub\as-pts1\rendu2\vcpkg_installed\x86-windows\x86-windows\include\SFML\Graphics\Rect.inl
;	COMDAT ??0?$Rect@H@sf@@QAE@HHHH@Z
_TEXT	SEGMENT
_this$ = -4						; size = 4
_rectLeft$ = 8						; size = 4
_rectTop$ = 12						; size = 4
_rectWidth$ = 16					; size = 4
_rectHeight$ = 20					; size = 4
??0?$Rect@H@sf@@QAE@HHHH@Z PROC				; sf::Rect<int>::Rect<int>, COMDAT
; _this$ = ecx

; 45   : {

  00000	55		 push	 ebp
  00001	8b ec		 mov	 ebp, esp
  00003	51		 push	 ecx
  00004	c7 45 fc cc cc
	cc cc		 mov	 DWORD PTR [ebp-4], -858993460 ; ccccccccH
  0000b	89 4d fc	 mov	 DWORD PTR _this$[ebp], ecx
  0000e	b9 00 00 00 00	 mov	 ecx, OFFSET __C23CD225_Rect@inl
  00013	e8 00 00 00 00	 call	 @__CheckForDebuggerJustMyCode@4

; 41   : left  (rectLeft),

  00018	8b 45 fc	 mov	 eax, DWORD PTR _this$[ebp]
  0001b	8b 4d 08	 mov	 ecx, DWORD PTR _rectLeft$[ebp]
  0001e	89 08		 mov	 DWORD PTR [eax], ecx

; 42   : top   (rectTop),

  00020	8b 55 fc	 mov	 edx, DWORD PTR _this$[ebp]
  00023	8b 45 0c	 mov	 eax, DWORD PTR _rectTop$[ebp]
  00026	89 42 04	 mov	 DWORD PTR [edx+4], eax

; 43   : width (rectWidth),

  00029	8b 4d fc	 mov	 ecx, DWORD PTR _this$[ebp]
  0002c	8b 55 10	 mov	 edx, DWORD PTR _rectWidth$[ebp]
  0002f	89 51 08	 mov	 DWORD PTR [ecx+8], edx

; 44   : height(rectHeight)

  00032	8b 45 fc	 mov	 eax, DWORD PTR _this$[ebp]
  00035	8b 4d 14	 mov	 ecx, DWORD PTR _rectHeight$[ebp]
  00038	89 48 0c	 mov	 DWORD PTR [eax+12], ecx

; 46   : 
; 47   : }

  0003b	8b 45 fc	 mov	 eax, DWORD PTR _this$[ebp]
  0003e	83 c4 04	 add	 esp, 4
  00041	3b ec		 cmp	 ebp, esp
  00043	e8 00 00 00 00	 call	 __RTC_CheckEsp
  00048	8b e5		 mov	 esp, ebp
  0004a	5d		 pop	 ebp
  0004b	c2 10 00	 ret	 16			; 00000010H
??0?$Rect@H@sf@@QAE@HHHH@Z ENDP				; sf::Rect<int>::Rect<int>
_TEXT	ENDS
; Function compile flags: /Odtp /RTCsu
; File C:\Users\theob\Documents\GitHub\as-pts1\rendu2\vcpkg_installed\x86-windows\x86-windows\include\SFML\Graphics\Rect.inl
;	COMDAT ??0?$Rect@H@sf@@QAE@XZ
_TEXT	SEGMENT
_this$ = -4						; size = 4
??0?$Rect@H@sf@@QAE@XZ PROC				; sf::Rect<int>::Rect<int>, COMDAT
; _this$ = ecx

; 33   : {

  00000	55		 push	 ebp
  00001	8b ec		 mov	 ebp, esp
  00003	51		 push	 ecx
  00004	c7 45 fc cc cc
	cc cc		 mov	 DWORD PTR [ebp-4], -858993460 ; ccccccccH
  0000b	89 4d fc	 mov	 DWORD PTR _this$[ebp], ecx
  0000e	b9 00 00 00 00	 mov	 ecx, OFFSET __C23CD225_Rect@inl
  00013	e8 00 00 00 00	 call	 @__CheckForDebuggerJustMyCode@4

; 29   : left  (0),

  00018	8b 45 fc	 mov	 eax, DWORD PTR _this$[ebp]
  0001b	c7 00 00 00 00
	00		 mov	 DWORD PTR [eax], 0

; 30   : top   (0),

  00021	8b 4d fc	 mov	 ecx, DWORD PTR _this$[ebp]
  00024	c7 41 04 00 00
	00 00		 mov	 DWORD PTR [ecx+4], 0

; 31   : width (0),

  0002b	8b 55 fc	 mov	 edx, DWORD PTR _this$[ebp]
  0002e	c7 42 08 00 00
	00 00		 mov	 DWORD PTR [edx+8], 0

; 32   : height(0)

  00035	8b 45 fc	 mov	 eax, DWORD PTR _this$[ebp]
  00038	c7 40 0c 00 00
	00 00		 mov	 DWORD PTR [eax+12], 0

; 34   : 
; 35   : }

  0003f	8b 45 fc	 mov	 eax, DWORD PTR _this$[ebp]
  00042	83 c4 04	 add	 esp, 4
  00045	3b ec		 cmp	 ebp, esp
  00047	e8 00 00 00 00	 call	 __RTC_CheckEsp
  0004c	8b e5		 mov	 esp, ebp
  0004e	5d		 pop	 ebp
  0004f	c3		 ret	 0
??0?$Rect@H@sf@@QAE@XZ ENDP				; sf::Rect<int>::Rect<int>
_TEXT	ENDS
; Function compile flags: /Odtp /RTCsu
; File C:\Users\theob\Documents\GitHub\as-pts1\rendu2\vcpkg_installed\x86-windows\x86-windows\include\SFML\System\Vector2.inl
;	COMDAT ??0?$Vector2@I@sf@@QAE@XZ
_TEXT	SEGMENT
_this$ = -4						; size = 4
??0?$Vector2@I@sf@@QAE@XZ PROC				; sf::Vector2<unsigned int>::Vector2<unsigned int>, COMDAT
; _this$ = ecx

; 31   : {

  00000	55		 push	 ebp
  00001	8b ec		 mov	 ebp, esp
  00003	51		 push	 ecx
  00004	c7 45 fc cc cc
	cc cc		 mov	 DWORD PTR [ebp-4], -858993460 ; ccccccccH
  0000b	89 4d fc	 mov	 DWORD PTR _this$[ebp], ecx
  0000e	b9 00 00 00 00	 mov	 ecx, OFFSET __0A631FEE_Vector2@inl
  00013	e8 00 00 00 00	 call	 @__CheckForDebuggerJustMyCode@4

; 29   : x(0),

  00018	8b 45 fc	 mov	 eax, DWORD PTR _this$[ebp]
  0001b	c7 00 00 00 00
	00		 mov	 DWORD PTR [eax], 0

; 30   : y(0)

  00021	8b 4d fc	 mov	 ecx, DWORD PTR _this$[ebp]
  00024	c7 41 04 00 00
	00 00		 mov	 DWORD PTR [ecx+4], 0

; 32   : 
; 33   : }

  0002b	8b 45 fc	 mov	 eax, DWORD PTR _this$[ebp]
  0002e	83 c4 04	 add	 esp, 4
  00031	3b ec		 cmp	 ebp, esp
  00033	e8 00 00 00 00	 call	 __RTC_CheckEsp
  00038	8b e5		 mov	 esp, ebp
  0003a	5d		 pop	 ebp
  0003b	c3		 ret	 0
??0?$Vector2@I@sf@@QAE@XZ ENDP				; sf::Vector2<unsigned int>::Vector2<unsigned int>
_TEXT	ENDS
; Function compile flags: /Odtp /RTCsu
; File C:\Program Files (x86)\Microsoft Visual Studio\2019\Community\VC\Tools\MSVC\14.29.30133\include\xmemory
;	COMDAT ?deallocate@?$allocator@I@std@@QAEXQAII@Z
_TEXT	SEGMENT
_this$ = -4						; size = 4
__Ptr$ = 8						; size = 4
__Count$ = 12						; size = 4
?deallocate@?$allocator@I@std@@QAEXQAII@Z PROC		; std::allocator<unsigned int>::deallocate, COMDAT
; _this$ = ecx

; 833  :     _CONSTEXPR20_DYNALLOC void deallocate(_Ty* const _Ptr, const size_t _Count) {

  00000	55		 push	 ebp
  00001	8b ec		 mov	 ebp, esp
  00003	51		 push	 ecx
  00004	c7 45 fc cc cc
	cc cc		 mov	 DWORD PTR [ebp-4], -858993460 ; ccccccccH
  0000b	89 4d fc	 mov	 DWORD PTR _this$[ebp], ecx
  0000e	b9 00 00 00 00	 mov	 ecx, OFFSET __79D216CD_xmemory
  00013	e8 00 00 00 00	 call	 @__CheckForDebuggerJustMyCode@4

; 834  :         // no overflow check on the following multiply; we assume _Allocate did that check
; 835  :         _Deallocate<_New_alignof<_Ty>>(_Ptr, sizeof(_Ty) * _Count);

  00018	8b 45 0c	 mov	 eax, DWORD PTR __Count$[ebp]
  0001b	c1 e0 02	 shl	 eax, 2
  0001e	50		 push	 eax
  0001f	8b 4d 08	 mov	 ecx, DWORD PTR __Ptr$[ebp]
  00022	51		 push	 ecx
  00023	e8 00 00 00 00	 call	 ??$_Deallocate@$07$0A@@std@@YAXPAXI@Z ; std::_Deallocate<8,0>
  00028	83 c4 08	 add	 esp, 8

; 836  :     }

  0002b	83 c4 04	 add	 esp, 4
  0002e	3b ec		 cmp	 ebp, esp
  00030	e8 00 00 00 00	 call	 __RTC_CheckEsp
  00035	8b e5		 mov	 esp, ebp
  00037	5d		 pop	 ebp
  00038	c2 08 00	 ret	 8
?deallocate@?$allocator@I@std@@QAEXQAII@Z ENDP		; std::allocator<unsigned int>::deallocate
_TEXT	ENDS
; Function compile flags: /Odtp /RTCsu
; File C:\Program Files (x86)\Microsoft Visual Studio\2019\Community\VC\Tools\MSVC\14.29.30133\include\xloctime
;	COMDAT ??$_Getvals@_W@?$time_get@_WV?$istreambuf_iterator@_WU?$char_traits@_W@std@@@std@@@std@@IAEX_WABV_Locinfo@1@@Z
_TEXT	SEGMENT
$T1 = -48						; size = 44
_this$ = -4						; size = 4
___formal$ = 8						; size = 2
__Lobj$ = 12						; size = 4
??$_Getvals@_W@?$time_get@_WV?$istreambuf_iterator@_WU?$char_traits@_W@std@@@std@@@std@@IAEX_WABV_Locinfo@1@@Z PROC ; std::time_get<wchar_t,std::istreambuf_iterator<wchar_t,std::char_traits<wchar_t> > >::_Getvals<wchar_t>, COMDAT
; _this$ = ecx

; 173  :     void __CLR_OR_THIS_CALL _Getvals(_Elem2, const _Locinfo& _Lobj) { // get values

  00000	55		 push	 ebp
  00001	8b ec		 mov	 ebp, esp
  00003	83 ec 30	 sub	 esp, 48			; 00000030H
  00006	56		 push	 esi
  00007	57		 push	 edi
  00008	51		 push	 ecx
  00009	8d 7d d0	 lea	 edi, DWORD PTR [ebp-48]
  0000c	b9 0c 00 00 00	 mov	 ecx, 12			; 0000000cH
  00011	b8 cc cc cc cc	 mov	 eax, -858993460		; ccccccccH
  00016	f3 ab		 rep stosd
  00018	59		 pop	 ecx
  00019	89 4d fc	 mov	 DWORD PTR _this$[ebp], ecx
  0001c	b9 00 00 00 00	 mov	 ecx, OFFSET __D96D2425_xloctime
  00021	e8 00 00 00 00	 call	 @__CheckForDebuggerJustMyCode@4

; 174  :         _Cvt = _Lobj._Getcvt();

  00026	8b f4		 mov	 esi, esp
  00028	8d 45 d0	 lea	 eax, DWORD PTR $T1[ebp]
  0002b	50		 push	 eax
  0002c	8b 4d 0c	 mov	 ecx, DWORD PTR __Lobj$[ebp]
  0002f	ff 15 00 00 00
	00		 call	 DWORD PTR __imp_?_Getcvt@_Locinfo@std@@QBE?AU_Cvtvec@@XZ
  00035	3b f4		 cmp	 esi, esp
  00037	e8 00 00 00 00	 call	 __RTC_CheckEsp
  0003c	8b 7d fc	 mov	 edi, DWORD PTR _this$[ebp]
  0003f	83 c7 18	 add	 edi, 24			; 00000018H
  00042	b9 0b 00 00 00	 mov	 ecx, 11			; 0000000bH
  00047	8b f0		 mov	 esi, eax
  00049	f3 a5		 rep movsd

; 175  : 
; 176  :         if (is_same_v<_Elem2, wchar_t>) {

  0004b	b9 01 00 00 00	 mov	 ecx, 1
  00050	85 c9		 test	 ecx, ecx
  00052	74 57		 je	 SHORT $LN2@Getvals

; 177  :             _Days = reinterpret_cast<const _Elem*>(_Maklocwcs(reinterpret_cast<const wchar_t*>(_Lobj._W_Getdays())));

  00054	8b f4		 mov	 esi, esp
  00056	8b 4d 0c	 mov	 ecx, DWORD PTR __Lobj$[ebp]
  00059	ff 15 00 00 00
	00		 call	 DWORD PTR __imp_?_W_Getdays@_Locinfo@std@@QBEPBGXZ
  0005f	3b f4		 cmp	 esi, esp
  00061	e8 00 00 00 00	 call	 __RTC_CheckEsp
  00066	50		 push	 eax
  00067	e8 00 00 00 00	 call	 ?_Maklocwcs@std@@YAPA_WPB_W@Z ; std::_Maklocwcs
  0006c	83 c4 04	 add	 esp, 4
  0006f	8b 55 fc	 mov	 edx, DWORD PTR _this$[ebp]
  00072	89 42 08	 mov	 DWORD PTR [edx+8], eax

; 178  :             _Months =

  00075	8b f4		 mov	 esi, esp
  00077	8b 4d 0c	 mov	 ecx, DWORD PTR __Lobj$[ebp]
  0007a	ff 15 00 00 00
	00		 call	 DWORD PTR __imp_?_W_Getmonths@_Locinfo@std@@QBEPBGXZ
  00080	3b f4		 cmp	 esi, esp
  00082	e8 00 00 00 00	 call	 __RTC_CheckEsp
  00087	50		 push	 eax
  00088	e8 00 00 00 00	 call	 ?_Maklocwcs@std@@YAPA_WPB_W@Z ; std::_Maklocwcs
  0008d	83 c4 04	 add	 esp, 4
  00090	8b 4d fc	 mov	 ecx, DWORD PTR _this$[ebp]
  00093	89 41 0c	 mov	 DWORD PTR [ecx+12], eax

; 179  :                 reinterpret_cast<const _Elem*>(_Maklocwcs(reinterpret_cast<const wchar_t*>(_Lobj._W_Getmonths())));
; 180  :             _Ampm = reinterpret_cast<const _Elem*>(_Maklocwcs(L":AM:am:PM:pm"));

  00096	68 00 00 00 00	 push	 OFFSET ??_C@_1BK@MHIKGOKE@?$AA?3?$AAA?$AAM?$AA?3?$AAa?$AAm?$AA?3?$AAP?$AAM?$AA?3?$AAp?$AAm@
  0009b	e8 00 00 00 00	 call	 ?_Maklocwcs@std@@YAPA_WPB_W@Z ; std::_Maklocwcs
  000a0	83 c4 04	 add	 esp, 4
  000a3	8b 55 fc	 mov	 edx, DWORD PTR _this$[ebp]
  000a6	89 42 10	 mov	 DWORD PTR [edx+16], eax

; 181  :         } else {

  000a9	eb 70		 jmp	 SHORT $LN1@Getvals
$LN2@Getvals:

; 182  :             _Days   = _Maklocstr(_Lobj._Getdays(), static_cast<_Elem*>(nullptr), _Cvt);

  000ab	8b 45 fc	 mov	 eax, DWORD PTR _this$[ebp]
  000ae	83 c0 18	 add	 eax, 24			; 00000018H
  000b1	50		 push	 eax
  000b2	6a 00		 push	 0
  000b4	8b f4		 mov	 esi, esp
  000b6	8b 4d 0c	 mov	 ecx, DWORD PTR __Lobj$[ebp]
  000b9	ff 15 00 00 00
	00		 call	 DWORD PTR __imp_?_Getdays@_Locinfo@std@@QBEPBDXZ
  000bf	3b f4		 cmp	 esi, esp
  000c1	e8 00 00 00 00	 call	 __RTC_CheckEsp
  000c6	50		 push	 eax
  000c7	e8 00 00 00 00	 call	 ??$_Maklocstr@_W@std@@YAPA_WPBDPA_WABU_Cvtvec@@@Z ; std::_Maklocstr<wchar_t>
  000cc	83 c4 0c	 add	 esp, 12			; 0000000cH
  000cf	8b 4d fc	 mov	 ecx, DWORD PTR _this$[ebp]
  000d2	89 41 08	 mov	 DWORD PTR [ecx+8], eax

; 183  :             _Months = _Maklocstr(_Lobj._Getmonths(), static_cast<_Elem*>(nullptr), _Cvt);

  000d5	8b 55 fc	 mov	 edx, DWORD PTR _this$[ebp]
  000d8	83 c2 18	 add	 edx, 24			; 00000018H
  000db	52		 push	 edx
  000dc	6a 00		 push	 0
  000de	8b f4		 mov	 esi, esp
  000e0	8b 4d 0c	 mov	 ecx, DWORD PTR __Lobj$[ebp]
  000e3	ff 15 00 00 00
	00		 call	 DWORD PTR __imp_?_Getmonths@_Locinfo@std@@QBEPBDXZ
  000e9	3b f4		 cmp	 esi, esp
  000eb	e8 00 00 00 00	 call	 __RTC_CheckEsp
  000f0	50		 push	 eax
  000f1	e8 00 00 00 00	 call	 ??$_Maklocstr@_W@std@@YAPA_WPBDPA_WABU_Cvtvec@@@Z ; std::_Maklocstr<wchar_t>
  000f6	83 c4 0c	 add	 esp, 12			; 0000000cH
  000f9	8b 4d fc	 mov	 ecx, DWORD PTR _this$[ebp]
  000fc	89 41 0c	 mov	 DWORD PTR [ecx+12], eax

; 184  :             _Ampm   = _Maklocstr(":AM:am:PM:pm", static_cast<_Elem*>(nullptr), _Cvt);

  000ff	8b 55 fc	 mov	 edx, DWORD PTR _this$[ebp]
  00102	83 c2 18	 add	 edx, 24			; 00000018H
  00105	52		 push	 edx
  00106	6a 00		 push	 0
  00108	68 00 00 00 00	 push	 OFFSET ??_C@_0N@LPFKKEBD@?3AM?3am?3PM?3pm@
  0010d	e8 00 00 00 00	 call	 ??$_Maklocstr@_W@std@@YAPA_WPBDPA_WABU_Cvtvec@@@Z ; std::_Maklocstr<wchar_t>
  00112	83 c4 0c	 add	 esp, 12			; 0000000cH
  00115	8b 4d fc	 mov	 ecx, DWORD PTR _this$[ebp]
  00118	89 41 10	 mov	 DWORD PTR [ecx+16], eax
$LN1@Getvals:

; 185  :         }
; 186  :     }

  0011b	5f		 pop	 edi
  0011c	5e		 pop	 esi
  0011d	83 c4 30	 add	 esp, 48			; 00000030H
  00120	3b ec		 cmp	 ebp, esp
  00122	e8 00 00 00 00	 call	 __RTC_CheckEsp
  00127	8b e5		 mov	 esp, ebp
  00129	5d		 pop	 ebp
  0012a	c2 08 00	 ret	 8
??$_Getvals@_W@?$time_get@_WV?$istreambuf_iterator@_WU?$char_traits@_W@std@@@std@@@std@@IAEX_WABV_Locinfo@1@@Z ENDP ; std::time_get<wchar_t,std::istreambuf_iterator<wchar_t,std::char_traits<wchar_t> > >::_Getvals<wchar_t>
_TEXT	ENDS
; Function compile flags: /Odtp /RTCsu
; File C:\Program Files (x86)\Microsoft Visual Studio\2019\Community\VC\Tools\MSVC\14.29.30133\include\xloctime
;	COMDAT ??$_Getvals@_W@?$time_get@DV?$istreambuf_iterator@DU?$char_traits@D@std@@@std@@@std@@IAEX_WABV_Locinfo@1@@Z
_TEXT	SEGMENT
$T1 = -48						; size = 44
_this$ = -4						; size = 4
___formal$ = 8						; size = 2
__Lobj$ = 12						; size = 4
??$_Getvals@_W@?$time_get@DV?$istreambuf_iterator@DU?$char_traits@D@std@@@std@@@std@@IAEX_WABV_Locinfo@1@@Z PROC ; std::time_get<char,std::istreambuf_iterator<char,std::char_traits<char> > >::_Getvals<wchar_t>, COMDAT
; _this$ = ecx

; 173  :     void __CLR_OR_THIS_CALL _Getvals(_Elem2, const _Locinfo& _Lobj) { // get values

  00000	55		 push	 ebp
  00001	8b ec		 mov	 ebp, esp
  00003	83 ec 30	 sub	 esp, 48			; 00000030H
  00006	56		 push	 esi
  00007	57		 push	 edi
  00008	51		 push	 ecx
  00009	8d 7d d0	 lea	 edi, DWORD PTR [ebp-48]
  0000c	b9 0c 00 00 00	 mov	 ecx, 12			; 0000000cH
  00011	b8 cc cc cc cc	 mov	 eax, -858993460		; ccccccccH
  00016	f3 ab		 rep stosd
  00018	59		 pop	 ecx
  00019	89 4d fc	 mov	 DWORD PTR _this$[ebp], ecx
  0001c	b9 00 00 00 00	 mov	 ecx, OFFSET __D96D2425_xloctime
  00021	e8 00 00 00 00	 call	 @__CheckForDebuggerJustMyCode@4

; 174  :         _Cvt = _Lobj._Getcvt();

  00026	8b f4		 mov	 esi, esp
  00028	8d 45 d0	 lea	 eax, DWORD PTR $T1[ebp]
  0002b	50		 push	 eax
  0002c	8b 4d 0c	 mov	 ecx, DWORD PTR __Lobj$[ebp]
  0002f	ff 15 00 00 00
	00		 call	 DWORD PTR __imp_?_Getcvt@_Locinfo@std@@QBE?AU_Cvtvec@@XZ
  00035	3b f4		 cmp	 esi, esp
  00037	e8 00 00 00 00	 call	 __RTC_CheckEsp
  0003c	8b 7d fc	 mov	 edi, DWORD PTR _this$[ebp]
  0003f	83 c7 18	 add	 edi, 24			; 00000018H
  00042	b9 0b 00 00 00	 mov	 ecx, 11			; 0000000bH
  00047	8b f0		 mov	 esi, eax
  00049	f3 a5		 rep movsd

; 175  : 
; 176  :         if (is_same_v<_Elem2, wchar_t>) {

  0004b	b9 01 00 00 00	 mov	 ecx, 1
  00050	85 c9		 test	 ecx, ecx
  00052	74 57		 je	 SHORT $LN2@Getvals

; 177  :             _Days = reinterpret_cast<const _Elem*>(_Maklocwcs(reinterpret_cast<const wchar_t*>(_Lobj._W_Getdays())));

  00054	8b f4		 mov	 esi, esp
  00056	8b 4d 0c	 mov	 ecx, DWORD PTR __Lobj$[ebp]
  00059	ff 15 00 00 00
	00		 call	 DWORD PTR __imp_?_W_Getdays@_Locinfo@std@@QBEPBGXZ
  0005f	3b f4		 cmp	 esi, esp
  00061	e8 00 00 00 00	 call	 __RTC_CheckEsp
  00066	50		 push	 eax
  00067	e8 00 00 00 00	 call	 ?_Maklocwcs@std@@YAPA_WPB_W@Z ; std::_Maklocwcs
  0006c	83 c4 04	 add	 esp, 4
  0006f	8b 55 fc	 mov	 edx, DWORD PTR _this$[ebp]
  00072	89 42 08	 mov	 DWORD PTR [edx+8], eax

; 178  :             _Months =

  00075	8b f4		 mov	 esi, esp
  00077	8b 4d 0c	 mov	 ecx, DWORD PTR __Lobj$[ebp]
  0007a	ff 15 00 00 00
	00		 call	 DWORD PTR __imp_?_W_Getmonths@_Locinfo@std@@QBEPBGXZ
  00080	3b f4		 cmp	 esi, esp
  00082	e8 00 00 00 00	 call	 __RTC_CheckEsp
  00087	50		 push	 eax
  00088	e8 00 00 00 00	 call	 ?_Maklocwcs@std@@YAPA_WPB_W@Z ; std::_Maklocwcs
  0008d	83 c4 04	 add	 esp, 4
  00090	8b 4d fc	 mov	 ecx, DWORD PTR _this$[ebp]
  00093	89 41 0c	 mov	 DWORD PTR [ecx+12], eax

; 179  :                 reinterpret_cast<const _Elem*>(_Maklocwcs(reinterpret_cast<const wchar_t*>(_Lobj._W_Getmonths())));
; 180  :             _Ampm = reinterpret_cast<const _Elem*>(_Maklocwcs(L":AM:am:PM:pm"));

  00096	68 00 00 00 00	 push	 OFFSET ??_C@_1BK@MHIKGOKE@?$AA?3?$AAA?$AAM?$AA?3?$AAa?$AAm?$AA?3?$AAP?$AAM?$AA?3?$AAp?$AAm@
  0009b	e8 00 00 00 00	 call	 ?_Maklocwcs@std@@YAPA_WPB_W@Z ; std::_Maklocwcs
  000a0	83 c4 04	 add	 esp, 4
  000a3	8b 55 fc	 mov	 edx, DWORD PTR _this$[ebp]
  000a6	89 42 10	 mov	 DWORD PTR [edx+16], eax

; 181  :         } else {

  000a9	eb 70		 jmp	 SHORT $LN1@Getvals
$LN2@Getvals:

; 182  :             _Days   = _Maklocstr(_Lobj._Getdays(), static_cast<_Elem*>(nullptr), _Cvt);

  000ab	8b 45 fc	 mov	 eax, DWORD PTR _this$[ebp]
  000ae	83 c0 18	 add	 eax, 24			; 00000018H
  000b1	50		 push	 eax
  000b2	6a 00		 push	 0
  000b4	8b f4		 mov	 esi, esp
  000b6	8b 4d 0c	 mov	 ecx, DWORD PTR __Lobj$[ebp]
  000b9	ff 15 00 00 00
	00		 call	 DWORD PTR __imp_?_Getdays@_Locinfo@std@@QBEPBDXZ
  000bf	3b f4		 cmp	 esi, esp
  000c1	e8 00 00 00 00	 call	 __RTC_CheckEsp
  000c6	50		 push	 eax
  000c7	e8 00 00 00 00	 call	 ??$_Maklocstr@D@std@@YAPADPBDPADABU_Cvtvec@@@Z ; std::_Maklocstr<char>
  000cc	83 c4 0c	 add	 esp, 12			; 0000000cH
  000cf	8b 4d fc	 mov	 ecx, DWORD PTR _this$[ebp]
  000d2	89 41 08	 mov	 DWORD PTR [ecx+8], eax

; 183  :             _Months = _Maklocstr(_Lobj._Getmonths(), static_cast<_Elem*>(nullptr), _Cvt);

  000d5	8b 55 fc	 mov	 edx, DWORD PTR _this$[ebp]
  000d8	83 c2 18	 add	 edx, 24			; 00000018H
  000db	52		 push	 edx
  000dc	6a 00		 push	 0
  000de	8b f4		 mov	 esi, esp
  000e0	8b 4d 0c	 mov	 ecx, DWORD PTR __Lobj$[ebp]
  000e3	ff 15 00 00 00
	00		 call	 DWORD PTR __imp_?_Getmonths@_Locinfo@std@@QBEPBDXZ
  000e9	3b f4		 cmp	 esi, esp
  000eb	e8 00 00 00 00	 call	 __RTC_CheckEsp
  000f0	50		 push	 eax
  000f1	e8 00 00 00 00	 call	 ??$_Maklocstr@D@std@@YAPADPBDPADABU_Cvtvec@@@Z ; std::_Maklocstr<char>
  000f6	83 c4 0c	 add	 esp, 12			; 0000000cH
  000f9	8b 4d fc	 mov	 ecx, DWORD PTR _this$[ebp]
  000fc	89 41 0c	 mov	 DWORD PTR [ecx+12], eax

; 184  :             _Ampm   = _Maklocstr(":AM:am:PM:pm", static_cast<_Elem*>(nullptr), _Cvt);

  000ff	8b 55 fc	 mov	 edx, DWORD PTR _this$[ebp]
  00102	83 c2 18	 add	 edx, 24			; 00000018H
  00105	52		 push	 edx
  00106	6a 00		 push	 0
  00108	68 00 00 00 00	 push	 OFFSET ??_C@_0N@LPFKKEBD@?3AM?3am?3PM?3pm@
  0010d	e8 00 00 00 00	 call	 ??$_Maklocstr@D@std@@YAPADPBDPADABU_Cvtvec@@@Z ; std::_Maklocstr<char>
  00112	83 c4 0c	 add	 esp, 12			; 0000000cH
  00115	8b 4d fc	 mov	 ecx, DWORD PTR _this$[ebp]
  00118	89 41 10	 mov	 DWORD PTR [ecx+16], eax
$LN1@Getvals:

; 185  :         }
; 186  :     }

  0011b	5f		 pop	 edi
  0011c	5e		 pop	 esi
  0011d	83 c4 30	 add	 esp, 48			; 00000030H
  00120	3b ec		 cmp	 ebp, esp
  00122	e8 00 00 00 00	 call	 __RTC_CheckEsp
  00127	8b e5		 mov	 esp, ebp
  00129	5d		 pop	 ebp
  0012a	c2 08 00	 ret	 8
??$_Getvals@_W@?$time_get@DV?$istreambuf_iterator@DU?$char_traits@D@std@@@std@@@std@@IAEX_WABV_Locinfo@1@@Z ENDP ; std::time_get<char,std::istreambuf_iterator<char,std::char_traits<char> > >::_Getvals<wchar_t>
_TEXT	ENDS
; Function compile flags: /Odtp /RTCsu
; File C:\Program Files (x86)\Microsoft Visual Studio\2019\Community\VC\Tools\MSVC\14.29.30133\include\xlocale
;	COMDAT ??$_Maklocstr@D@std@@YAPADPBDPADABU_Cvtvec@@@Z
_TEXT	SEGMENT
__Ptrnext$1 = -12					; size = 4
__Ptrdest$ = -8						; size = 4
__Count$ = -4						; size = 4
__Ptr$ = 8						; size = 4
___formal$ = 12						; size = 4
___formal$ = 16						; size = 4
??$_Maklocstr@D@std@@YAPADPBDPADABU_Cvtvec@@@Z PROC	; std::_Maklocstr<char>, COMDAT

; 522  : _Elem* __CRTDECL _Maklocstr(const char* _Ptr, _Elem*, const _Locinfo::_Cvtvec&) {

  00000	55		 push	 ebp
  00001	8b ec		 mov	 ebp, esp
  00003	83 ec 0c	 sub	 esp, 12			; 0000000cH
  00006	56		 push	 esi
  00007	c7 45 f4 cc cc
	cc cc		 mov	 DWORD PTR [ebp-12], -858993460 ; ccccccccH
  0000e	c7 45 f8 cc cc
	cc cc		 mov	 DWORD PTR [ebp-8], -858993460 ; ccccccccH
  00015	c7 45 fc cc cc
	cc cc		 mov	 DWORD PTR [ebp-4], -858993460 ; ccccccccH
  0001c	b9 00 00 00 00	 mov	 ecx, OFFSET __D23FE460_xlocale
  00021	e8 00 00 00 00	 call	 @__CheckForDebuggerJustMyCode@4

; 523  :     // convert C string to _Elem sequence using _Cvtvec
; 524  :     size_t _Count = _CSTD strlen(_Ptr) + 1;

  00026	8b 45 08	 mov	 eax, DWORD PTR __Ptr$[ebp]
  00029	50		 push	 eax
  0002a	e8 00 00 00 00	 call	 _strlen
  0002f	83 c4 04	 add	 esp, 4
  00032	83 c0 01	 add	 eax, 1
  00035	89 45 fc	 mov	 DWORD PTR __Count$[ebp], eax

; 525  : 
; 526  :     _Elem* _Ptrdest = static_cast<_Elem*>(_calloc_dbg(_Count, sizeof(_Elem), _CRT_BLOCK, __FILE__, __LINE__));

  00038	8b f4		 mov	 esi, esp
  0003a	68 0e 02 00 00	 push	 526			; 0000020eH
  0003f	68 00 00 00 00	 push	 OFFSET $SG89949
  00044	6a 02		 push	 2
  00046	6a 01		 push	 1
  00048	8b 4d fc	 mov	 ecx, DWORD PTR __Count$[ebp]
  0004b	51		 push	 ecx
  0004c	ff 15 00 00 00
	00		 call	 DWORD PTR __imp___calloc_dbg
  00052	83 c4 14	 add	 esp, 20			; 00000014H
  00055	3b f4		 cmp	 esi, esp
  00057	e8 00 00 00 00	 call	 __RTC_CheckEsp
  0005c	89 45 f8	 mov	 DWORD PTR __Ptrdest$[ebp], eax

; 527  : 
; 528  :     if (!_Ptrdest) {

  0005f	83 7d f8 00	 cmp	 DWORD PTR __Ptrdest$[ebp], 0
  00063	75 05		 jne	 SHORT $LN5@Maklocstr

; 529  :         _Xbad_alloc();

  00065	e8 00 00 00 00	 call	 ?_Xbad_alloc@std@@YAXXZ	; std::_Xbad_alloc
$LN5@Maklocstr:

; 530  :     }
; 531  : 
; 532  :     for (_Elem* _Ptrnext = _Ptrdest; 0 < _Count; --_Count, ++_Ptrnext, ++_Ptr) {

  0006a	8b 55 f8	 mov	 edx, DWORD PTR __Ptrdest$[ebp]
  0006d	89 55 f4	 mov	 DWORD PTR __Ptrnext$1[ebp], edx
  00070	eb 1b		 jmp	 SHORT $LN4@Maklocstr
$LN2@Maklocstr:
  00072	8b 45 fc	 mov	 eax, DWORD PTR __Count$[ebp]
  00075	83 e8 01	 sub	 eax, 1
  00078	89 45 fc	 mov	 DWORD PTR __Count$[ebp], eax
  0007b	8b 4d f4	 mov	 ecx, DWORD PTR __Ptrnext$1[ebp]
  0007e	83 c1 01	 add	 ecx, 1
  00081	89 4d f4	 mov	 DWORD PTR __Ptrnext$1[ebp], ecx
  00084	8b 55 08	 mov	 edx, DWORD PTR __Ptr$[ebp]
  00087	83 c2 01	 add	 edx, 1
  0008a	89 55 08	 mov	 DWORD PTR __Ptr$[ebp], edx
$LN4@Maklocstr:
  0008d	83 7d fc 00	 cmp	 DWORD PTR __Count$[ebp], 0
  00091	76 0c		 jbe	 SHORT $LN3@Maklocstr

; 533  :         *_Ptrnext = static_cast<_Elem>(static_cast<unsigned char>(*_Ptr));

  00093	8b 45 f4	 mov	 eax, DWORD PTR __Ptrnext$1[ebp]
  00096	8b 4d 08	 mov	 ecx, DWORD PTR __Ptr$[ebp]
  00099	8a 11		 mov	 dl, BYTE PTR [ecx]
  0009b	88 10		 mov	 BYTE PTR [eax], dl

; 534  :     }

  0009d	eb d3		 jmp	 SHORT $LN2@Maklocstr
$LN3@Maklocstr:

; 535  : 
; 536  :     return _Ptrdest;

  0009f	8b 45 f8	 mov	 eax, DWORD PTR __Ptrdest$[ebp]
$LN6@Maklocstr:

; 537  : }

  000a2	5e		 pop	 esi
  000a3	83 c4 0c	 add	 esp, 12			; 0000000cH
  000a6	3b ec		 cmp	 ebp, esp
  000a8	e8 00 00 00 00	 call	 __RTC_CheckEsp
  000ad	8b e5		 mov	 esp, ebp
  000af	5d		 pop	 ebp
  000b0	c3		 ret	 0
??$_Maklocstr@D@std@@YAPADPBDPADABU_Cvtvec@@@Z ENDP	; std::_Maklocstr<char>
_TEXT	ENDS
; Function compile flags: /Odtp /RTCsu
; File C:\Program Files (x86)\Microsoft Visual Studio\2019\Community\VC\Tools\MSVC\14.29.30133\include\xlocnum
;	COMDAT ?_Maklocwcs@std@@YAPA_WPB_W@Z
_TEXT	SEGMENT
__Ptrdest$ = -8						; size = 4
__Count$ = -4						; size = 4
__Ptr$ = 8						; size = 4
?_Maklocwcs@std@@YAPA_WPB_W@Z PROC			; std::_Maklocwcs, COMDAT

; 90   : inline wchar_t* _Maklocwcs(const wchar_t* _Ptr) { // copy NTWCS to allocated storage

  00000	55		 push	 ebp
  00001	8b ec		 mov	 ebp, esp
  00003	83 ec 08	 sub	 esp, 8
  00006	56		 push	 esi
  00007	c7 45 f8 cc cc
	cc cc		 mov	 DWORD PTR [ebp-8], -858993460 ; ccccccccH
  0000e	c7 45 fc cc cc
	cc cc		 mov	 DWORD PTR [ebp-4], -858993460 ; ccccccccH
  00015	b9 00 00 00 00	 mov	 ecx, OFFSET __4CB88277_xlocnum
  0001a	e8 00 00 00 00	 call	 @__CheckForDebuggerJustMyCode@4

; 91   :     const size_t _Count = _CSTD wcslen(_Ptr) + 1;

  0001f	8b f4		 mov	 esi, esp
  00021	8b 45 08	 mov	 eax, DWORD PTR __Ptr$[ebp]
  00024	50		 push	 eax
  00025	ff 15 00 00 00
	00		 call	 DWORD PTR __imp__wcslen
  0002b	83 c4 04	 add	 esp, 4
  0002e	3b f4		 cmp	 esi, esp
  00030	e8 00 00 00 00	 call	 __RTC_CheckEsp
  00035	83 c0 01	 add	 eax, 1
  00038	89 45 fc	 mov	 DWORD PTR __Count$[ebp], eax

; 92   : 
; 93   :     wchar_t* _Ptrdest = static_cast<wchar_t*>(_calloc_dbg(_Count, sizeof(wchar_t), _CRT_BLOCK, __FILE__, __LINE__));

  0003b	8b f4		 mov	 esi, esp
  0003d	6a 5d		 push	 93			; 0000005dH
  0003f	68 00 00 00 00	 push	 OFFSET ??_C@_0GI@OGMNKBMN@C?3?2Program?5Files?5?$CIx86?$CJ?2Microsof@
  00044	6a 02		 push	 2
  00046	6a 02		 push	 2
  00048	8b 4d fc	 mov	 ecx, DWORD PTR __Count$[ebp]
  0004b	51		 push	 ecx
  0004c	ff 15 00 00 00
	00		 call	 DWORD PTR __imp___calloc_dbg
  00052	83 c4 14	 add	 esp, 20			; 00000014H
  00055	3b f4		 cmp	 esi, esp
  00057	e8 00 00 00 00	 call	 __RTC_CheckEsp
  0005c	89 45 f8	 mov	 DWORD PTR __Ptrdest$[ebp], eax

; 94   : 
; 95   :     if (!_Ptrdest) {

  0005f	83 7d f8 00	 cmp	 DWORD PTR __Ptrdest$[ebp], 0
  00063	75 05		 jne	 SHORT $LN2@Maklocwcs

; 96   :         _Xbad_alloc();

  00065	e8 00 00 00 00	 call	 ?_Xbad_alloc@std@@YAXXZ	; std::_Xbad_alloc
$LN2@Maklocwcs:

; 97   :     }
; 98   : 
; 99   :     _CSTD wmemcpy(_Ptrdest, _Ptr, _Count);

  0006a	8b 55 fc	 mov	 edx, DWORD PTR __Count$[ebp]
  0006d	52		 push	 edx
  0006e	8b 45 08	 mov	 eax, DWORD PTR __Ptr$[ebp]
  00071	50		 push	 eax
  00072	8b 4d f8	 mov	 ecx, DWORD PTR __Ptrdest$[ebp]
  00075	51		 push	 ecx
  00076	e8 00 00 00 00	 call	 _wmemcpy
  0007b	83 c4 0c	 add	 esp, 12			; 0000000cH

; 100  :     return _Ptrdest;

  0007e	8b 45 f8	 mov	 eax, DWORD PTR __Ptrdest$[ebp]
$LN3@Maklocwcs:

; 101  : }

  00081	5e		 pop	 esi
  00082	83 c4 08	 add	 esp, 8
  00085	3b ec		 cmp	 ebp, esp
  00087	e8 00 00 00 00	 call	 __RTC_CheckEsp
  0008c	8b e5		 mov	 esp, ebp
  0008e	5d		 pop	 ebp
  0008f	c3		 ret	 0
?_Maklocwcs@std@@YAPA_WPB_W@Z ENDP			; std::_Maklocwcs
_TEXT	ENDS
; Function compile flags: /Odtp /RTCsu
; File C:\Program Files (x86)\Microsoft Visual Studio\2019\Community\VC\Tools\MSVC\14.29.30133\include\xlocale
;	COMDAT ??$_Maklocstr@_W@std@@YAPA_WPBDPA_WABU_Cvtvec@@@Z
_TEXT	SEGMENT
__Mbst2$ = -72						; size = 8
__Ptrnext$ = -60					; size = 4
__Ptrdest$ = -56					; size = 4
__Mbst1$ = -48						; size = 8
__Wc$ = -32						; size = 2
__Bytes$ = -24						; size = 4
__Ptr1$ = -20						; size = 4
__Wchars$ = -16						; size = 4
__Count1$ = -12						; size = 4
__Count$ = -8						; size = 4
__$ArrayPad$ = -4					; size = 4
__Ptr$ = 8						; size = 4
___formal$ = 12						; size = 4
__Cvt$ = 16						; size = 4
??$_Maklocstr@_W@std@@YAPA_WPBDPA_WABU_Cvtvec@@@Z PROC	; std::_Maklocstr<wchar_t>, COMDAT

; 540  : inline wchar_t* __CRTDECL _Maklocstr(const char* _Ptr, wchar_t*, const _Locinfo::_Cvtvec& _Cvt) {

  00000	55		 push	 ebp
  00001	8b ec		 mov	 ebp, esp
  00003	83 ec 4c	 sub	 esp, 76			; 0000004cH
  00006	56		 push	 esi
  00007	57		 push	 edi
  00008	8d 7d b4	 lea	 edi, DWORD PTR [ebp-76]
  0000b	b9 13 00 00 00	 mov	 ecx, 19			; 00000013H
  00010	b8 cc cc cc cc	 mov	 eax, -858993460		; ccccccccH
  00015	f3 ab		 rep stosd
  00017	a1 00 00 00 00	 mov	 eax, DWORD PTR ___security_cookie
  0001c	33 c5		 xor	 eax, ebp
  0001e	89 45 fc	 mov	 DWORD PTR __$ArrayPad$[ebp], eax
  00021	b9 00 00 00 00	 mov	 ecx, OFFSET __D23FE460_xlocale
  00026	e8 00 00 00 00	 call	 @__CheckForDebuggerJustMyCode@4

; 541  :     // convert C string to wchar_t sequence using _Cvtvec
; 542  :     size_t _Count;
; 543  :     size_t _Count1;
; 544  :     size_t _Wchars;
; 545  :     const char* _Ptr1;
; 546  :     int _Bytes;
; 547  :     wchar_t _Wc;
; 548  :     mbstate_t _Mbst1 = {};

  0002b	33 c0		 xor	 eax, eax
  0002d	89 45 d0	 mov	 DWORD PTR __Mbst1$[ebp], eax
  00030	89 45 d4	 mov	 DWORD PTR __Mbst1$[ebp+4], eax

; 549  : 
; 550  :     _Count1 = _CSTD strlen(_Ptr) + 1;

  00033	8b 4d 08	 mov	 ecx, DWORD PTR __Ptr$[ebp]
  00036	51		 push	 ecx
  00037	e8 00 00 00 00	 call	 _strlen
  0003c	83 c4 04	 add	 esp, 4
  0003f	83 c0 01	 add	 eax, 1
  00042	89 45 f4	 mov	 DWORD PTR __Count1$[ebp], eax

; 551  :     for (_Count = _Count1, _Wchars = 0, _Ptr1 = _Ptr; 0 < _Count; _Count -= _Bytes, _Ptr1 += _Bytes, ++_Wchars) {

  00045	8b 55 f4	 mov	 edx, DWORD PTR __Count1$[ebp]
  00048	89 55 f8	 mov	 DWORD PTR __Count$[ebp], edx
  0004b	c7 45 f0 00 00
	00 00		 mov	 DWORD PTR __Wchars$[ebp], 0
  00052	8b 45 08	 mov	 eax, DWORD PTR __Ptr$[ebp]
  00055	89 45 ec	 mov	 DWORD PTR __Ptr1$[ebp], eax
  00058	eb 1b		 jmp	 SHORT $LN4@Maklocstr
$LN2@Maklocstr:
  0005a	8b 4d f8	 mov	 ecx, DWORD PTR __Count$[ebp]
  0005d	2b 4d e8	 sub	 ecx, DWORD PTR __Bytes$[ebp]
  00060	89 4d f8	 mov	 DWORD PTR __Count$[ebp], ecx
  00063	8b 55 ec	 mov	 edx, DWORD PTR __Ptr1$[ebp]
  00066	03 55 e8	 add	 edx, DWORD PTR __Bytes$[ebp]
  00069	89 55 ec	 mov	 DWORD PTR __Ptr1$[ebp], edx
  0006c	8b 45 f0	 mov	 eax, DWORD PTR __Wchars$[ebp]
  0006f	83 c0 01	 add	 eax, 1
  00072	89 45 f0	 mov	 DWORD PTR __Wchars$[ebp], eax
$LN4@Maklocstr:
  00075	83 7d f8 00	 cmp	 DWORD PTR __Count$[ebp], 0
  00079	76 29		 jbe	 SHORT $LN3@Maklocstr

; 552  :         if ((_Bytes = _Mbrtowc(&_Wc, _Ptr1, _Count, &_Mbst1, &_Cvt)) <= 0) {

  0007b	8b 4d 10	 mov	 ecx, DWORD PTR __Cvt$[ebp]
  0007e	51		 push	 ecx
  0007f	8d 55 d0	 lea	 edx, DWORD PTR __Mbst1$[ebp]
  00082	52		 push	 edx
  00083	8b 45 f8	 mov	 eax, DWORD PTR __Count$[ebp]
  00086	50		 push	 eax
  00087	8b 4d ec	 mov	 ecx, DWORD PTR __Ptr1$[ebp]
  0008a	51		 push	 ecx
  0008b	8d 55 e0	 lea	 edx, DWORD PTR __Wc$[ebp]
  0008e	52		 push	 edx
  0008f	e8 00 00 00 00	 call	 __Mbrtowc
  00094	83 c4 14	 add	 esp, 20			; 00000014H
  00097	89 45 e8	 mov	 DWORD PTR __Bytes$[ebp], eax
  0009a	83 7d e8 00	 cmp	 DWORD PTR __Bytes$[ebp], 0
  0009e	7f 02		 jg	 SHORT $LN8@Maklocstr

; 553  :             break;

  000a0	eb 02		 jmp	 SHORT $LN3@Maklocstr
$LN8@Maklocstr:

; 554  :         }
; 555  :     }

  000a2	eb b6		 jmp	 SHORT $LN2@Maklocstr
$LN3@Maklocstr:

; 556  : 
; 557  :     ++_Wchars; // count terminating nul

  000a4	8b 45 f0	 mov	 eax, DWORD PTR __Wchars$[ebp]
  000a7	83 c0 01	 add	 eax, 1
  000aa	89 45 f0	 mov	 DWORD PTR __Wchars$[ebp], eax

; 558  : 
; 559  :     wchar_t* _Ptrdest = static_cast<wchar_t*>(_calloc_dbg(_Wchars, sizeof(wchar_t), _CRT_BLOCK, __FILE__, __LINE__));

  000ad	8b f4		 mov	 esi, esp
  000af	68 2f 02 00 00	 push	 559			; 0000022fH
  000b4	68 00 00 00 00	 push	 OFFSET ??_C@_0GI@GFIAKDGM@C?3?2Program?5Files?5?$CIx86?$CJ?2Microsof@
  000b9	6a 02		 push	 2
  000bb	6a 02		 push	 2
  000bd	8b 4d f0	 mov	 ecx, DWORD PTR __Wchars$[ebp]
  000c0	51		 push	 ecx
  000c1	ff 15 00 00 00
	00		 call	 DWORD PTR __imp___calloc_dbg
  000c7	83 c4 14	 add	 esp, 20			; 00000014H
  000ca	3b f4		 cmp	 esi, esp
  000cc	e8 00 00 00 00	 call	 __RTC_CheckEsp
  000d1	89 45 c8	 mov	 DWORD PTR __Ptrdest$[ebp], eax

; 560  : 
; 561  :     if (!_Ptrdest) {

  000d4	83 7d c8 00	 cmp	 DWORD PTR __Ptrdest$[ebp], 0
  000d8	75 05		 jne	 SHORT $LN9@Maklocstr

; 562  :         _Xbad_alloc();

  000da	e8 00 00 00 00	 call	 ?_Xbad_alloc@std@@YAXXZ	; std::_Xbad_alloc
$LN9@Maklocstr:

; 563  :     }
; 564  : 
; 565  :     wchar_t* _Ptrnext = _Ptrdest;

  000df	8b 55 c8	 mov	 edx, DWORD PTR __Ptrdest$[ebp]
  000e2	89 55 c4	 mov	 DWORD PTR __Ptrnext$[ebp], edx

; 566  :     mbstate_t _Mbst2  = {};

  000e5	33 c0		 xor	 eax, eax
  000e7	89 45 b8	 mov	 DWORD PTR __Mbst2$[ebp], eax
  000ea	89 45 bc	 mov	 DWORD PTR __Mbst2$[ebp+4], eax

; 567  : 
; 568  :     for (; 0 < _Wchars; _Count -= _Bytes, _Ptr += _Bytes, --_Wchars, ++_Ptrnext) {

  000ed	eb 24		 jmp	 SHORT $LN7@Maklocstr
$LN5@Maklocstr:
  000ef	8b 4d f8	 mov	 ecx, DWORD PTR __Count$[ebp]
  000f2	2b 4d e8	 sub	 ecx, DWORD PTR __Bytes$[ebp]
  000f5	89 4d f8	 mov	 DWORD PTR __Count$[ebp], ecx
  000f8	8b 55 08	 mov	 edx, DWORD PTR __Ptr$[ebp]
  000fb	03 55 e8	 add	 edx, DWORD PTR __Bytes$[ebp]
  000fe	89 55 08	 mov	 DWORD PTR __Ptr$[ebp], edx
  00101	8b 45 f0	 mov	 eax, DWORD PTR __Wchars$[ebp]
  00104	83 e8 01	 sub	 eax, 1
  00107	89 45 f0	 mov	 DWORD PTR __Wchars$[ebp], eax
  0010a	8b 4d c4	 mov	 ecx, DWORD PTR __Ptrnext$[ebp]
  0010d	83 c1 02	 add	 ecx, 2
  00110	89 4d c4	 mov	 DWORD PTR __Ptrnext$[ebp], ecx
$LN7@Maklocstr:
  00113	83 7d f0 00	 cmp	 DWORD PTR __Wchars$[ebp], 0
  00117	76 29		 jbe	 SHORT $LN6@Maklocstr

; 569  :         if ((_Bytes = _Mbrtowc(_Ptrnext, _Ptr, _Count1, &_Mbst2, &_Cvt)) <= 0) {

  00119	8b 55 10	 mov	 edx, DWORD PTR __Cvt$[ebp]
  0011c	52		 push	 edx
  0011d	8d 45 b8	 lea	 eax, DWORD PTR __Mbst2$[ebp]
  00120	50		 push	 eax
  00121	8b 4d f4	 mov	 ecx, DWORD PTR __Count1$[ebp]
  00124	51		 push	 ecx
  00125	8b 55 08	 mov	 edx, DWORD PTR __Ptr$[ebp]
  00128	52		 push	 edx
  00129	8b 45 c4	 mov	 eax, DWORD PTR __Ptrnext$[ebp]
  0012c	50		 push	 eax
  0012d	e8 00 00 00 00	 call	 __Mbrtowc
  00132	83 c4 14	 add	 esp, 20			; 00000014H
  00135	89 45 e8	 mov	 DWORD PTR __Bytes$[ebp], eax
  00138	83 7d e8 00	 cmp	 DWORD PTR __Bytes$[ebp], 0
  0013c	7f 02		 jg	 SHORT $LN10@Maklocstr

; 570  :             break;

  0013e	eb 02		 jmp	 SHORT $LN6@Maklocstr
$LN10@Maklocstr:

; 571  :         }
; 572  :     }

  00140	eb ad		 jmp	 SHORT $LN5@Maklocstr
$LN6@Maklocstr:

; 573  : 
; 574  :     *_Ptrnext = L'\0';

  00142	33 c9		 xor	 ecx, ecx
  00144	8b 55 c4	 mov	 edx, DWORD PTR __Ptrnext$[ebp]
  00147	66 89 0a	 mov	 WORD PTR [edx], cx

; 575  : 
; 576  :     return _Ptrdest;

  0014a	8b 45 c8	 mov	 eax, DWORD PTR __Ptrdest$[ebp]
$LN11@Maklocstr:

; 577  : }

  0014d	52		 push	 edx
  0014e	8b cd		 mov	 ecx, ebp
  00150	50		 push	 eax
  00151	8d 15 00 00 00
	00		 lea	 edx, DWORD PTR $LN16@Maklocstr
  00157	e8 00 00 00 00	 call	 @_RTC_CheckStackVars@8
  0015c	58		 pop	 eax
  0015d	5a		 pop	 edx
  0015e	5f		 pop	 edi
  0015f	5e		 pop	 esi
  00160	8b 4d fc	 mov	 ecx, DWORD PTR __$ArrayPad$[ebp]
  00163	33 cd		 xor	 ecx, ebp
  00165	e8 00 00 00 00	 call	 @__security_check_cookie@4
  0016a	83 c4 4c	 add	 esp, 76			; 0000004cH
  0016d	3b ec		 cmp	 ebp, esp
  0016f	e8 00 00 00 00	 call	 __RTC_CheckEsp
  00174	8b e5		 mov	 esp, ebp
  00176	5d		 pop	 ebp
  00177	c3		 ret	 0
$LN16@Maklocstr:
  00178	03 00 00 00	 DD	 3
  0017c	00 00 00 00	 DD	 $LN15@Maklocstr
$LN15@Maklocstr:
  00180	e0 ff ff ff	 DD	 -32			; ffffffe0H
  00184	02 00 00 00	 DD	 2
  00188	00 00 00 00	 DD	 $LN12@Maklocstr
  0018c	d0 ff ff ff	 DD	 -48			; ffffffd0H
  00190	08 00 00 00	 DD	 8
  00194	00 00 00 00	 DD	 $LN13@Maklocstr
  00198	b8 ff ff ff	 DD	 -72			; ffffffb8H
  0019c	08 00 00 00	 DD	 8
  001a0	00 00 00 00	 DD	 $LN14@Maklocstr
$LN14@Maklocstr:
  001a4	5f		 DB	 95			; 0000005fH
  001a5	4d		 DB	 77			; 0000004dH
  001a6	62		 DB	 98			; 00000062H
  001a7	73		 DB	 115			; 00000073H
  001a8	74		 DB	 116			; 00000074H
  001a9	32		 DB	 50			; 00000032H
  001aa	00		 DB	 0
$LN13@Maklocstr:
  001ab	5f		 DB	 95			; 0000005fH
  001ac	4d		 DB	 77			; 0000004dH
  001ad	62		 DB	 98			; 00000062H
  001ae	73		 DB	 115			; 00000073H
  001af	74		 DB	 116			; 00000074H
  001b0	31		 DB	 49			; 00000031H
  001b1	00		 DB	 0
$LN12@Maklocstr:
  001b2	5f		 DB	 95			; 0000005fH
  001b3	57		 DB	 87			; 00000057H
  001b4	63		 DB	 99			; 00000063H
  001b5	00		 DB	 0
??$_Maklocstr@_W@std@@YAPA_WPBDPA_WABU_Cvtvec@@@Z ENDP	; std::_Maklocstr<wchar_t>
_TEXT	ENDS
; Function compile flags: /Odtp /RTCsu
; File C:\Program Files (x86)\Microsoft Visual Studio\2019\Community\VC\Tools\MSVC\14.29.30133\include\xutility
;	COMDAT ??$_Construct_in_place@U_Container_proxy@std@@PAU_Container_base12@2@@std@@YAXAAU_Container_proxy@0@$$QAPAU_Container_base12@0@@Z
_TEXT	SEGMENT
tv93 = -16						; size = 4
tv75 = -12						; size = 4
tv77 = -8						; size = 4
$T1 = -4						; size = 4
__Obj$ = 8						; size = 4
_<_Args_0>$ = 12					; size = 4
??$_Construct_in_place@U_Container_proxy@std@@PAU_Container_base12@2@@std@@YAXAAU_Container_proxy@0@$$QAPAU_Container_base12@0@@Z PROC ; std::_Construct_in_place<std::_Container_proxy,std::_Container_base12 *>, COMDAT

; 151  :     is_nothrow_constructible_v<_Ty, _Types...>) {

  00000	55		 push	 ebp
  00001	8b ec		 mov	 ebp, esp
  00003	83 ec 10	 sub	 esp, 16			; 00000010H
  00006	b8 cc cc cc cc	 mov	 eax, -858993460		; ccccccccH
  0000b	89 45 f0	 mov	 DWORD PTR [ebp-16], eax
  0000e	89 45 f4	 mov	 DWORD PTR [ebp-12], eax
  00011	89 45 f8	 mov	 DWORD PTR [ebp-8], eax
  00014	89 45 fc	 mov	 DWORD PTR [ebp-4], eax
  00017	b9 00 00 00 00	 mov	 ecx, OFFSET __12269DE6_xutility
  0001c	e8 00 00 00 00	 call	 @__CheckForDebuggerJustMyCode@4

; 152  : #ifdef __cpp_lib_constexpr_dynamic_alloc
; 153  :     if (_STD is_constant_evaluated()) {

  00021	e8 00 00 00 00	 call	 ?is_constant_evaluated@std@@YA_NXZ ; std::is_constant_evaluated
  00026	0f b6 c0	 movzx	 eax, al
  00029	85 c0		 test	 eax, eax
  0002b	74 30		 je	 SHORT $LN2@Construct_

; 154  :         _STD construct_at(_STD addressof(_Obj), _STD forward<_Types>(_Args)...);

  0002d	8b 4d 0c	 mov	 ecx, DWORD PTR _<_Args_0>$[ebp]
  00030	51		 push	 ecx
  00031	e8 00 00 00 00	 call	 ??$forward@PAU_Container_base12@std@@@std@@YA$$QAPAU_Container_base12@0@AAPAU10@@Z ; std::forward<std::_Container_base12 *>
  00036	83 c4 04	 add	 esp, 4
  00039	89 45 f8	 mov	 DWORD PTR tv77[ebp], eax
  0003c	8b 55 08	 mov	 edx, DWORD PTR __Obj$[ebp]
  0003f	52		 push	 edx
  00040	e8 00 00 00 00	 call	 ??$addressof@U_Container_proxy@std@@@std@@YAPAU_Container_proxy@0@AAU10@@Z ; std::addressof<std::_Container_proxy>
  00045	83 c4 04	 add	 esp, 4
  00048	89 45 f4	 mov	 DWORD PTR tv75[ebp], eax
  0004b	8b 45 f8	 mov	 eax, DWORD PTR tv77[ebp]
  0004e	50		 push	 eax
  0004f	8b 4d f4	 mov	 ecx, DWORD PTR tv75[ebp]
  00052	51		 push	 ecx
  00053	e8 00 00 00 00	 call	 ??$construct_at@U_Container_proxy@std@@PAU_Container_base12@2@X@std@@YAPAU_Container_proxy@0@QAU10@$$QAPAU_Container_base12@0@@Z ; std::construct_at<std::_Container_proxy,std::_Container_base12 *,void>
  00058	83 c4 08	 add	 esp, 8

; 155  :     } else

  0005b	eb 40		 jmp	 SHORT $LN4@Construct_
$LN2@Construct_:

; 151  :     is_nothrow_constructible_v<_Ty, _Types...>) {

  0005d	8b 55 08	 mov	 edx, DWORD PTR __Obj$[ebp]
  00060	52		 push	 edx
  00061	e8 00 00 00 00	 call	 ??$addressof@U_Container_proxy@std@@@std@@YAPAU_Container_proxy@0@AAU10@@Z ; std::addressof<std::_Container_proxy>
  00066	83 c4 04	 add	 esp, 4
  00069	50		 push	 eax
  0006a	e8 00 00 00 00	 call	 ??$_Voidify_iter@PAU_Container_proxy@std@@@std@@YAPAXPAU_Container_proxy@0@@Z ; std::_Voidify_iter<std::_Container_proxy *>
  0006f	83 c4 04	 add	 esp, 4
  00072	50		 push	 eax
  00073	6a 08		 push	 8
  00075	e8 00 00 00 00	 call	 ??2@YAPAXIPAX@Z		; operator new
  0007a	83 c4 08	 add	 esp, 8
  0007d	89 45 fc	 mov	 DWORD PTR $T1[ebp], eax
  00080	8b 45 0c	 mov	 eax, DWORD PTR _<_Args_0>$[ebp]
  00083	50		 push	 eax
  00084	e8 00 00 00 00	 call	 ??$forward@PAU_Container_base12@std@@@std@@YA$$QAPAU_Container_base12@0@AAPAU10@@Z ; std::forward<std::_Container_base12 *>
  00089	83 c4 04	 add	 esp, 4
  0008c	8b 08		 mov	 ecx, DWORD PTR [eax]
  0008e	89 4d f0	 mov	 DWORD PTR tv93[ebp], ecx
  00091	8b 55 f0	 mov	 edx, DWORD PTR tv93[ebp]
  00094	52		 push	 edx
  00095	8b 4d fc	 mov	 ecx, DWORD PTR $T1[ebp]
  00098	e8 00 00 00 00	 call	 ??0_Container_proxy@std@@QAE@PAU_Container_base12@1@@Z ; std::_Container_proxy::_Container_proxy
$LN4@Construct_:

; 156  : #endif // __cpp_lib_constexpr_dynamic_alloc
; 157  :     {
; 158  :         ::new (_Voidify_iter(_STD addressof(_Obj))) _Ty(_STD forward<_Types>(_Args)...);
; 159  :     }
; 160  : }

  0009d	83 c4 10	 add	 esp, 16			; 00000010H
  000a0	3b ec		 cmp	 ebp, esp
  000a2	e8 00 00 00 00	 call	 __RTC_CheckEsp
  000a7	8b e5		 mov	 esp, ebp
  000a9	5d		 pop	 ebp
  000aa	c3		 ret	 0
??$_Construct_in_place@U_Container_proxy@std@@PAU_Container_base12@2@@std@@YAXAAU_Container_proxy@0@$$QAPAU_Container_base12@0@@Z ENDP ; std::_Construct_in_place<std::_Container_proxy,std::_Container_base12 *>
_TEXT	ENDS
; Function compile flags: /Odtp /RTCsu
; File C:\Program Files (x86)\Microsoft Visual Studio\2019\Community\VC\Tools\MSVC\14.29.30133\include\xstddef
;	COMDAT ??$addressof@U_Container_base12@std@@@std@@YAPAU_Container_base12@0@AAU10@@Z
_TEXT	SEGMENT
__Val$ = 8						; size = 4
??$addressof@U_Container_base12@std@@@std@@YAPAU_Container_base12@0@AAU10@@Z PROC ; std::addressof<std::_Container_base12>, COMDAT

; 274  : _NODISCARD constexpr _Ty* addressof(_Ty& _Val) noexcept {

  00000	55		 push	 ebp
  00001	8b ec		 mov	 ebp, esp
  00003	b9 00 00 00 00	 mov	 ecx, OFFSET __E458E21C_xstddef
  00008	e8 00 00 00 00	 call	 @__CheckForDebuggerJustMyCode@4

; 275  :     return __builtin_addressof(_Val);

  0000d	8b 45 08	 mov	 eax, DWORD PTR __Val$[ebp]

; 276  : }

  00010	3b ec		 cmp	 ebp, esp
  00012	e8 00 00 00 00	 call	 __RTC_CheckEsp
  00017	5d		 pop	 ebp
  00018	c3		 ret	 0
??$addressof@U_Container_base12@std@@@std@@YAPAU_Container_base12@0@AAU10@@Z ENDP ; std::addressof<std::_Container_base12>
_TEXT	ENDS
; Function compile flags: /Odtp /RTCsu
; File C:\Program Files (x86)\Microsoft Visual Studio\2019\Community\VC\Tools\MSVC\14.29.30133\include\xmemory
;	COMDAT ??0_Basic_container_proxy_ptr12@std@@IAE@XZ
_TEXT	SEGMENT
_this$ = -4						; size = 4
??0_Basic_container_proxy_ptr12@std@@IAE@XZ PROC	; std::_Basic_container_proxy_ptr12::_Basic_container_proxy_ptr12, COMDAT
; _this$ = ecx

; 1323 :     _CONSTEXPR20_CONTAINER _Basic_container_proxy_ptr12()             = default;

  00000	55		 push	 ebp
  00001	8b ec		 mov	 ebp, esp
  00003	51		 push	 ecx
  00004	c7 45 fc cc cc
	cc cc		 mov	 DWORD PTR [ebp-4], -858993460 ; ccccccccH
  0000b	89 4d fc	 mov	 DWORD PTR _this$[ebp], ecx
  0000e	b9 00 00 00 00	 mov	 ecx, OFFSET __79D216CD_xmemory
  00013	e8 00 00 00 00	 call	 @__CheckForDebuggerJustMyCode@4

; 1316 :     _Container_proxy* _Ptr = nullptr;

  00018	8b 45 fc	 mov	 eax, DWORD PTR _this$[ebp]
  0001b	c7 00 00 00 00
	00		 mov	 DWORD PTR [eax], 0

; 1323 :     _CONSTEXPR20_CONTAINER _Basic_container_proxy_ptr12()             = default;

  00021	8b 45 fc	 mov	 eax, DWORD PTR _this$[ebp]
  00024	83 c4 04	 add	 esp, 4
  00027	3b ec		 cmp	 ebp, esp
  00029	e8 00 00 00 00	 call	 __RTC_CheckEsp
  0002e	8b e5		 mov	 esp, ebp
  00030	5d		 pop	 ebp
  00031	c3		 ret	 0
??0_Basic_container_proxy_ptr12@std@@IAE@XZ ENDP	; std::_Basic_container_proxy_ptr12::_Basic_container_proxy_ptr12
_TEXT	ENDS
; Function compile flags: /Odtp /RTCsu
; File C:\Program Files (x86)\Microsoft Visual Studio\2019\Community\VC\Tools\MSVC\14.29.30133\include\xmemory
;	COMDAT ?_Release@_Basic_container_proxy_ptr12@std@@QAEXXZ
_TEXT	SEGMENT
_this$ = -4						; size = 4
?_Release@_Basic_container_proxy_ptr12@std@@QAEXXZ PROC	; std::_Basic_container_proxy_ptr12::_Release, COMDAT
; _this$ = ecx

; 1318 :     constexpr void _Release() noexcept { // disengage this _Basic_container_proxy_ptr12

  00000	55		 push	 ebp
  00001	8b ec		 mov	 ebp, esp
  00003	51		 push	 ecx
  00004	c7 45 fc cc cc
	cc cc		 mov	 DWORD PTR [ebp-4], -858993460 ; ccccccccH
  0000b	89 4d fc	 mov	 DWORD PTR _this$[ebp], ecx
  0000e	b9 00 00 00 00	 mov	 ecx, OFFSET __79D216CD_xmemory
  00013	e8 00 00 00 00	 call	 @__CheckForDebuggerJustMyCode@4

; 1319 :         _Ptr = nullptr;

  00018	8b 45 fc	 mov	 eax, DWORD PTR _this$[ebp]
  0001b	c7 00 00 00 00
	00		 mov	 DWORD PTR [eax], 0

; 1320 :     }

  00021	83 c4 04	 add	 esp, 4
  00024	3b ec		 cmp	 ebp, esp
  00026	e8 00 00 00 00	 call	 __RTC_CheckEsp
  0002b	8b e5		 mov	 esp, ebp
  0002d	5d		 pop	 ebp
  0002e	c3		 ret	 0
?_Release@_Basic_container_proxy_ptr12@std@@QAEXXZ ENDP	; std::_Basic_container_proxy_ptr12::_Release
_TEXT	ENDS
; Function compile flags: /Odtp /RTCsu
; File C:\Program Files (x86)\Microsoft Visual Studio\2019\Community\VC\Tools\MSVC\14.29.30133\include\xmemory
;	COMDAT ?_Orphan_me_locked_v3@_Iterator_base12@std@@AAEXXZ
_TEXT	SEGMENT
__Lock$ = -16						; size = 4
_this$ = -8						; size = 4
__$ArrayPad$ = -4					; size = 4
?_Orphan_me_locked_v3@_Iterator_base12@std@@AAEXXZ PROC	; std::_Iterator_base12::_Orphan_me_locked_v3, COMDAT
; _this$ = ecx

; 1229 :     void _Orphan_me_locked_v3() noexcept {

  00000	55		 push	 ebp
  00001	8b ec		 mov	 ebp, esp
  00003	83 ec 14	 sub	 esp, 20			; 00000014H
  00006	56		 push	 esi
  00007	b8 cc cc cc cc	 mov	 eax, -858993460		; ccccccccH
  0000c	89 45 ec	 mov	 DWORD PTR [ebp-20], eax
  0000f	89 45 f0	 mov	 DWORD PTR [ebp-16], eax
  00012	89 45 f4	 mov	 DWORD PTR [ebp-12], eax
  00015	89 45 f8	 mov	 DWORD PTR [ebp-8], eax
  00018	89 45 fc	 mov	 DWORD PTR [ebp-4], eax
  0001b	a1 00 00 00 00	 mov	 eax, DWORD PTR ___security_cookie
  00020	33 c5		 xor	 eax, ebp
  00022	89 45 fc	 mov	 DWORD PTR __$ArrayPad$[ebp], eax
  00025	89 4d f8	 mov	 DWORD PTR _this$[ebp], ecx
  00028	b9 00 00 00 00	 mov	 ecx, OFFSET __79D216CD_xmemory
  0002d	e8 00 00 00 00	 call	 @__CheckForDebuggerJustMyCode@4

; 1230 :         _Lockit _Lock(_LOCK_DEBUG);

  00032	8b f4		 mov	 esi, esp
  00034	6a 03		 push	 3
  00036	8d 4d f0	 lea	 ecx, DWORD PTR __Lock$[ebp]
  00039	ff 15 00 00 00
	00		 call	 DWORD PTR __imp_??0_Lockit@std@@QAE@H@Z
  0003f	3b f4		 cmp	 esi, esp
  00041	e8 00 00 00 00	 call	 __RTC_CheckEsp

; 1231 :         _Orphan_me_unlocked_v3();

  00046	8b 4d f8	 mov	 ecx, DWORD PTR _this$[ebp]
  00049	e8 00 00 00 00	 call	 ?_Orphan_me_unlocked_v3@_Iterator_base12@std@@AAEXXZ ; std::_Iterator_base12::_Orphan_me_unlocked_v3

; 1232 :     }

  0004e	8b f4		 mov	 esi, esp
  00050	8d 4d f0	 lea	 ecx, DWORD PTR __Lock$[ebp]
  00053	ff 15 00 00 00
	00		 call	 DWORD PTR __imp_??1_Lockit@std@@QAE@XZ
  00059	3b f4		 cmp	 esi, esp
  0005b	e8 00 00 00 00	 call	 __RTC_CheckEsp
  00060	52		 push	 edx
  00061	8b cd		 mov	 ecx, ebp
  00063	50		 push	 eax
  00064	8d 15 00 00 00
	00		 lea	 edx, DWORD PTR $LN5@Orphan_me_
  0006a	e8 00 00 00 00	 call	 @_RTC_CheckStackVars@8
  0006f	58		 pop	 eax
  00070	5a		 pop	 edx
  00071	5e		 pop	 esi
  00072	8b 4d fc	 mov	 ecx, DWORD PTR __$ArrayPad$[ebp]
  00075	33 cd		 xor	 ecx, ebp
  00077	e8 00 00 00 00	 call	 @__security_check_cookie@4
  0007c	83 c4 14	 add	 esp, 20			; 00000014H
  0007f	3b ec		 cmp	 ebp, esp
  00081	e8 00 00 00 00	 call	 __RTC_CheckEsp
  00086	8b e5		 mov	 esp, ebp
  00088	5d		 pop	 ebp
  00089	c3		 ret	 0
  0008a	66 90		 npad	 2
$LN5@Orphan_me_:
  0008c	01 00 00 00	 DD	 1
  00090	00 00 00 00	 DD	 $LN4@Orphan_me_
$LN4@Orphan_me_:
  00094	f0 ff ff ff	 DD	 -16			; fffffff0H
  00098	04 00 00 00	 DD	 4
  0009c	00 00 00 00	 DD	 $LN3@Orphan_me_
$LN3@Orphan_me_:
  000a0	5f		 DB	 95			; 0000005fH
  000a1	4c		 DB	 76			; 0000004cH
  000a2	6f		 DB	 111			; 0000006fH
  000a3	63		 DB	 99			; 00000063H
  000a4	6b		 DB	 107			; 0000006bH
  000a5	00		 DB	 0
?_Orphan_me_locked_v3@_Iterator_base12@std@@AAEXXZ ENDP	; std::_Iterator_base12::_Orphan_me_locked_v3
_TEXT	ENDS
; Function compile flags: /Odtp /RTCsu
; File C:\Program Files (x86)\Microsoft Visual Studio\2019\Community\VC\Tools\MSVC\14.29.30133\include\xmemory
;	COMDAT ?_Orphan_me_unlocked_v3@_Iterator_base12@std@@AAEXXZ
_TEXT	SEGMENT
__Temp$1 = -12						; size = 4
__Pnext$ = -8						; size = 4
_this$ = -4						; size = 4
?_Orphan_me_unlocked_v3@_Iterator_base12@std@@AAEXXZ PROC ; std::_Iterator_base12::_Orphan_me_unlocked_v3, COMDAT
; _this$ = ecx

; 1212 :     _CONSTEXPR20_CONTAINER void _Orphan_me_unlocked_v3() noexcept {

  00000	55		 push	 ebp
  00001	8b ec		 mov	 ebp, esp
  00003	83 ec 0c	 sub	 esp, 12			; 0000000cH
  00006	56		 push	 esi
  00007	c7 45 f4 cc cc
	cc cc		 mov	 DWORD PTR [ebp-12], -858993460 ; ccccccccH
  0000e	c7 45 f8 cc cc
	cc cc		 mov	 DWORD PTR [ebp-8], -858993460 ; ccccccccH
  00015	c7 45 fc cc cc
	cc cc		 mov	 DWORD PTR [ebp-4], -858993460 ; ccccccccH
  0001c	89 4d fc	 mov	 DWORD PTR _this$[ebp], ecx
  0001f	b9 00 00 00 00	 mov	 ecx, OFFSET __79D216CD_xmemory
  00024	e8 00 00 00 00	 call	 @__CheckForDebuggerJustMyCode@4

; 1213 :         if (!_Myproxy) { // already orphaned

  00029	8b 45 fc	 mov	 eax, DWORD PTR _this$[ebp]
  0002c	83 38 00	 cmp	 DWORD PTR [eax], 0
  0002f	75 05		 jne	 SHORT $LN10@Orphan_me_

; 1214 :             return;

  00031	e9 ae 00 00 00	 jmp	 $LN13@Orphan_me_
$LN10@Orphan_me_:

; 1215 :         }
; 1216 : 
; 1217 :         // adopted, remove self from list
; 1218 :         _Iterator_base12** _Pnext = &_Myproxy->_Myfirstiter;

  00036	8b 4d fc	 mov	 ecx, DWORD PTR _this$[ebp]
  00039	8b 11		 mov	 edx, DWORD PTR [ecx]
  0003b	83 c2 04	 add	 edx, 4
  0003e	89 55 f8	 mov	 DWORD PTR __Pnext$[ebp], edx
$LN2@Orphan_me_:

; 1219 :         while (*_Pnext && *_Pnext != this) {

  00041	8b 45 f8	 mov	 eax, DWORD PTR __Pnext$[ebp]
  00044	83 38 00	 cmp	 DWORD PTR [eax], 0
  00047	74 1d		 je	 SHORT $LN6@Orphan_me_
  00049	8b 4d f8	 mov	 ecx, DWORD PTR __Pnext$[ebp]
  0004c	8b 11		 mov	 edx, DWORD PTR [ecx]
  0004e	3b 55 fc	 cmp	 edx, DWORD PTR _this$[ebp]
  00051	74 13		 je	 SHORT $LN6@Orphan_me_

; 1220 :             const auto _Temp = *_Pnext; // TRANSITION, VSO-1269037

  00053	8b 45 f8	 mov	 eax, DWORD PTR __Pnext$[ebp]
  00056	8b 08		 mov	 ecx, DWORD PTR [eax]
  00058	89 4d f4	 mov	 DWORD PTR __Temp$1[ebp], ecx

; 1221 :             _Pnext           = &_Temp->_Mynextiter;

  0005b	8b 55 f4	 mov	 edx, DWORD PTR __Temp$1[ebp]
  0005e	83 c2 04	 add	 edx, 4
  00061	89 55 f8	 mov	 DWORD PTR __Pnext$[ebp], edx

; 1222 :         }

  00064	eb db		 jmp	 SHORT $LN2@Orphan_me_
$LN6@Orphan_me_:

; 1223 : 
; 1224 :         _STL_VERIFY(*_Pnext, "ITERATOR LIST CORRUPTED!");

  00066	8b 45 f8	 mov	 eax, DWORD PTR __Pnext$[ebp]
  00069	83 38 00	 cmp	 DWORD PTR [eax], 0
  0006c	74 02		 je	 SHORT $LN9@Orphan_me_
  0006e	eb 5c		 jmp	 SHORT $LN4@Orphan_me_
$LN9@Orphan_me_:
  00070	8b f4		 mov	 esi, esp
  00072	68 00 00 00 00	 push	 OFFSET ??_C@_0BJ@LFDBABJJ@ITERATOR?5LIST?5CORRUPTED?$CB@
  00077	68 00 00 00 00	 push	 OFFSET ??_C@_02DKCKIIND@?$CFs@
  0007c	6a 00		 push	 0
  0007e	68 c8 04 00 00	 push	 1224			; 000004c8H
  00083	68 00 00 00 00	 push	 OFFSET ??_C@_0GI@MNEMJBML@C?3?2Program?5Files?5?$CIx86?$CJ?2Microsof@
  00088	6a 02		 push	 2
  0008a	ff 15 00 00 00
	00		 call	 DWORD PTR __imp___CrtDbgReport
  00090	83 c4 18	 add	 esp, 24			; 00000018H
  00093	3b f4		 cmp	 esi, esp
  00095	e8 00 00 00 00	 call	 __RTC_CheckEsp
  0009a	83 f8 01	 cmp	 eax, 1
  0009d	75 01		 jne	 SHORT $LN14@Orphan_me_
  0009f	cc		 int	 3
$LN14@Orphan_me_:
  000a0	8b f4		 mov	 esi, esp
  000a2	6a 00		 push	 0
  000a4	68 c8 04 00 00	 push	 1224			; 000004c8H
  000a9	68 00 00 00 00	 push	 OFFSET ??_C@_1NA@MJBOBEJL@?$AAC?$AA?3?$AA?2?$AAP?$AAr?$AAo?$AAg?$AAr?$AAa?$AAm?$AA?5?$AAF?$AAi?$AAl?$AAe@
  000ae	68 00 00 00 00	 push	 OFFSET ??_C@_1FM@FOFDAEGI@?$AAs?$AAt?$AAd?$AA?3?$AA?3?$AA_?$AAI?$AAt?$AAe?$AAr?$AAa?$AAt?$AAo?$AAr?$AA_@
  000b3	68 00 00 00 00	 push	 OFFSET ??_C@_1DG@PLBPCAEM@?$AA?$CC?$AAI?$AAT?$AAE?$AAR?$AAA?$AAT?$AAO?$AAR?$AA?5?$AAL?$AAI?$AAS?$AAT?$AA?5@
  000b8	ff 15 00 00 00
	00		 call	 DWORD PTR __imp___invalid_parameter
  000be	83 c4 14	 add	 esp, 20			; 00000014H
  000c1	3b f4		 cmp	 esi, esp
  000c3	e8 00 00 00 00	 call	 __RTC_CheckEsp
  000c8	33 d2		 xor	 edx, edx
  000ca	75 a4		 jne	 SHORT $LN9@Orphan_me_
$LN4@Orphan_me_:
  000cc	33 c0		 xor	 eax, eax
  000ce	75 96		 jne	 SHORT $LN6@Orphan_me_

; 1225 :         *_Pnext  = _Mynextiter;

  000d0	8b 4d f8	 mov	 ecx, DWORD PTR __Pnext$[ebp]
  000d3	8b 55 fc	 mov	 edx, DWORD PTR _this$[ebp]
  000d6	8b 42 04	 mov	 eax, DWORD PTR [edx+4]
  000d9	89 01		 mov	 DWORD PTR [ecx], eax

; 1226 :         _Myproxy = nullptr;

  000db	8b 4d fc	 mov	 ecx, DWORD PTR _this$[ebp]
  000de	c7 01 00 00 00
	00		 mov	 DWORD PTR [ecx], 0
$LN13@Orphan_me_:

; 1227 :     }

  000e4	5e		 pop	 esi
  000e5	83 c4 0c	 add	 esp, 12			; 0000000cH
  000e8	3b ec		 cmp	 ebp, esp
  000ea	e8 00 00 00 00	 call	 __RTC_CheckEsp
  000ef	8b e5		 mov	 esp, ebp
  000f1	5d		 pop	 ebp
  000f2	c3		 ret	 0
?_Orphan_me_unlocked_v3@_Iterator_base12@std@@AAEXXZ ENDP ; std::_Iterator_base12::_Orphan_me_unlocked_v3
_TEXT	ENDS
; Function compile flags: /Odtp /RTCsu
; File C:\Program Files (x86)\Microsoft Visual Studio\2019\Community\VC\Tools\MSVC\14.29.30133\include\xmemory
;	COMDAT ?_Adopt_locked@_Iterator_base12@std@@AAEXPBU_Container_base12@2@@Z
_TEXT	SEGMENT
__Lock$ = -16						; size = 4
_this$ = -8						; size = 4
__$ArrayPad$ = -4					; size = 4
__Parent$ = 8						; size = 4
?_Adopt_locked@_Iterator_base12@std@@AAEXPBU_Container_base12@2@@Z PROC ; std::_Iterator_base12::_Adopt_locked, COMDAT
; _this$ = ecx

; 1207 :     void _Adopt_locked(const _Container_base12* _Parent) noexcept {

  00000	55		 push	 ebp
  00001	8b ec		 mov	 ebp, esp
  00003	83 ec 14	 sub	 esp, 20			; 00000014H
  00006	56		 push	 esi
  00007	b8 cc cc cc cc	 mov	 eax, -858993460		; ccccccccH
  0000c	89 45 ec	 mov	 DWORD PTR [ebp-20], eax
  0000f	89 45 f0	 mov	 DWORD PTR [ebp-16], eax
  00012	89 45 f4	 mov	 DWORD PTR [ebp-12], eax
  00015	89 45 f8	 mov	 DWORD PTR [ebp-8], eax
  00018	89 45 fc	 mov	 DWORD PTR [ebp-4], eax
  0001b	a1 00 00 00 00	 mov	 eax, DWORD PTR ___security_cookie
  00020	33 c5		 xor	 eax, ebp
  00022	89 45 fc	 mov	 DWORD PTR __$ArrayPad$[ebp], eax
  00025	89 4d f8	 mov	 DWORD PTR _this$[ebp], ecx
  00028	b9 00 00 00 00	 mov	 ecx, OFFSET __79D216CD_xmemory
  0002d	e8 00 00 00 00	 call	 @__CheckForDebuggerJustMyCode@4

; 1208 :         _Lockit _Lock(_LOCK_DEBUG);

  00032	8b f4		 mov	 esi, esp
  00034	6a 03		 push	 3
  00036	8d 4d f0	 lea	 ecx, DWORD PTR __Lock$[ebp]
  00039	ff 15 00 00 00
	00		 call	 DWORD PTR __imp_??0_Lockit@std@@QAE@H@Z
  0003f	3b f4		 cmp	 esi, esp
  00041	e8 00 00 00 00	 call	 __RTC_CheckEsp

; 1209 :         _Adopt_unlocked(_Parent);

  00046	8b 45 08	 mov	 eax, DWORD PTR __Parent$[ebp]
  00049	50		 push	 eax
  0004a	8b 4d f8	 mov	 ecx, DWORD PTR _this$[ebp]
  0004d	e8 00 00 00 00	 call	 ?_Adopt_unlocked@_Iterator_base12@std@@AAEXPBU_Container_base12@2@@Z ; std::_Iterator_base12::_Adopt_unlocked

; 1210 :     }

  00052	8b f4		 mov	 esi, esp
  00054	8d 4d f0	 lea	 ecx, DWORD PTR __Lock$[ebp]
  00057	ff 15 00 00 00
	00		 call	 DWORD PTR __imp_??1_Lockit@std@@QAE@XZ
  0005d	3b f4		 cmp	 esi, esp
  0005f	e8 00 00 00 00	 call	 __RTC_CheckEsp
  00064	52		 push	 edx
  00065	8b cd		 mov	 ecx, ebp
  00067	50		 push	 eax
  00068	8d 15 00 00 00
	00		 lea	 edx, DWORD PTR $LN5@Adopt_lock
  0006e	e8 00 00 00 00	 call	 @_RTC_CheckStackVars@8
  00073	58		 pop	 eax
  00074	5a		 pop	 edx
  00075	5e		 pop	 esi
  00076	8b 4d fc	 mov	 ecx, DWORD PTR __$ArrayPad$[ebp]
  00079	33 cd		 xor	 ecx, ebp
  0007b	e8 00 00 00 00	 call	 @__security_check_cookie@4
  00080	83 c4 14	 add	 esp, 20			; 00000014H
  00083	3b ec		 cmp	 ebp, esp
  00085	e8 00 00 00 00	 call	 __RTC_CheckEsp
  0008a	8b e5		 mov	 esp, ebp
  0008c	5d		 pop	 ebp
  0008d	c2 04 00	 ret	 4
$LN5@Adopt_lock:
  00090	01 00 00 00	 DD	 1
  00094	00 00 00 00	 DD	 $LN4@Adopt_lock
$LN4@Adopt_lock:
  00098	f0 ff ff ff	 DD	 -16			; fffffff0H
  0009c	04 00 00 00	 DD	 4
  000a0	00 00 00 00	 DD	 $LN3@Adopt_lock
$LN3@Adopt_lock:
  000a4	5f		 DB	 95			; 0000005fH
  000a5	4c		 DB	 76			; 0000004cH
  000a6	6f		 DB	 111			; 0000006fH
  000a7	63		 DB	 99			; 00000063H
  000a8	6b		 DB	 107			; 0000006bH
  000a9	00		 DB	 0
?_Adopt_locked@_Iterator_base12@std@@AAEXPBU_Container_base12@2@@Z ENDP ; std::_Iterator_base12::_Adopt_locked
_TEXT	ENDS
; Function compile flags: /Odtp /RTCsu
; File C:\Program Files (x86)\Microsoft Visual Studio\2019\Community\VC\Tools\MSVC\14.29.30133\include\xmemory
;	COMDAT ?_Adopt_unlocked@_Iterator_base12@std@@AAEXPBU_Container_base12@2@@Z
_TEXT	SEGMENT
__Parent_proxy$ = -8					; size = 4
_this$ = -4						; size = 4
__Parent$ = 8						; size = 4
?_Adopt_unlocked@_Iterator_base12@std@@AAEXPBU_Container_base12@2@@Z PROC ; std::_Iterator_base12::_Adopt_unlocked, COMDAT
; _this$ = ecx

; 1190 :     _CONSTEXPR20_CONTAINER void _Adopt_unlocked(const _Container_base12* _Parent) noexcept {

  00000	55		 push	 ebp
  00001	8b ec		 mov	 ebp, esp
  00003	83 ec 08	 sub	 esp, 8
  00006	c7 45 f8 cc cc
	cc cc		 mov	 DWORD PTR [ebp-8], -858993460 ; ccccccccH
  0000d	c7 45 fc cc cc
	cc cc		 mov	 DWORD PTR [ebp-4], -858993460 ; ccccccccH
  00014	89 4d fc	 mov	 DWORD PTR _this$[ebp], ecx
  00017	b9 00 00 00 00	 mov	 ecx, OFFSET __79D216CD_xmemory
  0001c	e8 00 00 00 00	 call	 @__CheckForDebuggerJustMyCode@4

; 1191 :         if (!_Parent) {

  00021	83 7d 08 00	 cmp	 DWORD PTR __Parent$[ebp], 0
  00025	75 0a		 jne	 SHORT $LN2@Adopt_unlo

; 1192 :             _Orphan_me_unlocked_v3();

  00027	8b 4d fc	 mov	 ecx, DWORD PTR _this$[ebp]
  0002a	e8 00 00 00 00	 call	 ?_Orphan_me_unlocked_v3@_Iterator_base12@std@@AAEXXZ ; std::_Iterator_base12::_Orphan_me_unlocked_v3

; 1193 :             return;

  0002f	eb 3f		 jmp	 SHORT $LN5@Adopt_unlo
$LN2@Adopt_unlo:

; 1194 :         }
; 1195 : 
; 1196 :         _Container_proxy* _Parent_proxy = _Parent->_Myproxy;

  00031	8b 45 08	 mov	 eax, DWORD PTR __Parent$[ebp]
  00034	8b 08		 mov	 ecx, DWORD PTR [eax]
  00036	89 4d f8	 mov	 DWORD PTR __Parent_proxy$[ebp], ecx

; 1197 :         if (_Myproxy != _Parent_proxy) { // change parentage

  00039	8b 55 fc	 mov	 edx, DWORD PTR _this$[ebp]
  0003c	8b 02		 mov	 eax, DWORD PTR [edx]
  0003e	3b 45 f8	 cmp	 eax, DWORD PTR __Parent_proxy$[ebp]
  00041	74 2d		 je	 SHORT $LN5@Adopt_unlo

; 1198 :             if (_Myproxy) { // adopted, remove self from list

  00043	8b 4d fc	 mov	 ecx, DWORD PTR _this$[ebp]
  00046	83 39 00	 cmp	 DWORD PTR [ecx], 0
  00049	74 08		 je	 SHORT $LN4@Adopt_unlo

; 1199 :                 _Orphan_me_unlocked_v3();

  0004b	8b 4d fc	 mov	 ecx, DWORD PTR _this$[ebp]
  0004e	e8 00 00 00 00	 call	 ?_Orphan_me_unlocked_v3@_Iterator_base12@std@@AAEXXZ ; std::_Iterator_base12::_Orphan_me_unlocked_v3
$LN4@Adopt_unlo:

; 1200 :             }
; 1201 :             _Mynextiter                 = _Parent_proxy->_Myfirstiter;

  00053	8b 55 fc	 mov	 edx, DWORD PTR _this$[ebp]
  00056	8b 45 f8	 mov	 eax, DWORD PTR __Parent_proxy$[ebp]
  00059	8b 48 04	 mov	 ecx, DWORD PTR [eax+4]
  0005c	89 4a 04	 mov	 DWORD PTR [edx+4], ecx

; 1202 :             _Parent_proxy->_Myfirstiter = this;

  0005f	8b 55 f8	 mov	 edx, DWORD PTR __Parent_proxy$[ebp]
  00062	8b 45 fc	 mov	 eax, DWORD PTR _this$[ebp]
  00065	89 42 04	 mov	 DWORD PTR [edx+4], eax

; 1203 :             _Myproxy                    = _Parent_proxy;

  00068	8b 4d fc	 mov	 ecx, DWORD PTR _this$[ebp]
  0006b	8b 55 f8	 mov	 edx, DWORD PTR __Parent_proxy$[ebp]
  0006e	89 11		 mov	 DWORD PTR [ecx], edx
$LN5@Adopt_unlo:

; 1204 :         }
; 1205 :     }

  00070	83 c4 08	 add	 esp, 8
  00073	3b ec		 cmp	 ebp, esp
  00075	e8 00 00 00 00	 call	 __RTC_CheckEsp
  0007a	8b e5		 mov	 esp, ebp
  0007c	5d		 pop	 ebp
  0007d	c2 04 00	 ret	 4
?_Adopt_unlocked@_Iterator_base12@std@@AAEXPBU_Container_base12@2@@Z ENDP ; std::_Iterator_base12::_Adopt_unlocked
_TEXT	ENDS
; Function compile flags: /Odtp /RTCsu
; File C:\Program Files (x86)\Microsoft Visual Studio\2019\Community\VC\Tools\MSVC\14.29.30133\include\xmemory
;	COMDAT ?_Getcont@_Iterator_base12@std@@QBEPBU_Container_base12@2@XZ
_TEXT	SEGMENT
tv68 = -8						; size = 4
_this$ = -4						; size = 4
?_Getcont@_Iterator_base12@std@@QBEPBU_Container_base12@2@XZ PROC ; std::_Iterator_base12::_Getcont, COMDAT
; _this$ = ecx

; 1162 :     _CONSTEXPR20_CONTAINER const _Container_base12* _Getcont() const noexcept {

  00000	55		 push	 ebp
  00001	8b ec		 mov	 ebp, esp
  00003	83 ec 08	 sub	 esp, 8
  00006	c7 45 f8 cc cc
	cc cc		 mov	 DWORD PTR [ebp-8], -858993460 ; ccccccccH
  0000d	c7 45 fc cc cc
	cc cc		 mov	 DWORD PTR [ebp-4], -858993460 ; ccccccccH
  00014	89 4d fc	 mov	 DWORD PTR _this$[ebp], ecx
  00017	b9 00 00 00 00	 mov	 ecx, OFFSET __79D216CD_xmemory
  0001c	e8 00 00 00 00	 call	 @__CheckForDebuggerJustMyCode@4

; 1163 :         return _Myproxy ? _Myproxy->_Mycont : nullptr;

  00021	8b 45 fc	 mov	 eax, DWORD PTR _this$[ebp]
  00024	83 38 00	 cmp	 DWORD PTR [eax], 0
  00027	74 0c		 je	 SHORT $LN3@Getcont
  00029	8b 4d fc	 mov	 ecx, DWORD PTR _this$[ebp]
  0002c	8b 11		 mov	 edx, DWORD PTR [ecx]
  0002e	8b 02		 mov	 eax, DWORD PTR [edx]
  00030	89 45 f8	 mov	 DWORD PTR tv68[ebp], eax
  00033	eb 07		 jmp	 SHORT $LN4@Getcont
$LN3@Getcont:
  00035	c7 45 f8 00 00
	00 00		 mov	 DWORD PTR tv68[ebp], 0
$LN4@Getcont:
  0003c	8b 45 f8	 mov	 eax, DWORD PTR tv68[ebp]

; 1164 :     }

  0003f	83 c4 08	 add	 esp, 8
  00042	3b ec		 cmp	 ebp, esp
  00044	e8 00 00 00 00	 call	 __RTC_CheckEsp
  00049	8b e5		 mov	 esp, ebp
  0004b	5d		 pop	 ebp
  0004c	c3		 ret	 0
?_Getcont@_Iterator_base12@std@@QBEPBU_Container_base12@2@XZ ENDP ; std::_Iterator_base12::_Getcont
_TEXT	ENDS
; Function compile flags: /Odtp /RTCsu
; File C:\Program Files (x86)\Microsoft Visual Studio\2019\Community\VC\Tools\MSVC\14.29.30133\include\xmemory
;	COMDAT ?_Adopt@_Iterator_base12@std@@QAEXPBU_Container_base12@2@@Z
_TEXT	SEGMENT
_this$ = -4						; size = 4
__Parent$ = 8						; size = 4
?_Adopt@_Iterator_base12@std@@QAEXPBU_Container_base12@2@@Z PROC ; std::_Iterator_base12::_Adopt, COMDAT
; _this$ = ecx

; 1142 :     _CONSTEXPR20_CONTAINER void _Adopt(const _Container_base12* _Parent) noexcept {

  00000	55		 push	 ebp
  00001	8b ec		 mov	 ebp, esp
  00003	51		 push	 ecx
  00004	c7 45 fc cc cc
	cc cc		 mov	 DWORD PTR [ebp-4], -858993460 ; ccccccccH
  0000b	89 4d fc	 mov	 DWORD PTR _this$[ebp], ecx
  0000e	b9 00 00 00 00	 mov	 ecx, OFFSET __79D216CD_xmemory
  00013	e8 00 00 00 00	 call	 @__CheckForDebuggerJustMyCode@4

; 1143 : #ifdef __cpp_lib_constexpr_dynamic_alloc
; 1144 :         if (_STD is_constant_evaluated()) {

  00018	e8 00 00 00 00	 call	 ?is_constant_evaluated@std@@YA_NXZ ; std::is_constant_evaluated
  0001d	0f b6 c0	 movzx	 eax, al
  00020	85 c0		 test	 eax, eax
  00022	74 0e		 je	 SHORT $LN2@Adopt

; 1145 :             _Adopt_unlocked(_Parent);

  00024	8b 4d 08	 mov	 ecx, DWORD PTR __Parent$[ebp]
  00027	51		 push	 ecx
  00028	8b 4d fc	 mov	 ecx, DWORD PTR _this$[ebp]
  0002b	e8 00 00 00 00	 call	 ?_Adopt_unlocked@_Iterator_base12@std@@AAEXPBU_Container_base12@2@@Z ; std::_Iterator_base12::_Adopt_unlocked

; 1146 :         } else

  00030	eb 0c		 jmp	 SHORT $LN4@Adopt
$LN2@Adopt:

; 1147 : #endif // __cpp_lib_constexpr_dynamic_alloc
; 1148 :         {
; 1149 :             _Adopt_locked(_Parent);

  00032	8b 55 08	 mov	 edx, DWORD PTR __Parent$[ebp]
  00035	52		 push	 edx
  00036	8b 4d fc	 mov	 ecx, DWORD PTR _this$[ebp]
  00039	e8 00 00 00 00	 call	 ?_Adopt_locked@_Iterator_base12@std@@AAEXPBU_Container_base12@2@@Z ; std::_Iterator_base12::_Adopt_locked
$LN4@Adopt:

; 1150 :         }
; 1151 :     }

  0003e	83 c4 04	 add	 esp, 4
  00041	3b ec		 cmp	 ebp, esp
  00043	e8 00 00 00 00	 call	 __RTC_CheckEsp
  00048	8b e5		 mov	 esp, ebp
  0004a	5d		 pop	 ebp
  0004b	c2 04 00	 ret	 4
?_Adopt@_Iterator_base12@std@@QAEXPBU_Container_base12@2@@Z ENDP ; std::_Iterator_base12::_Adopt
_TEXT	ENDS
; Function compile flags: /Odtp /RTCsu
; File C:\Program Files (x86)\Microsoft Visual Studio\2019\Community\VC\Tools\MSVC\14.29.30133\include\xmemory
;	COMDAT ??1_Iterator_base12@std@@QAE@XZ
_TEXT	SEGMENT
_this$ = -4						; size = 4
??1_Iterator_base12@std@@QAE@XZ PROC			; std::_Iterator_base12::~_Iterator_base12, COMDAT
; _this$ = ecx

; 1131 :     _CONSTEXPR20_CONTAINER ~_Iterator_base12() noexcept {

  00000	55		 push	 ebp
  00001	8b ec		 mov	 ebp, esp
  00003	51		 push	 ecx
  00004	c7 45 fc cc cc
	cc cc		 mov	 DWORD PTR [ebp-4], -858993460 ; ccccccccH
  0000b	89 4d fc	 mov	 DWORD PTR _this$[ebp], ecx
  0000e	b9 00 00 00 00	 mov	 ecx, OFFSET __79D216CD_xmemory
  00013	e8 00 00 00 00	 call	 @__CheckForDebuggerJustMyCode@4

; 1132 : #ifdef __cpp_lib_constexpr_dynamic_alloc
; 1133 :         if (_STD is_constant_evaluated()) {

  00018	e8 00 00 00 00	 call	 ?is_constant_evaluated@std@@YA_NXZ ; std::is_constant_evaluated
  0001d	0f b6 c0	 movzx	 eax, al
  00020	85 c0		 test	 eax, eax
  00022	74 0a		 je	 SHORT $LN2@Iterator_b

; 1134 :             _Orphan_me_unlocked_v3();

  00024	8b 4d fc	 mov	 ecx, DWORD PTR _this$[ebp]
  00027	e8 00 00 00 00	 call	 ?_Orphan_me_unlocked_v3@_Iterator_base12@std@@AAEXXZ ; std::_Iterator_base12::_Orphan_me_unlocked_v3

; 1135 :         } else

  0002c	eb 08		 jmp	 SHORT $LN4@Iterator_b
$LN2@Iterator_b:

; 1136 : #endif // __cpp_lib_constexpr_dynamic_alloc
; 1137 :         {
; 1138 :             _Orphan_me_locked_v3();

  0002e	8b 4d fc	 mov	 ecx, DWORD PTR _this$[ebp]
  00031	e8 00 00 00 00	 call	 ?_Orphan_me_locked_v3@_Iterator_base12@std@@AAEXXZ ; std::_Iterator_base12::_Orphan_me_locked_v3
$LN4@Iterator_b:

; 1139 :         }
; 1140 :     }

  00036	83 c4 04	 add	 esp, 4
  00039	3b ec		 cmp	 ebp, esp
  0003b	e8 00 00 00 00	 call	 __RTC_CheckEsp
  00040	8b e5		 mov	 esp, ebp
  00042	5d		 pop	 ebp
  00043	c3		 ret	 0
??1_Iterator_base12@std@@QAE@XZ ENDP			; std::_Iterator_base12::~_Iterator_base12
_TEXT	ENDS
; Function compile flags: /Odtp /RTCsu
; File C:\Program Files (x86)\Microsoft Visual Studio\2019\Community\VC\Tools\MSVC\14.29.30133\include\xmemory
;	COMDAT ??0_Iterator_base12@std@@QAE@XZ
_TEXT	SEGMENT
_this$ = -4						; size = 4
??0_Iterator_base12@std@@QAE@XZ PROC			; std::_Iterator_base12::_Iterator_base12, COMDAT
; _this$ = ecx

; 1108 :     _CONSTEXPR20_CONTAINER _Iterator_base12() noexcept = default; // construct orphaned iterator

  00000	55		 push	 ebp
  00001	8b ec		 mov	 ebp, esp
  00003	51		 push	 ecx
  00004	c7 45 fc cc cc
	cc cc		 mov	 DWORD PTR [ebp-4], -858993460 ; ccccccccH
  0000b	89 4d fc	 mov	 DWORD PTR _this$[ebp], ecx
  0000e	b9 00 00 00 00	 mov	 ecx, OFFSET __79D216CD_xmemory
  00013	e8 00 00 00 00	 call	 @__CheckForDebuggerJustMyCode@4

; 1109 : 
; 1110 :     _CONSTEXPR20_CONTAINER _Iterator_base12(const _Iterator_base12& _Right) noexcept {
; 1111 :         *this = _Right;
; 1112 :     }
; 1113 : 
; 1114 :     _CONSTEXPR20_CONTAINER _Iterator_base12& operator=(const _Iterator_base12& _Right) noexcept {
; 1115 : #if _ITERATOR_DEBUG_LEVEL == 2
; 1116 : #ifdef __cpp_lib_constexpr_dynamic_alloc
; 1117 :         if (_STD is_constant_evaluated()) {
; 1118 :             _Assign_unlocked(_Right);
; 1119 :         } else
; 1120 : #endif // __cpp_lib_constexpr_dynamic_alloc
; 1121 :         {
; 1122 :             _Assign_locked(_Right);
; 1123 :         }
; 1124 : #else // ^^^ _ITERATOR_DEBUG_LEVEL == 2 ^^^ / vvv _ITERATOR_DEBUG_LEVEL != 2 vvv
; 1125 :         _Myproxy = _Right._Myproxy;
; 1126 : #endif // _ITERATOR_DEBUG_LEVEL != 2
; 1127 :         return *this;
; 1128 :     }
; 1129 : 
; 1130 : #if _ITERATOR_DEBUG_LEVEL == 2
; 1131 :     _CONSTEXPR20_CONTAINER ~_Iterator_base12() noexcept {
; 1132 : #ifdef __cpp_lib_constexpr_dynamic_alloc
; 1133 :         if (_STD is_constant_evaluated()) {
; 1134 :             _Orphan_me_unlocked_v3();
; 1135 :         } else
; 1136 : #endif // __cpp_lib_constexpr_dynamic_alloc
; 1137 :         {
; 1138 :             _Orphan_me_locked_v3();
; 1139 :         }
; 1140 :     }
; 1141 : 
; 1142 :     _CONSTEXPR20_CONTAINER void _Adopt(const _Container_base12* _Parent) noexcept {
; 1143 : #ifdef __cpp_lib_constexpr_dynamic_alloc
; 1144 :         if (_STD is_constant_evaluated()) {
; 1145 :             _Adopt_unlocked(_Parent);
; 1146 :         } else
; 1147 : #endif // __cpp_lib_constexpr_dynamic_alloc
; 1148 :         {
; 1149 :             _Adopt_locked(_Parent);
; 1150 :         }
; 1151 :     }
; 1152 : #else // ^^^ _ITERATOR_DEBUG_LEVEL == 2 ^^^ / vvv _ITERATOR_DEBUG_LEVEL != 2 vvv
; 1153 :     _CONSTEXPR20_CONTAINER void _Adopt(const _Container_base12* _Parent) noexcept {
; 1154 :         if (_Parent) { // have a parent, do adoption
; 1155 :             _Myproxy = _Parent->_Myproxy;
; 1156 :         } else { // no future parent, just disown current parent
; 1157 :             _Myproxy = nullptr;
; 1158 :         }
; 1159 :     }
; 1160 : #endif // _ITERATOR_DEBUG_LEVEL != 2
; 1161 : 
; 1162 :     _CONSTEXPR20_CONTAINER const _Container_base12* _Getcont() const noexcept {
; 1163 :         return _Myproxy ? _Myproxy->_Mycont : nullptr;
; 1164 :     }
; 1165 : 
; 1166 :     static constexpr bool _Unwrap_when_unverified = _ITERATOR_DEBUG_LEVEL == 0;
; 1167 : 
; 1168 :     mutable _Container_proxy* _Myproxy    = nullptr;

  00018	8b 45 fc	 mov	 eax, DWORD PTR _this$[ebp]
  0001b	c7 00 00 00 00
	00		 mov	 DWORD PTR [eax], 0

; 1169 :     mutable _Iterator_base12* _Mynextiter = nullptr;

  00021	8b 4d fc	 mov	 ecx, DWORD PTR _this$[ebp]
  00024	c7 41 04 00 00
	00 00		 mov	 DWORD PTR [ecx+4], 0

; 1108 :     _CONSTEXPR20_CONTAINER _Iterator_base12() noexcept = default; // construct orphaned iterator

  0002b	8b 45 fc	 mov	 eax, DWORD PTR _this$[ebp]
  0002e	83 c4 04	 add	 esp, 4
  00031	3b ec		 cmp	 ebp, esp
  00033	e8 00 00 00 00	 call	 __RTC_CheckEsp
  00038	8b e5		 mov	 esp, ebp
  0003a	5d		 pop	 ebp
  0003b	c3		 ret	 0
??0_Iterator_base12@std@@QAE@XZ ENDP			; std::_Iterator_base12::_Iterator_base12
_TEXT	ENDS
; Function compile flags: /Odtp /RTCsu
; File C:\Program Files (x86)\Microsoft Visual Studio\2019\Community\VC\Tools\MSVC\14.29.30133\include\xmemory
;	COMDAT ?_Orphan_all_locked_v3@_Container_base12@std@@AAEXXZ
_TEXT	SEGMENT
__Lock$ = -16						; size = 4
_this$ = -8						; size = 4
__$ArrayPad$ = -4					; size = 4
?_Orphan_all_locked_v3@_Container_base12@std@@AAEXXZ PROC ; std::_Container_base12::_Orphan_all_locked_v3, COMDAT
; _this$ = ecx

; 1095 :     void _Orphan_all_locked_v3() noexcept {

  00000	55		 push	 ebp
  00001	8b ec		 mov	 ebp, esp
  00003	83 ec 14	 sub	 esp, 20			; 00000014H
  00006	56		 push	 esi
  00007	b8 cc cc cc cc	 mov	 eax, -858993460		; ccccccccH
  0000c	89 45 ec	 mov	 DWORD PTR [ebp-20], eax
  0000f	89 45 f0	 mov	 DWORD PTR [ebp-16], eax
  00012	89 45 f4	 mov	 DWORD PTR [ebp-12], eax
  00015	89 45 f8	 mov	 DWORD PTR [ebp-8], eax
  00018	89 45 fc	 mov	 DWORD PTR [ebp-4], eax
  0001b	a1 00 00 00 00	 mov	 eax, DWORD PTR ___security_cookie
  00020	33 c5		 xor	 eax, ebp
  00022	89 45 fc	 mov	 DWORD PTR __$ArrayPad$[ebp], eax
  00025	89 4d f8	 mov	 DWORD PTR _this$[ebp], ecx
  00028	b9 00 00 00 00	 mov	 ecx, OFFSET __79D216CD_xmemory
  0002d	e8 00 00 00 00	 call	 @__CheckForDebuggerJustMyCode@4

; 1096 :         _Lockit _Lock(_LOCK_DEBUG);

  00032	8b f4		 mov	 esi, esp
  00034	6a 03		 push	 3
  00036	8d 4d f0	 lea	 ecx, DWORD PTR __Lock$[ebp]
  00039	ff 15 00 00 00
	00		 call	 DWORD PTR __imp_??0_Lockit@std@@QAE@H@Z
  0003f	3b f4		 cmp	 esi, esp
  00041	e8 00 00 00 00	 call	 __RTC_CheckEsp

; 1097 :         _Orphan_all_unlocked_v3();

  00046	8b 4d f8	 mov	 ecx, DWORD PTR _this$[ebp]
  00049	e8 00 00 00 00	 call	 ?_Orphan_all_unlocked_v3@_Container_base12@std@@AAEXXZ ; std::_Container_base12::_Orphan_all_unlocked_v3

; 1098 :     }

  0004e	8b f4		 mov	 esi, esp
  00050	8d 4d f0	 lea	 ecx, DWORD PTR __Lock$[ebp]
  00053	ff 15 00 00 00
	00		 call	 DWORD PTR __imp_??1_Lockit@std@@QAE@XZ
  00059	3b f4		 cmp	 esi, esp
  0005b	e8 00 00 00 00	 call	 __RTC_CheckEsp
  00060	52		 push	 edx
  00061	8b cd		 mov	 ecx, ebp
  00063	50		 push	 eax
  00064	8d 15 00 00 00
	00		 lea	 edx, DWORD PTR $LN5@Orphan_all
  0006a	e8 00 00 00 00	 call	 @_RTC_CheckStackVars@8
  0006f	58		 pop	 eax
  00070	5a		 pop	 edx
  00071	5e		 pop	 esi
  00072	8b 4d fc	 mov	 ecx, DWORD PTR __$ArrayPad$[ebp]
  00075	33 cd		 xor	 ecx, ebp
  00077	e8 00 00 00 00	 call	 @__security_check_cookie@4
  0007c	83 c4 14	 add	 esp, 20			; 00000014H
  0007f	3b ec		 cmp	 ebp, esp
  00081	e8 00 00 00 00	 call	 __RTC_CheckEsp
  00086	8b e5		 mov	 esp, ebp
  00088	5d		 pop	 ebp
  00089	c3		 ret	 0
  0008a	66 90		 npad	 2
$LN5@Orphan_all:
  0008c	01 00 00 00	 DD	 1
  00090	00 00 00 00	 DD	 $LN4@Orphan_all
$LN4@Orphan_all:
  00094	f0 ff ff ff	 DD	 -16			; fffffff0H
  00098	04 00 00 00	 DD	 4
  0009c	00 00 00 00	 DD	 $LN3@Orphan_all
$LN3@Orphan_all:
  000a0	5f		 DB	 95			; 0000005fH
  000a1	4c		 DB	 76			; 0000004cH
  000a2	6f		 DB	 111			; 0000006fH
  000a3	63		 DB	 99			; 00000063H
  000a4	6b		 DB	 107			; 0000006bH
  000a5	00		 DB	 0
?_Orphan_all_locked_v3@_Container_base12@std@@AAEXXZ ENDP ; std::_Container_base12::_Orphan_all_locked_v3
_TEXT	ENDS
; Function compile flags: /Odtp /RTCsu
; File C:\Program Files (x86)\Microsoft Visual Studio\2019\Community\VC\Tools\MSVC\14.29.30133\include\xmemory
;	COMDAT ?_Orphan_all_unlocked_v3@_Container_base12@std@@AAEXXZ
_TEXT	SEGMENT
__Pnext$1 = -8						; size = 4
_this$ = -4						; size = 4
?_Orphan_all_unlocked_v3@_Container_base12@std@@AAEXXZ PROC ; std::_Container_base12::_Orphan_all_unlocked_v3, COMDAT
; _this$ = ecx

; 1237 : _CONSTEXPR20_CONTAINER void _Container_base12::_Orphan_all_unlocked_v3() noexcept {

  00000	55		 push	 ebp
  00001	8b ec		 mov	 ebp, esp
  00003	83 ec 08	 sub	 esp, 8
  00006	c7 45 f8 cc cc
	cc cc		 mov	 DWORD PTR [ebp-8], -858993460 ; ccccccccH
  0000d	c7 45 fc cc cc
	cc cc		 mov	 DWORD PTR [ebp-4], -858993460 ; ccccccccH
  00014	89 4d fc	 mov	 DWORD PTR _this$[ebp], ecx
  00017	b9 00 00 00 00	 mov	 ecx, OFFSET __79D216CD_xmemory
  0001c	e8 00 00 00 00	 call	 @__CheckForDebuggerJustMyCode@4

; 1238 :     if (!_Myproxy) { // no proxy, already done

  00021	8b 45 fc	 mov	 eax, DWORD PTR _this$[ebp]
  00024	83 38 00	 cmp	 DWORD PTR [eax], 0
  00027	75 02		 jne	 SHORT $LN5@Orphan_all

; 1239 :         return;

  00029	eb 3b		 jmp	 SHORT $LN6@Orphan_all
$LN5@Orphan_all:

; 1240 :     }
; 1241 : 
; 1242 :     // proxy allocated, drain it
; 1243 :     for (auto& _Pnext = _Myproxy->_Myfirstiter; _Pnext; _Pnext = _Pnext->_Mynextiter) { // TRANSITION, VSO-1269037

  0002b	8b 4d fc	 mov	 ecx, DWORD PTR _this$[ebp]
  0002e	8b 11		 mov	 edx, DWORD PTR [ecx]
  00030	83 c2 04	 add	 edx, 4
  00033	89 55 f8	 mov	 DWORD PTR __Pnext$1[ebp], edx
  00036	eb 0d		 jmp	 SHORT $LN4@Orphan_all
$LN2@Orphan_all:
  00038	8b 45 f8	 mov	 eax, DWORD PTR __Pnext$1[ebp]
  0003b	8b 08		 mov	 ecx, DWORD PTR [eax]
  0003d	8b 55 f8	 mov	 edx, DWORD PTR __Pnext$1[ebp]
  00040	8b 41 04	 mov	 eax, DWORD PTR [ecx+4]
  00043	89 02		 mov	 DWORD PTR [edx], eax
$LN4@Orphan_all:
  00045	8b 4d f8	 mov	 ecx, DWORD PTR __Pnext$1[ebp]
  00048	83 39 00	 cmp	 DWORD PTR [ecx], 0
  0004b	74 0d		 je	 SHORT $LN3@Orphan_all

; 1244 :         _Pnext->_Myproxy = nullptr;

  0004d	8b 55 f8	 mov	 edx, DWORD PTR __Pnext$1[ebp]
  00050	8b 02		 mov	 eax, DWORD PTR [edx]
  00052	c7 00 00 00 00
	00		 mov	 DWORD PTR [eax], 0

; 1245 :     }

  00058	eb de		 jmp	 SHORT $LN2@Orphan_all
$LN3@Orphan_all:

; 1246 :     _Myproxy->_Myfirstiter = nullptr;

  0005a	8b 4d fc	 mov	 ecx, DWORD PTR _this$[ebp]
  0005d	8b 11		 mov	 edx, DWORD PTR [ecx]
  0005f	c7 42 04 00 00
	00 00		 mov	 DWORD PTR [edx+4], 0
$LN6@Orphan_all:

; 1247 : }

  00066	83 c4 08	 add	 esp, 8
  00069	3b ec		 cmp	 ebp, esp
  0006b	e8 00 00 00 00	 call	 __RTC_CheckEsp
  00070	8b e5		 mov	 esp, ebp
  00072	5d		 pop	 ebp
  00073	c3		 ret	 0
?_Orphan_all_unlocked_v3@_Container_base12@std@@AAEXXZ ENDP ; std::_Container_base12::_Orphan_all_unlocked_v3
_TEXT	ENDS
; Function compile flags: /Odtp /RTCsu
; File C:\Program Files (x86)\Microsoft Visual Studio\2019\Community\VC\Tools\MSVC\14.29.30133\include\xmemory
;	COMDAT ?_Orphan_all@_Container_base12@std@@QAEXXZ
_TEXT	SEGMENT
_this$ = -4						; size = 4
?_Orphan_all@_Container_base12@std@@QAEXXZ PROC		; std::_Container_base12::_Orphan_all, COMDAT
; _this$ = ecx

; 1249 : _CONSTEXPR20_CONTAINER void _Container_base12::_Orphan_all() noexcept {

  00000	55		 push	 ebp
  00001	8b ec		 mov	 ebp, esp
  00003	51		 push	 ecx
  00004	c7 45 fc cc cc
	cc cc		 mov	 DWORD PTR [ebp-4], -858993460 ; ccccccccH
  0000b	89 4d fc	 mov	 DWORD PTR _this$[ebp], ecx
  0000e	b9 00 00 00 00	 mov	 ecx, OFFSET __79D216CD_xmemory
  00013	e8 00 00 00 00	 call	 @__CheckForDebuggerJustMyCode@4

; 1250 : #if _ITERATOR_DEBUG_LEVEL == 2
; 1251 : #ifdef __cpp_lib_constexpr_dynamic_alloc
; 1252 :     if (_STD is_constant_evaluated()) {

  00018	e8 00 00 00 00	 call	 ?is_constant_evaluated@std@@YA_NXZ ; std::is_constant_evaluated
  0001d	0f b6 c0	 movzx	 eax, al
  00020	85 c0		 test	 eax, eax
  00022	74 0a		 je	 SHORT $LN2@Orphan_all

; 1253 :         _Orphan_all_unlocked_v3();

  00024	8b 4d fc	 mov	 ecx, DWORD PTR _this$[ebp]
  00027	e8 00 00 00 00	 call	 ?_Orphan_all_unlocked_v3@_Container_base12@std@@AAEXXZ ; std::_Container_base12::_Orphan_all_unlocked_v3

; 1254 :     } else

  0002c	eb 08		 jmp	 SHORT $LN4@Orphan_all
$LN2@Orphan_all:

; 1255 : #endif // __cpp_lib_constexpr_dynamic_alloc
; 1256 :     {
; 1257 :         _Orphan_all_locked_v3();

  0002e	8b 4d fc	 mov	 ecx, DWORD PTR _this$[ebp]
  00031	e8 00 00 00 00	 call	 ?_Orphan_all_locked_v3@_Container_base12@std@@AAEXXZ ; std::_Container_base12::_Orphan_all_locked_v3
$LN4@Orphan_all:

; 1258 :     }
; 1259 : #endif // _ITERATOR_DEBUG_LEVEL == 2
; 1260 : }

  00036	83 c4 04	 add	 esp, 4
  00039	3b ec		 cmp	 ebp, esp
  0003b	e8 00 00 00 00	 call	 __RTC_CheckEsp
  00040	8b e5		 mov	 esp, ebp
  00042	5d		 pop	 ebp
  00043	c3		 ret	 0
?_Orphan_all@_Container_base12@std@@QAEXXZ ENDP		; std::_Container_base12::_Orphan_all
_TEXT	ENDS
; Function compile flags: /Odtp /RTCsu
; File C:\Program Files (x86)\Microsoft Visual Studio\2019\Community\VC\Tools\MSVC\14.29.30133\include\xmemory
;	COMDAT ??0_Container_base12@std@@QAE@XZ
_TEXT	SEGMENT
_this$ = -4						; size = 4
??0_Container_base12@std@@QAE@XZ PROC			; std::_Container_base12::_Container_base12, COMDAT
; _this$ = ecx

; 1064 :     _CONSTEXPR20_CONTAINER _Container_base12() noexcept = default;

  00000	55		 push	 ebp
  00001	8b ec		 mov	 ebp, esp
  00003	51		 push	 ecx
  00004	c7 45 fc cc cc
	cc cc		 mov	 DWORD PTR [ebp-4], -858993460 ; ccccccccH
  0000b	89 4d fc	 mov	 DWORD PTR _this$[ebp], ecx
  0000e	b9 00 00 00 00	 mov	 ecx, OFFSET __79D216CD_xmemory
  00013	e8 00 00 00 00	 call	 @__CheckForDebuggerJustMyCode@4

; 1065 : 
; 1066 :     _Container_base12(const _Container_base12&) = delete;
; 1067 :     _Container_base12& operator=(const _Container_base12&) = delete;
; 1068 : 
; 1069 :     _CONSTEXPR20_CONTAINER void _Orphan_all() noexcept;
; 1070 :     _CONSTEXPR20_CONTAINER void _Swap_proxy_and_iterators(_Container_base12&) noexcept;
; 1071 : 
; 1072 :     template <class _Alloc>
; 1073 :     _CONSTEXPR20_CONTAINER void _Alloc_proxy(_Alloc&& _Al) {
; 1074 :         _Container_proxy* const _New_proxy = _Unfancy(_Al.allocate(1));
; 1075 :         _Construct_in_place(*_New_proxy, this);
; 1076 :         _Myproxy            = _New_proxy;
; 1077 :         _New_proxy->_Mycont = this;
; 1078 :     }
; 1079 : 
; 1080 :     template <class _Alloc>
; 1081 :     _CONSTEXPR20_CONTAINER void _Reload_proxy(_Alloc&& _Old_alloc, _Alloc&& _New_alloc) {
; 1082 :         // pre: no iterators refer to the existing proxy
; 1083 :         _Container_proxy* const _New_proxy = _Unfancy(_New_alloc.allocate(1));
; 1084 :         _Construct_in_place(*_New_proxy, this);
; 1085 :         _New_proxy->_Mycont = this;
; 1086 :         _Delete_plain_internal(_Old_alloc, _STD exchange(_Myproxy, _New_proxy));
; 1087 :     }
; 1088 : 
; 1089 :     _Container_proxy* _Myproxy = nullptr;

  00018	8b 45 fc	 mov	 eax, DWORD PTR _this$[ebp]
  0001b	c7 00 00 00 00
	00		 mov	 DWORD PTR [eax], 0

; 1064 :     _CONSTEXPR20_CONTAINER _Container_base12() noexcept = default;

  00021	8b 45 fc	 mov	 eax, DWORD PTR _this$[ebp]
  00024	83 c4 04	 add	 esp, 4
  00027	3b ec		 cmp	 ebp, esp
  00029	e8 00 00 00 00	 call	 __RTC_CheckEsp
  0002e	8b e5		 mov	 esp, ebp
  00030	5d		 pop	 ebp
  00031	c3		 ret	 0
??0_Container_base12@std@@QAE@XZ ENDP			; std::_Container_base12::_Container_base12
_TEXT	ENDS
; Function compile flags: /Odtp /RTCsu
; File C:\Program Files (x86)\Microsoft Visual Studio\2019\Community\VC\Tools\MSVC\14.29.30133\include\xmemory
;	COMDAT ??0_Container_proxy@std@@QAE@PAU_Container_base12@1@@Z
_TEXT	SEGMENT
_this$ = -4						; size = 4
__Mycont_$ = 8						; size = 4
??0_Container_proxy@std@@QAE@PAU_Container_base12@1@@Z PROC ; std::_Container_proxy::_Container_proxy, COMDAT
; _this$ = ecx

; 1056 :     _CONSTEXPR20_CONTAINER _Container_proxy(_Container_base12* _Mycont_) noexcept : _Mycont(_Mycont_) {}

  00000	55		 push	 ebp
  00001	8b ec		 mov	 ebp, esp
  00003	51		 push	 ecx
  00004	c7 45 fc cc cc
	cc cc		 mov	 DWORD PTR [ebp-4], -858993460 ; ccccccccH
  0000b	89 4d fc	 mov	 DWORD PTR _this$[ebp], ecx
  0000e	b9 00 00 00 00	 mov	 ecx, OFFSET __79D216CD_xmemory
  00013	e8 00 00 00 00	 call	 @__CheckForDebuggerJustMyCode@4
  00018	8b 45 fc	 mov	 eax, DWORD PTR _this$[ebp]
  0001b	8b 4d 08	 mov	 ecx, DWORD PTR __Mycont_$[ebp]
  0001e	89 08		 mov	 DWORD PTR [eax], ecx

; 1057 : 
; 1058 :     const _Container_base12* _Mycont       = nullptr;
; 1059 :     mutable _Iterator_base12* _Myfirstiter = nullptr;

  00020	8b 55 fc	 mov	 edx, DWORD PTR _this$[ebp]
  00023	c7 42 04 00 00
	00 00		 mov	 DWORD PTR [edx+4], 0

; 1056 :     _CONSTEXPR20_CONTAINER _Container_proxy(_Container_base12* _Mycont_) noexcept : _Mycont(_Mycont_) {}

  0002a	8b 45 fc	 mov	 eax, DWORD PTR _this$[ebp]
  0002d	83 c4 04	 add	 esp, 4
  00030	3b ec		 cmp	 ebp, esp
  00032	e8 00 00 00 00	 call	 __RTC_CheckEsp
  00037	8b e5		 mov	 esp, ebp
  00039	5d		 pop	 ebp
  0003a	c2 04 00	 ret	 4
??0_Container_proxy@std@@QAE@PAU_Container_base12@1@@Z ENDP ; std::_Container_proxy::_Container_proxy
_TEXT	ENDS
; Function compile flags: /Odtp /RTCsu
; File C:\Program Files (x86)\Microsoft Visual Studio\2019\Community\VC\Tools\MSVC\14.29.30133\include\xmemory
;	COMDAT ?_Adjust_manually_vector_aligned@std@@YAXAAPAXAAI@Z
_TEXT	SEGMENT
__Back_shift$ = -16					; size = 4
__Min_back_shift$ = -12					; size = 4
__Ptr_container$ = -8					; size = 4
__Ptr_user$ = -4					; size = 4
__Ptr$ = 8						; size = 4
__Bytes$ = 12						; size = 4
?_Adjust_manually_vector_aligned@std@@YAXAAPAXAAI@Z PROC ; std::_Adjust_manually_vector_aligned, COMDAT

; 153  : inline void _Adjust_manually_vector_aligned(void*& _Ptr, size_t& _Bytes) {

  00000	55		 push	 ebp
  00001	8b ec		 mov	 ebp, esp
  00003	83 ec 10	 sub	 esp, 16			; 00000010H
  00006	56		 push	 esi
  00007	b8 cc cc cc cc	 mov	 eax, -858993460		; ccccccccH
  0000c	89 45 f0	 mov	 DWORD PTR [ebp-16], eax
  0000f	89 45 f4	 mov	 DWORD PTR [ebp-12], eax
  00012	89 45 f8	 mov	 DWORD PTR [ebp-8], eax
  00015	89 45 fc	 mov	 DWORD PTR [ebp-4], eax
  00018	b9 00 00 00 00	 mov	 ecx, OFFSET __79D216CD_xmemory
  0001d	e8 00 00 00 00	 call	 @__CheckForDebuggerJustMyCode@4

; 154  :     // adjust parameters from _Allocate_manually_vector_aligned to pass to operator delete
; 155  :     _Bytes += _Non_user_size;

  00022	8b 45 0c	 mov	 eax, DWORD PTR __Bytes$[ebp]
  00025	8b 08		 mov	 ecx, DWORD PTR [eax]
  00027	83 c1 27	 add	 ecx, 39			; 00000027H
  0002a	8b 55 0c	 mov	 edx, DWORD PTR __Bytes$[ebp]
  0002d	89 0a		 mov	 DWORD PTR [edx], ecx

; 156  : 
; 157  :     const uintptr_t* const _Ptr_user = reinterpret_cast<uintptr_t*>(_Ptr);

  0002f	8b 45 08	 mov	 eax, DWORD PTR __Ptr$[ebp]
  00032	8b 08		 mov	 ecx, DWORD PTR [eax]
  00034	89 4d fc	 mov	 DWORD PTR __Ptr_user$[ebp], ecx

; 158  :     const uintptr_t _Ptr_container   = _Ptr_user[-1];

  00037	ba 04 00 00 00	 mov	 edx, 4
  0003c	6b c2 ff	 imul	 eax, edx, -1
  0003f	8b 4d fc	 mov	 ecx, DWORD PTR __Ptr_user$[ebp]
  00042	8b 14 01	 mov	 edx, DWORD PTR [ecx+eax]
  00045	89 55 f8	 mov	 DWORD PTR __Ptr_container$[ebp], edx
$LN4@Adjust_man:

; 159  : 
; 160  :     // If the following asserts, it likely means that we are performing
; 161  :     // an aligned delete on memory coming from an unaligned allocation.
; 162  :     _STL_ASSERT(_Ptr_user[-2] == _Big_allocation_sentinel, "invalid argument");

  00048	b8 04 00 00 00	 mov	 eax, 4
  0004d	6b c8 fe	 imul	 ecx, eax, -2
  00050	8b 55 fc	 mov	 edx, DWORD PTR __Ptr_user$[ebp]
  00053	81 3c 0a fa fa
	fa fa		 cmp	 DWORD PTR [edx+ecx], -84215046 ; fafafafaH
  0005a	75 02		 jne	 SHORT $LN7@Adjust_man
  0005c	eb 5c		 jmp	 SHORT $LN2@Adjust_man
$LN7@Adjust_man:
  0005e	8b f4		 mov	 esi, esp
  00060	68 00 00 00 00	 push	 OFFSET ??_C@_0BB@FCMFBGOM@invalid?5argument@
  00065	68 00 00 00 00	 push	 OFFSET ??_C@_02DKCKIIND@?$CFs@
  0006a	6a 00		 push	 0
  0006c	68 a2 00 00 00	 push	 162			; 000000a2H
  00071	68 00 00 00 00	 push	 OFFSET ??_C@_0GI@MNEMJBML@C?3?2Program?5Files?5?$CIx86?$CJ?2Microsof@
  00076	6a 02		 push	 2
  00078	ff 15 00 00 00
	00		 call	 DWORD PTR __imp___CrtDbgReport
  0007e	83 c4 18	 add	 esp, 24			; 00000018H
  00081	3b f4		 cmp	 esi, esp
  00083	e8 00 00 00 00	 call	 __RTC_CheckEsp
  00088	83 f8 01	 cmp	 eax, 1
  0008b	75 01		 jne	 SHORT $LN19@Adjust_man
  0008d	cc		 int	 3
$LN19@Adjust_man:
  0008e	8b f4		 mov	 esi, esp
  00090	6a 00		 push	 0
  00092	68 a2 00 00 00	 push	 162			; 000000a2H
  00097	68 00 00 00 00	 push	 OFFSET ??_C@_1NA@MJBOBEJL@?$AAC?$AA?3?$AA?2?$AAP?$AAr?$AAo?$AAg?$AAr?$AAa?$AAm?$AA?5?$AAF?$AAi?$AAl?$AAe@
  0009c	68 00 00 00 00	 push	 OFFSET ??_C@_1EK@NIFDJFDG@?$AAs?$AAt?$AAd?$AA?3?$AA?3?$AA_?$AAA?$AAd?$AAj?$AAu?$AAs?$AAt?$AA_?$AAm?$AAa@
  000a1	68 00 00 00 00	 push	 OFFSET ??_C@_1CG@JNLFBNGN@?$AA?$CC?$AAi?$AAn?$AAv?$AAa?$AAl?$AAi?$AAd?$AA?5?$AAa?$AAr?$AAg?$AAu?$AAm?$AAe@
  000a6	ff 15 00 00 00
	00		 call	 DWORD PTR __imp___invalid_parameter
  000ac	83 c4 14	 add	 esp, 20			; 00000014H
  000af	3b f4		 cmp	 esi, esp
  000b1	e8 00 00 00 00	 call	 __RTC_CheckEsp
  000b6	33 c9		 xor	 ecx, ecx
  000b8	75 a4		 jne	 SHORT $LN7@Adjust_man
$LN2@Adjust_man:
  000ba	33 d2		 xor	 edx, edx
  000bc	75 8a		 jne	 SHORT $LN4@Adjust_man

; 163  : 
; 164  :     // Extra paranoia on aligned allocation/deallocation; ensure _Ptr_container is
; 165  :     // in range [_Min_back_shift, _Non_user_size]
; 166  : #ifdef _DEBUG
; 167  :     constexpr uintptr_t _Min_back_shift = 2 * sizeof(void*);

  000be	c7 45 f4 08 00
	00 00		 mov	 DWORD PTR __Min_back_shift$[ebp], 8

; 168  : #else // ^^^ _DEBUG ^^^ // vvv !_DEBUG vvv
; 169  :     constexpr uintptr_t _Min_back_shift = sizeof(void*);
; 170  : #endif // _DEBUG
; 171  :     const uintptr_t _Back_shift = reinterpret_cast<uintptr_t>(_Ptr) - _Ptr_container;

  000c5	8b 45 08	 mov	 eax, DWORD PTR __Ptr$[ebp]
  000c8	8b 08		 mov	 ecx, DWORD PTR [eax]
  000ca	2b 4d f8	 sub	 ecx, DWORD PTR __Ptr_container$[ebp]
  000cd	89 4d f0	 mov	 DWORD PTR __Back_shift$[ebp], ecx
$LN10@Adjust_man:

; 172  :     _STL_VERIFY(_Back_shift >= _Min_back_shift && _Back_shift <= _Non_user_size, "invalid argument");

  000d0	83 7d f0 08	 cmp	 DWORD PTR __Back_shift$[ebp], 8
  000d4	72 08		 jb	 SHORT $LN13@Adjust_man
  000d6	83 7d f0 27	 cmp	 DWORD PTR __Back_shift$[ebp], 39 ; 00000027H
  000da	77 02		 ja	 SHORT $LN13@Adjust_man
  000dc	eb 5c		 jmp	 SHORT $LN8@Adjust_man
$LN13@Adjust_man:
  000de	8b f4		 mov	 esi, esp
  000e0	68 00 00 00 00	 push	 OFFSET ??_C@_0BB@FCMFBGOM@invalid?5argument@
  000e5	68 00 00 00 00	 push	 OFFSET ??_C@_02DKCKIIND@?$CFs@
  000ea	6a 00		 push	 0
  000ec	68 ac 00 00 00	 push	 172			; 000000acH
  000f1	68 00 00 00 00	 push	 OFFSET ??_C@_0GI@MNEMJBML@C?3?2Program?5Files?5?$CIx86?$CJ?2Microsof@
  000f6	6a 02		 push	 2
  000f8	ff 15 00 00 00
	00		 call	 DWORD PTR __imp___CrtDbgReport
  000fe	83 c4 18	 add	 esp, 24			; 00000018H
  00101	3b f4		 cmp	 esi, esp
  00103	e8 00 00 00 00	 call	 __RTC_CheckEsp
  00108	83 f8 01	 cmp	 eax, 1
  0010b	75 01		 jne	 SHORT $LN20@Adjust_man
  0010d	cc		 int	 3
$LN20@Adjust_man:
  0010e	8b f4		 mov	 esi, esp
  00110	6a 00		 push	 0
  00112	68 ac 00 00 00	 push	 172			; 000000acH
  00117	68 00 00 00 00	 push	 OFFSET ??_C@_1NA@MJBOBEJL@?$AAC?$AA?3?$AA?2?$AAP?$AAr?$AAo?$AAg?$AAr?$AAa?$AAm?$AA?5?$AAF?$AAi?$AAl?$AAe@
  0011c	68 00 00 00 00	 push	 OFFSET ??_C@_1EK@NIFDJFDG@?$AAs?$AAt?$AAd?$AA?3?$AA?3?$AA_?$AAA?$AAd?$AAj?$AAu?$AAs?$AAt?$AA_?$AAm?$AAa@
  00121	68 00 00 00 00	 push	 OFFSET ??_C@_1CG@JNLFBNGN@?$AA?$CC?$AAi?$AAn?$AAv?$AAa?$AAl?$AAi?$AAd?$AA?5?$AAa?$AAr?$AAg?$AAu?$AAm?$AAe@
  00126	ff 15 00 00 00
	00		 call	 DWORD PTR __imp___invalid_parameter
  0012c	83 c4 14	 add	 esp, 20			; 00000014H
  0012f	3b f4		 cmp	 esi, esp
  00131	e8 00 00 00 00	 call	 __RTC_CheckEsp
  00136	33 c0		 xor	 eax, eax
  00138	75 a4		 jne	 SHORT $LN13@Adjust_man
$LN8@Adjust_man:
  0013a	33 c9		 xor	 ecx, ecx
  0013c	75 92		 jne	 SHORT $LN10@Adjust_man

; 173  :     _Ptr = reinterpret_cast<void*>(_Ptr_container);

  0013e	8b 55 08	 mov	 edx, DWORD PTR __Ptr$[ebp]
  00141	8b 45 f8	 mov	 eax, DWORD PTR __Ptr_container$[ebp]
  00144	89 02		 mov	 DWORD PTR [edx], eax

; 174  : }

  00146	5e		 pop	 esi
  00147	83 c4 10	 add	 esp, 16			; 00000010H
  0014a	3b ec		 cmp	 ebp, esp
  0014c	e8 00 00 00 00	 call	 __RTC_CheckEsp
  00151	8b e5		 mov	 esp, ebp
  00153	5d		 pop	 ebp
  00154	c3		 ret	 0
?_Adjust_manually_vector_aligned@std@@YAXAAPAXAAI@Z ENDP ; std::_Adjust_manually_vector_aligned
_TEXT	ENDS
; Function compile flags: /Odtp /RTCsu
; File C:\Program Files (x86)\Microsoft Visual Studio\2019\Community\VC\Tools\MSVC\14.29.30133\include\xmemory
;	COMDAT ?_Allocate@_Default_allocate_traits@std@@SAPAXI@Z
_TEXT	SEGMENT
__Bytes$ = 8						; size = 4
?_Allocate@_Default_allocate_traits@std@@SAPAXI@Z PROC	; std::_Default_allocate_traits::_Allocate, COMDAT

; 84   :         void* _Allocate(const size_t _Bytes) {

  00000	55		 push	 ebp
  00001	8b ec		 mov	 ebp, esp
  00003	b9 00 00 00 00	 mov	 ecx, OFFSET __79D216CD_xmemory
  00008	e8 00 00 00 00	 call	 @__CheckForDebuggerJustMyCode@4

; 85   :         return ::operator new(_Bytes);

  0000d	8b 45 08	 mov	 eax, DWORD PTR __Bytes$[ebp]
  00010	50		 push	 eax
  00011	e8 00 00 00 00	 call	 ??2@YAPAXI@Z		; operator new
  00016	83 c4 04	 add	 esp, 4

; 86   :     }

  00019	3b ec		 cmp	 ebp, esp
  0001b	e8 00 00 00 00	 call	 __RTC_CheckEsp
  00020	5d		 pop	 ebp
  00021	c3		 ret	 0
?_Allocate@_Default_allocate_traits@std@@SAPAXI@Z ENDP	; std::_Default_allocate_traits::_Allocate
_TEXT	ENDS
; Function compile flags: /Odtp /RTCsu
; File C:\Program Files (x86)\Microsoft Visual Studio\2019\Community\VC\Tools\MSVC\14.29.30133\include\exception
;	COMDAT ?_Throw_bad_array_new_length@std@@YAXXZ
_TEXT	SEGMENT
$T1 = -12						; size = 12
?_Throw_bad_array_new_length@std@@YAXXZ PROC		; std::_Throw_bad_array_new_length, COMDAT

; 320  : [[noreturn]] inline void _Throw_bad_array_new_length() {

  00000	55		 push	 ebp
  00001	8b ec		 mov	 ebp, esp
  00003	83 ec 0c	 sub	 esp, 12			; 0000000cH
  00006	c7 45 f4 cc cc
	cc cc		 mov	 DWORD PTR [ebp-12], -858993460 ; ccccccccH
  0000d	c7 45 f8 cc cc
	cc cc		 mov	 DWORD PTR [ebp-8], -858993460 ; ccccccccH
  00014	c7 45 fc cc cc
	cc cc		 mov	 DWORD PTR [ebp-4], -858993460 ; ccccccccH
  0001b	b9 00 00 00 00	 mov	 ecx, OFFSET __FF458F76_exception
  00020	e8 00 00 00 00	 call	 @__CheckForDebuggerJustMyCode@4

; 321  :     _THROW(bad_array_new_length{});

  00025	8d 4d f4	 lea	 ecx, DWORD PTR $T1[ebp]
  00028	e8 00 00 00 00	 call	 ??0bad_array_new_length@std@@QAE@XZ ; std::bad_array_new_length::bad_array_new_length
  0002d	68 00 00 00 00	 push	 OFFSET __TI3?AVbad_array_new_length@std@@
  00032	8d 45 f4	 lea	 eax, DWORD PTR $T1[ebp]
  00035	50		 push	 eax
  00036	e8 00 00 00 00	 call	 __CxxThrowException@8
$LN2@Throw_bad_:

; 322  : }

  0003b	83 c4 0c	 add	 esp, 12			; 0000000cH
  0003e	3b ec		 cmp	 ebp, esp
  00040	e8 00 00 00 00	 call	 __RTC_CheckEsp
  00045	8b e5		 mov	 esp, ebp
  00047	5d		 pop	 ebp
  00048	c3		 ret	 0
?_Throw_bad_array_new_length@std@@YAXXZ ENDP		; std::_Throw_bad_array_new_length
_TEXT	ENDS
; Function compile flags: /Odtp /RTCsu
;	COMDAT ??_Gbad_array_new_length@std@@UAEPAXI@Z
_TEXT	SEGMENT
_this$ = -4						; size = 4
___flags$ = 8						; size = 4
??_Gbad_array_new_length@std@@UAEPAXI@Z PROC		; std::bad_array_new_length::`scalar deleting destructor', COMDAT
; _this$ = ecx
  00000	55		 push	 ebp
  00001	8b ec		 mov	 ebp, esp
  00003	51		 push	 ecx
  00004	c7 45 fc cc cc
	cc cc		 mov	 DWORD PTR [ebp-4], -858993460 ; ccccccccH
  0000b	89 4d fc	 mov	 DWORD PTR _this$[ebp], ecx
  0000e	8b 4d fc	 mov	 ecx, DWORD PTR _this$[ebp]
  00011	e8 00 00 00 00	 call	 ??1bad_array_new_length@std@@UAE@XZ
  00016	8b 45 08	 mov	 eax, DWORD PTR ___flags$[ebp]
  00019	83 e0 01	 and	 eax, 1
  0001c	74 0e		 je	 SHORT $LN2@scalar
  0001e	6a 0c		 push	 12			; 0000000cH
  00020	8b 4d fc	 mov	 ecx, DWORD PTR _this$[ebp]
  00023	51		 push	 ecx
  00024	e8 00 00 00 00	 call	 ??3@YAXPAXI@Z		; operator delete
  00029	83 c4 08	 add	 esp, 8
$LN2@scalar:
  0002c	8b 45 fc	 mov	 eax, DWORD PTR _this$[ebp]
  0002f	83 c4 04	 add	 esp, 4
  00032	3b ec		 cmp	 ebp, esp
  00034	e8 00 00 00 00	 call	 __RTC_CheckEsp
  00039	8b e5		 mov	 esp, ebp
  0003b	5d		 pop	 ebp
  0003c	c2 04 00	 ret	 4
??_Gbad_array_new_length@std@@UAEPAXI@Z ENDP		; std::bad_array_new_length::`scalar deleting destructor'
_TEXT	ENDS
; Function compile flags: /Odtp /RTCsu
;	COMDAT ??0bad_array_new_length@std@@QAE@ABV01@@Z
_TEXT	SEGMENT
_this$ = -4						; size = 4
___that$ = 8						; size = 4
??0bad_array_new_length@std@@QAE@ABV01@@Z PROC		; std::bad_array_new_length::bad_array_new_length, COMDAT
; _this$ = ecx
  00000	55		 push	 ebp
  00001	8b ec		 mov	 ebp, esp
  00003	51		 push	 ecx
  00004	c7 45 fc cc cc
	cc cc		 mov	 DWORD PTR [ebp-4], -858993460 ; ccccccccH
  0000b	89 4d fc	 mov	 DWORD PTR _this$[ebp], ecx
  0000e	8b 45 08	 mov	 eax, DWORD PTR ___that$[ebp]
  00011	50		 push	 eax
  00012	8b 4d fc	 mov	 ecx, DWORD PTR _this$[ebp]
  00015	e8 00 00 00 00	 call	 ??0bad_alloc@std@@QAE@ABV01@@Z
  0001a	8b 4d fc	 mov	 ecx, DWORD PTR _this$[ebp]
  0001d	c7 01 00 00 00
	00		 mov	 DWORD PTR [ecx], OFFSET ??_7bad_array_new_length@std@@6B@
  00023	8b 45 fc	 mov	 eax, DWORD PTR _this$[ebp]
  00026	83 c4 04	 add	 esp, 4
  00029	3b ec		 cmp	 ebp, esp
  0002b	e8 00 00 00 00	 call	 __RTC_CheckEsp
  00030	8b e5		 mov	 esp, ebp
  00032	5d		 pop	 ebp
  00033	c2 04 00	 ret	 4
??0bad_array_new_length@std@@QAE@ABV01@@Z ENDP		; std::bad_array_new_length::bad_array_new_length
_TEXT	ENDS
; Function compile flags: /Odtp /RTCsu
;	COMDAT ??1bad_array_new_length@std@@UAE@XZ
_TEXT	SEGMENT
_this$ = -4						; size = 4
??1bad_array_new_length@std@@UAE@XZ PROC		; std::bad_array_new_length::~bad_array_new_length, COMDAT
; _this$ = ecx
  00000	55		 push	 ebp
  00001	8b ec		 mov	 ebp, esp
  00003	51		 push	 ecx
  00004	c7 45 fc cc cc
	cc cc		 mov	 DWORD PTR [ebp-4], -858993460 ; ccccccccH
  0000b	89 4d fc	 mov	 DWORD PTR _this$[ebp], ecx
  0000e	8b 4d fc	 mov	 ecx, DWORD PTR _this$[ebp]
  00011	e8 00 00 00 00	 call	 ??1bad_alloc@std@@UAE@XZ
  00016	83 c4 04	 add	 esp, 4
  00019	3b ec		 cmp	 ebp, esp
  0001b	e8 00 00 00 00	 call	 __RTC_CheckEsp
  00020	8b e5		 mov	 esp, ebp
  00022	5d		 pop	 ebp
  00023	c3		 ret	 0
??1bad_array_new_length@std@@UAE@XZ ENDP		; std::bad_array_new_length::~bad_array_new_length
_TEXT	ENDS
; Function compile flags: /Odtp /RTCsu
; File C:\Program Files (x86)\Microsoft Visual Studio\2019\Community\VC\Tools\MSVC\14.29.30133\include\vcruntime_exception.h
;	COMDAT ??0bad_array_new_length@std@@QAE@XZ
_TEXT	SEGMENT
_this$ = -4						; size = 4
??0bad_array_new_length@std@@QAE@XZ PROC		; std::bad_array_new_length::bad_array_new_length, COMDAT
; _this$ = ecx

; 141  :     {

  00000	55		 push	 ebp
  00001	8b ec		 mov	 ebp, esp
  00003	51		 push	 ecx
  00004	c7 45 fc cc cc
	cc cc		 mov	 DWORD PTR [ebp-4], -858993460 ; ccccccccH
  0000b	89 4d fc	 mov	 DWORD PTR _this$[ebp], ecx
  0000e	b9 00 00 00 00	 mov	 ecx, OFFSET __B0A13A33_vcruntime_exception@h
  00013	e8 00 00 00 00	 call	 @__CheckForDebuggerJustMyCode@4

; 140  :         : bad_alloc("bad array new length")

  00018	68 00 00 00 00	 push	 OFFSET ??_C@_0BF@KINCDENJ@bad?5array?5new?5length@
  0001d	8b 4d fc	 mov	 ecx, DWORD PTR _this$[ebp]
  00020	e8 00 00 00 00	 call	 ??0bad_alloc@std@@AAE@QBD@Z ; std::bad_alloc::bad_alloc

; 141  :     {

  00025	8b 45 fc	 mov	 eax, DWORD PTR _this$[ebp]
  00028	c7 00 00 00 00
	00		 mov	 DWORD PTR [eax], OFFSET ??_7bad_array_new_length@std@@6B@

; 142  :     }

  0002e	8b 45 fc	 mov	 eax, DWORD PTR _this$[ebp]
  00031	83 c4 04	 add	 esp, 4
  00034	3b ec		 cmp	 ebp, esp
  00036	e8 00 00 00 00	 call	 __RTC_CheckEsp
  0003b	8b e5		 mov	 esp, ebp
  0003d	5d		 pop	 ebp
  0003e	c3		 ret	 0
??0bad_array_new_length@std@@QAE@XZ ENDP		; std::bad_array_new_length::bad_array_new_length
_TEXT	ENDS
; Function compile flags: /Odtp /RTCsu
;	COMDAT ??_Gbad_alloc@std@@UAEPAXI@Z
_TEXT	SEGMENT
_this$ = -4						; size = 4
___flags$ = 8						; size = 4
??_Gbad_alloc@std@@UAEPAXI@Z PROC			; std::bad_alloc::`scalar deleting destructor', COMDAT
; _this$ = ecx
  00000	55		 push	 ebp
  00001	8b ec		 mov	 ebp, esp
  00003	51		 push	 ecx
  00004	c7 45 fc cc cc
	cc cc		 mov	 DWORD PTR [ebp-4], -858993460 ; ccccccccH
  0000b	89 4d fc	 mov	 DWORD PTR _this$[ebp], ecx
  0000e	8b 4d fc	 mov	 ecx, DWORD PTR _this$[ebp]
  00011	e8 00 00 00 00	 call	 ??1bad_alloc@std@@UAE@XZ
  00016	8b 45 08	 mov	 eax, DWORD PTR ___flags$[ebp]
  00019	83 e0 01	 and	 eax, 1
  0001c	74 0e		 je	 SHORT $LN2@scalar
  0001e	6a 0c		 push	 12			; 0000000cH
  00020	8b 4d fc	 mov	 ecx, DWORD PTR _this$[ebp]
  00023	51		 push	 ecx
  00024	e8 00 00 00 00	 call	 ??3@YAXPAXI@Z		; operator delete
  00029	83 c4 08	 add	 esp, 8
$LN2@scalar:
  0002c	8b 45 fc	 mov	 eax, DWORD PTR _this$[ebp]
  0002f	83 c4 04	 add	 esp, 4
  00032	3b ec		 cmp	 ebp, esp
  00034	e8 00 00 00 00	 call	 __RTC_CheckEsp
  00039	8b e5		 mov	 esp, ebp
  0003b	5d		 pop	 ebp
  0003c	c2 04 00	 ret	 4
??_Gbad_alloc@std@@UAEPAXI@Z ENDP			; std::bad_alloc::`scalar deleting destructor'
_TEXT	ENDS
; Function compile flags: /Odtp /RTCsu
;	COMDAT ??0bad_alloc@std@@QAE@ABV01@@Z
_TEXT	SEGMENT
_this$ = -4						; size = 4
___that$ = 8						; size = 4
??0bad_alloc@std@@QAE@ABV01@@Z PROC			; std::bad_alloc::bad_alloc, COMDAT
; _this$ = ecx
  00000	55		 push	 ebp
  00001	8b ec		 mov	 ebp, esp
  00003	51		 push	 ecx
  00004	c7 45 fc cc cc
	cc cc		 mov	 DWORD PTR [ebp-4], -858993460 ; ccccccccH
  0000b	89 4d fc	 mov	 DWORD PTR _this$[ebp], ecx
  0000e	8b 45 08	 mov	 eax, DWORD PTR ___that$[ebp]
  00011	50		 push	 eax
  00012	8b 4d fc	 mov	 ecx, DWORD PTR _this$[ebp]
  00015	e8 00 00 00 00	 call	 ??0exception@std@@QAE@ABV01@@Z ; std::exception::exception
  0001a	8b 4d fc	 mov	 ecx, DWORD PTR _this$[ebp]
  0001d	c7 01 00 00 00
	00		 mov	 DWORD PTR [ecx], OFFSET ??_7bad_alloc@std@@6B@
  00023	8b 45 fc	 mov	 eax, DWORD PTR _this$[ebp]
  00026	83 c4 04	 add	 esp, 4
  00029	3b ec		 cmp	 ebp, esp
  0002b	e8 00 00 00 00	 call	 __RTC_CheckEsp
  00030	8b e5		 mov	 esp, ebp
  00032	5d		 pop	 ebp
  00033	c2 04 00	 ret	 4
??0bad_alloc@std@@QAE@ABV01@@Z ENDP			; std::bad_alloc::bad_alloc
_TEXT	ENDS
; Function compile flags: /Odtp /RTCsu
;	COMDAT ??1bad_alloc@std@@UAE@XZ
_TEXT	SEGMENT
_this$ = -4						; size = 4
??1bad_alloc@std@@UAE@XZ PROC				; std::bad_alloc::~bad_alloc, COMDAT
; _this$ = ecx
  00000	55		 push	 ebp
  00001	8b ec		 mov	 ebp, esp
  00003	51		 push	 ecx
  00004	c7 45 fc cc cc
	cc cc		 mov	 DWORD PTR [ebp-4], -858993460 ; ccccccccH
  0000b	89 4d fc	 mov	 DWORD PTR _this$[ebp], ecx
  0000e	8b 4d fc	 mov	 ecx, DWORD PTR _this$[ebp]
  00011	e8 00 00 00 00	 call	 ??1exception@std@@UAE@XZ ; std::exception::~exception
  00016	83 c4 04	 add	 esp, 4
  00019	3b ec		 cmp	 ebp, esp
  0001b	e8 00 00 00 00	 call	 __RTC_CheckEsp
  00020	8b e5		 mov	 esp, ebp
  00022	5d		 pop	 ebp
  00023	c3		 ret	 0
??1bad_alloc@std@@UAE@XZ ENDP				; std::bad_alloc::~bad_alloc
_TEXT	ENDS
; Function compile flags: /Odtp /RTCsu
; File C:\Program Files (x86)\Microsoft Visual Studio\2019\Community\VC\Tools\MSVC\14.29.30133\include\vcruntime_exception.h
;	COMDAT ??0bad_alloc@std@@AAE@QBD@Z
_TEXT	SEGMENT
_this$ = -4						; size = 4
__Message$ = 8						; size = 4
??0bad_alloc@std@@AAE@QBD@Z PROC			; std::bad_alloc::bad_alloc, COMDAT
; _this$ = ecx

; 130  :     {

  00000	55		 push	 ebp
  00001	8b ec		 mov	 ebp, esp
  00003	51		 push	 ecx
  00004	c7 45 fc cc cc
	cc cc		 mov	 DWORD PTR [ebp-4], -858993460 ; ccccccccH
  0000b	89 4d fc	 mov	 DWORD PTR _this$[ebp], ecx
  0000e	b9 00 00 00 00	 mov	 ecx, OFFSET __B0A13A33_vcruntime_exception@h
  00013	e8 00 00 00 00	 call	 @__CheckForDebuggerJustMyCode@4

; 129  :         : exception(_Message, 1)

  00018	6a 01		 push	 1
  0001a	8b 45 08	 mov	 eax, DWORD PTR __Message$[ebp]
  0001d	50		 push	 eax
  0001e	8b 4d fc	 mov	 ecx, DWORD PTR _this$[ebp]
  00021	e8 00 00 00 00	 call	 ??0exception@std@@QAE@QBDH@Z ; std::exception::exception

; 130  :     {

  00026	8b 4d fc	 mov	 ecx, DWORD PTR _this$[ebp]
  00029	c7 01 00 00 00
	00		 mov	 DWORD PTR [ecx], OFFSET ??_7bad_alloc@std@@6B@

; 131  :     }

  0002f	8b 45 fc	 mov	 eax, DWORD PTR _this$[ebp]
  00032	83 c4 04	 add	 esp, 4
  00035	3b ec		 cmp	 ebp, esp
  00037	e8 00 00 00 00	 call	 __RTC_CheckEsp
  0003c	8b e5		 mov	 esp, ebp
  0003e	5d		 pop	 ebp
  0003f	c2 04 00	 ret	 4
??0bad_alloc@std@@AAE@QBD@Z ENDP			; std::bad_alloc::bad_alloc
_TEXT	ENDS
; Function compile flags: /Odtp /RTCsu
;	COMDAT ??_Gexception@std@@UAEPAXI@Z
_TEXT	SEGMENT
_this$ = -4						; size = 4
___flags$ = 8						; size = 4
??_Gexception@std@@UAEPAXI@Z PROC			; std::exception::`scalar deleting destructor', COMDAT
; _this$ = ecx
  00000	55		 push	 ebp
  00001	8b ec		 mov	 ebp, esp
  00003	51		 push	 ecx
  00004	c7 45 fc cc cc
	cc cc		 mov	 DWORD PTR [ebp-4], -858993460 ; ccccccccH
  0000b	89 4d fc	 mov	 DWORD PTR _this$[ebp], ecx
  0000e	8b 4d fc	 mov	 ecx, DWORD PTR _this$[ebp]
  00011	e8 00 00 00 00	 call	 ??1exception@std@@UAE@XZ ; std::exception::~exception
  00016	8b 45 08	 mov	 eax, DWORD PTR ___flags$[ebp]
  00019	83 e0 01	 and	 eax, 1
  0001c	74 0e		 je	 SHORT $LN2@scalar
  0001e	6a 0c		 push	 12			; 0000000cH
  00020	8b 4d fc	 mov	 ecx, DWORD PTR _this$[ebp]
  00023	51		 push	 ecx
  00024	e8 00 00 00 00	 call	 ??3@YAXPAXI@Z		; operator delete
  00029	83 c4 08	 add	 esp, 8
$LN2@scalar:
  0002c	8b 45 fc	 mov	 eax, DWORD PTR _this$[ebp]
  0002f	83 c4 04	 add	 esp, 4
  00032	3b ec		 cmp	 ebp, esp
  00034	e8 00 00 00 00	 call	 __RTC_CheckEsp
  00039	8b e5		 mov	 esp, ebp
  0003b	5d		 pop	 ebp
  0003c	c2 04 00	 ret	 4
??_Gexception@std@@UAEPAXI@Z ENDP			; std::exception::`scalar deleting destructor'
_TEXT	ENDS
; Function compile flags: /Odtp /RTCsu
; File C:\Program Files (x86)\Microsoft Visual Studio\2019\Community\VC\Tools\MSVC\14.29.30133\include\vcruntime_exception.h
;	COMDAT ?what@exception@std@@UBEPBDXZ
_TEXT	SEGMENT
tv69 = -8						; size = 4
_this$ = -4						; size = 4
?what@exception@std@@UBEPBDXZ PROC			; std::exception::what, COMDAT
; _this$ = ecx

; 94   :     {

  00000	55		 push	 ebp
  00001	8b ec		 mov	 ebp, esp
  00003	83 ec 08	 sub	 esp, 8
  00006	c7 45 f8 cc cc
	cc cc		 mov	 DWORD PTR [ebp-8], -858993460 ; ccccccccH
  0000d	c7 45 fc cc cc
	cc cc		 mov	 DWORD PTR [ebp-4], -858993460 ; ccccccccH
  00014	89 4d fc	 mov	 DWORD PTR _this$[ebp], ecx
  00017	b9 00 00 00 00	 mov	 ecx, OFFSET __B0A13A33_vcruntime_exception@h
  0001c	e8 00 00 00 00	 call	 @__CheckForDebuggerJustMyCode@4

; 95   :         return _Data._What ? _Data._What : "Unknown exception";

  00021	8b 45 fc	 mov	 eax, DWORD PTR _this$[ebp]
  00024	83 78 04 00	 cmp	 DWORD PTR [eax+4], 0
  00028	74 0b		 je	 SHORT $LN3@what
  0002a	8b 4d fc	 mov	 ecx, DWORD PTR _this$[ebp]
  0002d	8b 51 04	 mov	 edx, DWORD PTR [ecx+4]
  00030	89 55 f8	 mov	 DWORD PTR tv69[ebp], edx
  00033	eb 07		 jmp	 SHORT $LN4@what
$LN3@what:
  00035	c7 45 f8 00 00
	00 00		 mov	 DWORD PTR tv69[ebp], OFFSET ??_C@_0BC@EOODALEL@Unknown?5exception@
$LN4@what:
  0003c	8b 45 f8	 mov	 eax, DWORD PTR tv69[ebp]

; 96   :     }

  0003f	83 c4 08	 add	 esp, 8
  00042	3b ec		 cmp	 ebp, esp
  00044	e8 00 00 00 00	 call	 __RTC_CheckEsp
  00049	8b e5		 mov	 esp, ebp
  0004b	5d		 pop	 ebp
  0004c	c3		 ret	 0
?what@exception@std@@UBEPBDXZ ENDP			; std::exception::what
_TEXT	ENDS
; Function compile flags: /Odtp /RTCsu
; File C:\Program Files (x86)\Microsoft Visual Studio\2019\Community\VC\Tools\MSVC\14.29.30133\include\vcruntime_exception.h
;	COMDAT ??1exception@std@@UAE@XZ
_TEXT	SEGMENT
_this$ = -4						; size = 4
??1exception@std@@UAE@XZ PROC				; std::exception::~exception, COMDAT
; _this$ = ecx

; 89   :     {

  00000	55		 push	 ebp
  00001	8b ec		 mov	 ebp, esp
  00003	51		 push	 ecx
  00004	c7 45 fc cc cc
	cc cc		 mov	 DWORD PTR [ebp-4], -858993460 ; ccccccccH
  0000b	89 4d fc	 mov	 DWORD PTR _this$[ebp], ecx
  0000e	b9 00 00 00 00	 mov	 ecx, OFFSET __B0A13A33_vcruntime_exception@h
  00013	e8 00 00 00 00	 call	 @__CheckForDebuggerJustMyCode@4
  00018	8b 45 fc	 mov	 eax, DWORD PTR _this$[ebp]
  0001b	c7 00 00 00 00
	00		 mov	 DWORD PTR [eax], OFFSET ??_7exception@std@@6B@

; 90   :         __std_exception_destroy(&_Data);

  00021	8b 4d fc	 mov	 ecx, DWORD PTR _this$[ebp]
  00024	83 c1 04	 add	 ecx, 4
  00027	51		 push	 ecx
  00028	e8 00 00 00 00	 call	 ___std_exception_destroy
  0002d	83 c4 04	 add	 esp, 4

; 91   :     }

  00030	83 c4 04	 add	 esp, 4
  00033	3b ec		 cmp	 ebp, esp
  00035	e8 00 00 00 00	 call	 __RTC_CheckEsp
  0003a	8b e5		 mov	 esp, ebp
  0003c	5d		 pop	 ebp
  0003d	c3		 ret	 0
??1exception@std@@UAE@XZ ENDP				; std::exception::~exception
_TEXT	ENDS
; Function compile flags: /Odtp /RTCsu
; File C:\Program Files (x86)\Microsoft Visual Studio\2019\Community\VC\Tools\MSVC\14.29.30133\include\vcruntime_exception.h
;	COMDAT ??0exception@std@@QAE@ABV01@@Z
_TEXT	SEGMENT
_this$ = -4						; size = 4
__Other$ = 8						; size = 4
??0exception@std@@QAE@ABV01@@Z PROC			; std::exception::exception, COMDAT
; _this$ = ecx

; 72   :     {

  00000	55		 push	 ebp
  00001	8b ec		 mov	 ebp, esp
  00003	51		 push	 ecx
  00004	c7 45 fc cc cc
	cc cc		 mov	 DWORD PTR [ebp-4], -858993460 ; ccccccccH
  0000b	89 4d fc	 mov	 DWORD PTR _this$[ebp], ecx
  0000e	b9 00 00 00 00	 mov	 ecx, OFFSET __B0A13A33_vcruntime_exception@h
  00013	e8 00 00 00 00	 call	 @__CheckForDebuggerJustMyCode@4
  00018	8b 45 fc	 mov	 eax, DWORD PTR _this$[ebp]
  0001b	c7 00 00 00 00
	00		 mov	 DWORD PTR [eax], OFFSET ??_7exception@std@@6B@

; 71   :         : _Data()

  00021	33 c9		 xor	 ecx, ecx
  00023	8b 55 fc	 mov	 edx, DWORD PTR _this$[ebp]
  00026	83 c2 04	 add	 edx, 4
  00029	89 0a		 mov	 DWORD PTR [edx], ecx
  0002b	89 4a 04	 mov	 DWORD PTR [edx+4], ecx

; 73   :         __std_exception_copy(&_Other._Data, &_Data);

  0002e	8b 45 fc	 mov	 eax, DWORD PTR _this$[ebp]
  00031	83 c0 04	 add	 eax, 4
  00034	50		 push	 eax
  00035	8b 4d 08	 mov	 ecx, DWORD PTR __Other$[ebp]
  00038	83 c1 04	 add	 ecx, 4
  0003b	51		 push	 ecx
  0003c	e8 00 00 00 00	 call	 ___std_exception_copy
  00041	83 c4 08	 add	 esp, 8

; 74   :     }

  00044	8b 45 fc	 mov	 eax, DWORD PTR _this$[ebp]
  00047	83 c4 04	 add	 esp, 4
  0004a	3b ec		 cmp	 ebp, esp
  0004c	e8 00 00 00 00	 call	 __RTC_CheckEsp
  00051	8b e5		 mov	 esp, ebp
  00053	5d		 pop	 ebp
  00054	c2 04 00	 ret	 4
??0exception@std@@QAE@ABV01@@Z ENDP			; std::exception::exception
_TEXT	ENDS
; Function compile flags: /Odtp /RTCsu
; File C:\Program Files (x86)\Microsoft Visual Studio\2019\Community\VC\Tools\MSVC\14.29.30133\include\vcruntime_exception.h
;	COMDAT ??0exception@std@@QAE@QBDH@Z
_TEXT	SEGMENT
_this$ = -4						; size = 4
__Message$ = 8						; size = 4
___formal$ = 12						; size = 4
??0exception@std@@QAE@QBDH@Z PROC			; std::exception::exception, COMDAT
; _this$ = ecx

; 66   :     {

  00000	55		 push	 ebp
  00001	8b ec		 mov	 ebp, esp
  00003	51		 push	 ecx
  00004	c7 45 fc cc cc
	cc cc		 mov	 DWORD PTR [ebp-4], -858993460 ; ccccccccH
  0000b	89 4d fc	 mov	 DWORD PTR _this$[ebp], ecx
  0000e	b9 00 00 00 00	 mov	 ecx, OFFSET __B0A13A33_vcruntime_exception@h
  00013	e8 00 00 00 00	 call	 @__CheckForDebuggerJustMyCode@4
  00018	8b 45 fc	 mov	 eax, DWORD PTR _this$[ebp]
  0001b	c7 00 00 00 00
	00		 mov	 DWORD PTR [eax], OFFSET ??_7exception@std@@6B@

; 65   :         : _Data()

  00021	33 c9		 xor	 ecx, ecx
  00023	8b 55 fc	 mov	 edx, DWORD PTR _this$[ebp]
  00026	83 c2 04	 add	 edx, 4
  00029	89 0a		 mov	 DWORD PTR [edx], ecx
  0002b	89 4a 04	 mov	 DWORD PTR [edx+4], ecx

; 67   :         _Data._What = _Message;

  0002e	8b 45 fc	 mov	 eax, DWORD PTR _this$[ebp]
  00031	8b 4d 08	 mov	 ecx, DWORD PTR __Message$[ebp]
  00034	89 48 04	 mov	 DWORD PTR [eax+4], ecx

; 68   :     }

  00037	8b 45 fc	 mov	 eax, DWORD PTR _this$[ebp]
  0003a	83 c4 04	 add	 esp, 4
  0003d	3b ec		 cmp	 ebp, esp
  0003f	e8 00 00 00 00	 call	 __RTC_CheckEsp
  00044	8b e5		 mov	 esp, ebp
  00046	5d		 pop	 ebp
  00047	c2 08 00	 ret	 8
??0exception@std@@QAE@QBDH@Z ENDP			; std::exception::exception
_TEXT	ENDS
; Function compile flags: /Odtp /RTCsu
; File C:\Program Files (x86)\Microsoft Visual Studio\2019\Community\VC\Tools\MSVC\14.29.30133\include\vcruntime_new.h
;	COMDAT ??2@YAPAXIPAX@Z
_TEXT	SEGMENT
__Size$ = 8						; size = 4
__Where$ = 12						; size = 4
??2@YAPAXIPAX@Z PROC					; operator new, COMDAT

; 167  :     {

  00000	55		 push	 ebp
  00001	8b ec		 mov	 ebp, esp
  00003	b9 00 00 00 00	 mov	 ecx, OFFSET __97D3638F_vcruntime_new@h
  00008	e8 00 00 00 00	 call	 @__CheckForDebuggerJustMyCode@4

; 168  :         (void)_Size;
; 169  :         return _Where;

  0000d	8b 45 0c	 mov	 eax, DWORD PTR __Where$[ebp]

; 170  :     }

  00010	3b ec		 cmp	 ebp, esp
  00012	e8 00 00 00 00	 call	 __RTC_CheckEsp
  00017	5d		 pop	 ebp
  00018	c3		 ret	 0
??2@YAPAXIPAX@Z ENDP					; operator new
_TEXT	ENDS
; Function compile flags: /Odtp /RTCsu
; File C:\Program Files (x86)\Microsoft Visual Studio\2019\Community\VC\Tools\MSVC\14.29.30133\include\limits
;	COMDAT ?max@?$numeric_limits@H@std@@SAHXZ
_TEXT	SEGMENT
?max@?$numeric_limits@H@std@@SAHXZ PROC			; std::numeric_limits<int>::max, COMDAT

; 556  :     _NODISCARD static constexpr int(max)() noexcept {

  00000	55		 push	 ebp
  00001	8b ec		 mov	 ebp, esp
  00003	b9 00 00 00 00	 mov	 ecx, OFFSET __7FE5F402_limits
  00008	e8 00 00 00 00	 call	 @__CheckForDebuggerJustMyCode@4

; 557  :         return INT_MAX;

  0000d	b8 ff ff ff 7f	 mov	 eax, 2147483647		; 7fffffffH

; 558  :     }

  00012	3b ec		 cmp	 ebp, esp
  00014	e8 00 00 00 00	 call	 __RTC_CheckEsp
  00019	5d		 pop	 ebp
  0001a	c3		 ret	 0
?max@?$numeric_limits@H@std@@SAHXZ ENDP			; std::numeric_limits<int>::max
_TEXT	ENDS
; Function compile flags: /Odtp /RTCsu
; File C:\Program Files (x86)\Microsoft Visual Studio\2019\Community\VC\Tools\MSVC\14.29.30133\include\xtr1common
;	COMDAT ?is_constant_evaluated@std@@YA_NXZ
_TEXT	SEGMENT
?is_constant_evaluated@std@@YA_NXZ PROC			; std::is_constant_evaluated, COMDAT

; 180  : _NODISCARD constexpr bool is_constant_evaluated() noexcept {

  00000	55		 push	 ebp
  00001	8b ec		 mov	 ebp, esp
  00003	b9 00 00 00 00	 mov	 ecx, OFFSET __47F37C5A_xtr1common
  00008	e8 00 00 00 00	 call	 @__CheckForDebuggerJustMyCode@4

; 181  :     return __builtin_is_constant_evaluated();

  0000d	32 c0		 xor	 al, al

; 182  : }

  0000f	3b ec		 cmp	 ebp, esp
  00011	e8 00 00 00 00	 call	 __RTC_CheckEsp
  00016	5d		 pop	 ebp
  00017	c3		 ret	 0
?is_constant_evaluated@std@@YA_NXZ ENDP			; std::is_constant_evaluated
_TEXT	ENDS
; Function compile flags: /Odtp /RTCsu
; File C:\Program Files (x86)\Windows Kits\10\Include\10.0.19041.0\ucrt\wchar.h
;	COMDAT _wmemcpy
_TEXT	SEGMENT
__S1$ = 8						; size = 4
__S2$ = 12						; size = 4
__N$ = 16						; size = 4
_wmemcpy PROC						; COMDAT

; 234  :     {

  00000	55		 push	 ebp
  00001	8b ec		 mov	 ebp, esp
  00003	b9 00 00 00 00	 mov	 ecx, OFFSET __93DC0B45_wchar@h
  00008	e8 00 00 00 00	 call	 @__CheckForDebuggerJustMyCode@4

; 235  :         #pragma warning(suppress: 6386) // Buffer overrun
; 236  :         return (wchar_t*)memcpy(_S1, _S2, _N*sizeof(wchar_t));

  0000d	8b 45 10	 mov	 eax, DWORD PTR __N$[ebp]
  00010	d1 e0		 shl	 eax, 1
  00012	50		 push	 eax
  00013	8b 4d 0c	 mov	 ecx, DWORD PTR __S2$[ebp]
  00016	51		 push	 ecx
  00017	8b 55 08	 mov	 edx, DWORD PTR __S1$[ebp]
  0001a	52		 push	 edx
  0001b	e8 00 00 00 00	 call	 _memcpy
  00020	83 c4 0c	 add	 esp, 12			; 0000000cH

; 237  :     }

  00023	3b ec		 cmp	 ebp, esp
  00025	e8 00 00 00 00	 call	 __RTC_CheckEsp
  0002a	5d		 pop	 ebp
  0002b	c3		 ret	 0
_wmemcpy ENDP
_TEXT	ENDS
; Function compile flags: /Odtp /RTCsu
; File C:\Users\theob\Documents\GitHub\as-pts1\rendu2\Player.cpp
;	COMDAT ?__empty_global_delete@@YAXPAXIW4align_val_t@std@@@Z
_TEXT	SEGMENT
___formal$ = 8						; size = 4
___formal$ = 12						; size = 4
___formal$ = 16						; size = 4
?__empty_global_delete@@YAXPAXIW4align_val_t@std@@@Z PROC ; __empty_global_delete, COMDAT

  00000	55		 push	 ebp
  00001	8b ec		 mov	 ebp, esp
  00003	b9 00 00 00 00	 mov	 ecx, OFFSET __4D0513DE_Player@cpp
  00008	e8 00 00 00 00	 call	 @__CheckForDebuggerJustMyCode@4
  0000d	3b ec		 cmp	 ebp, esp
  0000f	e8 00 00 00 00	 call	 __RTC_CheckEsp
  00014	5d		 pop	 ebp
  00015	c3		 ret	 0
?__empty_global_delete@@YAXPAXIW4align_val_t@std@@@Z ENDP ; __empty_global_delete
_TEXT	ENDS
; Function compile flags: /Odtp /RTCsu
; File C:\Users\theob\Documents\GitHub\as-pts1\rendu2\Player.cpp
;	COMDAT ?__empty_global_delete@@YAXPAXW4align_val_t@std@@@Z
_TEXT	SEGMENT
___formal$ = 8						; size = 4
___formal$ = 12						; size = 4
?__empty_global_delete@@YAXPAXW4align_val_t@std@@@Z PROC ; __empty_global_delete, COMDAT

  00000	55		 push	 ebp
  00001	8b ec		 mov	 ebp, esp
  00003	b9 00 00 00 00	 mov	 ecx, OFFSET __4D0513DE_Player@cpp
  00008	e8 00 00 00 00	 call	 @__CheckForDebuggerJustMyCode@4
  0000d	3b ec		 cmp	 ebp, esp
  0000f	e8 00 00 00 00	 call	 __RTC_CheckEsp
  00014	5d		 pop	 ebp
  00015	c3		 ret	 0
?__empty_global_delete@@YAXPAXW4align_val_t@std@@@Z ENDP ; __empty_global_delete
_TEXT	ENDS
; Function compile flags: /Odtp /RTCsu
; File C:\Users\theob\Documents\GitHub\as-pts1\rendu2\Player.cpp
;	COMDAT ?__empty_global_delete@@YAXPAXI@Z
_TEXT	SEGMENT
___formal$ = 8						; size = 4
___formal$ = 12						; size = 4
?__empty_global_delete@@YAXPAXI@Z PROC			; __empty_global_delete, COMDAT

  00000	55		 push	 ebp
  00001	8b ec		 mov	 ebp, esp
  00003	b9 00 00 00 00	 mov	 ecx, OFFSET __4D0513DE_Player@cpp
  00008	e8 00 00 00 00	 call	 @__CheckForDebuggerJustMyCode@4
  0000d	3b ec		 cmp	 ebp, esp
  0000f	e8 00 00 00 00	 call	 __RTC_CheckEsp
  00014	5d		 pop	 ebp
  00015	c3		 ret	 0
?__empty_global_delete@@YAXPAXI@Z ENDP			; __empty_global_delete
_TEXT	ENDS
; Function compile flags: /Odtp /RTCsu
; File C:\Users\theob\Documents\GitHub\as-pts1\rendu2\Player.cpp
;	COMDAT ?__empty_global_delete@@YAXPAX@Z
_TEXT	SEGMENT
___formal$ = 8						; size = 4
?__empty_global_delete@@YAXPAX@Z PROC			; __empty_global_delete, COMDAT

  00000	55		 push	 ebp
  00001	8b ec		 mov	 ebp, esp
  00003	b9 00 00 00 00	 mov	 ecx, OFFSET __4D0513DE_Player@cpp
  00008	e8 00 00 00 00	 call	 @__CheckForDebuggerJustMyCode@4
  0000d	3b ec		 cmp	 ebp, esp
  0000f	e8 00 00 00 00	 call	 __RTC_CheckEsp
  00014	5d		 pop	 ebp
  00015	c3		 ret	 0
?__empty_global_delete@@YAXPAX@Z ENDP			; __empty_global_delete
_TEXT	ENDS
END
