; Listing generated by Microsoft (R) Optimizing Compiler Version 19.29.30137.0 

	TITLE	C:\Users\theob\Documents\GitHub\as-pts1\rendu2\Debug\Player.obj
	.686P
	.XMM
	include listing.inc
	.model	flat

INCLUDELIB MSVCRTD
INCLUDELIB OLDNAMES

CONST	SEGMENT
$SG90610 DB	'invalid argument', 00H
___asan_rrz_$SG90610 DD 0f9H
	ORG $+43
$SG90611 DB	'%s', 00H
___asan_rrz_$SG90611 DD 0f9H
	ORG $+57
$SG90612 DB	'C:\Program Files (x86)\Microsoft Visual Studio\2019\Comm'
	DB	'unity\VC\Tools\MSVC\14.29.30133\include\xmemory', 00H
___asan_rrz_$SG90612 DD 0f9H
	ORG $+52
$SG90613 DB	'C', 00H, ':', 00H, '\', 00H, 'P', 00H, 'r', 00H, 'o', 00H
	DB	'g', 00H, 'r', 00H, 'a', 00H, 'm', 00H, ' ', 00H, 'F', 00H, 'i'
	DB	00H, 'l', 00H, 'e', 00H, 's', 00H, ' ', 00H, '(', 00H, 'x', 00H
	DB	'8', 00H, '6', 00H, ')', 00H, '\', 00H, 'M', 00H, 'i', 00H, 'c'
	DB	00H, 'r', 00H, 'o', 00H, 's', 00H, 'o', 00H, 'f', 00H, 't', 00H
	DB	' ', 00H, 'V', 00H, 'i', 00H, 's', 00H, 'u', 00H, 'a', 00H, 'l'
	DB	00H, ' ', 00H, 'S', 00H, 't', 00H, 'u', 00H, 'd', 00H, 'i', 00H
	DB	'o', 00H, '\', 00H, '2', 00H, '0', 00H, '1', 00H, '9', 00H, '\'
	DB	00H, 'C', 00H, 'o', 00H, 'm', 00H, 'm', 00H, 'u', 00H, 'n', 00H
	DB	'i', 00H, 't', 00H, 'y', 00H, '\', 00H, 'V', 00H, 'C', 00H, '\'
	DB	00H, 'T', 00H, 'o', 00H, 'o', 00H, 'l', 00H, 's', 00H, '\', 00H
	DB	'M', 00H, 'S', 00H, 'V', 00H, 'C', 00H, '\', 00H, '1', 00H, '4'
	DB	00H, '.', 00H, '2', 00H, '9', 00H, '.', 00H, '3', 00H, '0', 00H
	DB	'1', 00H, '3', 00H, '3', 00H, '\', 00H, 'i', 00H, 'n', 00H, 'c'
	DB	00H, 'l', 00H, 'u', 00H, 'd', 00H, 'e', 00H, '\', 00H, 'x', 00H
	DB	'm', 00H, 'e', 00H, 'm', 00H, 'o', 00H, 'r', 00H, 'y', 00H, 00H
	DB	00H
___asan_rrz_$SG90613 DD 0f9H
	ORG $+44
$SG90614 DB	's', 00H, 't', 00H, 'd', 00H, ':', 00H, ':', 00H, '_', 00H
	DB	'A', 00H, 'l', 00H, 'l', 00H, 'o', 00H, 'c', 00H, 'a', 00H, 't'
	DB	00H, 'e', 00H, '_', 00H, 'm', 00H, 'a', 00H, 'n', 00H, 'u', 00H
	DB	'a', 00H, 'l', 00H, 'l', 00H, 'y', 00H, '_', 00H, 'v', 00H, 'e'
	DB	00H, 'c', 00H, 't', 00H, 'o', 00H, 'r', 00H, '_', 00H, 'a', 00H
	DB	'l', 00H, 'i', 00H, 'g', 00H, 'n', 00H, 'e', 00H, 'd', 00H, 00H
	DB	00H
___asan_rrz_$SG90614 DD 0f9H
	ORG $+46
$SG90615 DB	'"', 00H, 'i', 00H, 'n', 00H, 'v', 00H, 'a', 00H, 'l', 00H
	DB	'i', 00H, 'd', 00H, ' ', 00H, 'a', 00H, 'r', 00H, 'g', 00H, 'u'
	DB	00H, 'm', 00H, 'e', 00H, 'n', 00H, 't', 00H, '"', 00H, 00H, 00H
___asan_rrz_$SG90615 DD 0f9H
	ORG $+54
$SG87968 DB	'C:\Program Files (x86)\Microsoft Visual Studio\2019\Comm'
	DB	'unity\VC\Tools\MSVC\14.29.30133\include\xlocale', 00H
___asan_rrz_$SG87968 DD 0f9H
CONST	ENDS
ASAN$GL	SEGMENT
_L___asan_global_$SG87968 DD FLAT:$SG87968
	DD	068H
	DD	0a0H
	DD	FLAT:_L___asan_gen_.14
	DD	FLAT:_L___asan_gen_.13
	DD	00H
	DD	FLAT:_L___asan_gen_.15
	DD	00H
_L___asan_global_$SG90615 DD FLAT:$SG90615
	DD	026H
	DD	060H
	DD	FLAT:_L___asan_gen_.11
	DD	FLAT:_L___asan_gen_.0
	DD	00H
	DD	FLAT:_L___asan_gen_.12
	DD	00H
_L___asan_global_$SG90614 DD FLAT:$SG90614
	DD	04eH
	DD	080H
	DD	FLAT:_L___asan_gen_.9
	DD	FLAT:_L___asan_gen_.0
	DD	00H
	DD	FLAT:_L___asan_gen_.10
	DD	00H
_L___asan_global_$SG90613 DD FLAT:$SG90613
	DD	0d0H
	DD	0100H
	DD	FLAT:_L___asan_gen_.7
	DD	FLAT:_L___asan_gen_.0
	DD	00H
	DD	FLAT:_L___asan_gen_.8
	DD	00H
_L___asan_global_$SG90612 DD FLAT:$SG90612
	DD	068H
	DD	0a0H
	DD	FLAT:_L___asan_gen_.5
	DD	FLAT:_L___asan_gen_.0
	DD	00H
	DD	FLAT:_L___asan_gen_.6
	DD	00H
_L___asan_global_$SG90611 DD FLAT:$SG90611
	DD	03H
	DD	040H
	DD	FLAT:_L___asan_gen_.3
	DD	FLAT:_L___asan_gen_.0
	DD	00H
	DD	FLAT:_L___asan_gen_.4
	DD	00H
_L___asan_global_$SG90610 DD FLAT:$SG90610
	DD	011H
	DD	040H
	DD	FLAT:_L___asan_gen_.1
	DD	FLAT:_L___asan_gen_.0
	DD	00H
	DD	FLAT:_L___asan_gen_.2
	DD	00H
ASAN$GL	ENDS
CONST	SEGMENT
	ORG $+52
_L___asan_gen_.0 DB 'xmemory', 00H
_L___asan_gen_.1 DB '<C++ string literal>', 00H
	ORG $+3
_L___asan_gen_.2 DD FLAT:_L___asan_gen_.0
	DD	08eH
	DD	04H
_L___asan_gen_.3 DB '<C++ string literal>', 00H
	ORG $+3
_L___asan_gen_.4 DD FLAT:_L___asan_gen_.0
	DD	08eH
	DD	04H
_L___asan_gen_.5 DB '<C++ string literal>', 00H
	ORG $+3
_L___asan_gen_.6 DD FLAT:_L___asan_gen_.0
	DD	08eH
	DD	04H
_L___asan_gen_.7 DB '<C++ string literal>', 00H
	ORG $+3
_L___asan_gen_.8 DD FLAT:_L___asan_gen_.0
	DD	08eH
	DD	04H
_L___asan_gen_.9 DB '<C++ string literal>', 00H
	ORG $+3
_L___asan_gen_.10 DD FLAT:_L___asan_gen_.0
	DD	08eH
	DD	04H
_L___asan_gen_.11 DB '<C++ string literal>', 00H
	ORG $+3
_L___asan_gen_.12 DD FLAT:_L___asan_gen_.0
	DD	08eH
	DD	04H
_L___asan_gen_.13 DB 'xlocale', 00H
_L___asan_gen_.14 DB '<C++ string literal>', 00H
	ORG $+3
_L___asan_gen_.15 DD FLAT:_L___asan_gen_.13
	DD	020eH
	DD	059H
CONST	ENDS
msvcjmc	SEGMENT
__A2143F22_corecrt_stdio_config@h DB 01H
__829E1958_corecrt_wstdio@h DB 01H
__6DFAE8B8_stdio@h DB 01H
__1FEB9909_corecrt_memcpy_s@h DB 01H
__C6E16F6F_corecrt_wconio@h DB 01H
__6D390390_corecrt_wio@h DB 01H
__9200769A_corecrt_wstring@h DB 01H
__1157D6BA_corecrt_wtime@h DB 01H
__1DC1E279_stat@h DB 01H
__93DC0B45_wchar@h DB 01H
__47F37C5A_xtr1common DB 01H
__81812A28_cstddef DB 01H
__741AE07E_corecrt_math@h DB 01H
__B49664B7_stdlib@h DB 01H
__244AF085_cstdlib DB 01H
__7FE5F402_limits DB 01H
__589FA321_type_traits DB 01H
__97D3638F_vcruntime_new@h DB 01H
__DD5FCA34_compare DB 01H
__A751F051_corecrt_memory@h DB 01H
__32E5F013_string@h DB 01H
__12269DE6_xutility DB 01H
__C69F69CF_tuple DB 01H
__20BB4341_malloc@h DB 01H
__B0A13A33_vcruntime_exception@h DB 01H
__FF458F76_exception DB 01H
__79D216CD_xmemory DB 01H
__374A57BA_xpolymorphic_allocator@h DB 01H
__60BC708E_cmath DB 01H
__0D019051_xstring DB 01H
__760BB52B_stdexcept DB 01H
__A4685E82_xcall_once@h DB 01H
__A0B61CF9_time@h DB 01H
__DDB379A0_xthreads@h DB 01H
__14D0A8C0_atomic DB 01H
__1B354CA2_system_error DB 01H
__65ADBEC9_vcruntime_typeinfo@h DB 01H
__62F96EFF_typeinfo DB 01H
__C34BF88C_memory DB 01H
__EF0EAF83_xfacet DB 01H
__B2D2BA86_ctype@h DB 01H
__7D708D37_xlocinfo DB 01H
__D23FE460_xlocale DB 01H
__4495FA24_xiosbase DB 01H
__4CB88277_xlocnum DB 01H
__845859A3_ios DB 01H
__B2A9EE53_InputStream@hpp DB 01H
__62DD75E3_NonCopyable@hpp DB 01H
__B7987E10_string DB 01H
__1589CDA2_algorithm DB 01H
__FE33131C_xlocmes DB 01H
__67DA974F_xlocmon DB 01H
__D96D2425_xloctime DB 01H
__FC4CDF9C_Thread@inl DB 01H
__3C1C7D88_ContextSettings@hpp DB 01H
__8D991C03_Drawable@hpp DB 01H
__896EE8A8_Glyph@hpp DB 01H
__69958C8C_xtree DB 01H
__E3A1A8C3_Font@hpp DB 01H
__0D6BD463_Character@h DB 01H
__B4613F23_Sprite@hpp DB 01H
__4D0513DE_Player@cpp DB 01H
__324884E2_vector DB 01H
__68A60A21_locale DB 01H
__C12F3EA4_ostream DB 01H
__74AB0D97_streambuf DB 01H
__038A2AA6_iterator DB 01H
__B30C2184_iosfwd DB 01H
__1347750E_utility DB 01H
__E458E21C_xstddef DB 01H
__0A631FEE_Vector2@inl DB 01H
__CBE11649_Vector2@hpp DB 01H
__C23CD225_Rect@inl DB 01H
__03BEDB82_Rect@hpp DB 01H
__F54903A0_xatomic@h DB 01H
__B3577796_RenderStates@hpp DB 01H
__5808F286_Player@h DB 01H
msvcjmc	ENDS
PUBLIC	?__empty_global_delete@@YAXPAX@Z		; __empty_global_delete
PUBLIC	?__empty_global_delete@@YAXPAXI@Z		; __empty_global_delete
PUBLIC	?__empty_global_delete@@YAXPAXW4align_val_t@std@@@Z ; __empty_global_delete
PUBLIC	?__empty_global_delete@@YAXPAXIW4align_val_t@std@@@Z ; __empty_global_delete
PUBLIC	_wmemcpy
PUBLIC	?is_constant_evaluated@std@@YA_NXZ		; std::is_constant_evaluated
PUBLIC	?max@?$numeric_limits@H@std@@SAHXZ		; std::numeric_limits<int>::max
PUBLIC	??2@YAPAXIPAX@Z					; operator new
PUBLIC	??0exception@std@@QAE@QBDH@Z			; std::exception::exception
PUBLIC	??0exception@std@@QAE@ABV01@@Z			; std::exception::exception
PUBLIC	??1exception@std@@UAE@XZ			; std::exception::~exception
PUBLIC	?what@exception@std@@UBEPBDXZ			; std::exception::what
PUBLIC	??_Gexception@std@@UAEPAXI@Z			; std::exception::`scalar deleting destructor'
PUBLIC	??0bad_alloc@std@@AAE@QBD@Z			; std::bad_alloc::bad_alloc
PUBLIC	??1bad_alloc@std@@UAE@XZ			; std::bad_alloc::~bad_alloc
PUBLIC	??0bad_alloc@std@@QAE@ABV01@@Z			; std::bad_alloc::bad_alloc
PUBLIC	??_Gbad_alloc@std@@UAEPAXI@Z			; std::bad_alloc::`scalar deleting destructor'
PUBLIC	??0bad_array_new_length@std@@QAE@XZ		; std::bad_array_new_length::bad_array_new_length
PUBLIC	??1bad_array_new_length@std@@UAE@XZ		; std::bad_array_new_length::~bad_array_new_length
PUBLIC	??0bad_array_new_length@std@@QAE@ABV01@@Z	; std::bad_array_new_length::bad_array_new_length
PUBLIC	??_Gbad_array_new_length@std@@UAEPAXI@Z		; std::bad_array_new_length::`scalar deleting destructor'
PUBLIC	?_Throw_bad_array_new_length@std@@YAXXZ		; std::_Throw_bad_array_new_length
PUBLIC	?_Allocate@_Default_allocate_traits@std@@SAPAXI@Z ; std::_Default_allocate_traits::_Allocate
PUBLIC	?_Adjust_manually_vector_aligned@std@@YAXAAPAXAAI@Z ; std::_Adjust_manually_vector_aligned
PUBLIC	??0_Container_proxy@std@@QAE@PAU_Container_base12@1@@Z ; std::_Container_proxy::_Container_proxy
PUBLIC	??0_Container_base12@std@@QAE@XZ		; std::_Container_base12::_Container_base12
PUBLIC	?_Orphan_all@_Container_base12@std@@QAEXXZ	; std::_Container_base12::_Orphan_all
PUBLIC	?_Orphan_all_unlocked_v3@_Container_base12@std@@AAEXXZ ; std::_Container_base12::_Orphan_all_unlocked_v3
PUBLIC	?_Orphan_all_locked_v3@_Container_base12@std@@AAEXXZ ; std::_Container_base12::_Orphan_all_locked_v3
PUBLIC	?_Release@_Basic_container_proxy_ptr12@std@@QAEXXZ ; std::_Basic_container_proxy_ptr12::_Release
PUBLIC	??0_Basic_container_proxy_ptr12@std@@IAE@XZ	; std::_Basic_container_proxy_ptr12::_Basic_container_proxy_ptr12
PUBLIC	??$addressof@U_Container_base12@std@@@std@@YAPAU_Container_base12@0@AAU10@@Z ; std::addressof<std::_Container_base12>
PUBLIC	??$_Construct_in_place@U_Container_proxy@std@@PAU_Container_base12@2@@std@@YAXAAU_Container_proxy@0@$$QAPAU_Container_base12@0@@Z ; std::_Construct_in_place<std::_Container_proxy,std::_Container_base12 *>
PUBLIC	??$_Maklocstr@_W@std@@YAPA_WPBDPA_WABU_Cvtvec@@@Z ; std::_Maklocstr<wchar_t>
PUBLIC	?_Maklocwcs@std@@YAPA_WPB_W@Z			; std::_Maklocwcs
PUBLIC	??$_Maklocstr@D@std@@YAPADPBDPADABU_Cvtvec@@@Z	; std::_Maklocstr<char>
PUBLIC	??$_Getvals@_W@?$time_get@DV?$istreambuf_iterator@DU?$char_traits@D@std@@@std@@@std@@IAEX_WABV_Locinfo@1@@Z ; std::time_get<char,std::istreambuf_iterator<char,std::char_traits<char> > >::_Getvals<wchar_t>
PUBLIC	??$_Getvals@_W@?$time_get@_WV?$istreambuf_iterator@_WU?$char_traits@_W@std@@@std@@@std@@IAEX_WABV_Locinfo@1@@Z ; std::time_get<wchar_t,std::istreambuf_iterator<wchar_t,std::char_traits<wchar_t> > >::_Getvals<wchar_t>
PUBLIC	??0?$Vector2@I@sf@@QAE@XZ			; sf::Vector2<unsigned int>::Vector2<unsigned int>
PUBLIC	??0?$Rect@H@sf@@QAE@XZ				; sf::Rect<int>::Rect<int>
PUBLIC	??0?$Rect@H@sf@@QAE@HHHH@Z			; sf::Rect<int>::Rect<int>
PUBLIC	??_GSprite@sf@@UAEPAXI@Z			; sf::Sprite::`scalar deleting destructor'
PUBLIC	??0Character@@QAE@XZ				; Character::Character
PUBLIC	??0?$allocator@PAVSprite@sf@@@std@@QAE@XZ	; std::allocator<sf::Sprite *>::allocator<sf::Sprite *>
PUBLIC	?deallocate@?$allocator@PAVSprite@sf@@@std@@QAEXQAPAVSprite@sf@@I@Z ; std::allocator<sf::Sprite *>::deallocate
PUBLIC	?allocate@?$allocator@PAVSprite@sf@@@std@@QAEPAPAVSprite@sf@@I@Z ; std::allocator<sf::Sprite *>::allocate
PUBLIC	?max_size@?$_Default_allocator_traits@V?$allocator@PAVSprite@sf@@@std@@@std@@SAIABV?$allocator@PAVSprite@sf@@@2@@Z ; std::_Default_allocator_traits<std::allocator<sf::Sprite *> >::max_size
PUBLIC	??0?$vector@PAVSprite@sf@@V?$allocator@PAVSprite@sf@@@std@@@std@@QAE@IABV?$allocator@PAVSprite@sf@@@1@@Z ; std::vector<sf::Sprite *,std::allocator<sf::Sprite *> >::vector<sf::Sprite *,std::allocator<sf::Sprite *> >
PUBLIC	??1?$vector@PAVSprite@sf@@V?$allocator@PAVSprite@sf@@@std@@@std@@QAE@XZ ; std::vector<sf::Sprite *,std::allocator<sf::Sprite *> >::~vector<sf::Sprite *,std::allocator<sf::Sprite *> >
PUBLIC	?max_size@?$vector@PAVSprite@sf@@V?$allocator@PAVSprite@sf@@@std@@@std@@QBEIXZ ; std::vector<sf::Sprite *,std::allocator<sf::Sprite *> >::max_size
PUBLIC	?at@?$vector@PAVSprite@sf@@V?$allocator@PAVSprite@sf@@@std@@@std@@QAEAAPAVSprite@sf@@I@Z ; std::vector<sf::Sprite *,std::allocator<sf::Sprite *> >::at
PUBLIC	?_Ufill@?$vector@PAVSprite@sf@@V?$allocator@PAVSprite@sf@@@std@@@std@@AAEPAPAVSprite@sf@@PAPAV34@IU_Value_init_tag@2@@Z ; std::vector<sf::Sprite *,std::allocator<sf::Sprite *> >::_Ufill
PUBLIC	?_Destroy@?$vector@PAVSprite@sf@@V?$allocator@PAVSprite@sf@@@std@@@std@@AAEXPAPAVSprite@sf@@0@Z ; std::vector<sf::Sprite *,std::allocator<sf::Sprite *> >::_Destroy
PUBLIC	?_Buy_raw@?$vector@PAVSprite@sf@@V?$allocator@PAVSprite@sf@@@std@@@std@@AAEXI@Z ; std::vector<sf::Sprite *,std::allocator<sf::Sprite *> >::_Buy_raw
PUBLIC	?_Buy_nonzero@?$vector@PAVSprite@sf@@V?$allocator@PAVSprite@sf@@@std@@@std@@AAEXI@Z ; std::vector<sf::Sprite *,std::allocator<sf::Sprite *> >::_Buy_nonzero
PUBLIC	?_Tidy@?$vector@PAVSprite@sf@@V?$allocator@PAVSprite@sf@@@std@@@std@@AAEXXZ ; std::vector<sf::Sprite *,std::allocator<sf::Sprite *> >::_Tidy
PUBLIC	?_Xlength@?$vector@PAVSprite@sf@@V?$allocator@PAVSprite@sf@@@std@@@std@@CAXXZ ; std::vector<sf::Sprite *,std::allocator<sf::Sprite *> >::_Xlength
PUBLIC	?_Xrange@?$vector@PAVSprite@sf@@V?$allocator@PAVSprite@sf@@@std@@@std@@CAXXZ ; std::vector<sf::Sprite *,std::allocator<sf::Sprite *> >::_Xrange
PUBLIC	?_Getal@?$vector@PAVSprite@sf@@V?$allocator@PAVSprite@sf@@@std@@@std@@AAEAAV?$allocator@PAVSprite@sf@@@2@XZ ; std::vector<sf::Sprite *,std::allocator<sf::Sprite *> >::_Getal
PUBLIC	?_Getal@?$vector@PAVSprite@sf@@V?$allocator@PAVSprite@sf@@@std@@@std@@ABEABV?$allocator@PAVSprite@sf@@@2@XZ ; std::vector<sf::Sprite *,std::allocator<sf::Sprite *> >::_Getal
PUBLIC	??0?$_Vector_val@U?$_Simple_types@PAVSprite@sf@@@std@@@std@@QAE@XZ ; std::_Vector_val<std::_Simple_types<sf::Sprite *> >::_Vector_val<std::_Simple_types<sf::Sprite *> >
PUBLIC	?_Get_first@?$_Compressed_pair@V?$allocator@PAVSprite@sf@@@std@@V?$_Vector_val@U?$_Simple_types@PAVSprite@sf@@@std@@@2@$00@std@@QAEAAV?$allocator@PAVSprite@sf@@@2@XZ ; std::_Compressed_pair<std::allocator<sf::Sprite *>,std::_Vector_val<std::_Simple_types<sf::Sprite *> >,1>::_Get_first
PUBLIC	?_Get_first@?$_Compressed_pair@V?$allocator@PAVSprite@sf@@@std@@V?$_Vector_val@U?$_Simple_types@PAVSprite@sf@@@std@@@2@$00@std@@QBEABV?$allocator@PAVSprite@sf@@@2@XZ ; std::_Compressed_pair<std::allocator<sf::Sprite *>,std::_Vector_val<std::_Simple_types<sf::Sprite *> >,1>::_Get_first
PUBLIC	?__autoclassinit2@?$vector@PAVSprite@sf@@V?$allocator@PAVSprite@sf@@@std@@@std@@QAEXI@Z ; std::vector<sf::Sprite *,std::allocator<sf::Sprite *> >::__autoclassinit2
PUBLIC	??_G?$vector@PAVSprite@sf@@V?$allocator@PAVSprite@sf@@@std@@@std@@QAEPAXI@Z ; std::vector<sf::Sprite *,std::allocator<sf::Sprite *> >::`scalar deleting destructor'
PUBLIC	??0Player@@QAE@HHPAV?$vector@PAVImage@sf@@V?$allocator@PAVImage@sf@@@std@@@std@@@Z ; Player::Player
PUBLIC	??1Player@@QAE@XZ				; Player::~Player
PUBLIC	?size@?$vector@PAVImage@sf@@V?$allocator@PAVImage@sf@@@std@@@std@@QBEIXZ ; std::vector<sf::Image *,std::allocator<sf::Image *> >::size
PUBLIC	?at@?$vector@PAVImage@sf@@V?$allocator@PAVImage@sf@@@std@@@std@@QAEAAPAVImage@sf@@I@Z ; std::vector<sf::Image *,std::allocator<sf::Image *> >::at
PUBLIC	?_Xrange@?$vector@PAVImage@sf@@V?$allocator@PAVImage@sf@@@std@@@std@@CAXXZ ; std::vector<sf::Image *,std::allocator<sf::Image *> >::_Xrange
PUBLIC	??0?$allocator@PAVTexture@sf@@@std@@QAE@XZ	; std::allocator<sf::Texture *>::allocator<sf::Texture *>
PUBLIC	?deallocate@?$allocator@PAVTexture@sf@@@std@@QAEXQAPAVTexture@sf@@I@Z ; std::allocator<sf::Texture *>::deallocate
PUBLIC	?allocate@?$allocator@PAVTexture@sf@@@std@@QAEPAPAVTexture@sf@@I@Z ; std::allocator<sf::Texture *>::allocate
PUBLIC	?max_size@?$_Default_allocator_traits@V?$allocator@PAVTexture@sf@@@std@@@std@@SAIABV?$allocator@PAVTexture@sf@@@2@@Z ; std::_Default_allocator_traits<std::allocator<sf::Texture *> >::max_size
PUBLIC	??0?$vector@PAVTexture@sf@@V?$allocator@PAVTexture@sf@@@std@@@std@@QAE@XZ ; std::vector<sf::Texture *,std::allocator<sf::Texture *> >::vector<sf::Texture *,std::allocator<sf::Texture *> >
PUBLIC	??1?$vector@PAVTexture@sf@@V?$allocator@PAVTexture@sf@@@std@@@std@@QAE@XZ ; std::vector<sf::Texture *,std::allocator<sf::Texture *> >::~vector<sf::Texture *,std::allocator<sf::Texture *> >
PUBLIC	?push_back@?$vector@PAVTexture@sf@@V?$allocator@PAVTexture@sf@@@std@@@std@@QAEXABQAVTexture@sf@@@Z ; std::vector<sf::Texture *,std::allocator<sf::Texture *> >::push_back
PUBLIC	?max_size@?$vector@PAVTexture@sf@@V?$allocator@PAVTexture@sf@@@std@@@std@@QBEIXZ ; std::vector<sf::Texture *,std::allocator<sf::Texture *> >::max_size
PUBLIC	?capacity@?$vector@PAVTexture@sf@@V?$allocator@PAVTexture@sf@@@std@@@std@@QBEIXZ ; std::vector<sf::Texture *,std::allocator<sf::Texture *> >::capacity
PUBLIC	?_Umove@?$vector@PAVTexture@sf@@V?$allocator@PAVTexture@sf@@@std@@@std@@AAEPAPAVTexture@sf@@PAPAV34@00@Z ; std::vector<sf::Texture *,std::allocator<sf::Texture *> >::_Umove
PUBLIC	?_Umove_if_noexcept1@?$vector@PAVTexture@sf@@V?$allocator@PAVTexture@sf@@@std@@@std@@AAEXPAPAVTexture@sf@@00U?$integral_constant@_N$00@2@@Z ; std::vector<sf::Texture *,std::allocator<sf::Texture *> >::_Umove_if_noexcept1
PUBLIC	?_Umove_if_noexcept@?$vector@PAVTexture@sf@@V?$allocator@PAVTexture@sf@@@std@@@std@@AAEXPAPAVTexture@sf@@00@Z ; std::vector<sf::Texture *,std::allocator<sf::Texture *> >::_Umove_if_noexcept
PUBLIC	?_Destroy@?$vector@PAVTexture@sf@@V?$allocator@PAVTexture@sf@@@std@@@std@@AAEXPAPAVTexture@sf@@0@Z ; std::vector<sf::Texture *,std::allocator<sf::Texture *> >::_Destroy
PUBLIC	?_Calculate_growth@?$vector@PAVTexture@sf@@V?$allocator@PAVTexture@sf@@@std@@@std@@ABEII@Z ; std::vector<sf::Texture *,std::allocator<sf::Texture *> >::_Calculate_growth
PUBLIC	?_Change_array@?$vector@PAVTexture@sf@@V?$allocator@PAVTexture@sf@@@std@@@std@@AAEXQAPAVTexture@sf@@II@Z ; std::vector<sf::Texture *,std::allocator<sf::Texture *> >::_Change_array
PUBLIC	?_Tidy@?$vector@PAVTexture@sf@@V?$allocator@PAVTexture@sf@@@std@@@std@@AAEXXZ ; std::vector<sf::Texture *,std::allocator<sf::Texture *> >::_Tidy
PUBLIC	?_Xlength@?$vector@PAVTexture@sf@@V?$allocator@PAVTexture@sf@@@std@@@std@@CAXXZ ; std::vector<sf::Texture *,std::allocator<sf::Texture *> >::_Xlength
PUBLIC	?_Orphan_range_unlocked@?$vector@PAVTexture@sf@@V?$allocator@PAVTexture@sf@@@std@@@std@@ABEXPAPAVTexture@sf@@0@Z ; std::vector<sf::Texture *,std::allocator<sf::Texture *> >::_Orphan_range_unlocked
PUBLIC	?_Orphan_range_locked@?$vector@PAVTexture@sf@@V?$allocator@PAVTexture@sf@@@std@@@std@@ABEXPAPAVTexture@sf@@0@Z ; std::vector<sf::Texture *,std::allocator<sf::Texture *> >::_Orphan_range_locked
PUBLIC	?_Orphan_range@?$vector@PAVTexture@sf@@V?$allocator@PAVTexture@sf@@@std@@@std@@ABEXPAPAVTexture@sf@@0@Z ; std::vector<sf::Texture *,std::allocator<sf::Texture *> >::_Orphan_range
PUBLIC	?_Getal@?$vector@PAVTexture@sf@@V?$allocator@PAVTexture@sf@@@std@@@std@@AAEAAV?$allocator@PAVTexture@sf@@@2@XZ ; std::vector<sf::Texture *,std::allocator<sf::Texture *> >::_Getal
PUBLIC	?_Getal@?$vector@PAVTexture@sf@@V?$allocator@PAVTexture@sf@@@std@@@std@@ABEABV?$allocator@PAVTexture@sf@@@2@XZ ; std::vector<sf::Texture *,std::allocator<sf::Texture *> >::_Getal
PUBLIC	??0?$_Vector_val@U?$_Simple_types@PAVTexture@sf@@@std@@@std@@QAE@XZ ; std::_Vector_val<std::_Simple_types<sf::Texture *> >::_Vector_val<std::_Simple_types<sf::Texture *> >
PUBLIC	?_Get_first@?$_Compressed_pair@V?$allocator@PAVTexture@sf@@@std@@V?$_Vector_val@U?$_Simple_types@PAVTexture@sf@@@std@@@2@$00@std@@QAEAAV?$allocator@PAVTexture@sf@@@2@XZ ; std::_Compressed_pair<std::allocator<sf::Texture *>,std::_Vector_val<std::_Simple_types<sf::Texture *> >,1>::_Get_first
PUBLIC	?_Get_first@?$_Compressed_pair@V?$allocator@PAVTexture@sf@@@std@@V?$_Vector_val@U?$_Simple_types@PAVTexture@sf@@@std@@@2@$00@std@@QBEABV?$allocator@PAVTexture@sf@@@2@XZ ; std::_Compressed_pair<std::allocator<sf::Texture *>,std::_Vector_val<std::_Simple_types<sf::Texture *> >,1>::_Get_first
PUBLIC	?__autoclassinit2@?$vector@PAVTexture@sf@@V?$allocator@PAVTexture@sf@@@std@@@std@@QAEXI@Z ; std::vector<sf::Texture *,std::allocator<sf::Texture *> >::__autoclassinit2
PUBLIC	??_G?$vector@PAVTexture@sf@@V?$allocator@PAVTexture@sf@@@std@@@std@@QAEPAXI@Z ; std::vector<sf::Texture *,std::allocator<sf::Texture *> >::`scalar deleting destructor'
PUBLIC	??$emplace_back@ABQAVTexture@sf@@@?$vector@PAVTexture@sf@@V?$allocator@PAVTexture@sf@@@std@@@std@@QAE?A_TABQAVTexture@sf@@@Z ; std::vector<sf::Texture *,std::allocator<sf::Texture *> >::emplace_back<sf::Texture * const &>
PUBLIC	??$forward@ABQAVTexture@sf@@@std@@YAABQAVTexture@sf@@ABQAV12@@Z ; std::forward<sf::Texture * const &>
PUBLIC	??$_Emplace_back_with_unused_capacity@ABQAVTexture@sf@@@?$vector@PAVTexture@sf@@V?$allocator@PAVTexture@sf@@@std@@@std@@AAE?A_TABQAVTexture@sf@@@Z ; std::vector<sf::Texture *,std::allocator<sf::Texture *> >::_Emplace_back_with_unused_capacity<sf::Texture * const &>
PUBLIC	??$_Unfancy@PAVTexture@sf@@@std@@YAPAPAVTexture@sf@@PAPAV12@@Z ; std::_Unfancy<sf::Texture *>
PUBLIC	??$construct@PAVTexture@sf@@ABQAV12@@?$_Default_allocator_traits@V?$allocator@PAVTexture@sf@@@std@@@std@@SAXAAV?$allocator@PAVTexture@sf@@@1@QAPAVTexture@sf@@ABQAV34@@Z ; std::_Default_allocator_traits<std::allocator<sf::Texture *> >::construct<sf::Texture *,sf::Texture * const &>
PUBLIC	??$_Emplace_reallocate@ABQAVTexture@sf@@@?$vector@PAVTexture@sf@@V?$allocator@PAVTexture@sf@@@std@@@std@@QAEPAPAVTexture@sf@@QAPAV23@ABQAV23@@Z ; std::vector<sf::Texture *,std::allocator<sf::Texture *> >::_Emplace_reallocate<sf::Texture * const &>
PUBLIC	?deallocate@?$allocator@U_Container_proxy@std@@@std@@QAEXQAU_Container_proxy@2@I@Z ; std::allocator<std::_Container_proxy>::deallocate
PUBLIC	?allocate@?$allocator@U_Container_proxy@std@@@std@@QAEPAU_Container_proxy@2@I@Z ; std::allocator<std::_Container_proxy>::allocate
PUBLIC	??$?0PAVTexture@sf@@@?$allocator@U_Container_proxy@std@@@std@@QAE@ABV?$allocator@PAVTexture@sf@@@1@@Z ; std::allocator<std::_Container_proxy>::allocator<std::_Container_proxy><sf::Texture *>
PUBLIC	??$exchange@PAU_Container_proxy@std@@$$T@std@@YAPAU_Container_proxy@0@AAPAU10@$$QA$$T@Z ; std::exchange<std::_Container_proxy *,std::nullptr_t>
PUBLIC	??$_Delete_plain_internal@V?$allocator@U_Container_proxy@std@@@std@@@std@@YAXAAV?$allocator@U_Container_proxy@std@@@0@QAU_Container_proxy@0@@Z ; std::_Delete_plain_internal<std::allocator<std::_Container_proxy> >
PUBLIC	??$?0$$V@?$_Compressed_pair@V?$allocator@PAVTexture@sf@@@std@@V?$_Vector_val@U?$_Simple_types@PAVTexture@sf@@@std@@@2@$00@std@@QAE@U_Zero_then_variadic_args_t@1@@Z ; std::_Compressed_pair<std::allocator<sf::Texture *>,std::_Vector_val<std::_Simple_types<sf::Texture *> >,1>::_Compressed_pair<std::allocator<sf::Texture *>,std::_Vector_val<std::_Simple_types<sf::Texture *> >,1><>
PUBLIC	??$_Alloc_proxy@V?$allocator@U_Container_proxy@std@@@std@@@_Container_base12@std@@QAEX$$QAV?$allocator@U_Container_proxy@std@@@1@@Z ; std::_Container_base12::_Alloc_proxy<std::allocator<std::_Container_proxy> >
PUBLIC	??$?0PAVSprite@sf@@@?$allocator@U_Container_proxy@std@@@std@@QAE@ABV?$allocator@PAVSprite@sf@@@1@@Z ; std::allocator<std::_Container_proxy>::allocator<std::_Container_proxy><sf::Sprite *>
PUBLIC	??$?0ABV?$allocator@PAVSprite@sf@@@std@@$$V@?$_Compressed_pair@V?$allocator@PAVSprite@sf@@@std@@V?$_Vector_val@U?$_Simple_types@PAVSprite@sf@@@std@@@2@$00@std@@QAE@U_One_then_variadic_args_t@1@ABV?$allocator@PAVSprite@sf@@@1@@Z ; std::_Compressed_pair<std::allocator<sf::Sprite *>,std::_Vector_val<std::_Simple_types<sf::Sprite *> >,1>::_Compressed_pair<std::allocator<sf::Sprite *>,std::_Vector_val<std::_Simple_types<sf::Sprite *> >,1><std::allocator<sf::Sprite *> const &>
PUBLIC	??$_Construct_n_copies_of_ty@U_Value_init_tag@std@@@?$vector@PAVSprite@sf@@V?$allocator@PAVSprite@sf@@@std@@@std@@AAEXIABU_Value_init_tag@1@@Z ; std::vector<sf::Sprite *,std::allocator<sf::Sprite *> >::_Construct_n_copies_of_ty<std::_Value_init_tag>
PUBLIC	??$min@I@std@@YAABIABI0@Z			; std::min<unsigned int>
PUBLIC	??0?$_Container_proxy_ptr12@V?$allocator@U_Container_proxy@std@@@std@@@std@@QAE@AAV?$allocator@U_Container_proxy@std@@@1@AAU_Container_base12@1@@Z ; std::_Container_proxy_ptr12<std::allocator<std::_Container_proxy> >::_Container_proxy_ptr12<std::allocator<std::_Container_proxy> >
PUBLIC	??1?$_Container_proxy_ptr12@V?$allocator@U_Container_proxy@std@@@std@@@std@@QAE@XZ ; std::_Container_proxy_ptr12<std::allocator<std::_Container_proxy> >::~_Container_proxy_ptr12<std::allocator<std::_Container_proxy> >
PUBLIC	??$_Unfancy@U_Container_proxy@std@@@std@@YAPAU_Container_proxy@0@PAU10@@Z ; std::_Unfancy<std::_Container_proxy>
PUBLIC	??$_Get_size_of_n@$07@std@@YAII@Z		; std::_Get_size_of_n<8>
PUBLIC	??$_Allocate@$07U_Default_allocate_traits@std@@$0A@@std@@YAPAXI@Z ; std::_Allocate<8,std::_Default_allocate_traits,0>
PUBLIC	??$_Destroy_range@V?$allocator@PAVTexture@sf@@@std@@@std@@YAXPAPAVTexture@sf@@QAPAV12@AAV?$allocator@PAVTexture@sf@@@0@@Z ; std::_Destroy_range<std::allocator<sf::Texture *> >
PUBLIC	??$_Deallocate@$07$0A@@std@@YAXPAXI@Z		; std::_Deallocate<8,0>
PUBLIC	??$_Destroy_range@V?$allocator@PAVSprite@sf@@@std@@@std@@YAXPAPAVSprite@sf@@QAPAV12@AAV?$allocator@PAVSprite@sf@@@0@@Z ; std::_Destroy_range<std::allocator<sf::Sprite *> >
PUBLIC	??$_Get_size_of_n@$03@std@@YAII@Z		; std::_Get_size_of_n<4>
PUBLIC	??$addressof@U_Container_proxy@std@@@std@@YAPAU_Container_proxy@0@AAU10@@Z ; std::addressof<std::_Container_proxy>
PUBLIC	??$forward@PAU_Container_base12@std@@@std@@YA$$QAPAU_Container_base12@0@AAPAU10@@Z ; std::forward<std::_Container_base12 *>
PUBLIC	??$construct_at@U_Container_proxy@std@@PAU_Container_base12@2@X@std@@YAPAU_Container_proxy@0@QAU10@$$QAPAU_Container_base12@0@@Z ; std::construct_at<std::_Container_proxy,std::_Container_base12 *,void>
PUBLIC	??$_Voidify_iter@PAU_Container_proxy@std@@@std@@YAPAXPAU_Container_proxy@0@@Z ; std::_Voidify_iter<std::_Container_proxy *>
PUBLIC	??$construct_at@PAVTexture@sf@@ABQAV12@X@std@@YAPAPAVTexture@sf@@QAPAV12@ABQAV12@@Z ; std::construct_at<sf::Texture *,sf::Texture * const &,void>
PUBLIC	??$_Voidify_iter@PAPAVTexture@sf@@@std@@YAPAXPAPAVTexture@sf@@@Z ; std::_Voidify_iter<sf::Texture * *>
PUBLIC	??$_Deallocate_plain@V?$allocator@U_Container_proxy@std@@@std@@@std@@YAXAAV?$allocator@U_Container_proxy@std@@@0@QAU_Container_proxy@0@@Z ; std::_Deallocate_plain<std::allocator<std::_Container_proxy> >
PUBLIC	??$forward@ABV?$allocator@PAVSprite@sf@@@std@@@std@@YAABV?$allocator@PAVSprite@sf@@@0@ABV10@@Z ; std::forward<std::allocator<sf::Sprite *> const &>
PUBLIC	??1?$_Tidy_guard@V?$vector@PAVSprite@sf@@V?$allocator@PAVSprite@sf@@@std@@@std@@@std@@QAE@XZ ; std::_Tidy_guard<std::vector<sf::Sprite *,std::allocator<sf::Sprite *> > >::~_Tidy_guard<std::vector<sf::Sprite *,std::allocator<sf::Sprite *> > >
PUBLIC	??$_Allocate_manually_vector_aligned@U_Default_allocate_traits@std@@@std@@YAPAXI@Z ; std::_Allocate_manually_vector_aligned<std::_Default_allocate_traits>
PUBLIC	??$_Uninitialized_move@PAPAVTexture@sf@@V?$allocator@PAVTexture@sf@@@std@@@std@@YAPAPAVTexture@sf@@QAPAV12@0PAPAV12@AAV?$allocator@PAVTexture@sf@@@0@@Z ; std::_Uninitialized_move<sf::Texture * *,std::allocator<sf::Texture *> >
PUBLIC	??$_Uninitialized_value_construct_n@V?$allocator@PAVSprite@sf@@@std@@@std@@YAPAPAVSprite@sf@@PAPAV12@IAAV?$allocator@PAVSprite@sf@@@0@@Z ; std::_Uninitialized_value_construct_n<std::allocator<sf::Sprite *> >
PUBLIC	?deallocate@?$_Default_allocator_traits@V?$allocator@U_Container_proxy@std@@@std@@@std@@SAXAAV?$allocator@U_Container_proxy@std@@@2@QAU_Container_proxy@2@I@Z ; std::_Default_allocator_traits<std::allocator<std::_Container_proxy> >::deallocate
PUBLIC	??$_Get_unwrapped@ABQAPAVTexture@sf@@@std@@YA?A_TABQAPAVTexture@sf@@@Z ; std::_Get_unwrapped<sf::Texture * * const &>
PUBLIC	??$move@AAPAVTexture@sf@@@std@@YA$$QAPAVTexture@sf@@AAPAV12@@Z ; std::move<sf::Texture * &>
PUBLIC	??$to_address@PAVTexture@sf@@@std@@YAPAPAVTexture@sf@@QAPAV12@@Z ; std::to_address<sf::Texture *>
PUBLIC	??$_Copy_memmove@PAPAVTexture@sf@@PAPAV12@@std@@YAPAPAVTexture@sf@@PAPAV12@00@Z ; std::_Copy_memmove<sf::Texture * *,sf::Texture * *>
PUBLIC	??0?$_Uninitialized_backout_al@V?$allocator@PAVTexture@sf@@@std@@@std@@QAE@PAPAVTexture@sf@@AAV?$allocator@PAVTexture@sf@@@1@@Z ; std::_Uninitialized_backout_al<std::allocator<sf::Texture *> >::_Uninitialized_backout_al<std::allocator<sf::Texture *> >
PUBLIC	??1?$_Uninitialized_backout_al@V?$allocator@PAVTexture@sf@@@std@@@std@@QAE@XZ ; std::_Uninitialized_backout_al<std::allocator<sf::Texture *> >::~_Uninitialized_backout_al<std::allocator<sf::Texture *> >
PUBLIC	?_Release@?$_Uninitialized_backout_al@V?$allocator@PAVTexture@sf@@@std@@@std@@QAEPAPAVTexture@sf@@XZ ; std::_Uninitialized_backout_al<std::allocator<sf::Texture *> >::_Release
PUBLIC	?__autoclassinit2@?$_Uninitialized_backout_al@V?$allocator@PAVTexture@sf@@@std@@@std@@QAEXI@Z ; std::_Uninitialized_backout_al<std::allocator<sf::Texture *> >::__autoclassinit2
PUBLIC	??$_Emplace_back@PAVTexture@sf@@@?$_Uninitialized_backout_al@V?$allocator@PAVTexture@sf@@@std@@@std@@QAEX$$QAPAVTexture@sf@@@Z ; std::_Uninitialized_backout_al<std::allocator<sf::Texture *> >::_Emplace_back<sf::Texture *>
PUBLIC	??$to_address@PAVSprite@sf@@@std@@YAPAPAVSprite@sf@@QAPAV12@@Z ; std::to_address<sf::Sprite *>
PUBLIC	??$_Unfancy@PAVSprite@sf@@@std@@YAPAPAVSprite@sf@@PAPAV12@@Z ; std::_Unfancy<sf::Sprite *>
PUBLIC	??$_Zero_range@PAPAVSprite@sf@@@std@@YAPAPAVSprite@sf@@QAPAV12@0@Z ; std::_Zero_range<sf::Sprite * *>
PUBLIC	??0?$_Uninitialized_backout_al@V?$allocator@PAVSprite@sf@@@std@@@std@@QAE@PAPAVSprite@sf@@AAV?$allocator@PAVSprite@sf@@@1@@Z ; std::_Uninitialized_backout_al<std::allocator<sf::Sprite *> >::_Uninitialized_backout_al<std::allocator<sf::Sprite *> >
PUBLIC	??1?$_Uninitialized_backout_al@V?$allocator@PAVSprite@sf@@@std@@@std@@QAE@XZ ; std::_Uninitialized_backout_al<std::allocator<sf::Sprite *> >::~_Uninitialized_backout_al<std::allocator<sf::Sprite *> >
PUBLIC	?_Release@?$_Uninitialized_backout_al@V?$allocator@PAVSprite@sf@@@std@@@std@@QAEPAPAVSprite@sf@@XZ ; std::_Uninitialized_backout_al<std::allocator<sf::Sprite *> >::_Release
PUBLIC	?__autoclassinit2@?$_Uninitialized_backout_al@V?$allocator@PAVSprite@sf@@@std@@@std@@QAEXI@Z ; std::_Uninitialized_backout_al<std::allocator<sf::Sprite *> >::__autoclassinit2
PUBLIC	??$_Emplace_back@$$V@?$_Uninitialized_backout_al@V?$allocator@PAVSprite@sf@@@std@@@std@@QAEXXZ ; std::_Uninitialized_backout_al<std::allocator<sf::Sprite *> >::_Emplace_back<>
PUBLIC	??$_To_address@PAPAVTexture@sf@@@std@@YA?A_PABQAPAVTexture@sf@@@Z ; std::_To_address<sf::Texture * *>
PUBLIC	??$forward@PAVTexture@sf@@@std@@YA$$QAPAVTexture@sf@@AAPAV12@@Z ; std::forward<sf::Texture *>
PUBLIC	??$construct@PAVTexture@sf@@PAV12@@?$_Default_allocator_traits@V?$allocator@PAVTexture@sf@@@std@@@std@@SAXAAV?$allocator@PAVTexture@sf@@@1@QAPAVTexture@sf@@$$QAPAV34@@Z ; std::_Default_allocator_traits<std::allocator<sf::Texture *> >::construct<sf::Texture *,sf::Texture *>
PUBLIC	??$_To_address@PAPAVSprite@sf@@@std@@YA?A_PABQAPAVSprite@sf@@@Z ; std::_To_address<sf::Sprite * *>
PUBLIC	??$construct@PAVSprite@sf@@$$V@?$_Default_allocator_traits@V?$allocator@PAVSprite@sf@@@std@@@std@@SAXAAV?$allocator@PAVSprite@sf@@@1@QAPAVSprite@sf@@@Z ; std::_Default_allocator_traits<std::allocator<sf::Sprite *> >::construct<sf::Sprite *>
PUBLIC	??$construct_at@PAVTexture@sf@@PAV12@X@std@@YAPAPAVTexture@sf@@QAPAV12@$$QAPAV12@@Z ; std::construct_at<sf::Texture *,sf::Texture *,void>
PUBLIC	??$construct_at@PAVSprite@sf@@$$VX@std@@YAPAPAVSprite@sf@@QAPAV12@@Z ; std::construct_at<sf::Sprite *,void>
PUBLIC	??$_Voidify_iter@PAPAVSprite@sf@@@std@@YAPAXPAPAVSprite@sf@@@Z ; std::_Voidify_iter<sf::Sprite * *>
PUBLIC	??_ESprite@sf@@W3AEPAXI@Z			; [thunk]:sf::Sprite::`vector deleting destructor'
PUBLIC	__JustMyCode_Default
PUBLIC	??_7exception@std@@6B@				; std::exception::`vftable'
PUBLIC	??_C@_0BC@EOODALEL@Unknown?5exception@		; `string'
PUBLIC	??_7bad_alloc@std@@6B@				; std::bad_alloc::`vftable'
PUBLIC	??_7bad_array_new_length@std@@6B@		; std::bad_array_new_length::`vftable'
PUBLIC	??_C@_0BF@KINCDENJ@bad?5array?5new?5length@	; `string'
PUBLIC	__TI3?AVbad_array_new_length@std@@
PUBLIC	__CTA3?AVbad_array_new_length@std@@
PUBLIC	??_R0?AVbad_array_new_length@std@@@8		; std::bad_array_new_length `RTTI Type Descriptor'
PUBLIC	__CT??_R0?AVbad_array_new_length@std@@@8??0bad_array_new_length@std@@QAE@ABV01@@Z12
PUBLIC	??_R0?AVbad_alloc@std@@@8			; std::bad_alloc `RTTI Type Descriptor'
PUBLIC	__CT??_R0?AVbad_alloc@std@@@8??0bad_alloc@std@@QAE@ABV01@@Z12
PUBLIC	??_R0?AVexception@std@@@8			; std::exception `RTTI Type Descriptor'
PUBLIC	__CT??_R0?AVexception@std@@@8??0exception@std@@QAE@ABV01@@Z12
PUBLIC	??_C@_0BB@FCMFBGOM@invalid?5argument@		; `string'
PUBLIC	??_C@_02DKCKIIND@?$CFs@				; `string'
PUBLIC	??_C@_0GI@MNEMJBML@C?3?2Program?5Files?5?$CIx86?$CJ?2Microsof@ ; `string'
PUBLIC	??_C@_1NA@MJBOBEJL@?$AAC?$AA?3?$AA?2?$AAP?$AAr?$AAo?$AAg?$AAr?$AAa?$AAm?$AA?5?$AAF?$AAi?$AAl?$AAe@ ; `string'
PUBLIC	??_C@_1EK@NIFDJFDG@?$AAs?$AAt?$AAd?$AA?3?$AA?3?$AA_?$AAA?$AAd?$AAj?$AAu?$AAs?$AAt?$AA_?$AAm?$AAa@ ; `string'
PUBLIC	??_C@_1CG@JNLFBNGN@?$AA?$CC?$AAi?$AAn?$AAv?$AAa?$AAl?$AAi?$AAd?$AA?5?$AAa?$AAr?$AAg?$AAu?$AAm?$AAe@ ; `string'
PUBLIC	??_C@_0GI@GFIAKDGM@C?3?2Program?5Files?5?$CIx86?$CJ?2Microsof@ ; `string'
PUBLIC	??_C@_0GI@OGMNKBMN@C?3?2Program?5Files?5?$CIx86?$CJ?2Microsof@ ; `string'
PUBLIC	??_SSprite@sf@@6BDrawable@1@@			; sf::Sprite::`local vftable'
PUBLIC	??_SSprite@sf@@6BTransformable@1@@		; sf::Sprite::`local vftable'
PUBLIC	??_C@_0N@LPFKKEBD@?3AM?3am?3PM?3pm@		; `string'
PUBLIC	??_C@_0BJ@DHFDPMIM@invalid?5vector?5subscript@	; `string'
PUBLIC	??_C@_1BK@MHIKGOKE@?$AA?3?$AAA?$AAM?$AA?3?$AAa?$AAm?$AA?3?$AAP?$AAM?$AA?3?$AAp?$AAm@ ; `string'
PUBLIC	??_C@_0BA@FOIKENOD@vector?5too?5long@		; `string'
PUBLIC	??_R4exception@std@@6B@				; std::exception::`RTTI Complete Object Locator'
PUBLIC	??_R3exception@std@@8				; std::exception::`RTTI Class Hierarchy Descriptor'
PUBLIC	??_R2exception@std@@8				; std::exception::`RTTI Base Class Array'
PUBLIC	??_R1A@?0A@EA@exception@std@@8			; std::exception::`RTTI Base Class Descriptor at (0,-1,0,64)'
PUBLIC	??_R4bad_alloc@std@@6B@				; std::bad_alloc::`RTTI Complete Object Locator'
PUBLIC	??_R3bad_alloc@std@@8				; std::bad_alloc::`RTTI Class Hierarchy Descriptor'
PUBLIC	??_R2bad_alloc@std@@8				; std::bad_alloc::`RTTI Base Class Array'
PUBLIC	??_R1A@?0A@EA@bad_alloc@std@@8			; std::bad_alloc::`RTTI Base Class Descriptor at (0,-1,0,64)'
PUBLIC	??_R4bad_array_new_length@std@@6B@		; std::bad_array_new_length::`RTTI Complete Object Locator'
PUBLIC	??_R3bad_array_new_length@std@@8		; std::bad_array_new_length::`RTTI Class Hierarchy Descriptor'
PUBLIC	??_R2bad_array_new_length@std@@8		; std::bad_array_new_length::`RTTI Base Class Array'
PUBLIC	??_R1A@?0A@EA@bad_array_new_length@std@@8	; std::bad_array_new_length::`RTTI Base Class Descriptor at (0,-1,0,64)'
PUBLIC	??_R4Sprite@sf@@6BDrawable@1@@			; sf::Sprite::`RTTI Complete Object Locator'
PUBLIC	??_R0?AVSprite@sf@@@8				; sf::Sprite `RTTI Type Descriptor'
PUBLIC	??_R3Sprite@sf@@8				; sf::Sprite::`RTTI Class Hierarchy Descriptor'
PUBLIC	??_R2Sprite@sf@@8				; sf::Sprite::`RTTI Base Class Array'
PUBLIC	??_R1A@?0A@EA@Sprite@sf@@8			; sf::Sprite::`RTTI Base Class Descriptor at (0,-1,0,64)'
PUBLIC	??_R1A@?0A@EA@Drawable@sf@@8			; sf::Drawable::`RTTI Base Class Descriptor at (0,-1,0,64)'
PUBLIC	??_R0?AVDrawable@sf@@@8				; sf::Drawable `RTTI Type Descriptor'
PUBLIC	??_R3Drawable@sf@@8				; sf::Drawable::`RTTI Class Hierarchy Descriptor'
PUBLIC	??_R2Drawable@sf@@8				; sf::Drawable::`RTTI Base Class Array'
PUBLIC	??_R13?0A@EA@Transformable@sf@@8		; sf::Transformable::`RTTI Base Class Descriptor at (4,-1,0,64)'
PUBLIC	??_R0?AVTransformable@sf@@@8			; sf::Transformable `RTTI Type Descriptor'
PUBLIC	??_R3Transformable@sf@@8			; sf::Transformable::`RTTI Class Hierarchy Descriptor'
PUBLIC	??_R2Transformable@sf@@8			; sf::Transformable::`RTTI Base Class Array'
PUBLIC	??_R1A@?0A@EA@Transformable@sf@@8		; sf::Transformable::`RTTI Base Class Descriptor at (0,-1,0,64)'
PUBLIC	??_R4Sprite@sf@@6BTransformable@1@@		; sf::Sprite::`RTTI Complete Object Locator'
EXTRN	??2@YAPAXI@Z:PROC				; operator new
EXTRN	??3@YAXPAX@Z:PROC				; operator delete
EXTRN	??3@YAXPAXI@Z:PROC				; operator delete
EXTRN	__imp___invalid_parameter:PROC
EXTRN	_memcpy:PROC
EXTRN	_memmove:PROC
EXTRN	_memset:PROC
EXTRN	__imp__wcslen:PROC
EXTRN	__imp___calloc_dbg:PROC
EXTRN	__imp___CrtDbgReport:PROC
EXTRN	__imp_??0_Lockit@std@@QAE@H@Z:PROC
EXTRN	__imp_??1_Lockit@std@@QAE@XZ:PROC
EXTRN	_strlen:PROC
EXTRN	?_Xbad_alloc@std@@YAXXZ:PROC			; std::_Xbad_alloc
EXTRN	?_Xlength_error@std@@YAXPBD@Z:PROC		; std::_Xlength_error
EXTRN	?_Xout_of_range@std@@YAXPBD@Z:PROC		; std::_Xout_of_range
EXTRN	___std_exception_copy:PROC
EXTRN	___std_exception_destroy:PROC
EXTRN	??_Eexception@std@@UAEPAXI@Z:PROC		; std::exception::`vector deleting destructor'
EXTRN	??_Ebad_alloc@std@@UAEPAXI@Z:PROC		; std::bad_alloc::`vector deleting destructor'
EXTRN	??_Ebad_array_new_length@std@@UAEPAXI@Z:PROC	; std::bad_array_new_length::`vector deleting destructor'
EXTRN	__Mbrtowc:PROC
EXTRN	__imp_?_Getcvt@_Locinfo@std@@QBE?AU_Cvtvec@@XZ:PROC
EXTRN	__imp_?_Getdays@_Locinfo@std@@QBEPBDXZ:PROC
EXTRN	__imp_?_Getmonths@_Locinfo@std@@QBEPBDXZ:PROC
EXTRN	__imp_?_W_Getdays@_Locinfo@std@@QBEPBGXZ:PROC
EXTRN	__imp_?_W_Getmonths@_Locinfo@std@@QBEPBGXZ:PROC
EXTRN	__imp_?getSize@Image@sf@@QBE?AV?$Vector2@I@2@XZ:PROC
EXTRN	__imp_??0Texture@sf@@QAE@XZ:PROC
EXTRN	__imp_?loadFromImage@Texture@sf@@QAE_NABVImage@2@ABV?$Rect@H@2@@Z:PROC
EXTRN	__imp_?setSmooth@Texture@sf@@QAEX_N@Z:PROC
EXTRN	__imp_??0Sprite@sf@@QAE@ABVTexture@1@ABV?$Rect@H@1@@Z:PROC
EXTRN	__imp_??1Sprite@sf@@UAE@XZ:PROC
EXTRN	??_ESprite@sf@@UAEPAXI@Z:PROC			; sf::Sprite::`vector deleting destructor'
EXTRN	?draw@Sprite@sf@@EBEXAAVRenderTarget@2@VRenderStates@2@@Z:PROC ; sf::Sprite::draw
EXTRN	@__CheckForDebuggerJustMyCode@4:PROC
EXTRN	@__security_check_cookie@4:PROC
EXTRN	__CxxThrowException@8:PROC
EXTRN	__RTC_InitBase:PROC
EXTRN	__RTC_Shutdown:PROC
EXTRN	___CxxFrameHandler3:PROC
EXTRN	___asan_loadN:PROC
EXTRN	___asan_memset:PROC
EXTRN	___asan_report_load1:PROC
EXTRN	___asan_report_load4:PROC
EXTRN	___asan_report_load8:PROC
EXTRN	___asan_report_store1:PROC
EXTRN	___asan_report_store2:PROC
EXTRN	___asan_report_store4:PROC
EXTRN	___asan_report_store8:PROC
EXTRN	___asan_set_shadow_00:PROC
EXTRN	___asan_set_shadow_f8:PROC
EXTRN	___asan_storeN:PROC
EXTRN	??_7type_info@@6B@:QWORD			; type_info::`vftable'
EXTRN	___security_cookie:DWORD
EXTRN	__fltused:DWORD
;	COMDAT ??_C@_0BC@EOODALEL@Unknown?5exception@
CONST	SEGMENT
??_C@_0BC@EOODALEL@Unknown?5exception@ DB 'Unknown exception', 00H ; `string'
___asan_rrz_??_C@_0BC@EOODALEL@Unknown?5exception@ DD 0f9H
CONST	ENDS
;	COMDAT ??_C@_0BF@KINCDENJ@bad?5array?5new?5length@
CONST	SEGMENT
??_C@_0BF@KINCDENJ@bad?5array?5new?5length@ DB 'bad array new length', 00H ; `string'
___asan_rrz_??_C@_0BF@KINCDENJ@bad?5array?5new?5length@ DD 0f9H
CONST	ENDS
;	COMDAT ??_C@_0BB@FCMFBGOM@invalid?5argument@
CONST	SEGMENT
??_C@_0BB@FCMFBGOM@invalid?5argument@ DB 'invalid argument', 00H ; `string'
___asan_rrz_??_C@_0BB@FCMFBGOM@invalid?5argument@ DD 0f9H
CONST	ENDS
;	COMDAT ??_C@_02DKCKIIND@?$CFs@
CONST	SEGMENT
??_C@_02DKCKIIND@?$CFs@ DB '%s', 00H			; `string'
___asan_rrz_??_C@_02DKCKIIND@?$CFs@ DD 0f9H
CONST	ENDS
;	COMDAT ??_C@_0GI@MNEMJBML@C?3?2Program?5Files?5?$CIx86?$CJ?2Microsof@
CONST	SEGMENT
??_C@_0GI@MNEMJBML@C?3?2Program?5Files?5?$CIx86?$CJ?2Microsof@ DB 'C:\Pro'
	DB	'gram Files (x86)\Microsoft Visual Studio\2019\Community\VC\To'
	DB	'ols\MSVC\14.29.30133\include\xmemory', 00H	; `string'
___asan_rrz_??_C@_0GI@MNEMJBML@C?3?2Program?5Files?5?$CIx86?$CJ?2Microsof@ DD 0f9H
CONST	ENDS
;	COMDAT ??_C@_1NA@MJBOBEJL@?$AAC?$AA?3?$AA?2?$AAP?$AAr?$AAo?$AAg?$AAr?$AAa?$AAm?$AA?5?$AAF?$AAi?$AAl?$AAe@
CONST	SEGMENT
??_C@_1NA@MJBOBEJL@?$AAC?$AA?3?$AA?2?$AAP?$AAr?$AAo?$AAg?$AAr?$AAa?$AAm?$AA?5?$AAF?$AAi?$AAl?$AAe@ DB 'C'
	DB	00H, ':', 00H, '\', 00H, 'P', 00H, 'r', 00H, 'o', 00H, 'g', 00H
	DB	'r', 00H, 'a', 00H, 'm', 00H, ' ', 00H, 'F', 00H, 'i', 00H, 'l'
	DB	00H, 'e', 00H, 's', 00H, ' ', 00H, '(', 00H, 'x', 00H, '8', 00H
	DB	'6', 00H, ')', 00H, '\', 00H, 'M', 00H, 'i', 00H, 'c', 00H, 'r'
	DB	00H, 'o', 00H, 's', 00H, 'o', 00H, 'f', 00H, 't', 00H, ' ', 00H
	DB	'V', 00H, 'i', 00H, 's', 00H, 'u', 00H, 'a', 00H, 'l', 00H, ' '
	DB	00H, 'S', 00H, 't', 00H, 'u', 00H, 'd', 00H, 'i', 00H, 'o', 00H
	DB	'\', 00H, '2', 00H, '0', 00H, '1', 00H, '9', 00H, '\', 00H, 'C'
	DB	00H, 'o', 00H, 'm', 00H, 'm', 00H, 'u', 00H, 'n', 00H, 'i', 00H
	DB	't', 00H, 'y', 00H, '\', 00H, 'V', 00H, 'C', 00H, '\', 00H, 'T'
	DB	00H, 'o', 00H, 'o', 00H, 'l', 00H, 's', 00H, '\', 00H, 'M', 00H
	DB	'S', 00H, 'V', 00H, 'C', 00H, '\', 00H, '1', 00H, '4', 00H, '.'
	DB	00H, '2', 00H, '9', 00H, '.', 00H, '3', 00H, '0', 00H, '1', 00H
	DB	'3', 00H, '3', 00H, '\', 00H, 'i', 00H, 'n', 00H, 'c', 00H, 'l'
	DB	00H, 'u', 00H, 'd', 00H, 'e', 00H, '\', 00H, 'x', 00H, 'm', 00H
	DB	'e', 00H, 'm', 00H, 'o', 00H, 'r', 00H, 'y', 00H, 00H, 00H ; `string'
___asan_rrz_??_C@_1NA@MJBOBEJL@?$AAC?$AA?3?$AA?2?$AAP?$AAr?$AAo?$AAg?$AAr?$AAa?$AAm?$AA?5?$AAF?$AAi?$AAl?$AAe@ DD 0f9H
CONST	ENDS
;	COMDAT ??_C@_1EK@NIFDJFDG@?$AAs?$AAt?$AAd?$AA?3?$AA?3?$AA_?$AAA?$AAd?$AAj?$AAu?$AAs?$AAt?$AA_?$AAm?$AAa@
CONST	SEGMENT
??_C@_1EK@NIFDJFDG@?$AAs?$AAt?$AAd?$AA?3?$AA?3?$AA_?$AAA?$AAd?$AAj?$AAu?$AAs?$AAt?$AA_?$AAm?$AAa@ DB 's'
	DB	00H, 't', 00H, 'd', 00H, ':', 00H, ':', 00H, '_', 00H, 'A', 00H
	DB	'd', 00H, 'j', 00H, 'u', 00H, 's', 00H, 't', 00H, '_', 00H, 'm'
	DB	00H, 'a', 00H, 'n', 00H, 'u', 00H, 'a', 00H, 'l', 00H, 'l', 00H
	DB	'y', 00H, '_', 00H, 'v', 00H, 'e', 00H, 'c', 00H, 't', 00H, 'o'
	DB	00H, 'r', 00H, '_', 00H, 'a', 00H, 'l', 00H, 'i', 00H, 'g', 00H
	DB	'n', 00H, 'e', 00H, 'd', 00H, 00H, 00H	; `string'
___asan_rrz_??_C@_1EK@NIFDJFDG@?$AAs?$AAt?$AAd?$AA?3?$AA?3?$AA_?$AAA?$AAd?$AAj?$AAu?$AAs?$AAt?$AA_?$AAm?$AAa@ DD 0f9H
CONST	ENDS
;	COMDAT ??_C@_1CG@JNLFBNGN@?$AA?$CC?$AAi?$AAn?$AAv?$AAa?$AAl?$AAi?$AAd?$AA?5?$AAa?$AAr?$AAg?$AAu?$AAm?$AAe@
CONST	SEGMENT
??_C@_1CG@JNLFBNGN@?$AA?$CC?$AAi?$AAn?$AAv?$AAa?$AAl?$AAi?$AAd?$AA?5?$AAa?$AAr?$AAg?$AAu?$AAm?$AAe@ DB '"'
	DB	00H, 'i', 00H, 'n', 00H, 'v', 00H, 'a', 00H, 'l', 00H, 'i', 00H
	DB	'd', 00H, ' ', 00H, 'a', 00H, 'r', 00H, 'g', 00H, 'u', 00H, 'm'
	DB	00H, 'e', 00H, 'n', 00H, 't', 00H, '"', 00H, 00H, 00H ; `string'
___asan_rrz_??_C@_1CG@JNLFBNGN@?$AA?$CC?$AAi?$AAn?$AAv?$AAa?$AAl?$AAi?$AAd?$AA?5?$AAa?$AAr?$AAg?$AAu?$AAm?$AAe@ DD 0f9H
CONST	ENDS
;	COMDAT ??_C@_0GI@GFIAKDGM@C?3?2Program?5Files?5?$CIx86?$CJ?2Microsof@
CONST	SEGMENT
??_C@_0GI@GFIAKDGM@C?3?2Program?5Files?5?$CIx86?$CJ?2Microsof@ DB 'C:\Pro'
	DB	'gram Files (x86)\Microsoft Visual Studio\2019\Community\VC\To'
	DB	'ols\MSVC\14.29.30133\include\xlocale', 00H	; `string'
___asan_rrz_??_C@_0GI@GFIAKDGM@C?3?2Program?5Files?5?$CIx86?$CJ?2Microsof@ DD 0f9H
CONST	ENDS
;	COMDAT ??_C@_0GI@OGMNKBMN@C?3?2Program?5Files?5?$CIx86?$CJ?2Microsof@
CONST	SEGMENT
??_C@_0GI@OGMNKBMN@C?3?2Program?5Files?5?$CIx86?$CJ?2Microsof@ DB 'C:\Pro'
	DB	'gram Files (x86)\Microsoft Visual Studio\2019\Community\VC\To'
	DB	'ols\MSVC\14.29.30133\include\xlocnum', 00H	; `string'
___asan_rrz_??_C@_0GI@OGMNKBMN@C?3?2Program?5Files?5?$CIx86?$CJ?2Microsof@ DD 0f9H
CONST	ENDS
;	COMDAT ??_C@_0N@LPFKKEBD@?3AM?3am?3PM?3pm@
CONST	SEGMENT
??_C@_0N@LPFKKEBD@?3AM?3am?3PM?3pm@ DB ':AM:am:PM:pm', 00H ; `string'
___asan_rrz_??_C@_0N@LPFKKEBD@?3AM?3am?3PM?3pm@ DD 0f9H
CONST	ENDS
;	COMDAT ??_C@_0BJ@DHFDPMIM@invalid?5vector?5subscript@
CONST	SEGMENT
??_C@_0BJ@DHFDPMIM@invalid?5vector?5subscript@ DB 'invalid vector subscri'
	DB	'pt', 00H					; `string'
___asan_rrz_??_C@_0BJ@DHFDPMIM@invalid?5vector?5subscript@ DD 0f9H
CONST	ENDS
;	COMDAT ??_C@_1BK@MHIKGOKE@?$AA?3?$AAA?$AAM?$AA?3?$AAa?$AAm?$AA?3?$AAP?$AAM?$AA?3?$AAp?$AAm@
CONST	SEGMENT
??_C@_1BK@MHIKGOKE@?$AA?3?$AAA?$AAM?$AA?3?$AAa?$AAm?$AA?3?$AAP?$AAM?$AA?3?$AAp?$AAm@ DB ':'
	DB	00H, 'A', 00H, 'M', 00H, ':', 00H, 'a', 00H, 'm', 00H, ':', 00H
	DB	'P', 00H, 'M', 00H, ':', 00H, 'p', 00H, 'm', 00H, 00H, 00H ; `string'
___asan_rrz_??_C@_1BK@MHIKGOKE@?$AA?3?$AAA?$AAM?$AA?3?$AAa?$AAm?$AA?3?$AAP?$AAM?$AA?3?$AAp?$AAm@ DD 0f9H
CONST	ENDS
;	COMDAT ??_C@_0BA@FOIKENOD@vector?5too?5long@
CONST	SEGMENT
??_C@_0BA@FOIKENOD@vector?5too?5long@ DB 'vector too long', 00H ; `string'
___asan_rrz_??_C@_0BA@FOIKENOD@vector?5too?5long@ DD 0f9H
CONST	ENDS
;	COMDAT ASAN$GL
ASAN$GL	SEGMENT
_L___asan_global_??_C@_0BA@FOIKENOD@vector?5too?5long@ DD FLAT:??_C@_0BA@FOIKENOD@vector?5too?5long@
	DD	010H
	DD	040H
	DD	FLAT:_L___asan_gen_.32
	DD	FLAT:_L___asan_gen_.27
	DD	00H
	DD	FLAT:_L___asan_gen_.33
	DD	00H
ASAN$GL	ENDS
;	COMDAT CONST
CONST	SEGMENT
_L___asan_gen_.33 DD FLAT:_L___asan_gen_.27
	DD	06eeH
	DD	017H
CONST	ENDS
;	COMDAT CONST
CONST	SEGMENT
_L___asan_gen_.32 DB '<C++ string literal>', 00H
CONST	ENDS
;	COMDAT ASAN$GL
ASAN$GL	SEGMENT
_L___asan_global_??_C@_1BK@MHIKGOKE@?$AA?3?$AAA?$AAM?$AA?3?$AAa?$AAm?$AA?3?$AAP?$AAM?$AA?3?$AAp?$AAm@ DD FLAT:??_C@_1BK@MHIKGOKE@?$AA?3?$AAA?$AAM?$AA?3?$AAa?$AAm?$AA?3?$AAP?$AAM?$AA?3?$AAp?$AAm@
	DD	01aH
	DD	040H
	DD	FLAT:_L___asan_gen_.30
	DD	FLAT:_L___asan_gen_.24
	DD	00H
	DD	FLAT:_L___asan_gen_.31
	DD	00H
ASAN$GL	ENDS
;	COMDAT CONST
CONST	SEGMENT
_L___asan_gen_.31 DD FLAT:_L___asan_gen_.24
	DD	0b4H
	DD	03eH
CONST	ENDS
;	COMDAT CONST
CONST	SEGMENT
_L___asan_gen_.30 DB '<C++ string literal>', 00H
CONST	ENDS
;	COMDAT ASAN$GL
ASAN$GL	SEGMENT
_L___asan_global_??_C@_0BJ@DHFDPMIM@invalid?5vector?5subscript@ DD FLAT:??_C@_0BJ@DHFDPMIM@invalid?5vector?5subscript@
	DD	019H
	DD	040H
	DD	FLAT:_L___asan_gen_.28
	DD	FLAT:_L___asan_gen_.27
	DD	00H
	DD	FLAT:_L___asan_gen_.29
	DD	00H
ASAN$GL	ENDS
;	COMDAT CONST
CONST	SEGMENT
_L___asan_gen_.29 DD FLAT:_L___asan_gen_.27
	DD	06f2H
	DD	017H
CONST	ENDS
;	COMDAT CONST
CONST	SEGMENT
_L___asan_gen_.28 DB '<C++ string literal>', 00H
CONST	ENDS
;	COMDAT CONST
CONST	SEGMENT
_L___asan_gen_.27 DB 'vector', 00H
CONST	ENDS
;	COMDAT ASAN$GL
ASAN$GL	SEGMENT
_L___asan_global_??_C@_0N@LPFKKEBD@?3AM?3am?3PM?3pm@ DD FLAT:??_C@_0N@LPFKKEBD@?3AM?3am?3PM?3pm@
	DD	0dH
	DD	040H
	DD	FLAT:_L___asan_gen_.25
	DD	FLAT:_L___asan_gen_.24
	DD	00H
	DD	FLAT:_L___asan_gen_.26
	DD	00H
ASAN$GL	ENDS
;	COMDAT CONST
CONST	SEGMENT
_L___asan_gen_.26 DD FLAT:_L___asan_gen_.24
	DD	01b7H
	DD	030H
CONST	ENDS
;	COMDAT CONST
CONST	SEGMENT
_L___asan_gen_.25 DB '<C++ string literal>', 00H
CONST	ENDS
;	COMDAT CONST
CONST	SEGMENT
_L___asan_gen_.24 DB 'xloctime', 00H
CONST	ENDS
;	COMDAT ASAN$GL
ASAN$GL	SEGMENT
_L___asan_global_??_C@_0GI@OGMNKBMN@C?3?2Program?5Files?5?$CIx86?$CJ?2Microsof@ DD FLAT:??_C@_0GI@OGMNKBMN@C?3?2Program?5Files?5?$CIx86?$CJ?2Microsof@
	DD	068H
	DD	0a0H
	DD	FLAT:_L___asan_gen_.22
	DD	FLAT:_L___asan_gen_.21
	DD	00H
	DD	FLAT:_L___asan_gen_.23
	DD	00H
ASAN$GL	ENDS
;	COMDAT CONST
CONST	SEGMENT
_L___asan_gen_.23 DD FLAT:_L___asan_gen_.21
	DD	05dH
	DD	05fH
CONST	ENDS
;	COMDAT CONST
CONST	SEGMENT
_L___asan_gen_.22 DB '<C++ string literal>', 00H
CONST	ENDS
;	COMDAT CONST
CONST	SEGMENT
_L___asan_gen_.21 DB 'xlocnum', 00H
CONST	ENDS
;	COMDAT ASAN$GL
ASAN$GL	SEGMENT
_L___asan_global_??_C@_0GI@GFIAKDGM@C?3?2Program?5Files?5?$CIx86?$CJ?2Microsof@ DD FLAT:??_C@_0GI@GFIAKDGM@C?3?2Program?5Files?5?$CIx86?$CJ?2Microsof@
	DD	068H
	DD	0a0H
	DD	FLAT:_L___asan_gen_.19
	DD	FLAT:_L___asan_gen_.18
	DD	00H
	DD	FLAT:_L___asan_gen_.20
	DD	00H
ASAN$GL	ENDS
;	COMDAT CONST
CONST	SEGMENT
_L___asan_gen_.20 DD FLAT:_L___asan_gen_.18
	DD	049H
	DD	03eH
CONST	ENDS
;	COMDAT CONST
CONST	SEGMENT
_L___asan_gen_.19 DB '<C++ string literal>', 00H
CONST	ENDS
;	COMDAT CONST
CONST	SEGMENT
_L___asan_gen_.18 DB 'xlocale', 00H
CONST	ENDS
;	COMDAT ASAN$GL
ASAN$GL	SEGMENT
_L___asan_global_??_C@_1CG@JNLFBNGN@?$AA?$CC?$AAi?$AAn?$AAv?$AAa?$AAl?$AAi?$AAd?$AA?5?$AAa?$AAr?$AAg?$AAu?$AAm?$AAe@ DD FLAT:??_C@_1CG@JNLFBNGN@?$AA?$CC?$AAi?$AAn?$AAv?$AAa?$AAl?$AAi?$AAd?$AA?5?$AAa?$AAr?$AAg?$AAu?$AAm?$AAe@
	DD	026H
	DD	060H
	DD	FLAT:_L___asan_gen_.16
	DD	FLAT:_L___asan_gen_.5
	DD	00H
	DD	FLAT:_L___asan_gen_.17
	DD	00H
ASAN$GL	ENDS
;	COMDAT CONST
CONST	SEGMENT
_L___asan_gen_.17 DD FLAT:_L___asan_gen_.5
	DD	0a2H
	DD	04H
CONST	ENDS
;	COMDAT CONST
CONST	SEGMENT
_L___asan_gen_.16 DB '<C++ string literal>', 00H
CONST	ENDS
;	COMDAT ASAN$GL
ASAN$GL	SEGMENT
_L___asan_global_??_C@_1EK@NIFDJFDG@?$AAs?$AAt?$AAd?$AA?3?$AA?3?$AA_?$AAA?$AAd?$AAj?$AAu?$AAs?$AAt?$AA_?$AAm?$AAa@ DD FLAT:??_C@_1EK@NIFDJFDG@?$AAs?$AAt?$AAd?$AA?3?$AA?3?$AA_?$AAA?$AAd?$AAj?$AAu?$AAs?$AAt?$AA_?$AAm?$AAa@
	DD	04aH
	DD	080H
	DD	FLAT:_L___asan_gen_.14
	DD	FLAT:_L___asan_gen_.5
	DD	00H
	DD	FLAT:_L___asan_gen_.15
	DD	00H
ASAN$GL	ENDS
;	COMDAT CONST
CONST	SEGMENT
_L___asan_gen_.15 DD FLAT:_L___asan_gen_.5
	DD	0a2H
	DD	04H
CONST	ENDS
;	COMDAT CONST
CONST	SEGMENT
_L___asan_gen_.14 DB '<C++ string literal>', 00H
CONST	ENDS
;	COMDAT ASAN$GL
ASAN$GL	SEGMENT
_L___asan_global_??_C@_1NA@MJBOBEJL@?$AAC?$AA?3?$AA?2?$AAP?$AAr?$AAo?$AAg?$AAr?$AAa?$AAm?$AA?5?$AAF?$AAi?$AAl?$AAe@ DD FLAT:??_C@_1NA@MJBOBEJL@?$AAC?$AA?3?$AA?2?$AAP?$AAr?$AAo?$AAg?$AAr?$AAa?$AAm?$AA?5?$AAF?$AAi?$AAl?$AAe@
	DD	0d0H
	DD	0100H
	DD	FLAT:_L___asan_gen_.12
	DD	FLAT:_L___asan_gen_.5
	DD	00H
	DD	FLAT:_L___asan_gen_.13
	DD	00H
ASAN$GL	ENDS
;	COMDAT CONST
CONST	SEGMENT
_L___asan_gen_.13 DD FLAT:_L___asan_gen_.5
	DD	0a2H
	DD	04H
CONST	ENDS
;	COMDAT CONST
CONST	SEGMENT
_L___asan_gen_.12 DB '<C++ string literal>', 00H
CONST	ENDS
;	COMDAT ASAN$GL
ASAN$GL	SEGMENT
_L___asan_global_??_C@_0GI@MNEMJBML@C?3?2Program?5Files?5?$CIx86?$CJ?2Microsof@ DD FLAT:??_C@_0GI@MNEMJBML@C?3?2Program?5Files?5?$CIx86?$CJ?2Microsof@
	DD	068H
	DD	0a0H
	DD	FLAT:_L___asan_gen_.10
	DD	FLAT:_L___asan_gen_.5
	DD	00H
	DD	FLAT:_L___asan_gen_.11
	DD	00H
ASAN$GL	ENDS
;	COMDAT CONST
CONST	SEGMENT
_L___asan_gen_.11 DD FLAT:_L___asan_gen_.5
	DD	0a2H
	DD	04H
CONST	ENDS
;	COMDAT CONST
CONST	SEGMENT
_L___asan_gen_.10 DB '<C++ string literal>', 00H
CONST	ENDS
;	COMDAT ASAN$GL
ASAN$GL	SEGMENT
_L___asan_global_??_C@_02DKCKIIND@?$CFs@ DD FLAT:??_C@_02DKCKIIND@?$CFs@
	DD	03H
	DD	040H
	DD	FLAT:_L___asan_gen_.8
	DD	FLAT:_L___asan_gen_.5
	DD	00H
	DD	FLAT:_L___asan_gen_.9
	DD	00H
ASAN$GL	ENDS
;	COMDAT CONST
CONST	SEGMENT
_L___asan_gen_.9 DD FLAT:_L___asan_gen_.5
	DD	0a2H
	DD	04H
CONST	ENDS
;	COMDAT CONST
CONST	SEGMENT
_L___asan_gen_.8 DB '<C++ string literal>', 00H
CONST	ENDS
;	COMDAT ASAN$GL
ASAN$GL	SEGMENT
_L___asan_global_??_C@_0BB@FCMFBGOM@invalid?5argument@ DD FLAT:??_C@_0BB@FCMFBGOM@invalid?5argument@
	DD	011H
	DD	040H
	DD	FLAT:_L___asan_gen_.6
	DD	FLAT:_L___asan_gen_.5
	DD	00H
	DD	FLAT:_L___asan_gen_.7
	DD	00H
ASAN$GL	ENDS
;	COMDAT CONST
CONST	SEGMENT
_L___asan_gen_.7 DD FLAT:_L___asan_gen_.5
	DD	0a2H
	DD	04H
CONST	ENDS
;	COMDAT CONST
CONST	SEGMENT
_L___asan_gen_.6 DB '<C++ string literal>', 00H
CONST	ENDS
;	COMDAT CONST
CONST	SEGMENT
_L___asan_gen_.5 DB 'xmemory', 00H
CONST	ENDS
;	COMDAT ASAN$GL
ASAN$GL	SEGMENT
_L___asan_global_??_C@_0BF@KINCDENJ@bad?5array?5new?5length@ DD FLAT:??_C@_0BF@KINCDENJ@bad?5array?5new?5length@
	DD	015H
	DD	040H
	DD	FLAT:_L___asan_gen_.3
	DD	FLAT:_L___asan_gen_.0
	DD	00H
	DD	FLAT:_L___asan_gen_.4
	DD	00H
ASAN$GL	ENDS
;	COMDAT CONST
CONST	SEGMENT
_L___asan_gen_.4 DD FLAT:_L___asan_gen_.0
	DD	08cH
	DD	014H
CONST	ENDS
;	COMDAT CONST
CONST	SEGMENT
_L___asan_gen_.3 DB '<C++ string literal>', 00H
CONST	ENDS
;	COMDAT ASAN$GL
ASAN$GL	SEGMENT
_L___asan_global_??_C@_0BC@EOODALEL@Unknown?5exception@ DD FLAT:??_C@_0BC@EOODALEL@Unknown?5exception@
	DD	012H
	DD	040H
	DD	FLAT:_L___asan_gen_.1
	DD	FLAT:_L___asan_gen_.0
	DD	00H
	DD	FLAT:_L___asan_gen_.2
	DD	00H
ASAN$GL	ENDS
;	COMDAT CONST
CONST	SEGMENT
_L___asan_gen_.2 DD FLAT:_L___asan_gen_.0
	DD	05fH
	DD	02bH
CONST	ENDS
;	COMDAT CONST
CONST	SEGMENT
_L___asan_gen_.1 DB '<C++ string literal>', 00H
CONST	ENDS
;	COMDAT CONST
CONST	SEGMENT
_L___asan_gen_.0 DB 'vcruntime_exception.h', 00H
CONST	ENDS
;	COMDAT rtc$TMZ
rtc$TMZ	SEGMENT
__RTC_Shutdown.rtc$TMZ DD FLAT:__RTC_Shutdown
rtc$TMZ	ENDS
;	COMDAT rtc$IMZ
rtc$IMZ	SEGMENT
__RTC_InitBase.rtc$IMZ DD FLAT:__RTC_InitBase
rtc$IMZ	ENDS
;	COMDAT ??_R4Sprite@sf@@6BTransformable@1@@
rdata$r	SEGMENT
??_R4Sprite@sf@@6BTransformable@1@@ DD 00H		; sf::Sprite::`RTTI Complete Object Locator'
	DD	04H
	DD	00H
	DD	FLAT:??_R0?AVSprite@sf@@@8
	DD	FLAT:??_R3Sprite@sf@@8
rdata$r	ENDS
;	COMDAT ??_R1A@?0A@EA@Transformable@sf@@8
rdata$r	SEGMENT
??_R1A@?0A@EA@Transformable@sf@@8 DD FLAT:??_R0?AVTransformable@sf@@@8 ; sf::Transformable::`RTTI Base Class Descriptor at (0,-1,0,64)'
	DD	00H
	DD	00H
	DD	0ffffffffH
	DD	00H
	DD	040H
	DD	FLAT:??_R3Transformable@sf@@8
rdata$r	ENDS
;	COMDAT ??_R2Transformable@sf@@8
rdata$r	SEGMENT
??_R2Transformable@sf@@8 DD FLAT:??_R1A@?0A@EA@Transformable@sf@@8 ; sf::Transformable::`RTTI Base Class Array'
rdata$r	ENDS
;	COMDAT ??_R3Transformable@sf@@8
rdata$r	SEGMENT
??_R3Transformable@sf@@8 DD 00H				; sf::Transformable::`RTTI Class Hierarchy Descriptor'
	DD	00H
	DD	01H
	DD	FLAT:??_R2Transformable@sf@@8
rdata$r	ENDS
;	COMDAT ??_R0?AVTransformable@sf@@@8
data$rs	SEGMENT
??_R0?AVTransformable@sf@@@8 DD FLAT:??_7type_info@@6B@	; sf::Transformable `RTTI Type Descriptor'
	DD	00H
	DB	'.?AVTransformable@sf@@', 00H
data$rs	ENDS
;	COMDAT ??_R13?0A@EA@Transformable@sf@@8
rdata$r	SEGMENT
??_R13?0A@EA@Transformable@sf@@8 DD FLAT:??_R0?AVTransformable@sf@@@8 ; sf::Transformable::`RTTI Base Class Descriptor at (4,-1,0,64)'
	DD	00H
	DD	04H
	DD	0ffffffffH
	DD	00H
	DD	040H
	DD	FLAT:??_R3Transformable@sf@@8
rdata$r	ENDS
;	COMDAT ??_R2Drawable@sf@@8
rdata$r	SEGMENT
??_R2Drawable@sf@@8 DD FLAT:??_R1A@?0A@EA@Drawable@sf@@8 ; sf::Drawable::`RTTI Base Class Array'
rdata$r	ENDS
;	COMDAT ??_R3Drawable@sf@@8
rdata$r	SEGMENT
??_R3Drawable@sf@@8 DD 00H				; sf::Drawable::`RTTI Class Hierarchy Descriptor'
	DD	00H
	DD	01H
	DD	FLAT:??_R2Drawable@sf@@8
rdata$r	ENDS
;	COMDAT ??_R0?AVDrawable@sf@@@8
data$rs	SEGMENT
??_R0?AVDrawable@sf@@@8 DD FLAT:??_7type_info@@6B@	; sf::Drawable `RTTI Type Descriptor'
	DD	00H
	DB	'.?AVDrawable@sf@@', 00H
data$rs	ENDS
;	COMDAT ??_R1A@?0A@EA@Drawable@sf@@8
rdata$r	SEGMENT
??_R1A@?0A@EA@Drawable@sf@@8 DD FLAT:??_R0?AVDrawable@sf@@@8 ; sf::Drawable::`RTTI Base Class Descriptor at (0,-1,0,64)'
	DD	00H
	DD	00H
	DD	0ffffffffH
	DD	00H
	DD	040H
	DD	FLAT:??_R3Drawable@sf@@8
rdata$r	ENDS
;	COMDAT ??_R1A@?0A@EA@Sprite@sf@@8
rdata$r	SEGMENT
??_R1A@?0A@EA@Sprite@sf@@8 DD FLAT:??_R0?AVSprite@sf@@@8 ; sf::Sprite::`RTTI Base Class Descriptor at (0,-1,0,64)'
	DD	02H
	DD	00H
	DD	0ffffffffH
	DD	00H
	DD	040H
	DD	FLAT:??_R3Sprite@sf@@8
rdata$r	ENDS
;	COMDAT ??_R2Sprite@sf@@8
rdata$r	SEGMENT
??_R2Sprite@sf@@8 DD FLAT:??_R1A@?0A@EA@Sprite@sf@@8	; sf::Sprite::`RTTI Base Class Array'
	DD	FLAT:??_R1A@?0A@EA@Drawable@sf@@8
	DD	FLAT:??_R13?0A@EA@Transformable@sf@@8
rdata$r	ENDS
;	COMDAT ??_R3Sprite@sf@@8
rdata$r	SEGMENT
??_R3Sprite@sf@@8 DD 00H				; sf::Sprite::`RTTI Class Hierarchy Descriptor'
	DD	01H
	DD	03H
	DD	FLAT:??_R2Sprite@sf@@8
rdata$r	ENDS
;	COMDAT ??_R0?AVSprite@sf@@@8
data$rs	SEGMENT
??_R0?AVSprite@sf@@@8 DD FLAT:??_7type_info@@6B@	; sf::Sprite `RTTI Type Descriptor'
	DD	00H
	DB	'.?AVSprite@sf@@', 00H
data$rs	ENDS
;	COMDAT ??_R4Sprite@sf@@6BDrawable@1@@
rdata$r	SEGMENT
??_R4Sprite@sf@@6BDrawable@1@@ DD 00H			; sf::Sprite::`RTTI Complete Object Locator'
	DD	00H
	DD	00H
	DD	FLAT:??_R0?AVSprite@sf@@@8
	DD	FLAT:??_R3Sprite@sf@@8
rdata$r	ENDS
;	COMDAT ??_R1A@?0A@EA@bad_array_new_length@std@@8
rdata$r	SEGMENT
??_R1A@?0A@EA@bad_array_new_length@std@@8 DD FLAT:??_R0?AVbad_array_new_length@std@@@8 ; std::bad_array_new_length::`RTTI Base Class Descriptor at (0,-1,0,64)'
	DD	02H
	DD	00H
	DD	0ffffffffH
	DD	00H
	DD	040H
	DD	FLAT:??_R3bad_array_new_length@std@@8
rdata$r	ENDS
;	COMDAT ??_R2bad_array_new_length@std@@8
rdata$r	SEGMENT
??_R2bad_array_new_length@std@@8 DD FLAT:??_R1A@?0A@EA@bad_array_new_length@std@@8 ; std::bad_array_new_length::`RTTI Base Class Array'
	DD	FLAT:??_R1A@?0A@EA@bad_alloc@std@@8
	DD	FLAT:??_R1A@?0A@EA@exception@std@@8
rdata$r	ENDS
;	COMDAT ??_R3bad_array_new_length@std@@8
rdata$r	SEGMENT
??_R3bad_array_new_length@std@@8 DD 00H			; std::bad_array_new_length::`RTTI Class Hierarchy Descriptor'
	DD	00H
	DD	03H
	DD	FLAT:??_R2bad_array_new_length@std@@8
rdata$r	ENDS
;	COMDAT ??_R4bad_array_new_length@std@@6B@
rdata$r	SEGMENT
??_R4bad_array_new_length@std@@6B@ DD 00H		; std::bad_array_new_length::`RTTI Complete Object Locator'
	DD	00H
	DD	00H
	DD	FLAT:??_R0?AVbad_array_new_length@std@@@8
	DD	FLAT:??_R3bad_array_new_length@std@@8
rdata$r	ENDS
;	COMDAT ??_R1A@?0A@EA@bad_alloc@std@@8
rdata$r	SEGMENT
??_R1A@?0A@EA@bad_alloc@std@@8 DD FLAT:??_R0?AVbad_alloc@std@@@8 ; std::bad_alloc::`RTTI Base Class Descriptor at (0,-1,0,64)'
	DD	01H
	DD	00H
	DD	0ffffffffH
	DD	00H
	DD	040H
	DD	FLAT:??_R3bad_alloc@std@@8
rdata$r	ENDS
;	COMDAT ??_R2bad_alloc@std@@8
rdata$r	SEGMENT
??_R2bad_alloc@std@@8 DD FLAT:??_R1A@?0A@EA@bad_alloc@std@@8 ; std::bad_alloc::`RTTI Base Class Array'
	DD	FLAT:??_R1A@?0A@EA@exception@std@@8
rdata$r	ENDS
;	COMDAT ??_R3bad_alloc@std@@8
rdata$r	SEGMENT
??_R3bad_alloc@std@@8 DD 00H				; std::bad_alloc::`RTTI Class Hierarchy Descriptor'
	DD	00H
	DD	02H
	DD	FLAT:??_R2bad_alloc@std@@8
rdata$r	ENDS
;	COMDAT ??_R4bad_alloc@std@@6B@
rdata$r	SEGMENT
??_R4bad_alloc@std@@6B@ DD 00H				; std::bad_alloc::`RTTI Complete Object Locator'
	DD	00H
	DD	00H
	DD	FLAT:??_R0?AVbad_alloc@std@@@8
	DD	FLAT:??_R3bad_alloc@std@@8
rdata$r	ENDS
;	COMDAT ??_R1A@?0A@EA@exception@std@@8
rdata$r	SEGMENT
??_R1A@?0A@EA@exception@std@@8 DD FLAT:??_R0?AVexception@std@@@8 ; std::exception::`RTTI Base Class Descriptor at (0,-1,0,64)'
	DD	00H
	DD	00H
	DD	0ffffffffH
	DD	00H
	DD	040H
	DD	FLAT:??_R3exception@std@@8
rdata$r	ENDS
;	COMDAT ??_R2exception@std@@8
rdata$r	SEGMENT
??_R2exception@std@@8 DD FLAT:??_R1A@?0A@EA@exception@std@@8 ; std::exception::`RTTI Base Class Array'
rdata$r	ENDS
;	COMDAT ??_R3exception@std@@8
rdata$r	SEGMENT
??_R3exception@std@@8 DD 00H				; std::exception::`RTTI Class Hierarchy Descriptor'
	DD	00H
	DD	01H
	DD	FLAT:??_R2exception@std@@8
rdata$r	ENDS
;	COMDAT ??_R4exception@std@@6B@
rdata$r	SEGMENT
??_R4exception@std@@6B@ DD 00H				; std::exception::`RTTI Complete Object Locator'
	DD	00H
	DD	00H
	DD	FLAT:??_R0?AVexception@std@@@8
	DD	FLAT:??_R3exception@std@@8
rdata$r	ENDS
;	COMDAT ??_SSprite@sf@@6BTransformable@1@@
CONST	SEGMENT
??_SSprite@sf@@6BTransformable@1@@ DD FLAT:??_R4Sprite@sf@@6BTransformable@1@@ ; sf::Sprite::`local vftable'
	DD	FLAT:??_ESprite@sf@@W3AEPAXI@Z
CONST	ENDS
;	COMDAT ??_SSprite@sf@@6BDrawable@1@@
CONST	SEGMENT
??_SSprite@sf@@6BDrawable@1@@ DD FLAT:??_R4Sprite@sf@@6BDrawable@1@@ ; sf::Sprite::`local vftable'
	DD	FLAT:??_ESprite@sf@@UAEPAXI@Z
	DD	FLAT:?draw@Sprite@sf@@EBEXAAVRenderTarget@2@VRenderStates@2@@Z
CONST	ENDS
;	COMDAT __CT??_R0?AVexception@std@@@8??0exception@std@@QAE@ABV01@@Z12
xdata$x	SEGMENT
__CT??_R0?AVexception@std@@@8??0exception@std@@QAE@ABV01@@Z12 DD 00H
	DD	FLAT:??_R0?AVexception@std@@@8
	DD	00H
	DD	0ffffffffH
	ORG $+4
	DD	0cH
	DD	FLAT:??0exception@std@@QAE@ABV01@@Z
xdata$x	ENDS
;	COMDAT ??_R0?AVexception@std@@@8
data$r	SEGMENT
??_R0?AVexception@std@@@8 DD FLAT:??_7type_info@@6B@	; std::exception `RTTI Type Descriptor'
	DD	00H
	DB	'.?AVexception@std@@', 00H
data$r	ENDS
;	COMDAT __CT??_R0?AVbad_alloc@std@@@8??0bad_alloc@std@@QAE@ABV01@@Z12
xdata$x	SEGMENT
__CT??_R0?AVbad_alloc@std@@@8??0bad_alloc@std@@QAE@ABV01@@Z12 DD 010H
	DD	FLAT:??_R0?AVbad_alloc@std@@@8
	DD	00H
	DD	0ffffffffH
	ORG $+4
	DD	0cH
	DD	FLAT:??0bad_alloc@std@@QAE@ABV01@@Z
xdata$x	ENDS
;	COMDAT ??_R0?AVbad_alloc@std@@@8
data$r	SEGMENT
??_R0?AVbad_alloc@std@@@8 DD FLAT:??_7type_info@@6B@	; std::bad_alloc `RTTI Type Descriptor'
	DD	00H
	DB	'.?AVbad_alloc@std@@', 00H
data$r	ENDS
;	COMDAT __CT??_R0?AVbad_array_new_length@std@@@8??0bad_array_new_length@std@@QAE@ABV01@@Z12
xdata$x	SEGMENT
__CT??_R0?AVbad_array_new_length@std@@@8??0bad_array_new_length@std@@QAE@ABV01@@Z12 DD 00H
	DD	FLAT:??_R0?AVbad_array_new_length@std@@@8
	DD	00H
	DD	0ffffffffH
	ORG $+4
	DD	0cH
	DD	FLAT:??0bad_array_new_length@std@@QAE@ABV01@@Z
xdata$x	ENDS
;	COMDAT ??_R0?AVbad_array_new_length@std@@@8
data$r	SEGMENT
??_R0?AVbad_array_new_length@std@@@8 DD FLAT:??_7type_info@@6B@ ; std::bad_array_new_length `RTTI Type Descriptor'
	DD	00H
	DB	'.?AVbad_array_new_length@std@@', 00H
data$r	ENDS
;	COMDAT __CTA3?AVbad_array_new_length@std@@
xdata$x	SEGMENT
__CTA3?AVbad_array_new_length@std@@ DD 03H
	DD	FLAT:__CT??_R0?AVbad_array_new_length@std@@@8??0bad_array_new_length@std@@QAE@ABV01@@Z12
	DD	FLAT:__CT??_R0?AVbad_alloc@std@@@8??0bad_alloc@std@@QAE@ABV01@@Z12
	DD	FLAT:__CT??_R0?AVexception@std@@@8??0exception@std@@QAE@ABV01@@Z12
xdata$x	ENDS
;	COMDAT __TI3?AVbad_array_new_length@std@@
xdata$x	SEGMENT
__TI3?AVbad_array_new_length@std@@ DD 00H
	DD	FLAT:??1bad_array_new_length@std@@UAE@XZ
	DD	00H
	DD	FLAT:__CTA3?AVbad_array_new_length@std@@
xdata$x	ENDS
;	COMDAT ??_7bad_array_new_length@std@@6B@
CONST	SEGMENT
??_7bad_array_new_length@std@@6B@ DD FLAT:??_R4bad_array_new_length@std@@6B@ ; std::bad_array_new_length::`vftable'
	DD	FLAT:??_Ebad_array_new_length@std@@UAEPAXI@Z
	DD	FLAT:?what@exception@std@@UBEPBDXZ
CONST	ENDS
;	COMDAT ??_7bad_alloc@std@@6B@
CONST	SEGMENT
??_7bad_alloc@std@@6B@ DD FLAT:??_R4bad_alloc@std@@6B@	; std::bad_alloc::`vftable'
	DD	FLAT:??_Ebad_alloc@std@@UAEPAXI@Z
	DD	FLAT:?what@exception@std@@UBEPBDXZ
CONST	ENDS
;	COMDAT ??_7exception@std@@6B@
CONST	SEGMENT
??_7exception@std@@6B@ DD FLAT:??_R4exception@std@@6B@	; std::exception::`vftable'
	DD	FLAT:??_Eexception@std@@UAEPAXI@Z
	DD	FLAT:?what@exception@std@@UBEPBDXZ
CONST	ENDS
;	COMDAT voltbl
voltbl	SEGMENT
_volmd	DB	016H
	DB	023H
voltbl	ENDS
;	COMDAT voltbl
voltbl	SEGMENT
_volmd	DW	032H
	DW	0195H
voltbl	ENDS
;	COMDAT xdata$x
xdata$x	SEGMENT
__unwindtable$??$_Uninitialized_value_construct_n@V?$allocator@PAVSprite@sf@@@std@@@std@@YAPAPAVSprite@sf@@PAPAV12@IAAV?$allocator@PAVSprite@sf@@@0@@Z DD 0ffffffffH
	DD	FLAT:__unwindfunclet$??$_Uninitialized_value_construct_n@V?$allocator@PAVSprite@sf@@@std@@@std@@YAPAPAVSprite@sf@@PAPAV12@IAAV?$allocator@PAVSprite@sf@@@0@@Z$0
__ehfuncinfo$??$_Uninitialized_value_construct_n@V?$allocator@PAVSprite@sf@@@std@@@std@@YAPAPAVSprite@sf@@PAPAV12@IAAV?$allocator@PAVSprite@sf@@@0@@Z DD 019930522H
	DD	01H
	DD	FLAT:__unwindtable$??$_Uninitialized_value_construct_n@V?$allocator@PAVSprite@sf@@@std@@@std@@YAPAPAVSprite@sf@@PAPAV12@IAAV?$allocator@PAVSprite@sf@@@0@@Z
	DD	2 DUP(00H)
	DD	2 DUP(00H)
	DD	00H
	DD	01H
xdata$x	ENDS
;	COMDAT CONST
CONST	SEGMENT
__L__asan_gen_.??$_Uninitialized_value_construct_n@V?$allocator@PAVSprite@sf@@@std@@@std@@YAPAPAVSprite@sf@@PAPAV12@IAAV?$allocator@PAVSprite@sf@@@0@@Z DB '1'
	DB	' 16 12 8 _Backout'
CONST	ENDS
;	COMDAT voltbl
voltbl	SEGMENT
_volmd	DB	016H
	DB	023H
voltbl	ENDS
;	COMDAT voltbl
voltbl	SEGMENT
_volmd	DW	032H
	DW	01bfH
voltbl	ENDS
;	COMDAT xdata$x
xdata$x	SEGMENT
__unwindtable$??$_Uninitialized_move@PAPAVTexture@sf@@V?$allocator@PAVTexture@sf@@@std@@@std@@YAPAPAVTexture@sf@@QAPAV12@0PAPAV12@AAV?$allocator@PAVTexture@sf@@@0@@Z DD 0ffffffffH
	DD	FLAT:__unwindfunclet$??$_Uninitialized_move@PAPAVTexture@sf@@V?$allocator@PAVTexture@sf@@@std@@@std@@YAPAPAVTexture@sf@@QAPAV12@0PAPAV12@AAV?$allocator@PAVTexture@sf@@@0@@Z$0
__ehfuncinfo$??$_Uninitialized_move@PAPAVTexture@sf@@V?$allocator@PAVTexture@sf@@@std@@@std@@YAPAPAVTexture@sf@@QAPAV12@0PAPAV12@AAV?$allocator@PAVTexture@sf@@@0@@Z DD 019930522H
	DD	01H
	DD	FLAT:__unwindtable$??$_Uninitialized_move@PAPAVTexture@sf@@V?$allocator@PAVTexture@sf@@@std@@@std@@YAPAPAVTexture@sf@@QAPAV12@0PAPAV12@AAV?$allocator@PAVTexture@sf@@@0@@Z
	DD	2 DUP(00H)
	DD	2 DUP(00H)
	DD	00H
	DD	01H
xdata$x	ENDS
;	COMDAT CONST
CONST	SEGMENT
__L__asan_gen_.??$_Uninitialized_move@PAPAVTexture@sf@@V?$allocator@PAVTexture@sf@@@std@@@std@@YAPAPAVTexture@sf@@QAPAV12@0PAPAV12@AAV?$allocator@PAVTexture@sf@@@0@@Z DB '1'
	DB	' 16 12 8 _Backout'
CONST	ENDS
;	COMDAT voltbl
voltbl	SEGMENT
_volmd	DB	09H
voltbl	ENDS
;	COMDAT xdata$x
xdata$x	SEGMENT
__ehfuncinfo$??$_Deallocate_plain@V?$allocator@U_Container_proxy@std@@@std@@@std@@YAXAAV?$allocator@U_Container_proxy@std@@@0@QAU_Container_proxy@0@@Z DD 019930522H
	DD	00H
	DD	00H
	DD	2 DUP(00H)
	DD	2 DUP(00H)
	DD	00H
	DD	05H
xdata$x	ENDS
;	COMDAT voltbl
voltbl	SEGMENT
_volmd	DB	09H
voltbl	ENDS
;	COMDAT xdata$x
xdata$x	SEGMENT
__ehfuncinfo$??$_Deallocate@$07$0A@@std@@YAXPAXI@Z DD 019930522H
	DD	00H
	DD	00H
	DD	2 DUP(00H)
	DD	2 DUP(00H)
	DD	00H
	DD	05H
xdata$x	ENDS
;	COMDAT CONST
CONST	SEGMENT
__L__asan_gen_.??0?$_Container_proxy_ptr12@V?$allocator@U_Container_proxy@std@@@std@@@std@@QAE@AAV?$allocator@U_Container_proxy@std@@@1@AAU_Container_base12@1@@Z DB '1'
	DB	' 16 4 18 compiler temporary'
CONST	ENDS
;	COMDAT voltbl
voltbl	SEGMENT
_volmd	DB	021H
	DB	02eH
voltbl	ENDS
;	COMDAT voltbl
voltbl	SEGMENT
_volmd	DW	032H
	DW	025aH
voltbl	ENDS
;	COMDAT xdata$x
xdata$x	SEGMENT
__unwindtable$??$_Construct_n_copies_of_ty@U_Value_init_tag@std@@@?$vector@PAVSprite@sf@@V?$allocator@PAVSprite@sf@@@std@@@std@@AAEXIABU_Value_init_tag@1@@Z DD 0ffffffffH
	DD	FLAT:__unwindfunclet$??$_Construct_n_copies_of_ty@U_Value_init_tag@std@@@?$vector@PAVSprite@sf@@V?$allocator@PAVSprite@sf@@@std@@@std@@AAEXIABU_Value_init_tag@1@@Z$0
	DD	00H
	DD	FLAT:__unwindfunclet$??$_Construct_n_copies_of_ty@U_Value_init_tag@std@@@?$vector@PAVSprite@sf@@V?$allocator@PAVSprite@sf@@@std@@@std@@AAEXIABU_Value_init_tag@1@@Z$1
__ehfuncinfo$??$_Construct_n_copies_of_ty@U_Value_init_tag@std@@@?$vector@PAVSprite@sf@@V?$allocator@PAVSprite@sf@@@std@@@std@@AAEXIABU_Value_init_tag@1@@Z DD 019930522H
	DD	02H
	DD	FLAT:__unwindtable$??$_Construct_n_copies_of_ty@U_Value_init_tag@std@@@?$vector@PAVSprite@sf@@V?$allocator@PAVSprite@sf@@@std@@@std@@AAEXIABU_Value_init_tag@1@@Z
	DD	2 DUP(00H)
	DD	2 DUP(00H)
	DD	00H
	DD	01H
xdata$x	ENDS
;	COMDAT CONST
CONST	SEGMENT
__L__asan_gen_.??$_Construct_n_copies_of_ty@U_Value_init_tag@std@@@?$vector@PAVSprite@sf@@V?$allocator@PAVSprite@sf@@@std@@@std@@AAEXIABU_Value_init_tag@1@@Z DB '3'
	DB	' 16 1 4 $S19 32 8 6 _Proxy 48 4 6 _Guard'
CONST	ENDS
;	COMDAT CONST
CONST	SEGMENT
__L__asan_gen_.??$_Alloc_proxy@V?$allocator@U_Container_proxy@std@@@std@@@_Container_base12@std@@QAEX$$QAV?$allocator@U_Container_proxy@std@@@1@@Z DB '1'
	DB	' 16 4 18 compiler temporary'
CONST	ENDS
;	COMDAT voltbl
voltbl	SEGMENT
_volmd	DB	09H
voltbl	ENDS
;	COMDAT xdata$x
xdata$x	SEGMENT
__catchsym$??$_Emplace_reallocate@ABQAVTexture@sf@@@?$vector@PAVTexture@sf@@V?$allocator@PAVTexture@sf@@@std@@@std@@QAEPAPAVTexture@sf@@QAPAV23@ABQAV23@@Z$2 DD 040H
	DD	00H
	DD	00H
	DD	FLAT:__catch$??$_Emplace_reallocate@ABQAVTexture@sf@@@?$vector@PAVTexture@sf@@V?$allocator@PAVTexture@sf@@@std@@@std@@QAEPAPAVTexture@sf@@QAPAV23@ABQAV23@@Z$0
__unwindtable$??$_Emplace_reallocate@ABQAVTexture@sf@@@?$vector@PAVTexture@sf@@V?$allocator@PAVTexture@sf@@@std@@@std@@QAEPAPAVTexture@sf@@QAPAV23@ABQAV23@@Z DD 0ffffffffH
	DD	00H
	DD	0ffffffffH
	DD	00H
__tryblocktable$??$_Emplace_reallocate@ABQAVTexture@sf@@@?$vector@PAVTexture@sf@@V?$allocator@PAVTexture@sf@@@std@@@std@@QAEPAPAVTexture@sf@@QAPAV23@ABQAV23@@Z DD 00H
	DD	00H
	DD	01H
	DD	01H
	DD	FLAT:__catchsym$??$_Emplace_reallocate@ABQAVTexture@sf@@@?$vector@PAVTexture@sf@@V?$allocator@PAVTexture@sf@@@std@@@std@@QAEPAPAVTexture@sf@@QAPAV23@ABQAV23@@Z$2
__ehfuncinfo$??$_Emplace_reallocate@ABQAVTexture@sf@@@?$vector@PAVTexture@sf@@V?$allocator@PAVTexture@sf@@@std@@@std@@QAEPAPAVTexture@sf@@QAPAV23@ABQAV23@@Z DD 019930522H
	DD	02H
	DD	FLAT:__unwindtable$??$_Emplace_reallocate@ABQAVTexture@sf@@@?$vector@PAVTexture@sf@@V?$allocator@PAVTexture@sf@@@std@@@std@@QAEPAPAVTexture@sf@@QAPAV23@ABQAV23@@Z
	DD	01H
	DD	FLAT:__tryblocktable$??$_Emplace_reallocate@ABQAVTexture@sf@@@?$vector@PAVTexture@sf@@V?$allocator@PAVTexture@sf@@@std@@@std@@QAEPAPAVTexture@sf@@QAPAV23@ABQAV23@@Z
	DD	2 DUP(00H)
	DD	00H
	DD	01H
xdata$x	ENDS
;	COMDAT voltbl
voltbl	SEGMENT
_volmd	DB	017H
	DB	021H
voltbl	ENDS
;	COMDAT voltbl
voltbl	SEGMENT
_volmd	DB	02fH
	DB	0f6H
voltbl	ENDS
;	COMDAT xdata$x
xdata$x	SEGMENT
__unwindtable$?_Orphan_range_locked@?$vector@PAVTexture@sf@@V?$allocator@PAVTexture@sf@@@std@@@std@@ABEXPAPAVTexture@sf@@0@Z DD 0ffffffffH
	DD	FLAT:__unwindfunclet$?_Orphan_range_locked@?$vector@PAVTexture@sf@@V?$allocator@PAVTexture@sf@@@std@@@std@@ABEXPAPAVTexture@sf@@0@Z$0
__ehfuncinfo$?_Orphan_range_locked@?$vector@PAVTexture@sf@@V?$allocator@PAVTexture@sf@@@std@@@std@@ABEXPAPAVTexture@sf@@0@Z DD 019930522H
	DD	01H
	DD	FLAT:__unwindtable$?_Orphan_range_locked@?$vector@PAVTexture@sf@@V?$allocator@PAVTexture@sf@@@std@@@std@@ABEXPAPAVTexture@sf@@0@Z
	DD	2 DUP(00H)
	DD	2 DUP(00H)
	DD	00H
	DD	01H
xdata$x	ENDS
;	COMDAT CONST
CONST	SEGMENT
__L__asan_gen_.?_Orphan_range_locked@?$vector@PAVTexture@sf@@V?$allocator@PAVTexture@sf@@@std@@@std@@ABEXPAPAVTexture@sf@@0@Z DB '1'
	DB	' 16 4 5 _Lock'
CONST	ENDS
;	COMDAT voltbl
voltbl	SEGMENT
_volmd	DB	09H
voltbl	ENDS
;	COMDAT xdata$x
xdata$x	SEGMENT
__ehfuncinfo$?_Tidy@?$vector@PAVTexture@sf@@V?$allocator@PAVTexture@sf@@@std@@@std@@AAEXXZ DD 019930522H
	DD	00H
	DD	00H
	DD	2 DUP(00H)
	DD	2 DUP(00H)
	DD	00H
	DD	05H
xdata$x	ENDS
;	COMDAT CONST
CONST	SEGMENT
__L__asan_gen_.?_Umove_if_noexcept@?$vector@PAVTexture@sf@@V?$allocator@PAVTexture@sf@@@std@@@std@@AAEXPAPAVTexture@sf@@00@Z DB '1'
	DB	' 16 1 18 compiler temporary'
CONST	ENDS
;	COMDAT CONST
CONST	SEGMENT
__L__asan_gen_.?max_size@?$vector@PAVTexture@sf@@V?$allocator@PAVTexture@sf@@@std@@@std@@QBEIXZ DB '2'
	DB	' 16 4 18 compiler temporary 32 4 18 compiler temporary'
CONST	ENDS
;	COMDAT voltbl
voltbl	SEGMENT
_volmd	DW	023H
	DW	0133H
voltbl	ENDS
;	COMDAT CONST
CONST	SEGMENT
__L__asan_gen_.??1?$vector@PAVTexture@sf@@V?$allocator@PAVTexture@sf@@@std@@@std@@QAE@XZ DB '2'
	DB	' 16 1 3 $S1 32 4 18 compiler temporary'
CONST	ENDS
;	COMDAT voltbl
voltbl	SEGMENT
_volmd	DB	09H
voltbl	ENDS
;	COMDAT xdata$x
xdata$x	SEGMENT
__ehfuncinfo$??0?$vector@PAVTexture@sf@@V?$allocator@PAVTexture@sf@@@std@@@std@@QAE@XZ DD 019930522H
	DD	00H
	DD	00H
	DD	2 DUP(00H)
	DD	2 DUP(00H)
	DD	00H
	DD	05H
xdata$x	ENDS
;	COMDAT CONST
CONST	SEGMENT
__L__asan_gen_.??0?$vector@PAVTexture@sf@@V?$allocator@PAVTexture@sf@@@std@@@std@@QAE@XZ DB '1'
	DB	' 16 1 18 compiler temporary'
CONST	ENDS
voltbl	SEGMENT
_volmd	DD	0ffffffffH
	DDSymXIndex: 	FLAT:__unwindfunclet$??0Player@@QAE@HHPAV?$vector@PAVImage@sf@@V?$allocator@PAVImage@sf@@@std@@@std@@@Z$0
	DD	06bH
	DD	078H
_volmd	DD	0ffffffffH
	DDSymXIndex: 	FLAT:??0Player@@QAE@HHPAV?$vector@PAVImage@sf@@V?$allocator@PAVImage@sf@@@std@@@std@@@Z
	DD	032H
	DD	0bbbH
voltbl	ENDS
xdata$x	SEGMENT
__ehfuncinfo$??0Player@@QAE@HHPAV?$vector@PAVImage@sf@@V?$allocator@PAVImage@sf@@@std@@@std@@@Z DD 019930522H
	DD	05H
	DD	FLAT:__unwindtable$??0Player@@QAE@HHPAV?$vector@PAVImage@sf@@V?$allocator@PAVImage@sf@@@std@@@std@@@Z
	DD	2 DUP(00H)
	DD	2 DUP(00H)
	DD	00H
	DD	01H
__unwindtable$??0Player@@QAE@HHPAV?$vector@PAVImage@sf@@V?$allocator@PAVImage@sf@@@std@@@std@@@Z DD 0ffffffffH
	DD	FLAT:__unwindfunclet$??0Player@@QAE@HHPAV?$vector@PAVImage@sf@@V?$allocator@PAVImage@sf@@@std@@@std@@@Z$0
	DD	0ffffffffH
	DD	FLAT:__unwindfunclet$??0Player@@QAE@HHPAV?$vector@PAVImage@sf@@V?$allocator@PAVImage@sf@@@std@@@std@@@Z$1
	DD	0ffffffffH
	DD	FLAT:__unwindfunclet$??0Player@@QAE@HHPAV?$vector@PAVImage@sf@@V?$allocator@PAVImage@sf@@@std@@@std@@@Z$2
	DD	0ffffffffH
	DD	FLAT:__unwindfunclet$??0Player@@QAE@HHPAV?$vector@PAVImage@sf@@V?$allocator@PAVImage@sf@@@std@@@std@@@Z$3
	DD	0ffffffffH
	DD	FLAT:__unwindfunclet$??0Player@@QAE@HHPAV?$vector@PAVImage@sf@@V?$allocator@PAVImage@sf@@@std@@@std@@@Z$4
xdata$x	ENDS
CONST	SEGMENT
	ORG $+4
__L__asan_gen_.??0Player@@QAE@HHPAV?$vector@PAVImage@sf@@V?$allocator@PAVImage@sf@@@std@@@std@@@Z DB '4'
	DB	' 16 8 18 compiler temporary 32 1 18 compiler temporary 48 4 3'
	DB	' tex 64 16 18 compiler temporary'
CONST	ENDS
;	COMDAT voltbl
voltbl	SEGMENT
_volmd	DB	09H
voltbl	ENDS
;	COMDAT xdata$x
xdata$x	SEGMENT
__ehfuncinfo$?_Tidy@?$vector@PAVSprite@sf@@V?$allocator@PAVSprite@sf@@@std@@@std@@AAEXXZ DD 019930522H
	DD	00H
	DD	00H
	DD	2 DUP(00H)
	DD	2 DUP(00H)
	DD	00H
	DD	05H
xdata$x	ENDS
;	COMDAT CONST
CONST	SEGMENT
__L__asan_gen_.?max_size@?$vector@PAVSprite@sf@@V?$allocator@PAVSprite@sf@@@std@@@std@@QBEIXZ DB '2'
	DB	' 16 4 18 compiler temporary 32 4 18 compiler temporary'
CONST	ENDS
;	COMDAT voltbl
voltbl	SEGMENT
_volmd	DW	023H
	DW	0133H
voltbl	ENDS
;	COMDAT CONST
CONST	SEGMENT
__L__asan_gen_.??1?$vector@PAVSprite@sf@@V?$allocator@PAVSprite@sf@@@std@@@std@@QAE@XZ DB '2'
	DB	' 16 1 3 $S2 32 4 18 compiler temporary'
CONST	ENDS
;	COMDAT CONST
CONST	SEGMENT
__L__asan_gen_.??0?$vector@PAVSprite@sf@@V?$allocator@PAVSprite@sf@@@std@@@std@@QAE@IABV?$allocator@PAVSprite@sf@@@1@@Z DB '1'
	DB	' 16 1 18 compiler temporary'
CONST	ENDS
;	COMDAT CONST
CONST	SEGMENT
__L__asan_gen_.??$_Getvals@_W@?$time_get@_WV?$istreambuf_iterator@_WU?$char_traits@_W@std@@@std@@@std@@IAEX_WABV_Locinfo@1@@Z DB '1'
	DB	' 16 44 18 compiler temporary'
CONST	ENDS
;	COMDAT CONST
CONST	SEGMENT
__L__asan_gen_.??$_Getvals@_W@?$time_get@DV?$istreambuf_iterator@DU?$char_traits@D@std@@@std@@@std@@IAEX_WABV_Locinfo@1@@Z DB '1'
	DB	' 16 44 18 compiler temporary'
CONST	ENDS
;	COMDAT voltbl
voltbl	SEGMENT
_volmd	DW	023H
	DW	022dH
voltbl	ENDS
;	COMDAT CONST
CONST	SEGMENT
__L__asan_gen_.??$_Maklocstr@_W@std@@YAPA_WPBDPA_WABU_Cvtvec@@@Z DB '3 16'
	DB	' 8 6 _Mbst1 32 2 3 _Wc 48 8 6 _Mbst2'
CONST	ENDS
;	COMDAT voltbl
voltbl	SEGMENT
_volmd	DB	020H
	DB	0bbH
voltbl	ENDS
;	COMDAT CONST
CONST	SEGMENT
__L__asan_gen_.?_Orphan_all_locked_v3@_Container_base12@std@@AAEXXZ DB '1'
	DB	' 16 4 5 _Lock'
CONST	ENDS
;	COMDAT CONST
CONST	SEGMENT
__L__asan_gen_.?_Throw_bad_array_new_length@std@@YAXXZ DB '1 16 12 18 com'
	DB	'piler temporary'
CONST	ENDS
; Function compile flags: /Odt
;	COMDAT __JustMyCode_Default
_TEXT	SEGMENT
__JustMyCode_Default PROC				; COMDAT
  00000	55		 push	 ebp
  00001	8b ec		 mov	 ebp, esp
  00003	5d		 pop	 ebp
  00004	c3		 ret	 0
__JustMyCode_Default ENDP
_TEXT	ENDS
; Function compile flags: /Odsp /RTCu
;	COMDAT ??_ESprite@sf@@W3AEPAXI@Z
_TEXT	SEGMENT
??_ESprite@sf@@W3AEPAXI@Z PROC				; [thunk]:sf::Sprite::`vector deleting destructor', COMDAT
  00000	83 e9 04	 sub	 ecx, 4
  00003	e9 00 00 00 00	 jmp	 ??_ESprite@sf@@UAEPAXI@Z
??_ESprite@sf@@W3AEPAXI@Z ENDP				; [thunk]:sf::Sprite::`vector deleting destructor'
_TEXT	ENDS
; Function compile flags: /Odtp /RTCu
; File C:\Program Files (x86)\Microsoft Visual Studio\2019\Community\VC\Tools\MSVC\14.29.30133\include\xutility
;	COMDAT ??$_Voidify_iter@PAPAVSprite@sf@@@std@@YAPAXPAPAVSprite@sf@@@Z
_TEXT	SEGMENT
__It$ = 8						; size = 4
??$_Voidify_iter@PAPAVSprite@sf@@@std@@YAPAXPAPAVSprite@sf@@@Z PROC ; std::_Voidify_iter<sf::Sprite * *>, COMDAT

; 130  : _NODISCARD constexpr void* _Voidify_iter(_Iter _It) noexcept {

  00000	55		 push	 ebp
  00001	8b ec		 mov	 ebp, esp
  00003	b9 00 00 00 00	 mov	 ecx, OFFSET __12269DE6_xutility
  00008	e8 00 00 00 00	 call	 @__CheckForDebuggerJustMyCode@4

; 131  :     if constexpr (is_pointer_v<_Iter>) {
; 132  :         return const_cast<void*>(static_cast<const volatile void*>(_It));

  0000d	8b 45 08	 mov	 eax, DWORD PTR __It$[ebp]

; 133  :     } else {
; 134  :         return const_cast<void*>(static_cast<const volatile void*>(_STD addressof(*_It)));
; 135  :     }
; 136  : }

  00010	5d		 pop	 ebp
  00011	c3		 ret	 0
??$_Voidify_iter@PAPAVSprite@sf@@@std@@YAPAXPAPAVSprite@sf@@@Z ENDP ; std::_Voidify_iter<sf::Sprite * *>
_TEXT	ENDS
; Function compile flags: /Odtp /RTCu
; File C:\Program Files (x86)\Microsoft Visual Studio\2019\Community\VC\Tools\MSVC\14.29.30133\include\xutility
;	COMDAT ??$construct_at@PAVSprite@sf@@$$VX@std@@YAPAPAVSprite@sf@@QAPAV12@@Z
_TEXT	SEGMENT
tv72 = -16						; size = 4
tv74 = -12						; size = 4
$T1 = -8						; size = 4
$T2 = -4						; size = 4
__Location$ = 8						; size = 4
??$construct_at@PAVSprite@sf@@$$VX@std@@YAPAPAVSprite@sf@@QAPAV12@@Z PROC ; std::construct_at<sf::Sprite *,void>, COMDAT

; 143  :     noexcept(::new (_Voidify_iter(_Location)) _Ty(_STD forward<_Types>(_Args)...))) /* strengthened */ {

  00000	55		 push	 ebp
  00001	8b ec		 mov	 ebp, esp
  00003	83 ec 10	 sub	 esp, 16			; 00000010H
  00006	b9 00 00 00 00	 mov	 ecx, OFFSET __12269DE6_xutility
  0000b	e8 00 00 00 00	 call	 @__CheckForDebuggerJustMyCode@4

; 144  :     return ::new (_Voidify_iter(_Location)) _Ty(_STD forward<_Types>(_Args)...);

  00010	c7 45 fc 04 00
	00 00		 mov	 DWORD PTR $T2[ebp], 4
  00017	8b 45 08	 mov	 eax, DWORD PTR __Location$[ebp]
  0001a	50		 push	 eax
  0001b	e8 00 00 00 00	 call	 ??$_Voidify_iter@PAPAVSprite@sf@@@std@@YAPAXPAPAVSprite@sf@@@Z ; std::_Voidify_iter<sf::Sprite * *>
  00020	83 c4 04	 add	 esp, 4
  00023	89 45 f4	 mov	 DWORD PTR tv74[ebp], eax
  00026	8b 4d fc	 mov	 ecx, DWORD PTR $T2[ebp]
  00029	89 4d f0	 mov	 DWORD PTR tv72[ebp], ecx
  0002c	8b 55 f4	 mov	 edx, DWORD PTR tv74[ebp]
  0002f	52		 push	 edx
  00030	8b 45 f0	 mov	 eax, DWORD PTR tv72[ebp]
  00033	50		 push	 eax
  00034	e8 00 00 00 00	 call	 ??2@YAPAXIPAX@Z		; operator new
  00039	83 c4 08	 add	 esp, 8
  0003c	89 45 f8	 mov	 DWORD PTR $T1[ebp], eax
  0003f	8b 4d fc	 mov	 ecx, DWORD PTR $T2[ebp]
  00042	51		 push	 ecx
  00043	6a 00		 push	 0
  00045	8b 55 f8	 mov	 edx, DWORD PTR $T1[ebp]
  00048	52		 push	 edx
  00049	e8 00 00 00 00	 call	 ___asan_memset
  0004e	83 c4 0c	 add	 esp, 12			; 0000000cH
  00051	8b 45 f8	 mov	 eax, DWORD PTR $T1[ebp]

; 145  : }

  00054	8b e5		 mov	 esp, ebp
  00056	5d		 pop	 ebp
  00057	c3		 ret	 0
??$construct_at@PAVSprite@sf@@$$VX@std@@YAPAPAVSprite@sf@@QAPAV12@@Z ENDP ; std::construct_at<sf::Sprite *,void>
_TEXT	ENDS
; Function compile flags: /Odtp /RTCu
; File C:\Program Files (x86)\Microsoft Visual Studio\2019\Community\VC\Tools\MSVC\14.29.30133\include\xutility
;	COMDAT ??$construct_at@PAVTexture@sf@@PAV12@X@std@@YAPAPAVTexture@sf@@QAPAV12@$$QAPAV12@@Z
_TEXT	SEGMENT
tv77 = -24						; size = 4
tv72 = -20						; size = 4
$T1 = -16						; size = 4
tv80 = -12						; size = 4
tv90 = -8						; size = 4
tv83 = -2						; size = 1
tv93 = -1						; size = 1
__Location$ = 8						; size = 4
_<_Args_0>$ = 12					; size = 4
??$construct_at@PAVTexture@sf@@PAV12@X@std@@YAPAPAVTexture@sf@@QAPAV12@$$QAPAV12@@Z PROC ; std::construct_at<sf::Texture *,sf::Texture *,void>, COMDAT

; 143  :     noexcept(::new (_Voidify_iter(_Location)) _Ty(_STD forward<_Types>(_Args)...))) /* strengthened */ {

  00000	55		 push	 ebp
  00001	8b ec		 mov	 ebp, esp
  00003	83 ec 18	 sub	 esp, 24			; 00000018H
  00006	b9 00 00 00 00	 mov	 ecx, OFFSET __12269DE6_xutility
  0000b	e8 00 00 00 00	 call	 @__CheckForDebuggerJustMyCode@4

; 144  :     return ::new (_Voidify_iter(_Location)) _Ty(_STD forward<_Types>(_Args)...);

  00010	8b 45 08	 mov	 eax, DWORD PTR __Location$[ebp]
  00013	50		 push	 eax
  00014	e8 00 00 00 00	 call	 ??$_Voidify_iter@PAPAVTexture@sf@@@std@@YAPAXPAPAVTexture@sf@@@Z ; std::_Voidify_iter<sf::Texture * *>
  00019	83 c4 04	 add	 esp, 4
  0001c	50		 push	 eax
  0001d	6a 04		 push	 4
  0001f	e8 00 00 00 00	 call	 ??2@YAPAXIPAX@Z		; operator new
  00024	83 c4 08	 add	 esp, 8
  00027	89 45 f0	 mov	 DWORD PTR $T1[ebp], eax
  0002a	8b 4d 0c	 mov	 ecx, DWORD PTR _<_Args_0>$[ebp]
  0002d	51		 push	 ecx
  0002e	e8 00 00 00 00	 call	 ??$forward@PAVTexture@sf@@@std@@YA$$QAPAVTexture@sf@@AAPAV12@@Z ; std::forward<sf::Texture *>
  00033	83 c4 04	 add	 esp, 4
  00036	89 45 ec	 mov	 DWORD PTR tv72[ebp], eax
  00039	8b 55 ec	 mov	 edx, DWORD PTR tv72[ebp]
  0003c	89 55 f8	 mov	 DWORD PTR tv90[ebp], edx
  0003f	8b 45 f8	 mov	 eax, DWORD PTR tv90[ebp]
  00042	c1 e8 03	 shr	 eax, 3
  00045	8a 88 00 00 00
	30		 mov	 cl, BYTE PTR [eax+805306368]
  0004b	88 4d ff	 mov	 BYTE PTR tv93[ebp], cl
  0004e	80 7d ff 00	 cmp	 BYTE PTR tv93[ebp], 0
  00052	74 1a		 je	 SHORT $LN4@construct_
  00054	8a 55 f8	 mov	 dl, BYTE PTR tv90[ebp]
  00057	80 e2 07	 and	 dl, 7
  0005a	80 c2 03	 add	 dl, 3
  0005d	3a 55 ff	 cmp	 dl, BYTE PTR tv93[ebp]
  00060	7c 0c		 jl	 SHORT $LN4@construct_
  00062	8b 45 f8	 mov	 eax, DWORD PTR tv90[ebp]
  00065	50		 push	 eax
  00066	e8 00 00 00 00	 call	 ___asan_report_load4
  0006b	83 c4 04	 add	 esp, 4
$LN4@construct_:
  0006e	8b 4d f0	 mov	 ecx, DWORD PTR $T1[ebp]
  00071	89 4d e8	 mov	 DWORD PTR tv77[ebp], ecx
  00074	8b 55 e8	 mov	 edx, DWORD PTR tv77[ebp]
  00077	89 55 f4	 mov	 DWORD PTR tv80[ebp], edx
  0007a	8b 45 f4	 mov	 eax, DWORD PTR tv80[ebp]
  0007d	c1 e8 03	 shr	 eax, 3
  00080	8a 88 00 00 00
	30		 mov	 cl, BYTE PTR [eax+805306368]
  00086	88 4d fe	 mov	 BYTE PTR tv83[ebp], cl
  00089	80 7d fe 00	 cmp	 BYTE PTR tv83[ebp], 0
  0008d	74 1a		 je	 SHORT $LN3@construct_
  0008f	8a 55 f4	 mov	 dl, BYTE PTR tv80[ebp]
  00092	80 e2 07	 and	 dl, 7
  00095	80 c2 03	 add	 dl, 3
  00098	3a 55 fe	 cmp	 dl, BYTE PTR tv83[ebp]
  0009b	7c 0c		 jl	 SHORT $LN3@construct_
  0009d	8b 45 f4	 mov	 eax, DWORD PTR tv80[ebp]
  000a0	50		 push	 eax
  000a1	e8 00 00 00 00	 call	 ___asan_report_store4
  000a6	83 c4 04	 add	 esp, 4
$LN3@construct_:
  000a9	8b 4d f0	 mov	 ecx, DWORD PTR $T1[ebp]
  000ac	8b 55 ec	 mov	 edx, DWORD PTR tv72[ebp]
  000af	8b 02		 mov	 eax, DWORD PTR [edx]
  000b1	89 01		 mov	 DWORD PTR [ecx], eax
  000b3	8b 45 f0	 mov	 eax, DWORD PTR $T1[ebp]

; 145  : }

  000b6	8b e5		 mov	 esp, ebp
  000b8	5d		 pop	 ebp
  000b9	c3		 ret	 0
??$construct_at@PAVTexture@sf@@PAV12@X@std@@YAPAPAVTexture@sf@@QAPAV12@$$QAPAV12@@Z ENDP ; std::construct_at<sf::Texture *,sf::Texture *,void>
_TEXT	ENDS
; Function compile flags: /Odtp /RTCu
; File C:\Program Files (x86)\Microsoft Visual Studio\2019\Community\VC\Tools\MSVC\14.29.30133\include\xmemory
;	COMDAT ??$construct@PAVSprite@sf@@$$V@?$_Default_allocator_traits@V?$allocator@PAVSprite@sf@@@std@@@std@@SAXAAV?$allocator@PAVSprite@sf@@@1@QAPAVSprite@sf@@@Z
_TEXT	SEGMENT
$T1 = -16						; size = 4
tv76 = -12						; size = 4
tv78 = -8						; size = 4
$T2 = -4						; size = 4
___formal$ = 8						; size = 4
__Ptr$ = 12						; size = 4
??$construct@PAVSprite@sf@@$$V@?$_Default_allocator_traits@V?$allocator@PAVSprite@sf@@@std@@@std@@SAXAAV?$allocator@PAVSprite@sf@@@1@QAPAVSprite@sf@@@Z PROC ; std::_Default_allocator_traits<std::allocator<sf::Sprite *> >::construct<sf::Sprite *>, COMDAT

; 707  :     static _CONSTEXPR20_DYNALLOC void construct(_Alloc&, _Objty* const _Ptr, _Types&&... _Args) {

  00000	55		 push	 ebp
  00001	8b ec		 mov	 ebp, esp
  00003	83 ec 10	 sub	 esp, 16			; 00000010H
  00006	b9 00 00 00 00	 mov	 ecx, OFFSET __79D216CD_xmemory
  0000b	e8 00 00 00 00	 call	 @__CheckForDebuggerJustMyCode@4

; 708  : #ifdef __cpp_lib_constexpr_dynamic_alloc
; 709  :         if (_STD is_constant_evaluated()) {

  00010	e8 00 00 00 00	 call	 ?is_constant_evaluated@std@@YA_NXZ ; std::is_constant_evaluated
  00015	0f b6 c0	 movzx	 eax, al
  00018	85 c0		 test	 eax, eax
  0001a	74 0e		 je	 SHORT $LN2@construct

; 710  :             _STD construct_at(_Ptr, _STD forward<_Types>(_Args)...);

  0001c	8b 4d 0c	 mov	 ecx, DWORD PTR __Ptr$[ebp]
  0001f	51		 push	 ecx
  00020	e8 00 00 00 00	 call	 ??$construct_at@PAVSprite@sf@@$$VX@std@@YAPAPAVSprite@sf@@QAPAV12@@Z ; std::construct_at<sf::Sprite *,void>
  00025	83 c4 04	 add	 esp, 4

; 711  :         } else

  00028	eb 41		 jmp	 SHORT $LN1@construct
$LN2@construct:

; 707  :     static _CONSTEXPR20_DYNALLOC void construct(_Alloc&, _Objty* const _Ptr, _Types&&... _Args) {

  0002a	c7 45 fc 04 00
	00 00		 mov	 DWORD PTR $T2[ebp], 4
  00031	8b 55 0c	 mov	 edx, DWORD PTR __Ptr$[ebp]
  00034	52		 push	 edx
  00035	e8 00 00 00 00	 call	 ??$_Voidify_iter@PAPAVSprite@sf@@@std@@YAPAXPAPAVSprite@sf@@@Z ; std::_Voidify_iter<sf::Sprite * *>
  0003a	83 c4 04	 add	 esp, 4
  0003d	89 45 f8	 mov	 DWORD PTR tv78[ebp], eax
  00040	8b 45 fc	 mov	 eax, DWORD PTR $T2[ebp]
  00043	89 45 f4	 mov	 DWORD PTR tv76[ebp], eax
  00046	8b 4d f8	 mov	 ecx, DWORD PTR tv78[ebp]
  00049	51		 push	 ecx
  0004a	8b 55 f4	 mov	 edx, DWORD PTR tv76[ebp]
  0004d	52		 push	 edx
  0004e	e8 00 00 00 00	 call	 ??2@YAPAXIPAX@Z		; operator new
  00053	83 c4 08	 add	 esp, 8
  00056	89 45 f0	 mov	 DWORD PTR $T1[ebp], eax
  00059	8b 45 fc	 mov	 eax, DWORD PTR $T2[ebp]
  0005c	50		 push	 eax
  0005d	6a 00		 push	 0
  0005f	8b 4d f0	 mov	 ecx, DWORD PTR $T1[ebp]
  00062	51		 push	 ecx
  00063	e8 00 00 00 00	 call	 ___asan_memset
  00068	83 c4 0c	 add	 esp, 12			; 0000000cH
$LN1@construct:

; 712  : #endif // __cpp_lib_constexpr_dynamic_alloc
; 713  :         {
; 714  :             ::new (_Voidify_iter(_Ptr)) _Objty(_STD forward<_Types>(_Args)...);
; 715  :         }
; 716  :     }

  0006b	8b e5		 mov	 esp, ebp
  0006d	5d		 pop	 ebp
  0006e	c3		 ret	 0
??$construct@PAVSprite@sf@@$$V@?$_Default_allocator_traits@V?$allocator@PAVSprite@sf@@@std@@@std@@SAXAAV?$allocator@PAVSprite@sf@@@1@QAPAVSprite@sf@@@Z ENDP ; std::_Default_allocator_traits<std::allocator<sf::Sprite *> >::construct<sf::Sprite *>
_TEXT	ENDS
; Function compile flags: /Odtp /RTCu
; File C:\Program Files (x86)\Microsoft Visual Studio\2019\Community\VC\Tools\MSVC\14.29.30133\include\xutility
;	COMDAT ??$_To_address@PAPAVSprite@sf@@@std@@YA?A_PABQAPAVSprite@sf@@@Z
_TEXT	SEGMENT
__Val$ = 8						; size = 4
??$_To_address@PAPAVSprite@sf@@@std@@YA?A_PABQAPAVSprite@sf@@@Z PROC ; std::_To_address<sf::Sprite * *>, COMDAT

; 4070 : _NODISCARD constexpr auto _To_address(const _Iter& _Val) noexcept {

  00000	55		 push	 ebp
  00001	8b ec		 mov	 ebp, esp
  00003	b9 00 00 00 00	 mov	 ecx, OFFSET __12269DE6_xutility
  00008	e8 00 00 00 00	 call	 @__CheckForDebuggerJustMyCode@4

; 4071 :     _STL_INTERNAL_STATIC_ASSERT(contiguous_iterator<_Iter>);
; 4072 :     return _STD to_address(_Val);

  0000d	8b 45 08	 mov	 eax, DWORD PTR __Val$[ebp]
  00010	8b 08		 mov	 ecx, DWORD PTR [eax]
  00012	51		 push	 ecx
  00013	e8 00 00 00 00	 call	 ??$to_address@PAVSprite@sf@@@std@@YAPAPAVSprite@sf@@QAPAV12@@Z ; std::to_address<sf::Sprite *>
  00018	83 c4 04	 add	 esp, 4

; 4073 : }

  0001b	5d		 pop	 ebp
  0001c	c3		 ret	 0
??$_To_address@PAPAVSprite@sf@@@std@@YA?A_PABQAPAVSprite@sf@@@Z ENDP ; std::_To_address<sf::Sprite * *>
_TEXT	ENDS
; Function compile flags: /Odtp /RTCu
; File C:\Program Files (x86)\Microsoft Visual Studio\2019\Community\VC\Tools\MSVC\14.29.30133\include\xmemory
;	COMDAT ??$construct@PAVTexture@sf@@PAV12@@?$_Default_allocator_traits@V?$allocator@PAVTexture@sf@@@std@@@std@@SAXAAV?$allocator@PAVTexture@sf@@@1@QAPAVTexture@sf@@$$QAPAV34@@Z
_TEXT	SEGMENT
tv84 = -24						; size = 4
tv79 = -20						; size = 4
$T1 = -16						; size = 4
tv87 = -12						; size = 4
tv129 = -8						; size = 4
tv90 = -2						; size = 1
tv132 = -1						; size = 1
___formal$ = 8						; size = 4
__Ptr$ = 12						; size = 4
_<_Args_0>$ = 16					; size = 4
??$construct@PAVTexture@sf@@PAV12@@?$_Default_allocator_traits@V?$allocator@PAVTexture@sf@@@std@@@std@@SAXAAV?$allocator@PAVTexture@sf@@@1@QAPAVTexture@sf@@$$QAPAV34@@Z PROC ; std::_Default_allocator_traits<std::allocator<sf::Texture *> >::construct<sf::Texture *,sf::Texture *>, COMDAT

; 707  :     static _CONSTEXPR20_DYNALLOC void construct(_Alloc&, _Objty* const _Ptr, _Types&&... _Args) {

  00000	55		 push	 ebp
  00001	8b ec		 mov	 ebp, esp
  00003	83 ec 18	 sub	 esp, 24			; 00000018H
  00006	b9 00 00 00 00	 mov	 ecx, OFFSET __79D216CD_xmemory
  0000b	e8 00 00 00 00	 call	 @__CheckForDebuggerJustMyCode@4

; 708  : #ifdef __cpp_lib_constexpr_dynamic_alloc
; 709  :         if (_STD is_constant_evaluated()) {

  00010	e8 00 00 00 00	 call	 ?is_constant_evaluated@std@@YA_NXZ ; std::is_constant_evaluated
  00015	0f b6 c0	 movzx	 eax, al
  00018	85 c0		 test	 eax, eax
  0001a	74 1e		 je	 SHORT $LN2@construct

; 710  :             _STD construct_at(_Ptr, _STD forward<_Types>(_Args)...);

  0001c	8b 4d 10	 mov	 ecx, DWORD PTR _<_Args_0>$[ebp]
  0001f	51		 push	 ecx
  00020	e8 00 00 00 00	 call	 ??$forward@PAVTexture@sf@@@std@@YA$$QAPAVTexture@sf@@AAPAV12@@Z ; std::forward<sf::Texture *>
  00025	83 c4 04	 add	 esp, 4
  00028	50		 push	 eax
  00029	8b 55 0c	 mov	 edx, DWORD PTR __Ptr$[ebp]
  0002c	52		 push	 edx
  0002d	e8 00 00 00 00	 call	 ??$construct_at@PAVTexture@sf@@PAV12@X@std@@YAPAPAVTexture@sf@@QAPAV12@$$QAPAV12@@Z ; std::construct_at<sf::Texture *,sf::Texture *,void>
  00032	83 c4 08	 add	 esp, 8

; 711  :         } else

  00035	e9 a3 00 00 00	 jmp	 $LN1@construct
$LN2@construct:

; 707  :     static _CONSTEXPR20_DYNALLOC void construct(_Alloc&, _Objty* const _Ptr, _Types&&... _Args) {

  0003a	8b 45 0c	 mov	 eax, DWORD PTR __Ptr$[ebp]
  0003d	50		 push	 eax
  0003e	e8 00 00 00 00	 call	 ??$_Voidify_iter@PAPAVTexture@sf@@@std@@YAPAXPAPAVTexture@sf@@@Z ; std::_Voidify_iter<sf::Texture * *>
  00043	83 c4 04	 add	 esp, 4
  00046	50		 push	 eax
  00047	6a 04		 push	 4
  00049	e8 00 00 00 00	 call	 ??2@YAPAXIPAX@Z		; operator new
  0004e	83 c4 08	 add	 esp, 8
  00051	89 45 f0	 mov	 DWORD PTR $T1[ebp], eax
  00054	8b 4d 10	 mov	 ecx, DWORD PTR _<_Args_0>$[ebp]
  00057	51		 push	 ecx
  00058	e8 00 00 00 00	 call	 ??$forward@PAVTexture@sf@@@std@@YA$$QAPAVTexture@sf@@AAPAV12@@Z ; std::forward<sf::Texture *>
  0005d	83 c4 04	 add	 esp, 4
  00060	89 45 ec	 mov	 DWORD PTR tv79[ebp], eax
  00063	8b 55 ec	 mov	 edx, DWORD PTR tv79[ebp]
  00066	89 55 f8	 mov	 DWORD PTR tv129[ebp], edx
  00069	8b 45 f8	 mov	 eax, DWORD PTR tv129[ebp]
  0006c	c1 e8 03	 shr	 eax, 3
  0006f	8a 88 00 00 00
	30		 mov	 cl, BYTE PTR [eax+805306368]
  00075	88 4d ff	 mov	 BYTE PTR tv132[ebp], cl
  00078	80 7d ff 00	 cmp	 BYTE PTR tv132[ebp], 0
  0007c	74 1a		 je	 SHORT $LN6@construct
  0007e	8a 55 f8	 mov	 dl, BYTE PTR tv129[ebp]
  00081	80 e2 07	 and	 dl, 7
  00084	80 c2 03	 add	 dl, 3
  00087	3a 55 ff	 cmp	 dl, BYTE PTR tv132[ebp]
  0008a	7c 0c		 jl	 SHORT $LN6@construct
  0008c	8b 45 f8	 mov	 eax, DWORD PTR tv129[ebp]
  0008f	50		 push	 eax
  00090	e8 00 00 00 00	 call	 ___asan_report_load4
  00095	83 c4 04	 add	 esp, 4
$LN6@construct:
  00098	8b 4d f0	 mov	 ecx, DWORD PTR $T1[ebp]
  0009b	89 4d e8	 mov	 DWORD PTR tv84[ebp], ecx
  0009e	8b 55 e8	 mov	 edx, DWORD PTR tv84[ebp]
  000a1	89 55 f4	 mov	 DWORD PTR tv87[ebp], edx
  000a4	8b 45 f4	 mov	 eax, DWORD PTR tv87[ebp]
  000a7	c1 e8 03	 shr	 eax, 3
  000aa	8a 88 00 00 00
	30		 mov	 cl, BYTE PTR [eax+805306368]
  000b0	88 4d fe	 mov	 BYTE PTR tv90[ebp], cl
  000b3	80 7d fe 00	 cmp	 BYTE PTR tv90[ebp], 0
  000b7	74 1a		 je	 SHORT $LN5@construct
  000b9	8a 55 f4	 mov	 dl, BYTE PTR tv87[ebp]
  000bc	80 e2 07	 and	 dl, 7
  000bf	80 c2 03	 add	 dl, 3
  000c2	3a 55 fe	 cmp	 dl, BYTE PTR tv90[ebp]
  000c5	7c 0c		 jl	 SHORT $LN5@construct
  000c7	8b 45 f4	 mov	 eax, DWORD PTR tv87[ebp]
  000ca	50		 push	 eax
  000cb	e8 00 00 00 00	 call	 ___asan_report_store4
  000d0	83 c4 04	 add	 esp, 4
$LN5@construct:
  000d3	8b 4d f0	 mov	 ecx, DWORD PTR $T1[ebp]
  000d6	8b 55 ec	 mov	 edx, DWORD PTR tv79[ebp]
  000d9	8b 02		 mov	 eax, DWORD PTR [edx]
  000db	89 01		 mov	 DWORD PTR [ecx], eax
$LN1@construct:

; 712  : #endif // __cpp_lib_constexpr_dynamic_alloc
; 713  :         {
; 714  :             ::new (_Voidify_iter(_Ptr)) _Objty(_STD forward<_Types>(_Args)...);
; 715  :         }
; 716  :     }

  000dd	8b e5		 mov	 esp, ebp
  000df	5d		 pop	 ebp
  000e0	c3		 ret	 0
??$construct@PAVTexture@sf@@PAV12@@?$_Default_allocator_traits@V?$allocator@PAVTexture@sf@@@std@@@std@@SAXAAV?$allocator@PAVTexture@sf@@@1@QAPAVTexture@sf@@$$QAPAV34@@Z ENDP ; std::_Default_allocator_traits<std::allocator<sf::Texture *> >::construct<sf::Texture *,sf::Texture *>
_TEXT	ENDS
; Function compile flags: /Odtp /RTCu
; File C:\Program Files (x86)\Microsoft Visual Studio\2019\Community\VC\Tools\MSVC\14.29.30133\include\type_traits
;	COMDAT ??$forward@PAVTexture@sf@@@std@@YA$$QAPAVTexture@sf@@AAPAV12@@Z
_TEXT	SEGMENT
__Arg$ = 8						; size = 4
??$forward@PAVTexture@sf@@@std@@YA$$QAPAVTexture@sf@@AAPAV12@@Z PROC ; std::forward<sf::Texture *>, COMDAT

; 1443 :     remove_reference_t<_Ty>& _Arg) noexcept { // forward an lvalue as either an lvalue or an rvalue

  00000	55		 push	 ebp
  00001	8b ec		 mov	 ebp, esp
  00003	b9 00 00 00 00	 mov	 ecx, OFFSET __589FA321_type_traits
  00008	e8 00 00 00 00	 call	 @__CheckForDebuggerJustMyCode@4

; 1444 :     return static_cast<_Ty&&>(_Arg);

  0000d	8b 45 08	 mov	 eax, DWORD PTR __Arg$[ebp]

; 1445 : }

  00010	5d		 pop	 ebp
  00011	c3		 ret	 0
??$forward@PAVTexture@sf@@@std@@YA$$QAPAVTexture@sf@@AAPAV12@@Z ENDP ; std::forward<sf::Texture *>
_TEXT	ENDS
; Function compile flags: /Odtp /RTCu
; File C:\Program Files (x86)\Microsoft Visual Studio\2019\Community\VC\Tools\MSVC\14.29.30133\include\xutility
;	COMDAT ??$_To_address@PAPAVTexture@sf@@@std@@YA?A_PABQAPAVTexture@sf@@@Z
_TEXT	SEGMENT
__Val$ = 8						; size = 4
??$_To_address@PAPAVTexture@sf@@@std@@YA?A_PABQAPAVTexture@sf@@@Z PROC ; std::_To_address<sf::Texture * *>, COMDAT

; 4070 : _NODISCARD constexpr auto _To_address(const _Iter& _Val) noexcept {

  00000	55		 push	 ebp
  00001	8b ec		 mov	 ebp, esp
  00003	b9 00 00 00 00	 mov	 ecx, OFFSET __12269DE6_xutility
  00008	e8 00 00 00 00	 call	 @__CheckForDebuggerJustMyCode@4

; 4071 :     _STL_INTERNAL_STATIC_ASSERT(contiguous_iterator<_Iter>);
; 4072 :     return _STD to_address(_Val);

  0000d	8b 45 08	 mov	 eax, DWORD PTR __Val$[ebp]
  00010	8b 08		 mov	 ecx, DWORD PTR [eax]
  00012	51		 push	 ecx
  00013	e8 00 00 00 00	 call	 ??$to_address@PAVTexture@sf@@@std@@YAPAPAVTexture@sf@@QAPAV12@@Z ; std::to_address<sf::Texture *>
  00018	83 c4 04	 add	 esp, 4

; 4073 : }

  0001b	5d		 pop	 ebp
  0001c	c3		 ret	 0
??$_To_address@PAPAVTexture@sf@@@std@@YA?A_PABQAPAVTexture@sf@@@Z ENDP ; std::_To_address<sf::Texture * *>
_TEXT	ENDS
; Function compile flags: /Odtp /RTCu
; File C:\Program Files (x86)\Microsoft Visual Studio\2019\Community\VC\Tools\MSVC\14.29.30133\include\xmemory
;	COMDAT ??$_Emplace_back@$$V@?$_Uninitialized_backout_al@V?$allocator@PAVSprite@sf@@@std@@@std@@QAEXXZ
_TEXT	SEGMENT
tv76 = -52						; size = 4
tv71 = -48						; size = 4
tv73 = -44						; size = 4
tv75 = -40						; size = 4
tv74 = -36						; size = 4
tv68 = -32						; size = 4
tv65 = -28						; size = 4
tv86 = -24						; size = 4
tv128 = -20						; size = 4
tv138 = -16						; size = 4
tv148 = -12						; size = 4
_this$ = -8						; size = 4
tv89 = -4						; size = 1
tv131 = -3						; size = 1
tv141 = -2						; size = 1
tv151 = -1						; size = 1
??$_Emplace_back@$$V@?$_Uninitialized_backout_al@V?$allocator@PAVSprite@sf@@@std@@@std@@QAEXXZ PROC ; std::_Uninitialized_backout_al<std::allocator<sf::Sprite *> >::_Emplace_back<>, COMDAT
; _this$ = ecx

; 1630 :     _CONSTEXPR20_DYNALLOC void _Emplace_back(_Types&&... _Vals) { // construct a new element at *_Last and increment

  00000	55		 push	 ebp
  00001	8b ec		 mov	 ebp, esp
  00003	83 ec 34	 sub	 esp, 52			; 00000034H
  00006	89 4d f8	 mov	 DWORD PTR _this$[ebp], ecx
  00009	b9 00 00 00 00	 mov	 ecx, OFFSET __79D216CD_xmemory
  0000e	e8 00 00 00 00	 call	 @__CheckForDebuggerJustMyCode@4

; 1631 :         allocator_traits<_Alloc>::construct(_Al, _Unfancy(_Last), _STD forward<_Types>(_Vals)...);

  00013	8b 45 f8	 mov	 eax, DWORD PTR _this$[ebp]
  00016	83 c0 04	 add	 eax, 4
  00019	89 45 e4	 mov	 DWORD PTR tv65[ebp], eax
  0001c	8b 4d e4	 mov	 ecx, DWORD PTR tv65[ebp]
  0001f	89 4d f4	 mov	 DWORD PTR tv148[ebp], ecx
  00022	8b 55 f4	 mov	 edx, DWORD PTR tv148[ebp]
  00025	c1 ea 03	 shr	 edx, 3
  00028	8a 82 00 00 00
	30		 mov	 al, BYTE PTR [edx+805306368]
  0002e	88 45 ff	 mov	 BYTE PTR tv151[ebp], al
  00031	80 7d ff 00	 cmp	 BYTE PTR tv151[ebp], 0
  00035	74 1a		 je	 SHORT $LN6@Emplace_ba
  00037	8a 4d f4	 mov	 cl, BYTE PTR tv148[ebp]
  0003a	80 e1 07	 and	 cl, 7
  0003d	80 c1 03	 add	 cl, 3
  00040	3a 4d ff	 cmp	 cl, BYTE PTR tv151[ebp]
  00043	7c 0c		 jl	 SHORT $LN6@Emplace_ba
  00045	8b 55 f4	 mov	 edx, DWORD PTR tv148[ebp]
  00048	52		 push	 edx
  00049	e8 00 00 00 00	 call	 ___asan_report_load4
  0004e	83 c4 04	 add	 esp, 4
$LN6@Emplace_ba:
  00051	8b 45 e4	 mov	 eax, DWORD PTR tv65[ebp]
  00054	8b 08		 mov	 ecx, DWORD PTR [eax]
  00056	51		 push	 ecx
  00057	e8 00 00 00 00	 call	 ??$_Unfancy@PAVSprite@sf@@@std@@YAPAPAVSprite@sf@@PAPAV12@@Z ; std::_Unfancy<sf::Sprite *>
  0005c	83 c4 04	 add	 esp, 4
  0005f	89 45 d4	 mov	 DWORD PTR tv73[ebp], eax
  00062	8b 55 f8	 mov	 edx, DWORD PTR _this$[ebp]
  00065	83 c2 08	 add	 edx, 8
  00068	89 55 e0	 mov	 DWORD PTR tv68[ebp], edx
  0006b	8b 45 e0	 mov	 eax, DWORD PTR tv68[ebp]
  0006e	89 45 f0	 mov	 DWORD PTR tv138[ebp], eax
  00071	8b 4d f0	 mov	 ecx, DWORD PTR tv138[ebp]
  00074	c1 e9 03	 shr	 ecx, 3
  00077	8a 91 00 00 00
	30		 mov	 dl, BYTE PTR [ecx+805306368]
  0007d	88 55 fe	 mov	 BYTE PTR tv141[ebp], dl
  00080	80 7d fe 00	 cmp	 BYTE PTR tv141[ebp], 0
  00084	74 18		 je	 SHORT $LN5@Emplace_ba
  00086	8a 45 f0	 mov	 al, BYTE PTR tv138[ebp]
  00089	24 07		 and	 al, 7
  0008b	04 03		 add	 al, 3
  0008d	3a 45 fe	 cmp	 al, BYTE PTR tv141[ebp]
  00090	7c 0c		 jl	 SHORT $LN5@Emplace_ba
  00092	8b 4d f0	 mov	 ecx, DWORD PTR tv138[ebp]
  00095	51		 push	 ecx
  00096	e8 00 00 00 00	 call	 ___asan_report_load4
  0009b	83 c4 04	 add	 esp, 4
$LN5@Emplace_ba:
  0009e	8b 55 e0	 mov	 edx, DWORD PTR tv68[ebp]
  000a1	8b 02		 mov	 eax, DWORD PTR [edx]
  000a3	89 45 d0	 mov	 DWORD PTR tv71[ebp], eax
  000a6	8b 4d d4	 mov	 ecx, DWORD PTR tv73[ebp]
  000a9	51		 push	 ecx
  000aa	8b 55 d0	 mov	 edx, DWORD PTR tv71[ebp]
  000ad	52		 push	 edx
  000ae	e8 00 00 00 00	 call	 ??$construct@PAVSprite@sf@@$$V@?$_Default_allocator_traits@V?$allocator@PAVSprite@sf@@@std@@@std@@SAXAAV?$allocator@PAVSprite@sf@@@1@QAPAVSprite@sf@@@Z ; std::_Default_allocator_traits<std::allocator<sf::Sprite *> >::construct<sf::Sprite *>
  000b3	83 c4 08	 add	 esp, 8

; 1632 :         ++_Last;

  000b6	8b 45 f8	 mov	 eax, DWORD PTR _this$[ebp]
  000b9	83 c0 04	 add	 eax, 4
  000bc	89 45 dc	 mov	 DWORD PTR tv74[ebp], eax
  000bf	8b 4d dc	 mov	 ecx, DWORD PTR tv74[ebp]
  000c2	89 4d ec	 mov	 DWORD PTR tv128[ebp], ecx
  000c5	8b 55 ec	 mov	 edx, DWORD PTR tv128[ebp]
  000c8	c1 ea 03	 shr	 edx, 3
  000cb	8a 82 00 00 00
	30		 mov	 al, BYTE PTR [edx+805306368]
  000d1	88 45 fd	 mov	 BYTE PTR tv131[ebp], al
  000d4	80 7d fd 00	 cmp	 BYTE PTR tv131[ebp], 0
  000d8	74 1a		 je	 SHORT $LN4@Emplace_ba
  000da	8a 4d ec	 mov	 cl, BYTE PTR tv128[ebp]
  000dd	80 e1 07	 and	 cl, 7
  000e0	80 c1 03	 add	 cl, 3
  000e3	3a 4d fd	 cmp	 cl, BYTE PTR tv131[ebp]
  000e6	7c 0c		 jl	 SHORT $LN4@Emplace_ba
  000e8	8b 55 ec	 mov	 edx, DWORD PTR tv128[ebp]
  000eb	52		 push	 edx
  000ec	e8 00 00 00 00	 call	 ___asan_report_load4
  000f1	83 c4 04	 add	 esp, 4
$LN4@Emplace_ba:
  000f4	8b 45 dc	 mov	 eax, DWORD PTR tv74[ebp]
  000f7	8b 08		 mov	 ecx, DWORD PTR [eax]
  000f9	83 c1 04	 add	 ecx, 4
  000fc	89 4d cc	 mov	 DWORD PTR tv76[ebp], ecx
  000ff	8b 55 f8	 mov	 edx, DWORD PTR _this$[ebp]
  00102	83 c2 04	 add	 edx, 4
  00105	89 55 d8	 mov	 DWORD PTR tv75[ebp], edx
  00108	8b 45 d8	 mov	 eax, DWORD PTR tv75[ebp]
  0010b	89 45 e8	 mov	 DWORD PTR tv86[ebp], eax
  0010e	8b 4d e8	 mov	 ecx, DWORD PTR tv86[ebp]
  00111	c1 e9 03	 shr	 ecx, 3
  00114	8a 91 00 00 00
	30		 mov	 dl, BYTE PTR [ecx+805306368]
  0011a	88 55 fc	 mov	 BYTE PTR tv89[ebp], dl
  0011d	80 7d fc 00	 cmp	 BYTE PTR tv89[ebp], 0
  00121	74 18		 je	 SHORT $LN3@Emplace_ba
  00123	8a 45 e8	 mov	 al, BYTE PTR tv86[ebp]
  00126	24 07		 and	 al, 7
  00128	04 03		 add	 al, 3
  0012a	3a 45 fc	 cmp	 al, BYTE PTR tv89[ebp]
  0012d	7c 0c		 jl	 SHORT $LN3@Emplace_ba
  0012f	8b 4d e8	 mov	 ecx, DWORD PTR tv86[ebp]
  00132	51		 push	 ecx
  00133	e8 00 00 00 00	 call	 ___asan_report_store4
  00138	83 c4 04	 add	 esp, 4
$LN3@Emplace_ba:
  0013b	8b 55 d8	 mov	 edx, DWORD PTR tv75[ebp]
  0013e	8b 45 cc	 mov	 eax, DWORD PTR tv76[ebp]
  00141	89 02		 mov	 DWORD PTR [edx], eax

; 1633 :     }

  00143	8b e5		 mov	 esp, ebp
  00145	5d		 pop	 ebp
  00146	c3		 ret	 0
??$_Emplace_back@$$V@?$_Uninitialized_backout_al@V?$allocator@PAVSprite@sf@@@std@@@std@@QAEXXZ ENDP ; std::_Uninitialized_backout_al<std::allocator<sf::Sprite *> >::_Emplace_back<>
_TEXT	ENDS
; Function compile flags: /Odtp /RTCu
;	COMDAT ?__autoclassinit2@?$_Uninitialized_backout_al@V?$allocator@PAVSprite@sf@@@std@@@std@@QAEXI@Z
_TEXT	SEGMENT
_this$ = -4						; size = 4
_classSize$ = 8						; size = 4
?__autoclassinit2@?$_Uninitialized_backout_al@V?$allocator@PAVSprite@sf@@@std@@@std@@QAEXI@Z PROC ; std::_Uninitialized_backout_al<std::allocator<sf::Sprite *> >::__autoclassinit2, COMDAT
; _this$ = ecx
  00000	55		 push	 ebp
  00001	8b ec		 mov	 ebp, esp
  00003	51		 push	 ecx
  00004	89 4d fc	 mov	 DWORD PTR _this$[ebp], ecx
  00007	8b 45 08	 mov	 eax, DWORD PTR _classSize$[ebp]
  0000a	50		 push	 eax
  0000b	6a 00		 push	 0
  0000d	8b 4d fc	 mov	 ecx, DWORD PTR _this$[ebp]
  00010	51		 push	 ecx
  00011	e8 00 00 00 00	 call	 ___asan_memset
  00016	83 c4 0c	 add	 esp, 12			; 0000000cH
  00019	8b e5		 mov	 esp, ebp
  0001b	5d		 pop	 ebp
  0001c	c2 04 00	 ret	 4
?__autoclassinit2@?$_Uninitialized_backout_al@V?$allocator@PAVSprite@sf@@@std@@@std@@QAEXI@Z ENDP ; std::_Uninitialized_backout_al<std::allocator<sf::Sprite *> >::__autoclassinit2
_TEXT	ENDS
; Function compile flags: /Odtp /RTCu
; File C:\Program Files (x86)\Microsoft Visual Studio\2019\Community\VC\Tools\MSVC\14.29.30133\include\xmemory
;	COMDAT ?_Release@?$_Uninitialized_backout_al@V?$allocator@PAVSprite@sf@@@std@@@std@@QAEPAPAVSprite@sf@@XZ
_TEXT	SEGMENT
tv66 = -32						; size = 4
tv65 = -28						; size = 4
tv64 = -24						; size = 4
tv74 = -20						; size = 4
_this$ = -16						; size = 4
tv84 = -12						; size = 4
tv94 = -8						; size = 4
tv77 = -3						; size = 1
tv87 = -2						; size = 1
tv129 = -1						; size = 1
?_Release@?$_Uninitialized_backout_al@V?$allocator@PAVSprite@sf@@@std@@@std@@QAEPAPAVSprite@sf@@XZ PROC ; std::_Uninitialized_backout_al<std::allocator<sf::Sprite *> >::_Release, COMDAT
; _this$ = ecx

; 1635 :     constexpr pointer _Release() { // suppress any exception handling backout and return _Last

  00000	55		 push	 ebp
  00001	8b ec		 mov	 ebp, esp
  00003	83 ec 20	 sub	 esp, 32			; 00000020H
  00006	89 4d f0	 mov	 DWORD PTR _this$[ebp], ecx
  00009	b9 00 00 00 00	 mov	 ecx, OFFSET __79D216CD_xmemory
  0000e	e8 00 00 00 00	 call	 @__CheckForDebuggerJustMyCode@4

; 1636 :         _First = _Last;

  00013	8b 45 f0	 mov	 eax, DWORD PTR _this$[ebp]
  00016	83 c0 04	 add	 eax, 4
  00019	89 45 e4	 mov	 DWORD PTR tv65[ebp], eax
  0001c	8b 4d f0	 mov	 ecx, DWORD PTR _this$[ebp]
  0001f	89 4d e8	 mov	 DWORD PTR tv64[ebp], ecx
  00022	8b 55 e4	 mov	 edx, DWORD PTR tv65[ebp]
  00025	89 55 f8	 mov	 DWORD PTR tv94[ebp], edx
  00028	8b 45 f8	 mov	 eax, DWORD PTR tv94[ebp]
  0002b	c1 e8 03	 shr	 eax, 3
  0002e	8a 88 00 00 00
	30		 mov	 cl, BYTE PTR [eax+805306368]
  00034	88 4d ff	 mov	 BYTE PTR tv129[ebp], cl
  00037	80 7d ff 00	 cmp	 BYTE PTR tv129[ebp], 0
  0003b	74 1a		 je	 SHORT $LN5@Release
  0003d	8a 55 f8	 mov	 dl, BYTE PTR tv94[ebp]
  00040	80 e2 07	 and	 dl, 7
  00043	80 c2 03	 add	 dl, 3
  00046	3a 55 ff	 cmp	 dl, BYTE PTR tv129[ebp]
  00049	7c 0c		 jl	 SHORT $LN5@Release
  0004b	8b 45 f8	 mov	 eax, DWORD PTR tv94[ebp]
  0004e	50		 push	 eax
  0004f	e8 00 00 00 00	 call	 ___asan_report_load4
  00054	83 c4 04	 add	 esp, 4
$LN5@Release:
  00057	8b 4d e8	 mov	 ecx, DWORD PTR tv64[ebp]
  0005a	89 4d f4	 mov	 DWORD PTR tv84[ebp], ecx
  0005d	8b 55 f4	 mov	 edx, DWORD PTR tv84[ebp]
  00060	c1 ea 03	 shr	 edx, 3
  00063	8a 82 00 00 00
	30		 mov	 al, BYTE PTR [edx+805306368]
  00069	88 45 fe	 mov	 BYTE PTR tv87[ebp], al
  0006c	80 7d fe 00	 cmp	 BYTE PTR tv87[ebp], 0
  00070	74 1a		 je	 SHORT $LN4@Release
  00072	8a 4d f4	 mov	 cl, BYTE PTR tv84[ebp]
  00075	80 e1 07	 and	 cl, 7
  00078	80 c1 03	 add	 cl, 3
  0007b	3a 4d fe	 cmp	 cl, BYTE PTR tv87[ebp]
  0007e	7c 0c		 jl	 SHORT $LN4@Release
  00080	8b 55 f4	 mov	 edx, DWORD PTR tv84[ebp]
  00083	52		 push	 edx
  00084	e8 00 00 00 00	 call	 ___asan_report_store4
  00089	83 c4 04	 add	 esp, 4
$LN4@Release:
  0008c	8b 45 e8	 mov	 eax, DWORD PTR tv64[ebp]
  0008f	8b 4d e4	 mov	 ecx, DWORD PTR tv65[ebp]
  00092	8b 11		 mov	 edx, DWORD PTR [ecx]
  00094	89 10		 mov	 DWORD PTR [eax], edx

; 1637 :         return _Last;

  00096	8b 45 f0	 mov	 eax, DWORD PTR _this$[ebp]
  00099	83 c0 04	 add	 eax, 4
  0009c	89 45 e0	 mov	 DWORD PTR tv66[ebp], eax
  0009f	8b 4d e0	 mov	 ecx, DWORD PTR tv66[ebp]
  000a2	89 4d ec	 mov	 DWORD PTR tv74[ebp], ecx
  000a5	8b 55 ec	 mov	 edx, DWORD PTR tv74[ebp]
  000a8	c1 ea 03	 shr	 edx, 3
  000ab	8a 82 00 00 00
	30		 mov	 al, BYTE PTR [edx+805306368]
  000b1	88 45 fd	 mov	 BYTE PTR tv77[ebp], al
  000b4	80 7d fd 00	 cmp	 BYTE PTR tv77[ebp], 0
  000b8	74 1a		 je	 SHORT $LN3@Release
  000ba	8a 4d ec	 mov	 cl, BYTE PTR tv74[ebp]
  000bd	80 e1 07	 and	 cl, 7
  000c0	80 c1 03	 add	 cl, 3
  000c3	3a 4d fd	 cmp	 cl, BYTE PTR tv77[ebp]
  000c6	7c 0c		 jl	 SHORT $LN3@Release
  000c8	8b 55 ec	 mov	 edx, DWORD PTR tv74[ebp]
  000cb	52		 push	 edx
  000cc	e8 00 00 00 00	 call	 ___asan_report_load4
  000d1	83 c4 04	 add	 esp, 4
$LN3@Release:
  000d4	8b 45 e0	 mov	 eax, DWORD PTR tv66[ebp]
  000d7	8b 00		 mov	 eax, DWORD PTR [eax]

; 1638 :     }

  000d9	8b e5		 mov	 esp, ebp
  000db	5d		 pop	 ebp
  000dc	c3		 ret	 0
?_Release@?$_Uninitialized_backout_al@V?$allocator@PAVSprite@sf@@@std@@@std@@QAEPAPAVSprite@sf@@XZ ENDP ; std::_Uninitialized_backout_al<std::allocator<sf::Sprite *> >::_Release
_TEXT	ENDS
; Function compile flags: /Odtp /RTCu
; File C:\Program Files (x86)\Microsoft Visual Studio\2019\Community\VC\Tools\MSVC\14.29.30133\include\xmemory
;	COMDAT ??1?$_Uninitialized_backout_al@V?$allocator@PAVSprite@sf@@@std@@@std@@QAE@XZ
_TEXT	SEGMENT
tv64 = -16						; size = 4
_this$ = -12						; size = 4
tv73 = -8						; size = 4
tv76 = -1						; size = 1
??1?$_Uninitialized_backout_al@V?$allocator@PAVSprite@sf@@@std@@@std@@QAE@XZ PROC ; std::_Uninitialized_backout_al<std::allocator<sf::Sprite *> >::~_Uninitialized_backout_al<std::allocator<sf::Sprite *> >, COMDAT
; _this$ = ecx

; 1625 :     _CONSTEXPR20_DYNALLOC ~_Uninitialized_backout_al() {

  00000	55		 push	 ebp
  00001	8b ec		 mov	 ebp, esp
  00003	83 ec 10	 sub	 esp, 16			; 00000010H
  00006	89 4d f4	 mov	 DWORD PTR _this$[ebp], ecx
  00009	b9 00 00 00 00	 mov	 ecx, OFFSET __79D216CD_xmemory
  0000e	e8 00 00 00 00	 call	 @__CheckForDebuggerJustMyCode@4

; 1626 :         _Destroy_range(_First, _Last, _Al);

  00013	8b 45 f4	 mov	 eax, DWORD PTR _this$[ebp]
  00016	83 c0 08	 add	 eax, 8
  00019	89 45 f0	 mov	 DWORD PTR tv64[ebp], eax
  0001c	8b 4d f0	 mov	 ecx, DWORD PTR tv64[ebp]
  0001f	89 4d f8	 mov	 DWORD PTR tv73[ebp], ecx
  00022	8b 55 f8	 mov	 edx, DWORD PTR tv73[ebp]
  00025	c1 ea 03	 shr	 edx, 3
  00028	8a 82 00 00 00
	30		 mov	 al, BYTE PTR [edx+805306368]
  0002e	88 45 ff	 mov	 BYTE PTR tv76[ebp], al
  00031	80 7d ff 00	 cmp	 BYTE PTR tv76[ebp], 0
  00035	74 1a		 je	 SHORT $LN3@Uninitiali
  00037	8a 4d f8	 mov	 cl, BYTE PTR tv73[ebp]
  0003a	80 e1 07	 and	 cl, 7
  0003d	80 c1 03	 add	 cl, 3
  00040	3a 4d ff	 cmp	 cl, BYTE PTR tv76[ebp]
  00043	7c 0c		 jl	 SHORT $LN3@Uninitiali
  00045	8b 55 f8	 mov	 edx, DWORD PTR tv73[ebp]
  00048	52		 push	 edx
  00049	e8 00 00 00 00	 call	 ___asan_report_load4
  0004e	83 c4 04	 add	 esp, 4
$LN3@Uninitiali:
  00051	8b 45 f0	 mov	 eax, DWORD PTR tv64[ebp]
  00054	8b 08		 mov	 ecx, DWORD PTR [eax]
  00056	51		 push	 ecx
  00057	8b 55 f4	 mov	 edx, DWORD PTR _this$[ebp]
  0005a	8b 42 04	 mov	 eax, DWORD PTR [edx+4]
  0005d	50		 push	 eax
  0005e	8b 4d f4	 mov	 ecx, DWORD PTR _this$[ebp]
  00061	8b 11		 mov	 edx, DWORD PTR [ecx]
  00063	52		 push	 edx
  00064	e8 00 00 00 00	 call	 ??$_Destroy_range@V?$allocator@PAVSprite@sf@@@std@@@std@@YAXPAPAVSprite@sf@@QAPAV12@AAV?$allocator@PAVSprite@sf@@@0@@Z ; std::_Destroy_range<std::allocator<sf::Sprite *> >
  00069	83 c4 0c	 add	 esp, 12			; 0000000cH

; 1627 :     }

  0006c	8b e5		 mov	 esp, ebp
  0006e	5d		 pop	 ebp
  0006f	c3		 ret	 0
??1?$_Uninitialized_backout_al@V?$allocator@PAVSprite@sf@@@std@@@std@@QAE@XZ ENDP ; std::_Uninitialized_backout_al<std::allocator<sf::Sprite *> >::~_Uninitialized_backout_al<std::allocator<sf::Sprite *> >
_TEXT	ENDS
; Function compile flags: /Odtp /RTCu
; File C:\Program Files (x86)\Microsoft Visual Studio\2019\Community\VC\Tools\MSVC\14.29.30133\include\xmemory
;	COMDAT ??0?$_Uninitialized_backout_al@V?$allocator@PAVSprite@sf@@@std@@@std@@QAE@PAPAVSprite@sf@@AAV?$allocator@PAVSprite@sf@@@1@@Z
_TEXT	SEGMENT
tv66 = -32						; size = 4
tv65 = -28						; size = 4
tv64 = -24						; size = 4
tv74 = -20						; size = 4
tv84 = -16						; size = 4
tv94 = -12						; size = 4
_this$ = -8						; size = 4
tv77 = -3						; size = 1
tv87 = -2						; size = 1
tv129 = -1						; size = 1
__Dest$ = 8						; size = 4
__Al_$ = 12						; size = 4
??0?$_Uninitialized_backout_al@V?$allocator@PAVSprite@sf@@@std@@@std@@QAE@PAPAVSprite@sf@@AAV?$allocator@PAVSprite@sf@@@1@@Z PROC ; std::_Uninitialized_backout_al<std::allocator<sf::Sprite *> >::_Uninitialized_backout_al<std::allocator<sf::Sprite *> >, COMDAT
; _this$ = ecx

; 1620 :         : _First(_Dest), _Last(_Dest), _Al(_Al_) {}

  00000	55		 push	 ebp
  00001	8b ec		 mov	 ebp, esp
  00003	83 ec 20	 sub	 esp, 32			; 00000020H
  00006	89 4d f8	 mov	 DWORD PTR _this$[ebp], ecx
  00009	b9 00 00 00 00	 mov	 ecx, OFFSET __79D216CD_xmemory
  0000e	e8 00 00 00 00	 call	 @__CheckForDebuggerJustMyCode@4
  00013	8b 45 f8	 mov	 eax, DWORD PTR _this$[ebp]
  00016	89 45 e8	 mov	 DWORD PTR tv64[ebp], eax
  00019	8b 4d e8	 mov	 ecx, DWORD PTR tv64[ebp]
  0001c	89 4d f4	 mov	 DWORD PTR tv94[ebp], ecx
  0001f	8b 55 f4	 mov	 edx, DWORD PTR tv94[ebp]
  00022	c1 ea 03	 shr	 edx, 3
  00025	8a 82 00 00 00
	30		 mov	 al, BYTE PTR [edx+805306368]
  0002b	88 45 ff	 mov	 BYTE PTR tv129[ebp], al
  0002e	80 7d ff 00	 cmp	 BYTE PTR tv129[ebp], 0
  00032	74 1a		 je	 SHORT $LN5@Uninitiali
  00034	8a 4d f4	 mov	 cl, BYTE PTR tv94[ebp]
  00037	80 e1 07	 and	 cl, 7
  0003a	80 c1 03	 add	 cl, 3
  0003d	3a 4d ff	 cmp	 cl, BYTE PTR tv129[ebp]
  00040	7c 0c		 jl	 SHORT $LN5@Uninitiali
  00042	8b 55 f4	 mov	 edx, DWORD PTR tv94[ebp]
  00045	52		 push	 edx
  00046	e8 00 00 00 00	 call	 ___asan_report_store4
  0004b	83 c4 04	 add	 esp, 4
$LN5@Uninitiali:
  0004e	8b 45 e8	 mov	 eax, DWORD PTR tv64[ebp]
  00051	8b 4d 08	 mov	 ecx, DWORD PTR __Dest$[ebp]
  00054	89 08		 mov	 DWORD PTR [eax], ecx
  00056	8b 55 f8	 mov	 edx, DWORD PTR _this$[ebp]
  00059	83 c2 04	 add	 edx, 4
  0005c	89 55 e4	 mov	 DWORD PTR tv65[ebp], edx
  0005f	8b 45 e4	 mov	 eax, DWORD PTR tv65[ebp]
  00062	89 45 f0	 mov	 DWORD PTR tv84[ebp], eax
  00065	8b 4d f0	 mov	 ecx, DWORD PTR tv84[ebp]
  00068	c1 e9 03	 shr	 ecx, 3
  0006b	8a 91 00 00 00
	30		 mov	 dl, BYTE PTR [ecx+805306368]
  00071	88 55 fe	 mov	 BYTE PTR tv87[ebp], dl
  00074	80 7d fe 00	 cmp	 BYTE PTR tv87[ebp], 0
  00078	74 18		 je	 SHORT $LN4@Uninitiali
  0007a	8a 45 f0	 mov	 al, BYTE PTR tv84[ebp]
  0007d	24 07		 and	 al, 7
  0007f	04 03		 add	 al, 3
  00081	3a 45 fe	 cmp	 al, BYTE PTR tv87[ebp]
  00084	7c 0c		 jl	 SHORT $LN4@Uninitiali
  00086	8b 4d f0	 mov	 ecx, DWORD PTR tv84[ebp]
  00089	51		 push	 ecx
  0008a	e8 00 00 00 00	 call	 ___asan_report_store4
  0008f	83 c4 04	 add	 esp, 4
$LN4@Uninitiali:
  00092	8b 55 e4	 mov	 edx, DWORD PTR tv65[ebp]
  00095	8b 45 08	 mov	 eax, DWORD PTR __Dest$[ebp]
  00098	89 02		 mov	 DWORD PTR [edx], eax
  0009a	8b 4d f8	 mov	 ecx, DWORD PTR _this$[ebp]
  0009d	83 c1 08	 add	 ecx, 8
  000a0	89 4d e0	 mov	 DWORD PTR tv66[ebp], ecx
  000a3	8b 55 e0	 mov	 edx, DWORD PTR tv66[ebp]
  000a6	89 55 ec	 mov	 DWORD PTR tv74[ebp], edx
  000a9	8b 45 ec	 mov	 eax, DWORD PTR tv74[ebp]
  000ac	c1 e8 03	 shr	 eax, 3
  000af	8a 88 00 00 00
	30		 mov	 cl, BYTE PTR [eax+805306368]
  000b5	88 4d fd	 mov	 BYTE PTR tv77[ebp], cl
  000b8	80 7d fd 00	 cmp	 BYTE PTR tv77[ebp], 0
  000bc	74 1a		 je	 SHORT $LN3@Uninitiali
  000be	8a 55 ec	 mov	 dl, BYTE PTR tv74[ebp]
  000c1	80 e2 07	 and	 dl, 7
  000c4	80 c2 03	 add	 dl, 3
  000c7	3a 55 fd	 cmp	 dl, BYTE PTR tv77[ebp]
  000ca	7c 0c		 jl	 SHORT $LN3@Uninitiali
  000cc	8b 45 ec	 mov	 eax, DWORD PTR tv74[ebp]
  000cf	50		 push	 eax
  000d0	e8 00 00 00 00	 call	 ___asan_report_store4
  000d5	83 c4 04	 add	 esp, 4
$LN3@Uninitiali:
  000d8	8b 4d e0	 mov	 ecx, DWORD PTR tv66[ebp]
  000db	8b 55 0c	 mov	 edx, DWORD PTR __Al_$[ebp]
  000de	89 11		 mov	 DWORD PTR [ecx], edx
  000e0	8b 45 f8	 mov	 eax, DWORD PTR _this$[ebp]
  000e3	8b e5		 mov	 esp, ebp
  000e5	5d		 pop	 ebp
  000e6	c2 08 00	 ret	 8
??0?$_Uninitialized_backout_al@V?$allocator@PAVSprite@sf@@@std@@@std@@QAE@PAPAVSprite@sf@@AAV?$allocator@PAVSprite@sf@@@1@@Z ENDP ; std::_Uninitialized_backout_al<std::allocator<sf::Sprite *> >::_Uninitialized_backout_al<std::allocator<sf::Sprite *> >
_TEXT	ENDS
; Function compile flags: /Odtp /RTCu
; File C:\Program Files (x86)\Microsoft Visual Studio\2019\Community\VC\Tools\MSVC\14.29.30133\include\xmemory
;	COMDAT ??$_Zero_range@PAPAVSprite@sf@@@std@@YAPAPAVSprite@sf@@QAPAV12@0@Z
_TEXT	SEGMENT
__Last_ch$ = -8						; size = 4
__First_ch$ = -4					; size = 4
__First$ = 8						; size = 4
__Last$ = 12						; size = 4
??$_Zero_range@PAPAVSprite@sf@@@std@@YAPAPAVSprite@sf@@QAPAV12@0@Z PROC ; std::_Zero_range<sf::Sprite * *>, COMDAT

; 1806 : _Ptr _Zero_range(const _Ptr _First, const _Ptr _Last) { // fill [_First, _Last) with zeroes

  00000	55		 push	 ebp
  00001	8b ec		 mov	 ebp, esp
  00003	83 ec 08	 sub	 esp, 8
  00006	b9 00 00 00 00	 mov	 ecx, OFFSET __79D216CD_xmemory
  0000b	e8 00 00 00 00	 call	 @__CheckForDebuggerJustMyCode@4

; 1807 :     char* const _First_ch = reinterpret_cast<char*>(_To_address(_First));

  00010	8d 45 08	 lea	 eax, DWORD PTR __First$[ebp]
  00013	50		 push	 eax
  00014	e8 00 00 00 00	 call	 ??$_To_address@PAPAVSprite@sf@@@std@@YA?A_PABQAPAVSprite@sf@@@Z ; std::_To_address<sf::Sprite * *>
  00019	83 c4 04	 add	 esp, 4
  0001c	89 45 fc	 mov	 DWORD PTR __First_ch$[ebp], eax

; 1808 :     char* const _Last_ch  = reinterpret_cast<char*>(_To_address(_Last));

  0001f	8d 4d 0c	 lea	 ecx, DWORD PTR __Last$[ebp]
  00022	51		 push	 ecx
  00023	e8 00 00 00 00	 call	 ??$_To_address@PAPAVSprite@sf@@@std@@YA?A_PABQAPAVSprite@sf@@@Z ; std::_To_address<sf::Sprite * *>
  00028	83 c4 04	 add	 esp, 4
  0002b	89 45 f8	 mov	 DWORD PTR __Last_ch$[ebp], eax

; 1809 :     _CSTD memset(_First_ch, 0, static_cast<size_t>(_Last_ch - _First_ch));

  0002e	8b 55 f8	 mov	 edx, DWORD PTR __Last_ch$[ebp]
  00031	2b 55 fc	 sub	 edx, DWORD PTR __First_ch$[ebp]
  00034	52		 push	 edx
  00035	6a 00		 push	 0
  00037	8b 45 fc	 mov	 eax, DWORD PTR __First_ch$[ebp]
  0003a	50		 push	 eax
  0003b	e8 00 00 00 00	 call	 _memset
  00040	83 c4 0c	 add	 esp, 12			; 0000000cH

; 1810 :     return _Last;

  00043	8b 45 0c	 mov	 eax, DWORD PTR __Last$[ebp]

; 1811 : }

  00046	8b e5		 mov	 esp, ebp
  00048	5d		 pop	 ebp
  00049	c3		 ret	 0
??$_Zero_range@PAPAVSprite@sf@@@std@@YAPAPAVSprite@sf@@QAPAV12@0@Z ENDP ; std::_Zero_range<sf::Sprite * *>
_TEXT	ENDS
; Function compile flags: /Odtp /RTCu
; File C:\Program Files (x86)\Microsoft Visual Studio\2019\Community\VC\Tools\MSVC\14.29.30133\include\xstddef
;	COMDAT ??$_Unfancy@PAVSprite@sf@@@std@@YAPAPAVSprite@sf@@PAPAV12@@Z
_TEXT	SEGMENT
__Ptr$ = 8						; size = 4
??$_Unfancy@PAVSprite@sf@@@std@@YAPAPAVSprite@sf@@PAPAV12@@Z PROC ; std::_Unfancy<sf::Sprite *>, COMDAT

; 288  : _NODISCARD constexpr _Ty* _Unfancy(_Ty* _Ptr) noexcept { // do nothing for plain pointers

  00000	55		 push	 ebp
  00001	8b ec		 mov	 ebp, esp
  00003	b9 00 00 00 00	 mov	 ecx, OFFSET __E458E21C_xstddef
  00008	e8 00 00 00 00	 call	 @__CheckForDebuggerJustMyCode@4

; 289  :     return _Ptr;

  0000d	8b 45 08	 mov	 eax, DWORD PTR __Ptr$[ebp]

; 290  : }

  00010	5d		 pop	 ebp
  00011	c3		 ret	 0
??$_Unfancy@PAVSprite@sf@@@std@@YAPAPAVSprite@sf@@PAPAV12@@Z ENDP ; std::_Unfancy<sf::Sprite *>
_TEXT	ENDS
; Function compile flags: /Odtp /RTCu
; File C:\Program Files (x86)\Microsoft Visual Studio\2019\Community\VC\Tools\MSVC\14.29.30133\include\xutility
;	COMDAT ??$to_address@PAVSprite@sf@@@std@@YAPAPAVSprite@sf@@QAPAV12@@Z
_TEXT	SEGMENT
__Val$ = 8						; size = 4
??$to_address@PAVSprite@sf@@@std@@YAPAPAVSprite@sf@@QAPAV12@@Z PROC ; std::to_address<sf::Sprite *>, COMDAT

; 211  : _NODISCARD constexpr _Ty* to_address(_Ty* const _Val) noexcept {

  00000	55		 push	 ebp
  00001	8b ec		 mov	 ebp, esp
  00003	b9 00 00 00 00	 mov	 ecx, OFFSET __12269DE6_xutility
  00008	e8 00 00 00 00	 call	 @__CheckForDebuggerJustMyCode@4

; 212  :     static_assert(!is_function_v<_Ty>,
; 213  :         "N4810 20.10.4 [pointer.conversion]/2: The program is ill-formed if T is a function type.");
; 214  :     return _Val;

  0000d	8b 45 08	 mov	 eax, DWORD PTR __Val$[ebp]

; 215  : }

  00010	5d		 pop	 ebp
  00011	c3		 ret	 0
??$to_address@PAVSprite@sf@@@std@@YAPAPAVSprite@sf@@QAPAV12@@Z ENDP ; std::to_address<sf::Sprite *>
_TEXT	ENDS
; Function compile flags: /Odtp /RTCu
; File C:\Program Files (x86)\Microsoft Visual Studio\2019\Community\VC\Tools\MSVC\14.29.30133\include\xmemory
;	COMDAT ??$_Emplace_back@PAVTexture@sf@@@?$_Uninitialized_backout_al@V?$allocator@PAVTexture@sf@@@std@@@std@@QAEX$$QAPAVTexture@sf@@@Z
_TEXT	SEGMENT
tv81 = -56						; size = 4
tv74 = -52						; size = 4
tv76 = -48						; size = 4
tv78 = -44						; size = 4
tv80 = -40						; size = 4
tv79 = -36						; size = 4
tv71 = -32						; size = 4
tv68 = -28						; size = 4
tv91 = -24						; size = 4
tv133 = -20						; size = 4
tv143 = -16						; size = 4
tv153 = -12						; size = 4
_this$ = -8						; size = 4
tv94 = -4						; size = 1
tv136 = -3						; size = 1
tv146 = -2						; size = 1
tv156 = -1						; size = 1
_<_Vals_0>$ = 8						; size = 4
??$_Emplace_back@PAVTexture@sf@@@?$_Uninitialized_backout_al@V?$allocator@PAVTexture@sf@@@std@@@std@@QAEX$$QAPAVTexture@sf@@@Z PROC ; std::_Uninitialized_backout_al<std::allocator<sf::Texture *> >::_Emplace_back<sf::Texture *>, COMDAT
; _this$ = ecx

; 1630 :     _CONSTEXPR20_DYNALLOC void _Emplace_back(_Types&&... _Vals) { // construct a new element at *_Last and increment

  00000	55		 push	 ebp
  00001	8b ec		 mov	 ebp, esp
  00003	83 ec 38	 sub	 esp, 56			; 00000038H
  00006	89 4d f8	 mov	 DWORD PTR _this$[ebp], ecx
  00009	b9 00 00 00 00	 mov	 ecx, OFFSET __79D216CD_xmemory
  0000e	e8 00 00 00 00	 call	 @__CheckForDebuggerJustMyCode@4

; 1631 :         allocator_traits<_Alloc>::construct(_Al, _Unfancy(_Last), _STD forward<_Types>(_Vals)...);

  00013	8b 45 08	 mov	 eax, DWORD PTR _<_Vals_0>$[ebp]
  00016	50		 push	 eax
  00017	e8 00 00 00 00	 call	 ??$forward@PAVTexture@sf@@@std@@YA$$QAPAVTexture@sf@@AAPAV12@@Z ; std::forward<sf::Texture *>
  0001c	83 c4 04	 add	 esp, 4
  0001f	89 45 d4	 mov	 DWORD PTR tv78[ebp], eax
  00022	8b 4d f8	 mov	 ecx, DWORD PTR _this$[ebp]
  00025	83 c1 04	 add	 ecx, 4
  00028	89 4d e4	 mov	 DWORD PTR tv68[ebp], ecx
  0002b	8b 55 e4	 mov	 edx, DWORD PTR tv68[ebp]
  0002e	89 55 f4	 mov	 DWORD PTR tv153[ebp], edx
  00031	8b 45 f4	 mov	 eax, DWORD PTR tv153[ebp]
  00034	c1 e8 03	 shr	 eax, 3
  00037	8a 88 00 00 00
	30		 mov	 cl, BYTE PTR [eax+805306368]
  0003d	88 4d ff	 mov	 BYTE PTR tv156[ebp], cl
  00040	80 7d ff 00	 cmp	 BYTE PTR tv156[ebp], 0
  00044	74 1a		 je	 SHORT $LN6@Emplace_ba
  00046	8a 55 f4	 mov	 dl, BYTE PTR tv153[ebp]
  00049	80 e2 07	 and	 dl, 7
  0004c	80 c2 03	 add	 dl, 3
  0004f	3a 55 ff	 cmp	 dl, BYTE PTR tv156[ebp]
  00052	7c 0c		 jl	 SHORT $LN6@Emplace_ba
  00054	8b 45 f4	 mov	 eax, DWORD PTR tv153[ebp]
  00057	50		 push	 eax
  00058	e8 00 00 00 00	 call	 ___asan_report_load4
  0005d	83 c4 04	 add	 esp, 4
$LN6@Emplace_ba:
  00060	8b 4d e4	 mov	 ecx, DWORD PTR tv68[ebp]
  00063	8b 11		 mov	 edx, DWORD PTR [ecx]
  00065	52		 push	 edx
  00066	e8 00 00 00 00	 call	 ??$_Unfancy@PAVTexture@sf@@@std@@YAPAPAVTexture@sf@@PAPAV12@@Z ; std::_Unfancy<sf::Texture *>
  0006b	83 c4 04	 add	 esp, 4
  0006e	89 45 d0	 mov	 DWORD PTR tv76[ebp], eax
  00071	8b 45 f8	 mov	 eax, DWORD PTR _this$[ebp]
  00074	83 c0 08	 add	 eax, 8
  00077	89 45 e0	 mov	 DWORD PTR tv71[ebp], eax
  0007a	8b 4d e0	 mov	 ecx, DWORD PTR tv71[ebp]
  0007d	89 4d f0	 mov	 DWORD PTR tv143[ebp], ecx
  00080	8b 55 f0	 mov	 edx, DWORD PTR tv143[ebp]
  00083	c1 ea 03	 shr	 edx, 3
  00086	8a 82 00 00 00
	30		 mov	 al, BYTE PTR [edx+805306368]
  0008c	88 45 fe	 mov	 BYTE PTR tv146[ebp], al
  0008f	80 7d fe 00	 cmp	 BYTE PTR tv146[ebp], 0
  00093	74 1a		 je	 SHORT $LN5@Emplace_ba
  00095	8a 4d f0	 mov	 cl, BYTE PTR tv143[ebp]
  00098	80 e1 07	 and	 cl, 7
  0009b	80 c1 03	 add	 cl, 3
  0009e	3a 4d fe	 cmp	 cl, BYTE PTR tv146[ebp]
  000a1	7c 0c		 jl	 SHORT $LN5@Emplace_ba
  000a3	8b 55 f0	 mov	 edx, DWORD PTR tv143[ebp]
  000a6	52		 push	 edx
  000a7	e8 00 00 00 00	 call	 ___asan_report_load4
  000ac	83 c4 04	 add	 esp, 4
$LN5@Emplace_ba:
  000af	8b 45 e0	 mov	 eax, DWORD PTR tv71[ebp]
  000b2	8b 08		 mov	 ecx, DWORD PTR [eax]
  000b4	89 4d cc	 mov	 DWORD PTR tv74[ebp], ecx
  000b7	8b 55 d4	 mov	 edx, DWORD PTR tv78[ebp]
  000ba	52		 push	 edx
  000bb	8b 45 d0	 mov	 eax, DWORD PTR tv76[ebp]
  000be	50		 push	 eax
  000bf	8b 4d cc	 mov	 ecx, DWORD PTR tv74[ebp]
  000c2	51		 push	 ecx
  000c3	e8 00 00 00 00	 call	 ??$construct@PAVTexture@sf@@PAV12@@?$_Default_allocator_traits@V?$allocator@PAVTexture@sf@@@std@@@std@@SAXAAV?$allocator@PAVTexture@sf@@@1@QAPAVTexture@sf@@$$QAPAV34@@Z ; std::_Default_allocator_traits<std::allocator<sf::Texture *> >::construct<sf::Texture *,sf::Texture *>
  000c8	83 c4 0c	 add	 esp, 12			; 0000000cH

; 1632 :         ++_Last;

  000cb	8b 55 f8	 mov	 edx, DWORD PTR _this$[ebp]
  000ce	83 c2 04	 add	 edx, 4
  000d1	89 55 dc	 mov	 DWORD PTR tv79[ebp], edx
  000d4	8b 45 dc	 mov	 eax, DWORD PTR tv79[ebp]
  000d7	89 45 ec	 mov	 DWORD PTR tv133[ebp], eax
  000da	8b 4d ec	 mov	 ecx, DWORD PTR tv133[ebp]
  000dd	c1 e9 03	 shr	 ecx, 3
  000e0	8a 91 00 00 00
	30		 mov	 dl, BYTE PTR [ecx+805306368]
  000e6	88 55 fd	 mov	 BYTE PTR tv136[ebp], dl
  000e9	80 7d fd 00	 cmp	 BYTE PTR tv136[ebp], 0
  000ed	74 18		 je	 SHORT $LN4@Emplace_ba
  000ef	8a 45 ec	 mov	 al, BYTE PTR tv133[ebp]
  000f2	24 07		 and	 al, 7
  000f4	04 03		 add	 al, 3
  000f6	3a 45 fd	 cmp	 al, BYTE PTR tv136[ebp]
  000f9	7c 0c		 jl	 SHORT $LN4@Emplace_ba
  000fb	8b 4d ec	 mov	 ecx, DWORD PTR tv133[ebp]
  000fe	51		 push	 ecx
  000ff	e8 00 00 00 00	 call	 ___asan_report_load4
  00104	83 c4 04	 add	 esp, 4
$LN4@Emplace_ba:
  00107	8b 55 dc	 mov	 edx, DWORD PTR tv79[ebp]
  0010a	8b 02		 mov	 eax, DWORD PTR [edx]
  0010c	83 c0 04	 add	 eax, 4
  0010f	89 45 c8	 mov	 DWORD PTR tv81[ebp], eax
  00112	8b 4d f8	 mov	 ecx, DWORD PTR _this$[ebp]
  00115	83 c1 04	 add	 ecx, 4
  00118	89 4d d8	 mov	 DWORD PTR tv80[ebp], ecx
  0011b	8b 55 d8	 mov	 edx, DWORD PTR tv80[ebp]
  0011e	89 55 e8	 mov	 DWORD PTR tv91[ebp], edx
  00121	8b 45 e8	 mov	 eax, DWORD PTR tv91[ebp]
  00124	c1 e8 03	 shr	 eax, 3
  00127	8a 88 00 00 00
	30		 mov	 cl, BYTE PTR [eax+805306368]
  0012d	88 4d fc	 mov	 BYTE PTR tv94[ebp], cl
  00130	80 7d fc 00	 cmp	 BYTE PTR tv94[ebp], 0
  00134	74 1a		 je	 SHORT $LN3@Emplace_ba
  00136	8a 55 e8	 mov	 dl, BYTE PTR tv91[ebp]
  00139	80 e2 07	 and	 dl, 7
  0013c	80 c2 03	 add	 dl, 3
  0013f	3a 55 fc	 cmp	 dl, BYTE PTR tv94[ebp]
  00142	7c 0c		 jl	 SHORT $LN3@Emplace_ba
  00144	8b 45 e8	 mov	 eax, DWORD PTR tv91[ebp]
  00147	50		 push	 eax
  00148	e8 00 00 00 00	 call	 ___asan_report_store4
  0014d	83 c4 04	 add	 esp, 4
$LN3@Emplace_ba:
  00150	8b 4d d8	 mov	 ecx, DWORD PTR tv80[ebp]
  00153	8b 55 c8	 mov	 edx, DWORD PTR tv81[ebp]
  00156	89 11		 mov	 DWORD PTR [ecx], edx

; 1633 :     }

  00158	8b e5		 mov	 esp, ebp
  0015a	5d		 pop	 ebp
  0015b	c2 04 00	 ret	 4
??$_Emplace_back@PAVTexture@sf@@@?$_Uninitialized_backout_al@V?$allocator@PAVTexture@sf@@@std@@@std@@QAEX$$QAPAVTexture@sf@@@Z ENDP ; std::_Uninitialized_backout_al<std::allocator<sf::Texture *> >::_Emplace_back<sf::Texture *>
_TEXT	ENDS
; Function compile flags: /Odtp /RTCu
;	COMDAT ?__autoclassinit2@?$_Uninitialized_backout_al@V?$allocator@PAVTexture@sf@@@std@@@std@@QAEXI@Z
_TEXT	SEGMENT
_this$ = -4						; size = 4
_classSize$ = 8						; size = 4
?__autoclassinit2@?$_Uninitialized_backout_al@V?$allocator@PAVTexture@sf@@@std@@@std@@QAEXI@Z PROC ; std::_Uninitialized_backout_al<std::allocator<sf::Texture *> >::__autoclassinit2, COMDAT
; _this$ = ecx
  00000	55		 push	 ebp
  00001	8b ec		 mov	 ebp, esp
  00003	51		 push	 ecx
  00004	89 4d fc	 mov	 DWORD PTR _this$[ebp], ecx
  00007	8b 45 08	 mov	 eax, DWORD PTR _classSize$[ebp]
  0000a	50		 push	 eax
  0000b	6a 00		 push	 0
  0000d	8b 4d fc	 mov	 ecx, DWORD PTR _this$[ebp]
  00010	51		 push	 ecx
  00011	e8 00 00 00 00	 call	 ___asan_memset
  00016	83 c4 0c	 add	 esp, 12			; 0000000cH
  00019	8b e5		 mov	 esp, ebp
  0001b	5d		 pop	 ebp
  0001c	c2 04 00	 ret	 4
?__autoclassinit2@?$_Uninitialized_backout_al@V?$allocator@PAVTexture@sf@@@std@@@std@@QAEXI@Z ENDP ; std::_Uninitialized_backout_al<std::allocator<sf::Texture *> >::__autoclassinit2
_TEXT	ENDS
; Function compile flags: /Odtp /RTCu
; File C:\Program Files (x86)\Microsoft Visual Studio\2019\Community\VC\Tools\MSVC\14.29.30133\include\xmemory
;	COMDAT ?_Release@?$_Uninitialized_backout_al@V?$allocator@PAVTexture@sf@@@std@@@std@@QAEPAPAVTexture@sf@@XZ
_TEXT	SEGMENT
tv66 = -32						; size = 4
tv65 = -28						; size = 4
tv64 = -24						; size = 4
tv74 = -20						; size = 4
_this$ = -16						; size = 4
tv84 = -12						; size = 4
tv94 = -8						; size = 4
tv77 = -3						; size = 1
tv87 = -2						; size = 1
tv129 = -1						; size = 1
?_Release@?$_Uninitialized_backout_al@V?$allocator@PAVTexture@sf@@@std@@@std@@QAEPAPAVTexture@sf@@XZ PROC ; std::_Uninitialized_backout_al<std::allocator<sf::Texture *> >::_Release, COMDAT
; _this$ = ecx

; 1635 :     constexpr pointer _Release() { // suppress any exception handling backout and return _Last

  00000	55		 push	 ebp
  00001	8b ec		 mov	 ebp, esp
  00003	83 ec 20	 sub	 esp, 32			; 00000020H
  00006	89 4d f0	 mov	 DWORD PTR _this$[ebp], ecx
  00009	b9 00 00 00 00	 mov	 ecx, OFFSET __79D216CD_xmemory
  0000e	e8 00 00 00 00	 call	 @__CheckForDebuggerJustMyCode@4

; 1636 :         _First = _Last;

  00013	8b 45 f0	 mov	 eax, DWORD PTR _this$[ebp]
  00016	83 c0 04	 add	 eax, 4
  00019	89 45 e4	 mov	 DWORD PTR tv65[ebp], eax
  0001c	8b 4d f0	 mov	 ecx, DWORD PTR _this$[ebp]
  0001f	89 4d e8	 mov	 DWORD PTR tv64[ebp], ecx
  00022	8b 55 e4	 mov	 edx, DWORD PTR tv65[ebp]
  00025	89 55 f8	 mov	 DWORD PTR tv94[ebp], edx
  00028	8b 45 f8	 mov	 eax, DWORD PTR tv94[ebp]
  0002b	c1 e8 03	 shr	 eax, 3
  0002e	8a 88 00 00 00
	30		 mov	 cl, BYTE PTR [eax+805306368]
  00034	88 4d ff	 mov	 BYTE PTR tv129[ebp], cl
  00037	80 7d ff 00	 cmp	 BYTE PTR tv129[ebp], 0
  0003b	74 1a		 je	 SHORT $LN5@Release
  0003d	8a 55 f8	 mov	 dl, BYTE PTR tv94[ebp]
  00040	80 e2 07	 and	 dl, 7
  00043	80 c2 03	 add	 dl, 3
  00046	3a 55 ff	 cmp	 dl, BYTE PTR tv129[ebp]
  00049	7c 0c		 jl	 SHORT $LN5@Release
  0004b	8b 45 f8	 mov	 eax, DWORD PTR tv94[ebp]
  0004e	50		 push	 eax
  0004f	e8 00 00 00 00	 call	 ___asan_report_load4
  00054	83 c4 04	 add	 esp, 4
$LN5@Release:
  00057	8b 4d e8	 mov	 ecx, DWORD PTR tv64[ebp]
  0005a	89 4d f4	 mov	 DWORD PTR tv84[ebp], ecx
  0005d	8b 55 f4	 mov	 edx, DWORD PTR tv84[ebp]
  00060	c1 ea 03	 shr	 edx, 3
  00063	8a 82 00 00 00
	30		 mov	 al, BYTE PTR [edx+805306368]
  00069	88 45 fe	 mov	 BYTE PTR tv87[ebp], al
  0006c	80 7d fe 00	 cmp	 BYTE PTR tv87[ebp], 0
  00070	74 1a		 je	 SHORT $LN4@Release
  00072	8a 4d f4	 mov	 cl, BYTE PTR tv84[ebp]
  00075	80 e1 07	 and	 cl, 7
  00078	80 c1 03	 add	 cl, 3
  0007b	3a 4d fe	 cmp	 cl, BYTE PTR tv87[ebp]
  0007e	7c 0c		 jl	 SHORT $LN4@Release
  00080	8b 55 f4	 mov	 edx, DWORD PTR tv84[ebp]
  00083	52		 push	 edx
  00084	e8 00 00 00 00	 call	 ___asan_report_store4
  00089	83 c4 04	 add	 esp, 4
$LN4@Release:
  0008c	8b 45 e8	 mov	 eax, DWORD PTR tv64[ebp]
  0008f	8b 4d e4	 mov	 ecx, DWORD PTR tv65[ebp]
  00092	8b 11		 mov	 edx, DWORD PTR [ecx]
  00094	89 10		 mov	 DWORD PTR [eax], edx

; 1637 :         return _Last;

  00096	8b 45 f0	 mov	 eax, DWORD PTR _this$[ebp]
  00099	83 c0 04	 add	 eax, 4
  0009c	89 45 e0	 mov	 DWORD PTR tv66[ebp], eax
  0009f	8b 4d e0	 mov	 ecx, DWORD PTR tv66[ebp]
  000a2	89 4d ec	 mov	 DWORD PTR tv74[ebp], ecx
  000a5	8b 55 ec	 mov	 edx, DWORD PTR tv74[ebp]
  000a8	c1 ea 03	 shr	 edx, 3
  000ab	8a 82 00 00 00
	30		 mov	 al, BYTE PTR [edx+805306368]
  000b1	88 45 fd	 mov	 BYTE PTR tv77[ebp], al
  000b4	80 7d fd 00	 cmp	 BYTE PTR tv77[ebp], 0
  000b8	74 1a		 je	 SHORT $LN3@Release
  000ba	8a 4d ec	 mov	 cl, BYTE PTR tv74[ebp]
  000bd	80 e1 07	 and	 cl, 7
  000c0	80 c1 03	 add	 cl, 3
  000c3	3a 4d fd	 cmp	 cl, BYTE PTR tv77[ebp]
  000c6	7c 0c		 jl	 SHORT $LN3@Release
  000c8	8b 55 ec	 mov	 edx, DWORD PTR tv74[ebp]
  000cb	52		 push	 edx
  000cc	e8 00 00 00 00	 call	 ___asan_report_load4
  000d1	83 c4 04	 add	 esp, 4
$LN3@Release:
  000d4	8b 45 e0	 mov	 eax, DWORD PTR tv66[ebp]
  000d7	8b 00		 mov	 eax, DWORD PTR [eax]

; 1638 :     }

  000d9	8b e5		 mov	 esp, ebp
  000db	5d		 pop	 ebp
  000dc	c3		 ret	 0
?_Release@?$_Uninitialized_backout_al@V?$allocator@PAVTexture@sf@@@std@@@std@@QAEPAPAVTexture@sf@@XZ ENDP ; std::_Uninitialized_backout_al<std::allocator<sf::Texture *> >::_Release
_TEXT	ENDS
; Function compile flags: /Odtp /RTCu
; File C:\Program Files (x86)\Microsoft Visual Studio\2019\Community\VC\Tools\MSVC\14.29.30133\include\xmemory
;	COMDAT ??1?$_Uninitialized_backout_al@V?$allocator@PAVTexture@sf@@@std@@@std@@QAE@XZ
_TEXT	SEGMENT
tv64 = -16						; size = 4
_this$ = -12						; size = 4
tv73 = -8						; size = 4
tv76 = -1						; size = 1
??1?$_Uninitialized_backout_al@V?$allocator@PAVTexture@sf@@@std@@@std@@QAE@XZ PROC ; std::_Uninitialized_backout_al<std::allocator<sf::Texture *> >::~_Uninitialized_backout_al<std::allocator<sf::Texture *> >, COMDAT
; _this$ = ecx

; 1625 :     _CONSTEXPR20_DYNALLOC ~_Uninitialized_backout_al() {

  00000	55		 push	 ebp
  00001	8b ec		 mov	 ebp, esp
  00003	83 ec 10	 sub	 esp, 16			; 00000010H
  00006	89 4d f4	 mov	 DWORD PTR _this$[ebp], ecx
  00009	b9 00 00 00 00	 mov	 ecx, OFFSET __79D216CD_xmemory
  0000e	e8 00 00 00 00	 call	 @__CheckForDebuggerJustMyCode@4

; 1626 :         _Destroy_range(_First, _Last, _Al);

  00013	8b 45 f4	 mov	 eax, DWORD PTR _this$[ebp]
  00016	83 c0 08	 add	 eax, 8
  00019	89 45 f0	 mov	 DWORD PTR tv64[ebp], eax
  0001c	8b 4d f0	 mov	 ecx, DWORD PTR tv64[ebp]
  0001f	89 4d f8	 mov	 DWORD PTR tv73[ebp], ecx
  00022	8b 55 f8	 mov	 edx, DWORD PTR tv73[ebp]
  00025	c1 ea 03	 shr	 edx, 3
  00028	8a 82 00 00 00
	30		 mov	 al, BYTE PTR [edx+805306368]
  0002e	88 45 ff	 mov	 BYTE PTR tv76[ebp], al
  00031	80 7d ff 00	 cmp	 BYTE PTR tv76[ebp], 0
  00035	74 1a		 je	 SHORT $LN3@Uninitiali
  00037	8a 4d f8	 mov	 cl, BYTE PTR tv73[ebp]
  0003a	80 e1 07	 and	 cl, 7
  0003d	80 c1 03	 add	 cl, 3
  00040	3a 4d ff	 cmp	 cl, BYTE PTR tv76[ebp]
  00043	7c 0c		 jl	 SHORT $LN3@Uninitiali
  00045	8b 55 f8	 mov	 edx, DWORD PTR tv73[ebp]
  00048	52		 push	 edx
  00049	e8 00 00 00 00	 call	 ___asan_report_load4
  0004e	83 c4 04	 add	 esp, 4
$LN3@Uninitiali:
  00051	8b 45 f0	 mov	 eax, DWORD PTR tv64[ebp]
  00054	8b 08		 mov	 ecx, DWORD PTR [eax]
  00056	51		 push	 ecx
  00057	8b 55 f4	 mov	 edx, DWORD PTR _this$[ebp]
  0005a	8b 42 04	 mov	 eax, DWORD PTR [edx+4]
  0005d	50		 push	 eax
  0005e	8b 4d f4	 mov	 ecx, DWORD PTR _this$[ebp]
  00061	8b 11		 mov	 edx, DWORD PTR [ecx]
  00063	52		 push	 edx
  00064	e8 00 00 00 00	 call	 ??$_Destroy_range@V?$allocator@PAVTexture@sf@@@std@@@std@@YAXPAPAVTexture@sf@@QAPAV12@AAV?$allocator@PAVTexture@sf@@@0@@Z ; std::_Destroy_range<std::allocator<sf::Texture *> >
  00069	83 c4 0c	 add	 esp, 12			; 0000000cH

; 1627 :     }

  0006c	8b e5		 mov	 esp, ebp
  0006e	5d		 pop	 ebp
  0006f	c3		 ret	 0
??1?$_Uninitialized_backout_al@V?$allocator@PAVTexture@sf@@@std@@@std@@QAE@XZ ENDP ; std::_Uninitialized_backout_al<std::allocator<sf::Texture *> >::~_Uninitialized_backout_al<std::allocator<sf::Texture *> >
_TEXT	ENDS
; Function compile flags: /Odtp /RTCu
; File C:\Program Files (x86)\Microsoft Visual Studio\2019\Community\VC\Tools\MSVC\14.29.30133\include\xmemory
;	COMDAT ??0?$_Uninitialized_backout_al@V?$allocator@PAVTexture@sf@@@std@@@std@@QAE@PAPAVTexture@sf@@AAV?$allocator@PAVTexture@sf@@@1@@Z
_TEXT	SEGMENT
tv66 = -32						; size = 4
tv65 = -28						; size = 4
tv64 = -24						; size = 4
tv74 = -20						; size = 4
tv84 = -16						; size = 4
tv94 = -12						; size = 4
_this$ = -8						; size = 4
tv77 = -3						; size = 1
tv87 = -2						; size = 1
tv129 = -1						; size = 1
__Dest$ = 8						; size = 4
__Al_$ = 12						; size = 4
??0?$_Uninitialized_backout_al@V?$allocator@PAVTexture@sf@@@std@@@std@@QAE@PAPAVTexture@sf@@AAV?$allocator@PAVTexture@sf@@@1@@Z PROC ; std::_Uninitialized_backout_al<std::allocator<sf::Texture *> >::_Uninitialized_backout_al<std::allocator<sf::Texture *> >, COMDAT
; _this$ = ecx

; 1620 :         : _First(_Dest), _Last(_Dest), _Al(_Al_) {}

  00000	55		 push	 ebp
  00001	8b ec		 mov	 ebp, esp
  00003	83 ec 20	 sub	 esp, 32			; 00000020H
  00006	89 4d f8	 mov	 DWORD PTR _this$[ebp], ecx
  00009	b9 00 00 00 00	 mov	 ecx, OFFSET __79D216CD_xmemory
  0000e	e8 00 00 00 00	 call	 @__CheckForDebuggerJustMyCode@4
  00013	8b 45 f8	 mov	 eax, DWORD PTR _this$[ebp]
  00016	89 45 e8	 mov	 DWORD PTR tv64[ebp], eax
  00019	8b 4d e8	 mov	 ecx, DWORD PTR tv64[ebp]
  0001c	89 4d f4	 mov	 DWORD PTR tv94[ebp], ecx
  0001f	8b 55 f4	 mov	 edx, DWORD PTR tv94[ebp]
  00022	c1 ea 03	 shr	 edx, 3
  00025	8a 82 00 00 00
	30		 mov	 al, BYTE PTR [edx+805306368]
  0002b	88 45 ff	 mov	 BYTE PTR tv129[ebp], al
  0002e	80 7d ff 00	 cmp	 BYTE PTR tv129[ebp], 0
  00032	74 1a		 je	 SHORT $LN5@Uninitiali
  00034	8a 4d f4	 mov	 cl, BYTE PTR tv94[ebp]
  00037	80 e1 07	 and	 cl, 7
  0003a	80 c1 03	 add	 cl, 3
  0003d	3a 4d ff	 cmp	 cl, BYTE PTR tv129[ebp]
  00040	7c 0c		 jl	 SHORT $LN5@Uninitiali
  00042	8b 55 f4	 mov	 edx, DWORD PTR tv94[ebp]
  00045	52		 push	 edx
  00046	e8 00 00 00 00	 call	 ___asan_report_store4
  0004b	83 c4 04	 add	 esp, 4
$LN5@Uninitiali:
  0004e	8b 45 e8	 mov	 eax, DWORD PTR tv64[ebp]
  00051	8b 4d 08	 mov	 ecx, DWORD PTR __Dest$[ebp]
  00054	89 08		 mov	 DWORD PTR [eax], ecx
  00056	8b 55 f8	 mov	 edx, DWORD PTR _this$[ebp]
  00059	83 c2 04	 add	 edx, 4
  0005c	89 55 e4	 mov	 DWORD PTR tv65[ebp], edx
  0005f	8b 45 e4	 mov	 eax, DWORD PTR tv65[ebp]
  00062	89 45 f0	 mov	 DWORD PTR tv84[ebp], eax
  00065	8b 4d f0	 mov	 ecx, DWORD PTR tv84[ebp]
  00068	c1 e9 03	 shr	 ecx, 3
  0006b	8a 91 00 00 00
	30		 mov	 dl, BYTE PTR [ecx+805306368]
  00071	88 55 fe	 mov	 BYTE PTR tv87[ebp], dl
  00074	80 7d fe 00	 cmp	 BYTE PTR tv87[ebp], 0
  00078	74 18		 je	 SHORT $LN4@Uninitiali
  0007a	8a 45 f0	 mov	 al, BYTE PTR tv84[ebp]
  0007d	24 07		 and	 al, 7
  0007f	04 03		 add	 al, 3
  00081	3a 45 fe	 cmp	 al, BYTE PTR tv87[ebp]
  00084	7c 0c		 jl	 SHORT $LN4@Uninitiali
  00086	8b 4d f0	 mov	 ecx, DWORD PTR tv84[ebp]
  00089	51		 push	 ecx
  0008a	e8 00 00 00 00	 call	 ___asan_report_store4
  0008f	83 c4 04	 add	 esp, 4
$LN4@Uninitiali:
  00092	8b 55 e4	 mov	 edx, DWORD PTR tv65[ebp]
  00095	8b 45 08	 mov	 eax, DWORD PTR __Dest$[ebp]
  00098	89 02		 mov	 DWORD PTR [edx], eax
  0009a	8b 4d f8	 mov	 ecx, DWORD PTR _this$[ebp]
  0009d	83 c1 08	 add	 ecx, 8
  000a0	89 4d e0	 mov	 DWORD PTR tv66[ebp], ecx
  000a3	8b 55 e0	 mov	 edx, DWORD PTR tv66[ebp]
  000a6	89 55 ec	 mov	 DWORD PTR tv74[ebp], edx
  000a9	8b 45 ec	 mov	 eax, DWORD PTR tv74[ebp]
  000ac	c1 e8 03	 shr	 eax, 3
  000af	8a 88 00 00 00
	30		 mov	 cl, BYTE PTR [eax+805306368]
  000b5	88 4d fd	 mov	 BYTE PTR tv77[ebp], cl
  000b8	80 7d fd 00	 cmp	 BYTE PTR tv77[ebp], 0
  000bc	74 1a		 je	 SHORT $LN3@Uninitiali
  000be	8a 55 ec	 mov	 dl, BYTE PTR tv74[ebp]
  000c1	80 e2 07	 and	 dl, 7
  000c4	80 c2 03	 add	 dl, 3
  000c7	3a 55 fd	 cmp	 dl, BYTE PTR tv77[ebp]
  000ca	7c 0c		 jl	 SHORT $LN3@Uninitiali
  000cc	8b 45 ec	 mov	 eax, DWORD PTR tv74[ebp]
  000cf	50		 push	 eax
  000d0	e8 00 00 00 00	 call	 ___asan_report_store4
  000d5	83 c4 04	 add	 esp, 4
$LN3@Uninitiali:
  000d8	8b 4d e0	 mov	 ecx, DWORD PTR tv66[ebp]
  000db	8b 55 0c	 mov	 edx, DWORD PTR __Al_$[ebp]
  000de	89 11		 mov	 DWORD PTR [ecx], edx
  000e0	8b 45 f8	 mov	 eax, DWORD PTR _this$[ebp]
  000e3	8b e5		 mov	 esp, ebp
  000e5	5d		 pop	 ebp
  000e6	c2 08 00	 ret	 8
??0?$_Uninitialized_backout_al@V?$allocator@PAVTexture@sf@@@std@@@std@@QAE@PAPAVTexture@sf@@AAV?$allocator@PAVTexture@sf@@@1@@Z ENDP ; std::_Uninitialized_backout_al<std::allocator<sf::Texture *> >::_Uninitialized_backout_al<std::allocator<sf::Texture *> >
_TEXT	ENDS
; Function compile flags: /Odtp /RTCu
; File C:\Program Files (x86)\Microsoft Visual Studio\2019\Community\VC\Tools\MSVC\14.29.30133\include\xutility
;	COMDAT ??$_Copy_memmove@PAPAVTexture@sf@@PAPAV12@@std@@YAPAPAVTexture@sf@@PAPAV12@00@Z
_TEXT	SEGMENT
__Last_ch$ = -28					; size = 4
__DestPtr$ = -24					; size = 4
__LastPtr$ = -20					; size = 4
__FirstPtr$ = -16					; size = 4
__Count$ = -12						; size = 4
__Dest_ch$ = -8						; size = 4
__First_ch$ = -4					; size = 4
__First$ = 8						; size = 4
__Last$ = 12						; size = 4
__Dest$ = 16						; size = 4
??$_Copy_memmove@PAPAVTexture@sf@@PAPAV12@@std@@YAPAPAVTexture@sf@@PAPAV12@00@Z PROC ; std::_Copy_memmove<sf::Texture * *,sf::Texture * *>, COMDAT

; 4159 : _OutCtgIt _Copy_memmove(_CtgIt _First, _CtgIt _Last, _OutCtgIt _Dest) {

  00000	55		 push	 ebp
  00001	8b ec		 mov	 ebp, esp
  00003	83 ec 1c	 sub	 esp, 28			; 0000001cH
  00006	b9 00 00 00 00	 mov	 ecx, OFFSET __12269DE6_xutility
  0000b	e8 00 00 00 00	 call	 @__CheckForDebuggerJustMyCode@4

; 4160 :     auto _FirstPtr              = _To_address(_First);

  00010	8d 45 08	 lea	 eax, DWORD PTR __First$[ebp]
  00013	50		 push	 eax
  00014	e8 00 00 00 00	 call	 ??$_To_address@PAPAVTexture@sf@@@std@@YA?A_PABQAPAVTexture@sf@@@Z ; std::_To_address<sf::Texture * *>
  00019	83 c4 04	 add	 esp, 4
  0001c	89 45 f0	 mov	 DWORD PTR __FirstPtr$[ebp], eax

; 4161 :     auto _LastPtr               = _To_address(_Last);

  0001f	8d 4d 0c	 lea	 ecx, DWORD PTR __Last$[ebp]
  00022	51		 push	 ecx
  00023	e8 00 00 00 00	 call	 ??$_To_address@PAPAVTexture@sf@@@std@@YA?A_PABQAPAVTexture@sf@@@Z ; std::_To_address<sf::Texture * *>
  00028	83 c4 04	 add	 esp, 4
  0002b	89 45 ec	 mov	 DWORD PTR __LastPtr$[ebp], eax

; 4162 :     auto _DestPtr               = _To_address(_Dest);

  0002e	8d 55 10	 lea	 edx, DWORD PTR __Dest$[ebp]
  00031	52		 push	 edx
  00032	e8 00 00 00 00	 call	 ??$_To_address@PAPAVTexture@sf@@@std@@YA?A_PABQAPAVTexture@sf@@@Z ; std::_To_address<sf::Texture * *>
  00037	83 c4 04	 add	 esp, 4
  0003a	89 45 e8	 mov	 DWORD PTR __DestPtr$[ebp], eax

; 4163 :     const char* const _First_ch = const_cast<const char*>(reinterpret_cast<const volatile char*>(_FirstPtr));

  0003d	8b 45 f0	 mov	 eax, DWORD PTR __FirstPtr$[ebp]
  00040	89 45 fc	 mov	 DWORD PTR __First_ch$[ebp], eax

; 4164 :     const char* const _Last_ch  = const_cast<const char*>(reinterpret_cast<const volatile char*>(_LastPtr));

  00043	8b 4d ec	 mov	 ecx, DWORD PTR __LastPtr$[ebp]
  00046	89 4d e4	 mov	 DWORD PTR __Last_ch$[ebp], ecx

; 4165 :     char* const _Dest_ch        = const_cast<char*>(reinterpret_cast<const volatile char*>(_DestPtr));

  00049	8b 55 e8	 mov	 edx, DWORD PTR __DestPtr$[ebp]
  0004c	89 55 f8	 mov	 DWORD PTR __Dest_ch$[ebp], edx

; 4166 :     const auto _Count           = static_cast<size_t>(_Last_ch - _First_ch);

  0004f	8b 45 e4	 mov	 eax, DWORD PTR __Last_ch$[ebp]
  00052	2b 45 fc	 sub	 eax, DWORD PTR __First_ch$[ebp]
  00055	89 45 f4	 mov	 DWORD PTR __Count$[ebp], eax

; 4167 :     _CSTD memmove(_Dest_ch, _First_ch, _Count);

  00058	8b 4d f4	 mov	 ecx, DWORD PTR __Count$[ebp]
  0005b	51		 push	 ecx
  0005c	8b 55 fc	 mov	 edx, DWORD PTR __First_ch$[ebp]
  0005f	52		 push	 edx
  00060	8b 45 f8	 mov	 eax, DWORD PTR __Dest_ch$[ebp]
  00063	50		 push	 eax
  00064	e8 00 00 00 00	 call	 _memmove
  00069	83 c4 0c	 add	 esp, 12			; 0000000cH

; 4168 :     if constexpr (is_pointer_v<_OutCtgIt>) {
; 4169 :         return reinterpret_cast<_OutCtgIt>(_Dest_ch + _Count);

  0006c	8b 45 f8	 mov	 eax, DWORD PTR __Dest_ch$[ebp]
  0006f	03 45 f4	 add	 eax, DWORD PTR __Count$[ebp]

; 4170 :     } else {
; 4171 :         return _Dest + (_LastPtr - _FirstPtr);
; 4172 :     }
; 4173 : }

  00072	8b e5		 mov	 esp, ebp
  00074	5d		 pop	 ebp
  00075	c3		 ret	 0
??$_Copy_memmove@PAPAVTexture@sf@@PAPAV12@@std@@YAPAPAVTexture@sf@@PAPAV12@00@Z ENDP ; std::_Copy_memmove<sf::Texture * *,sf::Texture * *>
_TEXT	ENDS
; Function compile flags: /Odtp /RTCu
; File C:\Program Files (x86)\Microsoft Visual Studio\2019\Community\VC\Tools\MSVC\14.29.30133\include\xutility
;	COMDAT ??$to_address@PAVTexture@sf@@@std@@YAPAPAVTexture@sf@@QAPAV12@@Z
_TEXT	SEGMENT
__Val$ = 8						; size = 4
??$to_address@PAVTexture@sf@@@std@@YAPAPAVTexture@sf@@QAPAV12@@Z PROC ; std::to_address<sf::Texture *>, COMDAT

; 211  : _NODISCARD constexpr _Ty* to_address(_Ty* const _Val) noexcept {

  00000	55		 push	 ebp
  00001	8b ec		 mov	 ebp, esp
  00003	b9 00 00 00 00	 mov	 ecx, OFFSET __12269DE6_xutility
  00008	e8 00 00 00 00	 call	 @__CheckForDebuggerJustMyCode@4

; 212  :     static_assert(!is_function_v<_Ty>,
; 213  :         "N4810 20.10.4 [pointer.conversion]/2: The program is ill-formed if T is a function type.");
; 214  :     return _Val;

  0000d	8b 45 08	 mov	 eax, DWORD PTR __Val$[ebp]

; 215  : }

  00010	5d		 pop	 ebp
  00011	c3		 ret	 0
??$to_address@PAVTexture@sf@@@std@@YAPAPAVTexture@sf@@QAPAV12@@Z ENDP ; std::to_address<sf::Texture *>
_TEXT	ENDS
; Function compile flags: /Odtp /RTCu
; File C:\Program Files (x86)\Microsoft Visual Studio\2019\Community\VC\Tools\MSVC\14.29.30133\include\type_traits
;	COMDAT ??$move@AAPAVTexture@sf@@@std@@YA$$QAPAVTexture@sf@@AAPAV12@@Z
_TEXT	SEGMENT
__Arg$ = 8						; size = 4
??$move@AAPAVTexture@sf@@@std@@YA$$QAPAVTexture@sf@@AAPAV12@@Z PROC ; std::move<sf::Texture * &>, COMDAT

; 1455 : _NODISCARD constexpr remove_reference_t<_Ty>&& move(_Ty&& _Arg) noexcept { // forward _Arg as movable

  00000	55		 push	 ebp
  00001	8b ec		 mov	 ebp, esp
  00003	b9 00 00 00 00	 mov	 ecx, OFFSET __589FA321_type_traits
  00008	e8 00 00 00 00	 call	 @__CheckForDebuggerJustMyCode@4

; 1456 :     return static_cast<remove_reference_t<_Ty>&&>(_Arg);

  0000d	8b 45 08	 mov	 eax, DWORD PTR __Arg$[ebp]

; 1457 : }

  00010	5d		 pop	 ebp
  00011	c3		 ret	 0
??$move@AAPAVTexture@sf@@@std@@YA$$QAPAVTexture@sf@@AAPAV12@@Z ENDP ; std::move<sf::Texture * &>
_TEXT	ENDS
; Function compile flags: /Odtp /RTCu
; File C:\Program Files (x86)\Microsoft Visual Studio\2019\Community\VC\Tools\MSVC\14.29.30133\include\xutility
;	COMDAT ??$_Get_unwrapped@ABQAPAVTexture@sf@@@std@@YA?A_TABQAPAVTexture@sf@@@Z
_TEXT	SEGMENT
tv65 = -12						; size = 4
tv68 = -8						; size = 4
tv71 = -1						; size = 1
__It$ = 8						; size = 4
??$_Get_unwrapped@ABQAPAVTexture@sf@@@std@@YA?A_TABQAPAVTexture@sf@@@Z PROC ; std::_Get_unwrapped<sf::Texture * * const &>, COMDAT

; 1324 : _NODISCARD constexpr decltype(auto) _Get_unwrapped(_Iter&& _It) {

  00000	55		 push	 ebp
  00001	8b ec		 mov	 ebp, esp
  00003	83 ec 0c	 sub	 esp, 12			; 0000000cH
  00006	b9 00 00 00 00	 mov	 ecx, OFFSET __12269DE6_xutility
  0000b	e8 00 00 00 00	 call	 @__CheckForDebuggerJustMyCode@4

; 1325 :     // unwrap an iterator previously subjected to _Adl_verify_range or otherwise validated
; 1326 :     if constexpr (is_pointer_v<decay_t<_Iter>>) { // special-case pointers and arrays
; 1327 :         return _It + 0;

  00010	8b 45 08	 mov	 eax, DWORD PTR __It$[ebp]
  00013	89 45 f4	 mov	 DWORD PTR tv65[ebp], eax
  00016	8b 4d f4	 mov	 ecx, DWORD PTR tv65[ebp]
  00019	89 4d f8	 mov	 DWORD PTR tv68[ebp], ecx
  0001c	8b 55 f8	 mov	 edx, DWORD PTR tv68[ebp]
  0001f	c1 ea 03	 shr	 edx, 3
  00022	8a 82 00 00 00
	30		 mov	 al, BYTE PTR [edx+805306368]
  00028	88 45 ff	 mov	 BYTE PTR tv71[ebp], al
  0002b	80 7d ff 00	 cmp	 BYTE PTR tv71[ebp], 0
  0002f	74 1a		 je	 SHORT $LN3@Get_unwrap
  00031	8a 4d f8	 mov	 cl, BYTE PTR tv68[ebp]
  00034	80 e1 07	 and	 cl, 7
  00037	80 c1 03	 add	 cl, 3
  0003a	3a 4d ff	 cmp	 cl, BYTE PTR tv71[ebp]
  0003d	7c 0c		 jl	 SHORT $LN3@Get_unwrap
  0003f	8b 55 f8	 mov	 edx, DWORD PTR tv68[ebp]
  00042	52		 push	 edx
  00043	e8 00 00 00 00	 call	 ___asan_report_load4
  00048	83 c4 04	 add	 esp, 4
$LN3@Get_unwrap:
  0004b	8b 45 08	 mov	 eax, DWORD PTR __It$[ebp]
  0004e	8b 00		 mov	 eax, DWORD PTR [eax]

; 1328 :     } else if constexpr (_Unwrappable_v<_Iter>) {
; 1329 :         return static_cast<_Iter&&>(_It)._Unwrapped();
; 1330 :     } else {
; 1331 :         return static_cast<_Iter&&>(_It);
; 1332 :     }
; 1333 : }

  00050	8b e5		 mov	 esp, ebp
  00052	5d		 pop	 ebp
  00053	c3		 ret	 0
??$_Get_unwrapped@ABQAPAVTexture@sf@@@std@@YA?A_TABQAPAVTexture@sf@@@Z ENDP ; std::_Get_unwrapped<sf::Texture * * const &>
_TEXT	ENDS
; Function compile flags: /Odtp /RTCu
; File C:\Program Files (x86)\Microsoft Visual Studio\2019\Community\VC\Tools\MSVC\14.29.30133\include\xmemory
;	COMDAT ?deallocate@?$_Default_allocator_traits@V?$allocator@U_Container_proxy@std@@@std@@@std@@SAXAAV?$allocator@U_Container_proxy@std@@@2@QAU_Container_proxy@2@I@Z
_TEXT	SEGMENT
__Al$ = 8						; size = 4
__Ptr$ = 12						; size = 4
__Count$ = 16						; size = 4
?deallocate@?$_Default_allocator_traits@V?$allocator@U_Container_proxy@std@@@std@@@std@@SAXAAV?$allocator@U_Container_proxy@std@@@2@QAU_Container_proxy@2@I@Z PROC ; std::_Default_allocator_traits<std::allocator<std::_Container_proxy> >::deallocate, COMDAT

; 693  :     static _CONSTEXPR20_DYNALLOC void deallocate(_Alloc& _Al, const pointer _Ptr, const size_type _Count) {

  00000	55		 push	 ebp
  00001	8b ec		 mov	 ebp, esp
  00003	b9 00 00 00 00	 mov	 ecx, OFFSET __79D216CD_xmemory
  00008	e8 00 00 00 00	 call	 @__CheckForDebuggerJustMyCode@4

; 694  :         // no overflow check on the following multiply; we assume _Allocate did that check
; 695  : #ifdef __cpp_lib_constexpr_dynamic_alloc // TRANSITION, GH-1532
; 696  :         if (_STD is_constant_evaluated()) {

  0000d	e8 00 00 00 00	 call	 ?is_constant_evaluated@std@@YA_NXZ ; std::is_constant_evaluated
  00012	0f b6 c0	 movzx	 eax, al
  00015	85 c0		 test	 eax, eax
  00017	74 12		 je	 SHORT $LN2@deallocate

; 697  :             _Al.deallocate(_Ptr, _Count);

  00019	8b 4d 10	 mov	 ecx, DWORD PTR __Count$[ebp]
  0001c	51		 push	 ecx
  0001d	8b 55 0c	 mov	 edx, DWORD PTR __Ptr$[ebp]
  00020	52		 push	 edx
  00021	8b 4d 08	 mov	 ecx, DWORD PTR __Al$[ebp]
  00024	e8 00 00 00 00	 call	 ?deallocate@?$allocator@U_Container_proxy@std@@@std@@QAEXQAU_Container_proxy@2@I@Z ; std::allocator<std::_Container_proxy>::deallocate

; 698  :         } else

  00029	eb 13		 jmp	 SHORT $LN1@deallocate
$LN2@deallocate:

; 699  : #endif // __cpp_lib_constexpr_dynamic_alloc
; 700  :         {
; 701  :             (void) _Al;
; 702  :             _Deallocate<_New_alignof<value_type>>(_Ptr, sizeof(value_type) * _Count);

  0002b	8b 45 10	 mov	 eax, DWORD PTR __Count$[ebp]
  0002e	c1 e0 03	 shl	 eax, 3
  00031	50		 push	 eax
  00032	8b 4d 0c	 mov	 ecx, DWORD PTR __Ptr$[ebp]
  00035	51		 push	 ecx
  00036	e8 00 00 00 00	 call	 ??$_Deallocate@$07$0A@@std@@YAXPAXI@Z ; std::_Deallocate<8,0>
  0003b	83 c4 08	 add	 esp, 8
$LN1@deallocate:

; 703  :         }
; 704  :     }

  0003e	5d		 pop	 ebp
  0003f	c3		 ret	 0
?deallocate@?$_Default_allocator_traits@V?$allocator@U_Container_proxy@std@@@std@@@std@@SAXAAV?$allocator@U_Container_proxy@std@@@2@QAU_Container_proxy@2@I@Z ENDP ; std::_Default_allocator_traits<std::allocator<std::_Container_proxy> >::deallocate
_TEXT	ENDS
; Function compile flags: /Odtp /RTCu
; File C:\Program Files (x86)\Microsoft Visual Studio\2019\Community\VC\Tools\MSVC\14.29.30133\include\xmemory
;	COMDAT ??$_Uninitialized_value_construct_n@V?$allocator@PAVSprite@sf@@@std@@@std@@YAPAPAVSprite@sf@@PAPAV12@IAAV?$allocator@PAVSprite@sf@@@0@@Z
_TEXT	SEGMENT
__asan_gen_0$ = -136					; size = 4
__asan_gen_1$ = -132					; size = 4
__asan_gen_2$ = -128					; size = 4
__Backout$ = -120					; size = 12
tv93 = -68						; size = 4
__PFirst$3 = -64					; size = 4
tv91 = -60						; size = 4
tv128 = -56						; size = 4
tv78 = -52						; size = 4
$T4 = -48						; size = 4
tv134 = -44						; size = 4
tv90 = -40						; size = 4
__$ArrayPad$ = -36					; size = 4
__$EHRec$ = -12						; size = 12
__First$ = 8						; size = 4
__Count$ = 12						; size = 4
__Al$ = 16						; size = 4
??$_Uninitialized_value_construct_n@V?$allocator@PAVSprite@sf@@@std@@@std@@YAPAPAVSprite@sf@@PAPAV12@IAAV?$allocator@PAVSprite@sf@@@0@@Z PROC ; std::_Uninitialized_value_construct_n<std::allocator<sf::Sprite *> >, COMDAT

; 1815 :     _Alloc_ptr_t<_Alloc> _First, _Alloc_size_t<_Alloc> _Count, _Alloc& _Al) {

  00000	53		 push	 ebx
  00001	8b dc		 mov	 ebx, esp
  00003	83 ec 08	 sub	 esp, 8
  00006	83 e4 e0	 and	 esp, -32		; ffffffe0H
  00009	83 c4 04	 add	 esp, 4
  0000c	55		 push	 ebp
  0000d	8b 6b 04	 mov	 ebp, DWORD PTR [ebx+4]
  00010	89 6c 24 04	 mov	 DWORD PTR [esp+4], ebp
  00014	8b ec		 mov	 ebp, esp
  00016	6a ff		 push	 -1
  00018	68 00 00 00 00	 push	 __ehhandler$??$_Uninitialized_value_construct_n@V?$allocator@PAVSprite@sf@@@std@@@std@@YAPAPAVSprite@sf@@PAPAV12@IAAV?$allocator@PAVSprite@sf@@@0@@Z
  0001d	64 a1 00 00 00
	00		 mov	 eax, DWORD PTR fs:0
  00023	50		 push	 eax
  00024	53		 push	 ebx
  00025	81 c4 70 ff ff
	ff		 add	 esp, -144		; ffffff70H
  0002b	a1 00 00 00 00	 mov	 eax, DWORD PTR ___security_cookie
  00030	33 c5		 xor	 eax, ebp
  00032	89 45 dc	 mov	 DWORD PTR __$ArrayPad$[ebp], eax
  00035	50		 push	 eax
  00036	8d 45 f4	 lea	 eax, DWORD PTR __$EHRec$[ebp]
  00039	64 a3 00 00 00
	00		 mov	 DWORD PTR fs:0, eax
  0003f	c7 85 78 ff ff
	ff b3 8a b5 41	 mov	 DWORD PTR __asan_gen_0$[ebp], 1102416563 ; 41b58ab3H
  00049	c7 85 7c ff ff
	ff 00 00 00 00	 mov	 DWORD PTR __asan_gen_1$[ebp], OFFSET __L__asan_gen_.??$_Uninitialized_value_construct_n@V?$allocator@PAVSprite@sf@@@std@@@std@@YAPAPAVSprite@sf@@PAPAV12@IAAV?$allocator@PAVSprite@sf@@@0@@Z
  00053	c7 45 80 00 00
	00 00		 mov	 DWORD PTR __asan_gen_2$[ebp], OFFSET ??$_Uninitialized_value_construct_n@V?$allocator@PAVSprite@sf@@@std@@@std@@YAPAPAVSprite@sf@@PAPAV12@IAAV?$allocator@PAVSprite@sf@@@0@@Z ; std::_Uninitialized_value_construct_n<std::allocator<sf::Sprite *> >
  0005a	8d 85 78 ff ff
	ff		 lea	 eax, DWORD PTR __asan_gen_0$[ebp]
  00060	89 45 c4	 mov	 DWORD PTR tv91[ebp], eax
  00063	8b 4d c4	 mov	 ecx, DWORD PTR tv91[ebp]
  00066	c1 e9 03	 shr	 ecx, 3
  00069	81 c1 00 00 00
	30		 add	 ecx, 805306368		; 30000000H
  0006f	89 4d bc	 mov	 DWORD PTR tv93[ebp], ecx
  00072	8b 55 bc	 mov	 edx, DWORD PTR tv93[ebp]
  00075	c7 02 f1 f1 00
	04		 mov	 DWORD PTR [edx], 67170801 ; 0400f1f1H
  0007b	83 45 bc 04	 add	 DWORD PTR tv93[ebp], 4
  0007f	8b 45 bc	 mov	 eax, DWORD PTR tv93[ebp]
  00082	c7 00 f3 f3 f3
	f3		 mov	 DWORD PTR [eax], -202116109 ; f3f3f3f3H
  00088	b9 00 00 00 00	 mov	 ecx, OFFSET __79D216CD_xmemory
  0008d	e8 00 00 00 00	 call	 @__CheckForDebuggerJustMyCode@4

; 1816 :     // value-initialize _Count objects to raw _First, using _Al
; 1817 :     using _Ptrty = typename _Alloc::value_type*;
; 1818 :     if constexpr (_Use_memset_value_construct_v<_Ptrty> && _Uses_default_construct<_Alloc, _Ptrty>::value) {
; 1819 : #ifdef __cpp_lib_constexpr_dynamic_alloc
; 1820 :         if (!_STD is_constant_evaluated())

  00092	e8 00 00 00 00	 call	 ?is_constant_evaluated@std@@YA_NXZ ; std::is_constant_evaluated
  00097	0f b6 c8	 movzx	 ecx, al
  0009a	85 c9		 test	 ecx, ecx
  0009c	75 63		 jne	 SHORT $LN5@Uninitiali

; 1821 : #endif // __cpp_lib_constexpr_dynamic_alloc
; 1822 :         {
; 1823 :             auto _PFirst = _Unfancy(_First);

  0009e	8b 53 08	 mov	 edx, DWORD PTR __First$[ebx]
  000a1	52		 push	 edx
  000a2	e8 00 00 00 00	 call	 ??$_Unfancy@PAVSprite@sf@@@std@@YAPAPAVSprite@sf@@PAPAV12@@Z ; std::_Unfancy<sf::Sprite *>
  000a7	83 c4 04	 add	 esp, 4
  000aa	89 45 c0	 mov	 DWORD PTR __PFirst$3[ebp], eax

; 1824 :             _Zero_range(_PFirst, _PFirst + _Count);

  000ad	8b 43 0c	 mov	 eax, DWORD PTR __Count$[ebx]
  000b0	8b 4d c0	 mov	 ecx, DWORD PTR __PFirst$3[ebp]
  000b3	8d 14 81	 lea	 edx, DWORD PTR [ecx+eax*4]
  000b6	52		 push	 edx
  000b7	8b 45 c0	 mov	 eax, DWORD PTR __PFirst$3[ebp]
  000ba	50		 push	 eax
  000bb	e8 00 00 00 00	 call	 ??$_Zero_range@PAPAVSprite@sf@@@std@@YAPAPAVSprite@sf@@QAPAV12@0@Z ; std::_Zero_range<sf::Sprite * *>
  000c0	83 c4 08	 add	 esp, 8

; 1825 :             return _First + _Count;

  000c3	8b 4b 0c	 mov	 ecx, DWORD PTR __Count$[ebx]
  000c6	8b 53 08	 mov	 edx, DWORD PTR __First$[ebx]
  000c9	8d 04 8a	 lea	 eax, DWORD PTR [edx+ecx*4]
  000cc	89 45 cc	 mov	 DWORD PTR tv78[ebp], eax
  000cf	c7 85 78 ff ff
	ff 0e 36 e0 45	 mov	 DWORD PTR __asan_gen_0$[ebp], 1172321806 ; 45e0360eH
  000d9	8d 8d 78 ff ff
	ff		 lea	 ecx, DWORD PTR __asan_gen_0$[ebp]
  000df	c1 e9 03	 shr	 ecx, 3
  000e2	81 c1 00 00 00
	30		 add	 ecx, 805306368		; 30000000H
  000e8	89 4d c8	 mov	 DWORD PTR tv128[ebp], ecx
  000eb	6a 08		 push	 8
  000ed	8b 55 c8	 mov	 edx, DWORD PTR tv128[ebp]
  000f0	52		 push	 edx
  000f1	e8 00 00 00 00	 call	 ___asan_set_shadow_00
  000f6	83 c4 08	 add	 esp, 8
  000f9	8b 45 cc	 mov	 eax, DWORD PTR tv78[ebp]
  000fc	e9 89 00 00 00	 jmp	 $LN1@Uninitiali
$LN5@Uninitiali:

; 1826 :         }
; 1827 :     }
; 1828 : 
; 1829 :     _Uninitialized_backout_al<_Alloc> _Backout{_First, _Al};

  00101	6a 0c		 push	 12			; 0000000cH
  00103	8d 4d 88	 lea	 ecx, DWORD PTR __Backout$[ebp]
  00106	e8 00 00 00 00	 call	 ?__autoclassinit2@?$_Uninitialized_backout_al@V?$allocator@PAVSprite@sf@@@std@@@std@@QAEXI@Z
  0010b	8b 43 10	 mov	 eax, DWORD PTR __Al$[ebx]
  0010e	50		 push	 eax
  0010f	8b 4b 08	 mov	 ecx, DWORD PTR __First$[ebx]
  00112	51		 push	 ecx
  00113	8d 4d 88	 lea	 ecx, DWORD PTR __Backout$[ebp]
  00116	e8 00 00 00 00	 call	 ??0?$_Uninitialized_backout_al@V?$allocator@PAVSprite@sf@@@std@@@std@@QAE@PAPAVSprite@sf@@AAV?$allocator@PAVSprite@sf@@@1@@Z ; std::_Uninitialized_backout_al<std::allocator<sf::Sprite *> >::_Uninitialized_backout_al<std::allocator<sf::Sprite *> >
  0011b	c7 45 fc 00 00
	00 00		 mov	 DWORD PTR __$EHRec$[ebp+8], 0

; 1830 :     for (; 0 < _Count; --_Count) {

  00122	eb 09		 jmp	 SHORT $LN4@Uninitiali
$LN2@Uninitiali:
  00124	8b 53 0c	 mov	 edx, DWORD PTR __Count$[ebx]
  00127	83 ea 01	 sub	 edx, 1
  0012a	89 53 0c	 mov	 DWORD PTR __Count$[ebx], edx
$LN4@Uninitiali:
  0012d	83 7b 0c 00	 cmp	 DWORD PTR __Count$[ebx], 0
  00131	76 0a		 jbe	 SHORT $LN3@Uninitiali

; 1831 :         _Backout._Emplace_back();

  00133	8d 4d 88	 lea	 ecx, DWORD PTR __Backout$[ebp]
  00136	e8 00 00 00 00	 call	 ??$_Emplace_back@$$V@?$_Uninitialized_backout_al@V?$allocator@PAVSprite@sf@@@std@@@std@@QAEXXZ ; std::_Uninitialized_backout_al<std::allocator<sf::Sprite *> >::_Emplace_back<>

; 1832 :     }

  0013b	eb e7		 jmp	 SHORT $LN2@Uninitiali
$LN3@Uninitiali:

; 1833 : 
; 1834 :     return _Backout._Release();

  0013d	8d 4d 88	 lea	 ecx, DWORD PTR __Backout$[ebp]
  00140	e8 00 00 00 00	 call	 ?_Release@?$_Uninitialized_backout_al@V?$allocator@PAVSprite@sf@@@std@@@std@@QAEPAPAVSprite@sf@@XZ ; std::_Uninitialized_backout_al<std::allocator<sf::Sprite *> >::_Release
  00145	89 45 d0	 mov	 DWORD PTR $T4[ebp], eax
  00148	c7 45 fc ff ff
	ff ff		 mov	 DWORD PTR __$EHRec$[ebp+8], -1
  0014f	8d 4d 88	 lea	 ecx, DWORD PTR __Backout$[ebp]
  00152	e8 00 00 00 00	 call	 ??1?$_Uninitialized_backout_al@V?$allocator@PAVSprite@sf@@@std@@@std@@QAE@XZ ; std::_Uninitialized_backout_al<std::allocator<sf::Sprite *> >::~_Uninitialized_backout_al<std::allocator<sf::Sprite *> >
  00157	8b 45 d0	 mov	 eax, DWORD PTR $T4[ebp]
  0015a	89 45 d8	 mov	 DWORD PTR tv90[ebp], eax
  0015d	c7 85 78 ff ff
	ff 0e 36 e0 45	 mov	 DWORD PTR __asan_gen_0$[ebp], 1172321806 ; 45e0360eH
  00167	8d 8d 78 ff ff
	ff		 lea	 ecx, DWORD PTR __asan_gen_0$[ebp]
  0016d	c1 e9 03	 shr	 ecx, 3
  00170	81 c1 00 00 00
	30		 add	 ecx, 805306368		; 30000000H
  00176	89 4d d4	 mov	 DWORD PTR tv134[ebp], ecx
  00179	6a 08		 push	 8
  0017b	8b 55 d4	 mov	 edx, DWORD PTR tv134[ebp]
  0017e	52		 push	 edx
  0017f	e8 00 00 00 00	 call	 ___asan_set_shadow_00
  00184	83 c4 08	 add	 esp, 8
  00187	8b 45 d8	 mov	 eax, DWORD PTR tv90[ebp]
$LN1@Uninitiali:

; 1835 : }

  0018a	8b 4d f4	 mov	 ecx, DWORD PTR __$EHRec$[ebp]
  0018d	64 89 0d 00 00
	00 00		 mov	 DWORD PTR fs:0, ecx
  00194	59		 pop	 ecx
  00195	8b 4d dc	 mov	 ecx, DWORD PTR __$ArrayPad$[ebp]
  00198	33 cd		 xor	 ecx, ebp
  0019a	e8 00 00 00 00	 call	 @__security_check_cookie@4
  0019f	8b e5		 mov	 esp, ebp
  001a1	5d		 pop	 ebp
  001a2	8b e3		 mov	 esp, ebx
  001a4	5b		 pop	 ebx
  001a5	c3		 ret	 0
_TEXT	ENDS
;	COMDAT text$x
text$x	SEGMENT
__unwindfunclet$??$_Uninitialized_value_construct_n@V?$allocator@PAVSprite@sf@@@std@@@std@@YAPAPAVSprite@sf@@PAPAV12@IAAV?$allocator@PAVSprite@sf@@@0@@Z$0:
  00000	8d 4d 88	 lea	 ecx, DWORD PTR __Backout$[ebp]
  00003	e9 00 00 00 00	 jmp	 ??1?$_Uninitialized_backout_al@V?$allocator@PAVSprite@sf@@@std@@@std@@QAE@XZ ; std::_Uninitialized_backout_al<std::allocator<sf::Sprite *> >::~_Uninitialized_backout_al<std::allocator<sf::Sprite *> >
  00008	cc		 int	 3
  00009	cc		 int	 3
  0000a	cc		 int	 3
  0000b	cc		 int	 3
  0000c	cc		 int	 3
__ehhandler$??$_Uninitialized_value_construct_n@V?$allocator@PAVSprite@sf@@@std@@@std@@YAPAPAVSprite@sf@@PAPAV12@IAAV?$allocator@PAVSprite@sf@@@0@@Z:
  0000d	90		 npad	 1
  0000e	90		 npad	 1
  0000f	8b 54 24 08	 mov	 edx, DWORD PTR [esp+8]
  00013	8d 42 0c	 lea	 eax, DWORD PTR [edx+12]
  00016	8b 8a 68 ff ff
	ff		 mov	 ecx, DWORD PTR [edx-152]
  0001c	33 c8		 xor	 ecx, eax
  0001e	e8 00 00 00 00	 call	 @__security_check_cookie@4
  00023	8b 4a e8	 mov	 ecx, DWORD PTR [edx-24]
  00026	33 c8		 xor	 ecx, eax
  00028	e8 00 00 00 00	 call	 @__security_check_cookie@4
  0002d	b8 00 00 00 00	 mov	 eax, OFFSET __ehfuncinfo$??$_Uninitialized_value_construct_n@V?$allocator@PAVSprite@sf@@@std@@@std@@YAPAPAVSprite@sf@@PAPAV12@IAAV?$allocator@PAVSprite@sf@@@0@@Z
  00032	e9 00 00 00 00	 jmp	 ___CxxFrameHandler3
text$x	ENDS
??$_Uninitialized_value_construct_n@V?$allocator@PAVSprite@sf@@@std@@@std@@YAPAPAVSprite@sf@@PAPAV12@IAAV?$allocator@PAVSprite@sf@@@0@@Z ENDP ; std::_Uninitialized_value_construct_n<std::allocator<sf::Sprite *> >
; Function compile flags: /Odtp /RTCu
; File C:\Program Files (x86)\Microsoft Visual Studio\2019\Community\VC\Tools\MSVC\14.29.30133\include\xmemory
;	COMDAT ??$_Uninitialized_move@PAPAVTexture@sf@@V?$allocator@PAVTexture@sf@@@std@@@std@@YAPAPAVTexture@sf@@QAPAV12@0PAPAV12@AAV?$allocator@PAVTexture@sf@@@0@@Z
_TEXT	SEGMENT
__asan_gen_0$ = -136					; size = 4
__asan_gen_1$ = -132					; size = 4
__asan_gen_2$ = -128					; size = 4
__Backout$ = -120					; size = 12
__UFirst$ = -72						; size = 4
tv133 = -68						; size = 4
__ULast$ = -64						; size = 4
tv131 = -60						; size = 4
tv136 = -56						; size = 4
tv83 = -52						; size = 4
$T3 = -48						; size = 4
tv142 = -44						; size = 4
tv130 = -40						; size = 4
__$ArrayPad$ = -36					; size = 4
__$EHRec$ = -12						; size = 12
__First$ = 8						; size = 4
__Last$ = 12						; size = 4
__Dest$ = 16						; size = 4
__Al$ = 20						; size = 4
??$_Uninitialized_move@PAPAVTexture@sf@@V?$allocator@PAVTexture@sf@@@std@@@std@@YAPAPAVTexture@sf@@QAPAV12@0PAPAV12@AAV?$allocator@PAVTexture@sf@@@0@@Z PROC ; std::_Uninitialized_move<sf::Texture * *,std::allocator<sf::Texture *> >, COMDAT

; 1713 :     const _InIt _First, const _InIt _Last, _Alloc_ptr_t<_Alloc> _Dest, _Alloc& _Al) {

  00000	53		 push	 ebx
  00001	8b dc		 mov	 ebx, esp
  00003	83 ec 08	 sub	 esp, 8
  00006	83 e4 e0	 and	 esp, -32		; ffffffe0H
  00009	83 c4 04	 add	 esp, 4
  0000c	55		 push	 ebp
  0000d	8b 6b 04	 mov	 ebp, DWORD PTR [ebx+4]
  00010	89 6c 24 04	 mov	 DWORD PTR [esp+4], ebp
  00014	8b ec		 mov	 ebp, esp
  00016	6a ff		 push	 -1
  00018	68 00 00 00 00	 push	 __ehhandler$??$_Uninitialized_move@PAPAVTexture@sf@@V?$allocator@PAVTexture@sf@@@std@@@std@@YAPAPAVTexture@sf@@QAPAV12@0PAPAV12@AAV?$allocator@PAVTexture@sf@@@0@@Z
  0001d	64 a1 00 00 00
	00		 mov	 eax, DWORD PTR fs:0
  00023	50		 push	 eax
  00024	53		 push	 ebx
  00025	81 c4 70 ff ff
	ff		 add	 esp, -144		; ffffff70H
  0002b	a1 00 00 00 00	 mov	 eax, DWORD PTR ___security_cookie
  00030	33 c5		 xor	 eax, ebp
  00032	89 45 dc	 mov	 DWORD PTR __$ArrayPad$[ebp], eax
  00035	50		 push	 eax
  00036	8d 45 f4	 lea	 eax, DWORD PTR __$EHRec$[ebp]
  00039	64 a3 00 00 00
	00		 mov	 DWORD PTR fs:0, eax
  0003f	c7 85 78 ff ff
	ff b3 8a b5 41	 mov	 DWORD PTR __asan_gen_0$[ebp], 1102416563 ; 41b58ab3H
  00049	c7 85 7c ff ff
	ff 00 00 00 00	 mov	 DWORD PTR __asan_gen_1$[ebp], OFFSET __L__asan_gen_.??$_Uninitialized_move@PAPAVTexture@sf@@V?$allocator@PAVTexture@sf@@@std@@@std@@YAPAPAVTexture@sf@@QAPAV12@0PAPAV12@AAV?$allocator@PAVTexture@sf@@@0@@Z
  00053	c7 45 80 00 00
	00 00		 mov	 DWORD PTR __asan_gen_2$[ebp], OFFSET ??$_Uninitialized_move@PAPAVTexture@sf@@V?$allocator@PAVTexture@sf@@@std@@@std@@YAPAPAVTexture@sf@@QAPAV12@0PAPAV12@AAV?$allocator@PAVTexture@sf@@@0@@Z ; std::_Uninitialized_move<sf::Texture * *,std::allocator<sf::Texture *> >
  0005a	8d 85 78 ff ff
	ff		 lea	 eax, DWORD PTR __asan_gen_0$[ebp]
  00060	89 45 c4	 mov	 DWORD PTR tv131[ebp], eax
  00063	8b 4d c4	 mov	 ecx, DWORD PTR tv131[ebp]
  00066	c1 e9 03	 shr	 ecx, 3
  00069	81 c1 00 00 00
	30		 add	 ecx, 805306368		; 30000000H
  0006f	89 4d bc	 mov	 DWORD PTR tv133[ebp], ecx
  00072	8b 55 bc	 mov	 edx, DWORD PTR tv133[ebp]
  00075	c7 02 f1 f1 00
	04		 mov	 DWORD PTR [edx], 67170801 ; 0400f1f1H
  0007b	83 45 bc 04	 add	 DWORD PTR tv133[ebp], 4
  0007f	8b 45 bc	 mov	 eax, DWORD PTR tv133[ebp]
  00082	c7 00 f3 f3 f3
	f3		 mov	 DWORD PTR [eax], -202116109 ; f3f3f3f3H
  00088	b9 00 00 00 00	 mov	 ecx, OFFSET __79D216CD_xmemory
  0008d	e8 00 00 00 00	 call	 @__CheckForDebuggerJustMyCode@4

; 1714 :     // move [_First, _Last) to raw _Dest, using _Al
; 1715 :     // note: only called internally from elsewhere in the STL
; 1716 :     using _Ptrval     = typename _Alloc::value_type*;
; 1717 :     auto _UFirst      = _Get_unwrapped(_First);

  00092	8d 4b 08	 lea	 ecx, DWORD PTR __First$[ebx]
  00095	51		 push	 ecx
  00096	e8 00 00 00 00	 call	 ??$_Get_unwrapped@ABQAPAVTexture@sf@@@std@@YA?A_TABQAPAVTexture@sf@@@Z ; std::_Get_unwrapped<sf::Texture * * const &>
  0009b	83 c4 04	 add	 esp, 4
  0009e	89 45 b8	 mov	 DWORD PTR __UFirst$[ebp], eax

; 1718 :     const auto _ULast = _Get_unwrapped(_Last);

  000a1	8d 53 0c	 lea	 edx, DWORD PTR __Last$[ebx]
  000a4	52		 push	 edx
  000a5	e8 00 00 00 00	 call	 ??$_Get_unwrapped@ABQAPAVTexture@sf@@@std@@YA?A_TABQAPAVTexture@sf@@@Z ; std::_Get_unwrapped<sf::Texture * * const &>
  000aa	83 c4 04	 add	 esp, 4
  000ad	89 45 c0	 mov	 DWORD PTR __ULast$[ebp], eax

; 1719 :     if constexpr (conjunction_v<bool_constant<_Ptr_move_cat<decltype(_UFirst), _Ptrval>::_Really_trivial>,
; 1720 :                       _Uses_default_construct<_Alloc, _Ptrval, decltype(_STD move(*_UFirst))>>) {
; 1721 : #ifdef __cpp_lib_constexpr_dynamic_alloc
; 1722 :         if (!_STD is_constant_evaluated())

  000b0	e8 00 00 00 00	 call	 ?is_constant_evaluated@std@@YA_NXZ ; std::is_constant_evaluated
  000b5	0f b6 c0	 movzx	 eax, al
  000b8	85 c0		 test	 eax, eax
  000ba	75 61		 jne	 SHORT $LN5@Uninitiali

; 1723 : #endif // __cpp_lib_constexpr_dynamic_alloc
; 1724 :         {
; 1725 :             _Copy_memmove(_UFirst, _ULast, _Unfancy(_Dest));

  000bc	8b 4b 10	 mov	 ecx, DWORD PTR __Dest$[ebx]
  000bf	51		 push	 ecx
  000c0	e8 00 00 00 00	 call	 ??$_Unfancy@PAVTexture@sf@@@std@@YAPAPAVTexture@sf@@PAPAV12@@Z ; std::_Unfancy<sf::Texture *>
  000c5	83 c4 04	 add	 esp, 4
  000c8	50		 push	 eax
  000c9	8b 55 c0	 mov	 edx, DWORD PTR __ULast$[ebp]
  000cc	52		 push	 edx
  000cd	8b 45 b8	 mov	 eax, DWORD PTR __UFirst$[ebp]
  000d0	50		 push	 eax
  000d1	e8 00 00 00 00	 call	 ??$_Copy_memmove@PAPAVTexture@sf@@PAPAV12@@std@@YAPAPAVTexture@sf@@PAPAV12@00@Z ; std::_Copy_memmove<sf::Texture * *,sf::Texture * *>
  000d6	83 c4 0c	 add	 esp, 12			; 0000000cH

; 1726 :             return _Dest + (_ULast - _UFirst);

  000d9	8b 4d c0	 mov	 ecx, DWORD PTR __ULast$[ebp]
  000dc	2b 4d b8	 sub	 ecx, DWORD PTR __UFirst$[ebp]
  000df	c1 f9 02	 sar	 ecx, 2
  000e2	8b 53 10	 mov	 edx, DWORD PTR __Dest$[ebx]
  000e5	8d 04 8a	 lea	 eax, DWORD PTR [edx+ecx*4]
  000e8	89 45 cc	 mov	 DWORD PTR tv83[ebp], eax
  000eb	c7 85 78 ff ff
	ff 0e 36 e0 45	 mov	 DWORD PTR __asan_gen_0$[ebp], 1172321806 ; 45e0360eH
  000f5	8d 8d 78 ff ff
	ff		 lea	 ecx, DWORD PTR __asan_gen_0$[ebp]
  000fb	c1 e9 03	 shr	 ecx, 3
  000fe	81 c1 00 00 00
	30		 add	 ecx, 805306368		; 30000000H
  00104	89 4d c8	 mov	 DWORD PTR tv136[ebp], ecx
  00107	6a 08		 push	 8
  00109	8b 55 c8	 mov	 edx, DWORD PTR tv136[ebp]
  0010c	52		 push	 edx
  0010d	e8 00 00 00 00	 call	 ___asan_set_shadow_00
  00112	83 c4 08	 add	 esp, 8
  00115	8b 45 cc	 mov	 eax, DWORD PTR tv83[ebp]
  00118	e9 97 00 00 00	 jmp	 $LN1@Uninitiali
$LN5@Uninitiali:

; 1727 :         }
; 1728 :     }
; 1729 : 
; 1730 :     _Uninitialized_backout_al<_Alloc> _Backout{_Dest, _Al};

  0011d	6a 0c		 push	 12			; 0000000cH
  0011f	8d 4d 88	 lea	 ecx, DWORD PTR __Backout$[ebp]
  00122	e8 00 00 00 00	 call	 ?__autoclassinit2@?$_Uninitialized_backout_al@V?$allocator@PAVTexture@sf@@@std@@@std@@QAEXI@Z
  00127	8b 43 14	 mov	 eax, DWORD PTR __Al$[ebx]
  0012a	50		 push	 eax
  0012b	8b 4b 10	 mov	 ecx, DWORD PTR __Dest$[ebx]
  0012e	51		 push	 ecx
  0012f	8d 4d 88	 lea	 ecx, DWORD PTR __Backout$[ebp]
  00132	e8 00 00 00 00	 call	 ??0?$_Uninitialized_backout_al@V?$allocator@PAVTexture@sf@@@std@@@std@@QAE@PAPAVTexture@sf@@AAV?$allocator@PAVTexture@sf@@@1@@Z ; std::_Uninitialized_backout_al<std::allocator<sf::Texture *> >::_Uninitialized_backout_al<std::allocator<sf::Texture *> >
  00137	c7 45 fc 00 00
	00 00		 mov	 DWORD PTR __$EHRec$[ebp+8], 0

; 1731 :     for (; _UFirst != _ULast; ++_UFirst) {

  0013e	eb 09		 jmp	 SHORT $LN4@Uninitiali
$LN2@Uninitiali:
  00140	8b 55 b8	 mov	 edx, DWORD PTR __UFirst$[ebp]
  00143	83 c2 04	 add	 edx, 4
  00146	89 55 b8	 mov	 DWORD PTR __UFirst$[ebp], edx
$LN4@Uninitiali:
  00149	8b 45 b8	 mov	 eax, DWORD PTR __UFirst$[ebp]
  0014c	3b 45 c0	 cmp	 eax, DWORD PTR __ULast$[ebp]
  0014f	74 17		 je	 SHORT $LN3@Uninitiali

; 1732 :         _Backout._Emplace_back(_STD move(*_UFirst));

  00151	8b 4d b8	 mov	 ecx, DWORD PTR __UFirst$[ebp]
  00154	51		 push	 ecx
  00155	e8 00 00 00 00	 call	 ??$move@AAPAVTexture@sf@@@std@@YA$$QAPAVTexture@sf@@AAPAV12@@Z ; std::move<sf::Texture * &>
  0015a	83 c4 04	 add	 esp, 4
  0015d	50		 push	 eax
  0015e	8d 4d 88	 lea	 ecx, DWORD PTR __Backout$[ebp]
  00161	e8 00 00 00 00	 call	 ??$_Emplace_back@PAVTexture@sf@@@?$_Uninitialized_backout_al@V?$allocator@PAVTexture@sf@@@std@@@std@@QAEX$$QAPAVTexture@sf@@@Z ; std::_Uninitialized_backout_al<std::allocator<sf::Texture *> >::_Emplace_back<sf::Texture *>

; 1733 :     }

  00166	eb d8		 jmp	 SHORT $LN2@Uninitiali
$LN3@Uninitiali:

; 1734 : 
; 1735 :     return _Backout._Release();

  00168	8d 4d 88	 lea	 ecx, DWORD PTR __Backout$[ebp]
  0016b	e8 00 00 00 00	 call	 ?_Release@?$_Uninitialized_backout_al@V?$allocator@PAVTexture@sf@@@std@@@std@@QAEPAPAVTexture@sf@@XZ ; std::_Uninitialized_backout_al<std::allocator<sf::Texture *> >::_Release
  00170	89 45 d0	 mov	 DWORD PTR $T3[ebp], eax
  00173	c7 45 fc ff ff
	ff ff		 mov	 DWORD PTR __$EHRec$[ebp+8], -1
  0017a	8d 4d 88	 lea	 ecx, DWORD PTR __Backout$[ebp]
  0017d	e8 00 00 00 00	 call	 ??1?$_Uninitialized_backout_al@V?$allocator@PAVTexture@sf@@@std@@@std@@QAE@XZ ; std::_Uninitialized_backout_al<std::allocator<sf::Texture *> >::~_Uninitialized_backout_al<std::allocator<sf::Texture *> >
  00182	8b 55 d0	 mov	 edx, DWORD PTR $T3[ebp]
  00185	89 55 d8	 mov	 DWORD PTR tv130[ebp], edx
  00188	c7 85 78 ff ff
	ff 0e 36 e0 45	 mov	 DWORD PTR __asan_gen_0$[ebp], 1172321806 ; 45e0360eH
  00192	8d 85 78 ff ff
	ff		 lea	 eax, DWORD PTR __asan_gen_0$[ebp]
  00198	c1 e8 03	 shr	 eax, 3
  0019b	05 00 00 00 30	 add	 eax, 805306368		; 30000000H
  001a0	89 45 d4	 mov	 DWORD PTR tv142[ebp], eax
  001a3	6a 08		 push	 8
  001a5	8b 4d d4	 mov	 ecx, DWORD PTR tv142[ebp]
  001a8	51		 push	 ecx
  001a9	e8 00 00 00 00	 call	 ___asan_set_shadow_00
  001ae	83 c4 08	 add	 esp, 8
  001b1	8b 45 d8	 mov	 eax, DWORD PTR tv130[ebp]
$LN1@Uninitiali:

; 1736 : }

  001b4	8b 4d f4	 mov	 ecx, DWORD PTR __$EHRec$[ebp]
  001b7	64 89 0d 00 00
	00 00		 mov	 DWORD PTR fs:0, ecx
  001be	59		 pop	 ecx
  001bf	8b 4d dc	 mov	 ecx, DWORD PTR __$ArrayPad$[ebp]
  001c2	33 cd		 xor	 ecx, ebp
  001c4	e8 00 00 00 00	 call	 @__security_check_cookie@4
  001c9	8b e5		 mov	 esp, ebp
  001cb	5d		 pop	 ebp
  001cc	8b e3		 mov	 esp, ebx
  001ce	5b		 pop	 ebx
  001cf	c3		 ret	 0
_TEXT	ENDS
;	COMDAT text$x
text$x	SEGMENT
__unwindfunclet$??$_Uninitialized_move@PAPAVTexture@sf@@V?$allocator@PAVTexture@sf@@@std@@@std@@YAPAPAVTexture@sf@@QAPAV12@0PAPAV12@AAV?$allocator@PAVTexture@sf@@@0@@Z$0:
  00000	8d 4d 88	 lea	 ecx, DWORD PTR __Backout$[ebp]
  00003	e9 00 00 00 00	 jmp	 ??1?$_Uninitialized_backout_al@V?$allocator@PAVTexture@sf@@@std@@@std@@QAE@XZ ; std::_Uninitialized_backout_al<std::allocator<sf::Texture *> >::~_Uninitialized_backout_al<std::allocator<sf::Texture *> >
  00008	cc		 int	 3
  00009	cc		 int	 3
  0000a	cc		 int	 3
  0000b	cc		 int	 3
  0000c	cc		 int	 3
__ehhandler$??$_Uninitialized_move@PAPAVTexture@sf@@V?$allocator@PAVTexture@sf@@@std@@@std@@YAPAPAVTexture@sf@@QAPAV12@0PAPAV12@AAV?$allocator@PAVTexture@sf@@@0@@Z:
  0000d	90		 npad	 1
  0000e	90		 npad	 1
  0000f	8b 54 24 08	 mov	 edx, DWORD PTR [esp+8]
  00013	8d 42 0c	 lea	 eax, DWORD PTR [edx+12]
  00016	8b 8a 68 ff ff
	ff		 mov	 ecx, DWORD PTR [edx-152]
  0001c	33 c8		 xor	 ecx, eax
  0001e	e8 00 00 00 00	 call	 @__security_check_cookie@4
  00023	8b 4a e8	 mov	 ecx, DWORD PTR [edx-24]
  00026	33 c8		 xor	 ecx, eax
  00028	e8 00 00 00 00	 call	 @__security_check_cookie@4
  0002d	b8 00 00 00 00	 mov	 eax, OFFSET __ehfuncinfo$??$_Uninitialized_move@PAPAVTexture@sf@@V?$allocator@PAVTexture@sf@@@std@@@std@@YAPAPAVTexture@sf@@QAPAV12@0PAPAV12@AAV?$allocator@PAVTexture@sf@@@0@@Z
  00032	e9 00 00 00 00	 jmp	 ___CxxFrameHandler3
text$x	ENDS
??$_Uninitialized_move@PAPAVTexture@sf@@V?$allocator@PAVTexture@sf@@@std@@@std@@YAPAPAVTexture@sf@@QAPAV12@0PAPAV12@AAV?$allocator@PAVTexture@sf@@@0@@Z ENDP ; std::_Uninitialized_move<sf::Texture * *,std::allocator<sf::Texture *> >
; Function compile flags: /Odtp /RTCu
; File C:\Program Files (x86)\Microsoft Visual Studio\2019\Community\VC\Tools\MSVC\14.29.30133\include\xmemory
;	COMDAT ??$_Allocate_manually_vector_aligned@U_Default_allocate_traits@std@@@std@@YAPAXI@Z
_TEXT	SEGMENT
tv90 = -32						; size = 4
tv88 = -28						; size = 4
__Block_size$ = -24					; size = 4
__Ptr$ = -20						; size = 4
tv128 = -16						; size = 4
__Ptr_container$ = -12					; size = 4
tv138 = -8						; size = 4
tv131 = -2						; size = 1
tv141 = -1						; size = 1
__Bytes$ = 8						; size = 4
??$_Allocate_manually_vector_aligned@U_Default_allocate_traits@std@@@std@@YAPAXI@Z PROC ; std::_Allocate_manually_vector_aligned<std::_Default_allocate_traits>, COMDAT

; 134  : __declspec(allocator) void* _Allocate_manually_vector_aligned(const size_t _Bytes) {

  00000	55		 push	 ebp
  00001	8b ec		 mov	 ebp, esp
  00003	83 ec 20	 sub	 esp, 32			; 00000020H
  00006	b9 00 00 00 00	 mov	 ecx, OFFSET __79D216CD_xmemory
  0000b	e8 00 00 00 00	 call	 @__CheckForDebuggerJustMyCode@4

; 135  :     // allocate _Bytes manually aligned to at least _Big_allocation_alignment
; 136  :     const size_t _Block_size = _Non_user_size + _Bytes;

  00010	8b 45 08	 mov	 eax, DWORD PTR __Bytes$[ebp]
  00013	83 c0 27	 add	 eax, 39			; 00000027H
  00016	89 45 e8	 mov	 DWORD PTR __Block_size$[ebp], eax

; 137  :     if (_Block_size <= _Bytes) {

  00019	8b 4d e8	 mov	 ecx, DWORD PTR __Block_size$[ebp]
  0001c	3b 4d 08	 cmp	 ecx, DWORD PTR __Bytes$[ebp]
  0001f	77 05		 ja	 SHORT $LN8@Allocate_m

; 138  :         _Throw_bad_array_new_length(); // add overflow

  00021	e8 00 00 00 00	 call	 ?_Throw_bad_array_new_length@std@@YAXXZ ; std::_Throw_bad_array_new_length
$LN8@Allocate_m:

; 139  :     }
; 140  : 
; 141  :     const uintptr_t _Ptr_container = reinterpret_cast<uintptr_t>(_Traits::_Allocate(_Block_size));

  00026	8b 55 e8	 mov	 edx, DWORD PTR __Block_size$[ebp]
  00029	52		 push	 edx
  0002a	e8 00 00 00 00	 call	 ?_Allocate@_Default_allocate_traits@std@@SAPAXI@Z ; std::_Default_allocate_traits::_Allocate
  0002f	83 c4 04	 add	 esp, 4
  00032	89 45 f4	 mov	 DWORD PTR __Ptr_container$[ebp], eax
$LN4@Allocate_m:

; 142  :     _STL_VERIFY(_Ptr_container != 0, "invalid argument"); // validate even in release since we're doing p[-1]

  00035	83 7d f4 00	 cmp	 DWORD PTR __Ptr_container$[ebp], 0
  00039	74 02		 je	 SHORT $LN7@Allocate_m
  0003b	eb 4a		 jmp	 SHORT $LN2@Allocate_m
$LN7@Allocate_m:
  0003d	68 00 00 00 00	 push	 OFFSET $SG90610
  00042	68 00 00 00 00	 push	 OFFSET $SG90611
  00047	6a 00		 push	 0
  00049	68 8e 00 00 00	 push	 142			; 0000008eH
  0004e	68 00 00 00 00	 push	 OFFSET $SG90612
  00053	6a 02		 push	 2
  00055	ff 15 00 00 00
	00		 call	 DWORD PTR __imp___CrtDbgReport
  0005b	83 c4 18	 add	 esp, 24			; 00000018H
  0005e	83 f8 01	 cmp	 eax, 1
  00061	75 01		 jne	 SHORT $LN12@Allocate_m
  00063	cc		 int	 3
$LN12@Allocate_m:
  00064	6a 00		 push	 0
  00066	68 8e 00 00 00	 push	 142			; 0000008eH
  0006b	68 00 00 00 00	 push	 OFFSET $SG90613
  00070	68 00 00 00 00	 push	 OFFSET $SG90614
  00075	68 00 00 00 00	 push	 OFFSET $SG90615
  0007a	ff 15 00 00 00
	00		 call	 DWORD PTR __imp___invalid_parameter
  00080	83 c4 14	 add	 esp, 20			; 00000014H
  00083	33 c9		 xor	 ecx, ecx
  00085	75 b6		 jne	 SHORT $LN7@Allocate_m
$LN2@Allocate_m:
  00087	33 d2		 xor	 edx, edx
  00089	75 aa		 jne	 SHORT $LN4@Allocate_m

; 143  :     void* const _Ptr = reinterpret_cast<void*>((_Ptr_container + _Non_user_size) & ~(_Big_allocation_alignment - 1));

  0008b	8b 45 f4	 mov	 eax, DWORD PTR __Ptr_container$[ebp]
  0008e	83 c0 27	 add	 eax, 39			; 00000027H
  00091	83 e0 e0	 and	 eax, -32		; ffffffe0H
  00094	89 45 ec	 mov	 DWORD PTR __Ptr$[ebp], eax

; 144  :     static_cast<uintptr_t*>(_Ptr)[-1] = _Ptr_container;

  00097	b9 04 00 00 00	 mov	 ecx, 4
  0009c	6b d1 ff	 imul	 edx, ecx, -1
  0009f	8b 45 ec	 mov	 eax, DWORD PTR __Ptr$[ebp]
  000a2	03 c2		 add	 eax, edx
  000a4	89 45 e4	 mov	 DWORD PTR tv88[ebp], eax
  000a7	8b 4d e4	 mov	 ecx, DWORD PTR tv88[ebp]
  000aa	89 4d f8	 mov	 DWORD PTR tv138[ebp], ecx
  000ad	8b 55 f8	 mov	 edx, DWORD PTR tv138[ebp]
  000b0	c1 ea 03	 shr	 edx, 3
  000b3	8a 82 00 00 00
	30		 mov	 al, BYTE PTR [edx+805306368]
  000b9	88 45 ff	 mov	 BYTE PTR tv141[ebp], al
  000bc	80 7d ff 00	 cmp	 BYTE PTR tv141[ebp], 0
  000c0	74 1a		 je	 SHORT $LN14@Allocate_m
  000c2	8a 4d f8	 mov	 cl, BYTE PTR tv138[ebp]
  000c5	80 e1 07	 and	 cl, 7
  000c8	80 c1 03	 add	 cl, 3
  000cb	3a 4d ff	 cmp	 cl, BYTE PTR tv141[ebp]
  000ce	7c 0c		 jl	 SHORT $LN14@Allocate_m
  000d0	8b 55 f8	 mov	 edx, DWORD PTR tv138[ebp]
  000d3	52		 push	 edx
  000d4	e8 00 00 00 00	 call	 ___asan_report_store4
  000d9	83 c4 04	 add	 esp, 4
$LN14@Allocate_m:
  000dc	8b 45 e4	 mov	 eax, DWORD PTR tv88[ebp]
  000df	8b 4d f4	 mov	 ecx, DWORD PTR __Ptr_container$[ebp]
  000e2	89 08		 mov	 DWORD PTR [eax], ecx

; 145  : 
; 146  : #ifdef _DEBUG
; 147  :     static_cast<uintptr_t*>(_Ptr)[-2] = _Big_allocation_sentinel;

  000e4	ba 04 00 00 00	 mov	 edx, 4
  000e9	6b c2 fe	 imul	 eax, edx, -2
  000ec	8b 4d ec	 mov	 ecx, DWORD PTR __Ptr$[ebp]
  000ef	03 c8		 add	 ecx, eax
  000f1	89 4d e0	 mov	 DWORD PTR tv90[ebp], ecx
  000f4	8b 55 e0	 mov	 edx, DWORD PTR tv90[ebp]
  000f7	89 55 f0	 mov	 DWORD PTR tv128[ebp], edx
  000fa	8b 45 f0	 mov	 eax, DWORD PTR tv128[ebp]
  000fd	c1 e8 03	 shr	 eax, 3
  00100	8a 88 00 00 00
	30		 mov	 cl, BYTE PTR [eax+805306368]
  00106	88 4d fe	 mov	 BYTE PTR tv131[ebp], cl
  00109	80 7d fe 00	 cmp	 BYTE PTR tv131[ebp], 0
  0010d	74 1a		 je	 SHORT $LN13@Allocate_m
  0010f	8a 55 f0	 mov	 dl, BYTE PTR tv128[ebp]
  00112	80 e2 07	 and	 dl, 7
  00115	80 c2 03	 add	 dl, 3
  00118	3a 55 fe	 cmp	 dl, BYTE PTR tv131[ebp]
  0011b	7c 0c		 jl	 SHORT $LN13@Allocate_m
  0011d	8b 45 f0	 mov	 eax, DWORD PTR tv128[ebp]
  00120	50		 push	 eax
  00121	e8 00 00 00 00	 call	 ___asan_report_store4
  00126	83 c4 04	 add	 esp, 4
$LN13@Allocate_m:
  00129	8b 4d e0	 mov	 ecx, DWORD PTR tv90[ebp]
  0012c	c7 01 fa fa fa
	fa		 mov	 DWORD PTR [ecx], -84215046 ; fafafafaH

; 148  : #endif // _DEBUG
; 149  :     return _Ptr;

  00132	8b 45 ec	 mov	 eax, DWORD PTR __Ptr$[ebp]
$LN11@Allocate_m:

; 150  : }

  00135	8b e5		 mov	 esp, ebp
  00137	5d		 pop	 ebp
  00138	c3		 ret	 0
??$_Allocate_manually_vector_aligned@U_Default_allocate_traits@std@@@std@@YAPAXI@Z ENDP ; std::_Allocate_manually_vector_aligned<std::_Default_allocate_traits>
_TEXT	ENDS
; Function compile flags: /Odtp /RTCu
; File C:\Program Files (x86)\Microsoft Visual Studio\2019\Community\VC\Tools\MSVC\14.29.30133\include\xmemory
;	COMDAT ??1?$_Tidy_guard@V?$vector@PAVSprite@sf@@V?$allocator@PAVSprite@sf@@@std@@@std@@@std@@QAE@XZ
_TEXT	SEGMENT
tv66 = -24						; size = 4
_this$ = -20						; size = 4
tv64 = -16						; size = 4
tv73 = -12						; size = 4
tv83 = -8						; size = 4
tv76 = -2						; size = 1
tv86 = -1						; size = 1
??1?$_Tidy_guard@V?$vector@PAVSprite@sf@@V?$allocator@PAVSprite@sf@@@std@@@std@@@std@@QAE@XZ PROC ; std::_Tidy_guard<std::vector<sf::Sprite *,std::allocator<sf::Sprite *> > >::~_Tidy_guard<std::vector<sf::Sprite *,std::allocator<sf::Sprite *> > >, COMDAT
; _this$ = ecx

; 34   :     _CONSTEXPR20_DYNALLOC ~_Tidy_guard() {

  00000	55		 push	 ebp
  00001	8b ec		 mov	 ebp, esp
  00003	83 ec 18	 sub	 esp, 24			; 00000018H
  00006	89 4d ec	 mov	 DWORD PTR _this$[ebp], ecx
  00009	b9 00 00 00 00	 mov	 ecx, OFFSET __79D216CD_xmemory
  0000e	e8 00 00 00 00	 call	 @__CheckForDebuggerJustMyCode@4

; 35   :         if (_Target) {

  00013	8b 45 ec	 mov	 eax, DWORD PTR _this$[ebp]
  00016	89 45 f0	 mov	 DWORD PTR tv64[ebp], eax
  00019	8b 4d f0	 mov	 ecx, DWORD PTR tv64[ebp]
  0001c	89 4d f8	 mov	 DWORD PTR tv83[ebp], ecx
  0001f	8b 55 f8	 mov	 edx, DWORD PTR tv83[ebp]
  00022	c1 ea 03	 shr	 edx, 3
  00025	8a 82 00 00 00
	30		 mov	 al, BYTE PTR [edx+805306368]
  0002b	88 45 ff	 mov	 BYTE PTR tv86[ebp], al
  0002e	80 7d ff 00	 cmp	 BYTE PTR tv86[ebp], 0
  00032	74 1a		 je	 SHORT $LN5@Tidy_guard
  00034	8a 4d f8	 mov	 cl, BYTE PTR tv83[ebp]
  00037	80 e1 07	 and	 cl, 7
  0003a	80 c1 03	 add	 cl, 3
  0003d	3a 4d ff	 cmp	 cl, BYTE PTR tv86[ebp]
  00040	7c 0c		 jl	 SHORT $LN5@Tidy_guard
  00042	8b 55 f8	 mov	 edx, DWORD PTR tv83[ebp]
  00045	52		 push	 edx
  00046	e8 00 00 00 00	 call	 ___asan_report_load4
  0004b	83 c4 04	 add	 esp, 4
$LN5@Tidy_guard:
  0004e	8b 45 f0	 mov	 eax, DWORD PTR tv64[ebp]
  00051	83 38 00	 cmp	 DWORD PTR [eax], 0
  00054	74 45		 je	 SHORT $LN3@Tidy_guard

; 36   :             _Target->_Tidy();

  00056	8b 4d ec	 mov	 ecx, DWORD PTR _this$[ebp]
  00059	89 4d e8	 mov	 DWORD PTR tv66[ebp], ecx
  0005c	8b 55 e8	 mov	 edx, DWORD PTR tv66[ebp]
  0005f	89 55 f4	 mov	 DWORD PTR tv73[ebp], edx
  00062	8b 45 f4	 mov	 eax, DWORD PTR tv73[ebp]
  00065	c1 e8 03	 shr	 eax, 3
  00068	8a 88 00 00 00
	30		 mov	 cl, BYTE PTR [eax+805306368]
  0006e	88 4d fe	 mov	 BYTE PTR tv76[ebp], cl
  00071	80 7d fe 00	 cmp	 BYTE PTR tv76[ebp], 0
  00075	74 1a		 je	 SHORT $LN4@Tidy_guard
  00077	8a 55 f4	 mov	 dl, BYTE PTR tv73[ebp]
  0007a	80 e2 07	 and	 dl, 7
  0007d	80 c2 03	 add	 dl, 3
  00080	3a 55 fe	 cmp	 dl, BYTE PTR tv76[ebp]
  00083	7c 0c		 jl	 SHORT $LN4@Tidy_guard
  00085	8b 45 f4	 mov	 eax, DWORD PTR tv73[ebp]
  00088	50		 push	 eax
  00089	e8 00 00 00 00	 call	 ___asan_report_load4
  0008e	83 c4 04	 add	 esp, 4
$LN4@Tidy_guard:
  00091	8b 4d e8	 mov	 ecx, DWORD PTR tv66[ebp]
  00094	8b 09		 mov	 ecx, DWORD PTR [ecx]
  00096	e8 00 00 00 00	 call	 ?_Tidy@?$vector@PAVSprite@sf@@V?$allocator@PAVSprite@sf@@@std@@@std@@AAEXXZ ; std::vector<sf::Sprite *,std::allocator<sf::Sprite *> >::_Tidy
$LN3@Tidy_guard:

; 37   :         }
; 38   :     }

  0009b	8b e5		 mov	 esp, ebp
  0009d	5d		 pop	 ebp
  0009e	c3		 ret	 0
??1?$_Tidy_guard@V?$vector@PAVSprite@sf@@V?$allocator@PAVSprite@sf@@@std@@@std@@@std@@QAE@XZ ENDP ; std::_Tidy_guard<std::vector<sf::Sprite *,std::allocator<sf::Sprite *> > >::~_Tidy_guard<std::vector<sf::Sprite *,std::allocator<sf::Sprite *> > >
_TEXT	ENDS
; Function compile flags: /Odtp /RTCu
; File C:\Program Files (x86)\Microsoft Visual Studio\2019\Community\VC\Tools\MSVC\14.29.30133\include\type_traits
;	COMDAT ??$forward@ABV?$allocator@PAVSprite@sf@@@std@@@std@@YAABV?$allocator@PAVSprite@sf@@@0@ABV10@@Z
_TEXT	SEGMENT
__Arg$ = 8						; size = 4
??$forward@ABV?$allocator@PAVSprite@sf@@@std@@@std@@YAABV?$allocator@PAVSprite@sf@@@0@ABV10@@Z PROC ; std::forward<std::allocator<sf::Sprite *> const &>, COMDAT

; 1443 :     remove_reference_t<_Ty>& _Arg) noexcept { // forward an lvalue as either an lvalue or an rvalue

  00000	55		 push	 ebp
  00001	8b ec		 mov	 ebp, esp
  00003	b9 00 00 00 00	 mov	 ecx, OFFSET __589FA321_type_traits
  00008	e8 00 00 00 00	 call	 @__CheckForDebuggerJustMyCode@4

; 1444 :     return static_cast<_Ty&&>(_Arg);

  0000d	8b 45 08	 mov	 eax, DWORD PTR __Arg$[ebp]

; 1445 : }

  00010	5d		 pop	 ebp
  00011	c3		 ret	 0
??$forward@ABV?$allocator@PAVSprite@sf@@@std@@@std@@YAABV?$allocator@PAVSprite@sf@@@0@ABV10@@Z ENDP ; std::forward<std::allocator<sf::Sprite *> const &>
_TEXT	ENDS
; Function compile flags: /Odtp /RTCu
; File C:\Program Files (x86)\Microsoft Visual Studio\2019\Community\VC\Tools\MSVC\14.29.30133\include\xmemory
;	COMDAT ??$_Deallocate_plain@V?$allocator@U_Container_proxy@std@@@std@@@std@@YAXAAV?$allocator@U_Container_proxy@std@@@0@QAU_Container_proxy@0@@Z
_TEXT	SEGMENT
__$EHRec$ = -12						; size = 12
__Al$ = 8						; size = 4
__Ptr$ = 12						; size = 4
??$_Deallocate_plain@V?$allocator@U_Container_proxy@std@@@std@@@std@@YAXAAV?$allocator@U_Container_proxy@std@@@0@QAU_Container_proxy@0@@Z PROC ; std::_Deallocate_plain<std::allocator<std::_Container_proxy> >, COMDAT

; 985  : _CONSTEXPR20_DYNALLOC void _Deallocate_plain(_Alloc& _Al, typename _Alloc::value_type* const _Ptr) noexcept {

  00000	55		 push	 ebp
  00001	8b ec		 mov	 ebp, esp
  00003	6a ff		 push	 -1
  00005	68 00 00 00 00	 push	 __ehhandler$??$_Deallocate_plain@V?$allocator@U_Container_proxy@std@@@std@@@std@@YAXAAV?$allocator@U_Container_proxy@std@@@0@QAU_Container_proxy@0@@Z
  0000a	64 a1 00 00 00
	00		 mov	 eax, DWORD PTR fs:0
  00010	50		 push	 eax
  00011	a1 00 00 00 00	 mov	 eax, DWORD PTR ___security_cookie
  00016	33 c5		 xor	 eax, ebp
  00018	50		 push	 eax
  00019	8d 45 f4	 lea	 eax, DWORD PTR __$EHRec$[ebp]
  0001c	64 a3 00 00 00
	00		 mov	 DWORD PTR fs:0, eax
  00022	b9 00 00 00 00	 mov	 ecx, OFFSET __79D216CD_xmemory
  00027	e8 00 00 00 00	 call	 @__CheckForDebuggerJustMyCode@4

; 986  :     // deallocate a plain pointer using an allocator
; 987  :     using _Alloc_traits = allocator_traits<_Alloc>;
; 988  :     if constexpr (is_same_v<_Alloc_ptr_t<_Alloc>, typename _Alloc::value_type*>) {
; 989  :         _Alloc_traits::deallocate(_Al, _Ptr, 1);

  0002c	6a 01		 push	 1
  0002e	8b 45 0c	 mov	 eax, DWORD PTR __Ptr$[ebp]
  00031	50		 push	 eax
  00032	8b 4d 08	 mov	 ecx, DWORD PTR __Al$[ebp]
  00035	51		 push	 ecx
  00036	e8 00 00 00 00	 call	 ?deallocate@?$_Default_allocator_traits@V?$allocator@U_Container_proxy@std@@@std@@@std@@SAXAAV?$allocator@U_Container_proxy@std@@@2@QAU_Container_proxy@2@I@Z ; std::_Default_allocator_traits<std::allocator<std::_Container_proxy> >::deallocate
  0003b	83 c4 0c	 add	 esp, 12			; 0000000cH

; 990  :     } else {
; 991  :         using _Ptr_traits = pointer_traits<_Alloc_ptr_t<_Alloc>>;
; 992  :         _Alloc_traits::deallocate(_Al, _Ptr_traits::pointer_to(*_Ptr), 1);
; 993  :     }
; 994  : }

  0003e	8b 4d f4	 mov	 ecx, DWORD PTR __$EHRec$[ebp]
  00041	64 89 0d 00 00
	00 00		 mov	 DWORD PTR fs:0, ecx
  00048	59		 pop	 ecx
  00049	8b e5		 mov	 esp, ebp
  0004b	5d		 pop	 ebp
  0004c	c3		 ret	 0
  0004d	cc		 int	 3
  0004e	cc		 int	 3
  0004f	cc		 int	 3
  00050	cc		 int	 3
  00051	cc		 int	 3
_TEXT	ENDS
;	COMDAT text$x
text$x	SEGMENT
__ehhandler$??$_Deallocate_plain@V?$allocator@U_Container_proxy@std@@@std@@@std@@YAXAAV?$allocator@U_Container_proxy@std@@@0@QAU_Container_proxy@0@@Z:
  00000	90		 npad	 1
  00001	90		 npad	 1
  00002	8b 54 24 08	 mov	 edx, DWORD PTR [esp+8]
  00006	8d 42 0c	 lea	 eax, DWORD PTR [edx+12]
  00009	8b 4a fc	 mov	 ecx, DWORD PTR [edx-4]
  0000c	33 c8		 xor	 ecx, eax
  0000e	e8 00 00 00 00	 call	 @__security_check_cookie@4
  00013	b8 00 00 00 00	 mov	 eax, OFFSET __ehfuncinfo$??$_Deallocate_plain@V?$allocator@U_Container_proxy@std@@@std@@@std@@YAXAAV?$allocator@U_Container_proxy@std@@@0@QAU_Container_proxy@0@@Z
  00018	e9 00 00 00 00	 jmp	 ___CxxFrameHandler3
text$x	ENDS
??$_Deallocate_plain@V?$allocator@U_Container_proxy@std@@@std@@@std@@YAXAAV?$allocator@U_Container_proxy@std@@@0@QAU_Container_proxy@0@@Z ENDP ; std::_Deallocate_plain<std::allocator<std::_Container_proxy> >
; Function compile flags: /Odtp /RTCu
; File C:\Program Files (x86)\Microsoft Visual Studio\2019\Community\VC\Tools\MSVC\14.29.30133\include\xutility
;	COMDAT ??$_Voidify_iter@PAPAVTexture@sf@@@std@@YAPAXPAPAVTexture@sf@@@Z
_TEXT	SEGMENT
__It$ = 8						; size = 4
??$_Voidify_iter@PAPAVTexture@sf@@@std@@YAPAXPAPAVTexture@sf@@@Z PROC ; std::_Voidify_iter<sf::Texture * *>, COMDAT

; 130  : _NODISCARD constexpr void* _Voidify_iter(_Iter _It) noexcept {

  00000	55		 push	 ebp
  00001	8b ec		 mov	 ebp, esp
  00003	b9 00 00 00 00	 mov	 ecx, OFFSET __12269DE6_xutility
  00008	e8 00 00 00 00	 call	 @__CheckForDebuggerJustMyCode@4

; 131  :     if constexpr (is_pointer_v<_Iter>) {
; 132  :         return const_cast<void*>(static_cast<const volatile void*>(_It));

  0000d	8b 45 08	 mov	 eax, DWORD PTR __It$[ebp]

; 133  :     } else {
; 134  :         return const_cast<void*>(static_cast<const volatile void*>(_STD addressof(*_It)));
; 135  :     }
; 136  : }

  00010	5d		 pop	 ebp
  00011	c3		 ret	 0
??$_Voidify_iter@PAPAVTexture@sf@@@std@@YAPAXPAPAVTexture@sf@@@Z ENDP ; std::_Voidify_iter<sf::Texture * *>
_TEXT	ENDS
; Function compile flags: /Odtp /RTCu
; File C:\Program Files (x86)\Microsoft Visual Studio\2019\Community\VC\Tools\MSVC\14.29.30133\include\xutility
;	COMDAT ??$construct_at@PAVTexture@sf@@ABQAV12@X@std@@YAPAPAVTexture@sf@@QAPAV12@ABQAV12@@Z
_TEXT	SEGMENT
tv77 = -24						; size = 4
tv72 = -20						; size = 4
$T1 = -16						; size = 4
tv80 = -12						; size = 4
tv90 = -8						; size = 4
tv83 = -2						; size = 1
tv93 = -1						; size = 1
__Location$ = 8						; size = 4
_<_Args_0>$ = 12					; size = 4
??$construct_at@PAVTexture@sf@@ABQAV12@X@std@@YAPAPAVTexture@sf@@QAPAV12@ABQAV12@@Z PROC ; std::construct_at<sf::Texture *,sf::Texture * const &,void>, COMDAT

; 143  :     noexcept(::new (_Voidify_iter(_Location)) _Ty(_STD forward<_Types>(_Args)...))) /* strengthened */ {

  00000	55		 push	 ebp
  00001	8b ec		 mov	 ebp, esp
  00003	83 ec 18	 sub	 esp, 24			; 00000018H
  00006	b9 00 00 00 00	 mov	 ecx, OFFSET __12269DE6_xutility
  0000b	e8 00 00 00 00	 call	 @__CheckForDebuggerJustMyCode@4

; 144  :     return ::new (_Voidify_iter(_Location)) _Ty(_STD forward<_Types>(_Args)...);

  00010	8b 45 08	 mov	 eax, DWORD PTR __Location$[ebp]
  00013	50		 push	 eax
  00014	e8 00 00 00 00	 call	 ??$_Voidify_iter@PAPAVTexture@sf@@@std@@YAPAXPAPAVTexture@sf@@@Z ; std::_Voidify_iter<sf::Texture * *>
  00019	83 c4 04	 add	 esp, 4
  0001c	50		 push	 eax
  0001d	6a 04		 push	 4
  0001f	e8 00 00 00 00	 call	 ??2@YAPAXIPAX@Z		; operator new
  00024	83 c4 08	 add	 esp, 8
  00027	89 45 f0	 mov	 DWORD PTR $T1[ebp], eax
  0002a	8b 4d 0c	 mov	 ecx, DWORD PTR _<_Args_0>$[ebp]
  0002d	51		 push	 ecx
  0002e	e8 00 00 00 00	 call	 ??$forward@ABQAVTexture@sf@@@std@@YAABQAVTexture@sf@@ABQAV12@@Z ; std::forward<sf::Texture * const &>
  00033	83 c4 04	 add	 esp, 4
  00036	89 45 ec	 mov	 DWORD PTR tv72[ebp], eax
  00039	8b 55 ec	 mov	 edx, DWORD PTR tv72[ebp]
  0003c	89 55 f8	 mov	 DWORD PTR tv90[ebp], edx
  0003f	8b 45 f8	 mov	 eax, DWORD PTR tv90[ebp]
  00042	c1 e8 03	 shr	 eax, 3
  00045	8a 88 00 00 00
	30		 mov	 cl, BYTE PTR [eax+805306368]
  0004b	88 4d ff	 mov	 BYTE PTR tv93[ebp], cl
  0004e	80 7d ff 00	 cmp	 BYTE PTR tv93[ebp], 0
  00052	74 1a		 je	 SHORT $LN4@construct_
  00054	8a 55 f8	 mov	 dl, BYTE PTR tv90[ebp]
  00057	80 e2 07	 and	 dl, 7
  0005a	80 c2 03	 add	 dl, 3
  0005d	3a 55 ff	 cmp	 dl, BYTE PTR tv93[ebp]
  00060	7c 0c		 jl	 SHORT $LN4@construct_
  00062	8b 45 f8	 mov	 eax, DWORD PTR tv90[ebp]
  00065	50		 push	 eax
  00066	e8 00 00 00 00	 call	 ___asan_report_load4
  0006b	83 c4 04	 add	 esp, 4
$LN4@construct_:
  0006e	8b 4d f0	 mov	 ecx, DWORD PTR $T1[ebp]
  00071	89 4d e8	 mov	 DWORD PTR tv77[ebp], ecx
  00074	8b 55 e8	 mov	 edx, DWORD PTR tv77[ebp]
  00077	89 55 f4	 mov	 DWORD PTR tv80[ebp], edx
  0007a	8b 45 f4	 mov	 eax, DWORD PTR tv80[ebp]
  0007d	c1 e8 03	 shr	 eax, 3
  00080	8a 88 00 00 00
	30		 mov	 cl, BYTE PTR [eax+805306368]
  00086	88 4d fe	 mov	 BYTE PTR tv83[ebp], cl
  00089	80 7d fe 00	 cmp	 BYTE PTR tv83[ebp], 0
  0008d	74 1a		 je	 SHORT $LN3@construct_
  0008f	8a 55 f4	 mov	 dl, BYTE PTR tv80[ebp]
  00092	80 e2 07	 and	 dl, 7
  00095	80 c2 03	 add	 dl, 3
  00098	3a 55 fe	 cmp	 dl, BYTE PTR tv83[ebp]
  0009b	7c 0c		 jl	 SHORT $LN3@construct_
  0009d	8b 45 f4	 mov	 eax, DWORD PTR tv80[ebp]
  000a0	50		 push	 eax
  000a1	e8 00 00 00 00	 call	 ___asan_report_store4
  000a6	83 c4 04	 add	 esp, 4
$LN3@construct_:
  000a9	8b 4d f0	 mov	 ecx, DWORD PTR $T1[ebp]
  000ac	8b 55 ec	 mov	 edx, DWORD PTR tv72[ebp]
  000af	8b 02		 mov	 eax, DWORD PTR [edx]
  000b1	89 01		 mov	 DWORD PTR [ecx], eax
  000b3	8b 45 f0	 mov	 eax, DWORD PTR $T1[ebp]

; 145  : }

  000b6	8b e5		 mov	 esp, ebp
  000b8	5d		 pop	 ebp
  000b9	c3		 ret	 0
??$construct_at@PAVTexture@sf@@ABQAV12@X@std@@YAPAPAVTexture@sf@@QAPAV12@ABQAV12@@Z ENDP ; std::construct_at<sf::Texture *,sf::Texture * const &,void>
_TEXT	ENDS
; Function compile flags: /Odtp /RTCu
; File C:\Program Files (x86)\Microsoft Visual Studio\2019\Community\VC\Tools\MSVC\14.29.30133\include\xutility
;	COMDAT ??$_Voidify_iter@PAU_Container_proxy@std@@@std@@YAPAXPAU_Container_proxy@0@@Z
_TEXT	SEGMENT
__It$ = 8						; size = 4
??$_Voidify_iter@PAU_Container_proxy@std@@@std@@YAPAXPAU_Container_proxy@0@@Z PROC ; std::_Voidify_iter<std::_Container_proxy *>, COMDAT

; 130  : _NODISCARD constexpr void* _Voidify_iter(_Iter _It) noexcept {

  00000	55		 push	 ebp
  00001	8b ec		 mov	 ebp, esp
  00003	b9 00 00 00 00	 mov	 ecx, OFFSET __12269DE6_xutility
  00008	e8 00 00 00 00	 call	 @__CheckForDebuggerJustMyCode@4

; 131  :     if constexpr (is_pointer_v<_Iter>) {
; 132  :         return const_cast<void*>(static_cast<const volatile void*>(_It));

  0000d	8b 45 08	 mov	 eax, DWORD PTR __It$[ebp]

; 133  :     } else {
; 134  :         return const_cast<void*>(static_cast<const volatile void*>(_STD addressof(*_It)));
; 135  :     }
; 136  : }

  00010	5d		 pop	 ebp
  00011	c3		 ret	 0
??$_Voidify_iter@PAU_Container_proxy@std@@@std@@YAPAXPAU_Container_proxy@0@@Z ENDP ; std::_Voidify_iter<std::_Container_proxy *>
_TEXT	ENDS
; Function compile flags: /Odtp /RTCu
; File C:\Program Files (x86)\Microsoft Visual Studio\2019\Community\VC\Tools\MSVC\14.29.30133\include\xutility
;	COMDAT ??$construct_at@U_Container_proxy@std@@PAU_Container_base12@2@X@std@@YAPAU_Container_proxy@0@QAU10@$$QAPAU_Container_base12@0@@Z
_TEXT	SEGMENT
$T1 = -20						; size = 4
tv78 = -16						; size = 4
tv74 = -12						; size = 4
tv82 = -8						; size = 4
tv85 = -1						; size = 1
__Location$ = 8						; size = 4
_<_Args_0>$ = 12					; size = 4
??$construct_at@U_Container_proxy@std@@PAU_Container_base12@2@X@std@@YAPAU_Container_proxy@0@QAU10@$$QAPAU_Container_base12@0@@Z PROC ; std::construct_at<std::_Container_proxy,std::_Container_base12 *,void>, COMDAT

; 143  :     noexcept(::new (_Voidify_iter(_Location)) _Ty(_STD forward<_Types>(_Args)...))) /* strengthened */ {

  00000	55		 push	 ebp
  00001	8b ec		 mov	 ebp, esp
  00003	83 ec 14	 sub	 esp, 20			; 00000014H
  00006	b9 00 00 00 00	 mov	 ecx, OFFSET __12269DE6_xutility
  0000b	e8 00 00 00 00	 call	 @__CheckForDebuggerJustMyCode@4

; 144  :     return ::new (_Voidify_iter(_Location)) _Ty(_STD forward<_Types>(_Args)...);

  00010	8b 45 08	 mov	 eax, DWORD PTR __Location$[ebp]
  00013	50		 push	 eax
  00014	e8 00 00 00 00	 call	 ??$_Voidify_iter@PAU_Container_proxy@std@@@std@@YAPAXPAU_Container_proxy@0@@Z ; std::_Voidify_iter<std::_Container_proxy *>
  00019	83 c4 04	 add	 esp, 4
  0001c	50		 push	 eax
  0001d	6a 08		 push	 8
  0001f	e8 00 00 00 00	 call	 ??2@YAPAXIPAX@Z		; operator new
  00024	83 c4 08	 add	 esp, 8
  00027	89 45 ec	 mov	 DWORD PTR $T1[ebp], eax
  0002a	8b 4d 0c	 mov	 ecx, DWORD PTR _<_Args_0>$[ebp]
  0002d	51		 push	 ecx
  0002e	e8 00 00 00 00	 call	 ??$forward@PAU_Container_base12@std@@@std@@YA$$QAPAU_Container_base12@0@AAPAU10@@Z ; std::forward<std::_Container_base12 *>
  00033	83 c4 04	 add	 esp, 4
  00036	89 45 f4	 mov	 DWORD PTR tv74[ebp], eax
  00039	8b 55 f4	 mov	 edx, DWORD PTR tv74[ebp]
  0003c	89 55 f8	 mov	 DWORD PTR tv82[ebp], edx
  0003f	8b 45 f8	 mov	 eax, DWORD PTR tv82[ebp]
  00042	c1 e8 03	 shr	 eax, 3
  00045	8a 88 00 00 00
	30		 mov	 cl, BYTE PTR [eax+805306368]
  0004b	88 4d ff	 mov	 BYTE PTR tv85[ebp], cl
  0004e	80 7d ff 00	 cmp	 BYTE PTR tv85[ebp], 0
  00052	74 1a		 je	 SHORT $LN3@construct_
  00054	8a 55 f8	 mov	 dl, BYTE PTR tv82[ebp]
  00057	80 e2 07	 and	 dl, 7
  0005a	80 c2 03	 add	 dl, 3
  0005d	3a 55 ff	 cmp	 dl, BYTE PTR tv85[ebp]
  00060	7c 0c		 jl	 SHORT $LN3@construct_
  00062	8b 45 f8	 mov	 eax, DWORD PTR tv82[ebp]
  00065	50		 push	 eax
  00066	e8 00 00 00 00	 call	 ___asan_report_load4
  0006b	83 c4 04	 add	 esp, 4
$LN3@construct_:
  0006e	8b 4d f4	 mov	 ecx, DWORD PTR tv74[ebp]
  00071	8b 11		 mov	 edx, DWORD PTR [ecx]
  00073	89 55 f0	 mov	 DWORD PTR tv78[ebp], edx
  00076	8b 45 f0	 mov	 eax, DWORD PTR tv78[ebp]
  00079	50		 push	 eax
  0007a	8b 4d ec	 mov	 ecx, DWORD PTR $T1[ebp]
  0007d	e8 00 00 00 00	 call	 ??0_Container_proxy@std@@QAE@PAU_Container_base12@1@@Z ; std::_Container_proxy::_Container_proxy

; 145  : }

  00082	8b e5		 mov	 esp, ebp
  00084	5d		 pop	 ebp
  00085	c3		 ret	 0
??$construct_at@U_Container_proxy@std@@PAU_Container_base12@2@X@std@@YAPAU_Container_proxy@0@QAU10@$$QAPAU_Container_base12@0@@Z ENDP ; std::construct_at<std::_Container_proxy,std::_Container_base12 *,void>
_TEXT	ENDS
; Function compile flags: /Odtp /RTCu
; File C:\Program Files (x86)\Microsoft Visual Studio\2019\Community\VC\Tools\MSVC\14.29.30133\include\type_traits
;	COMDAT ??$forward@PAU_Container_base12@std@@@std@@YA$$QAPAU_Container_base12@0@AAPAU10@@Z
_TEXT	SEGMENT
__Arg$ = 8						; size = 4
??$forward@PAU_Container_base12@std@@@std@@YA$$QAPAU_Container_base12@0@AAPAU10@@Z PROC ; std::forward<std::_Container_base12 *>, COMDAT

; 1443 :     remove_reference_t<_Ty>& _Arg) noexcept { // forward an lvalue as either an lvalue or an rvalue

  00000	55		 push	 ebp
  00001	8b ec		 mov	 ebp, esp
  00003	b9 00 00 00 00	 mov	 ecx, OFFSET __589FA321_type_traits
  00008	e8 00 00 00 00	 call	 @__CheckForDebuggerJustMyCode@4

; 1444 :     return static_cast<_Ty&&>(_Arg);

  0000d	8b 45 08	 mov	 eax, DWORD PTR __Arg$[ebp]

; 1445 : }

  00010	5d		 pop	 ebp
  00011	c3		 ret	 0
??$forward@PAU_Container_base12@std@@@std@@YA$$QAPAU_Container_base12@0@AAPAU10@@Z ENDP ; std::forward<std::_Container_base12 *>
_TEXT	ENDS
; Function compile flags: /Odtp /RTCu
; File C:\Program Files (x86)\Microsoft Visual Studio\2019\Community\VC\Tools\MSVC\14.29.30133\include\xstddef
;	COMDAT ??$addressof@U_Container_proxy@std@@@std@@YAPAU_Container_proxy@0@AAU10@@Z
_TEXT	SEGMENT
__Val$ = 8						; size = 4
??$addressof@U_Container_proxy@std@@@std@@YAPAU_Container_proxy@0@AAU10@@Z PROC ; std::addressof<std::_Container_proxy>, COMDAT

; 274  : _NODISCARD constexpr _Ty* addressof(_Ty& _Val) noexcept {

  00000	55		 push	 ebp
  00001	8b ec		 mov	 ebp, esp
  00003	b9 00 00 00 00	 mov	 ecx, OFFSET __E458E21C_xstddef
  00008	e8 00 00 00 00	 call	 @__CheckForDebuggerJustMyCode@4

; 275  :     return __builtin_addressof(_Val);

  0000d	8b 45 08	 mov	 eax, DWORD PTR __Val$[ebp]

; 276  : }

  00010	5d		 pop	 ebp
  00011	c3		 ret	 0
??$addressof@U_Container_proxy@std@@@std@@YAPAU_Container_proxy@0@AAU10@@Z ENDP ; std::addressof<std::_Container_proxy>
_TEXT	ENDS
; Function compile flags: /Odtp /RTCu
; File C:\Program Files (x86)\Microsoft Visual Studio\2019\Community\VC\Tools\MSVC\14.29.30133\include\xmemory
;	COMDAT ??$_Get_size_of_n@$03@std@@YAII@Z
_TEXT	SEGMENT
__Max_possible$1 = -8					; size = 4
__Overflow_is_possible$ = -1				; size = 1
__Count$ = 8						; size = 4
??$_Get_size_of_n@$03@std@@YAII@Z PROC			; std::_Get_size_of_n<4>, COMDAT

; 59   : _NODISCARD constexpr size_t _Get_size_of_n(const size_t _Count) {

  00000	55		 push	 ebp
  00001	8b ec		 mov	 ebp, esp
  00003	83 ec 08	 sub	 esp, 8
  00006	b9 00 00 00 00	 mov	 ecx, OFFSET __79D216CD_xmemory
  0000b	e8 00 00 00 00	 call	 @__CheckForDebuggerJustMyCode@4

; 60   :     constexpr bool _Overflow_is_possible = _Ty_size > 1;

  00010	c6 45 ff 01	 mov	 BYTE PTR __Overflow_is_possible$[ebp], 1

; 61   : 
; 62   :     if constexpr (_Overflow_is_possible) {
; 63   :         constexpr size_t _Max_possible = static_cast<size_t>(-1) / _Ty_size;

  00014	c7 45 f8 ff ff
	ff 3f		 mov	 DWORD PTR __Max_possible$1[ebp], 1073741823 ; 3fffffffH

; 64   :         if (_Count > _Max_possible) {

  0001b	81 7d 08 ff ff
	ff 3f		 cmp	 DWORD PTR __Count$[ebp], 1073741823 ; 3fffffffH
  00022	76 05		 jbe	 SHORT $LN2@Get_size_o

; 65   :             _Throw_bad_array_new_length(); // multiply overflow

  00024	e8 00 00 00 00	 call	 ?_Throw_bad_array_new_length@std@@YAXXZ ; std::_Throw_bad_array_new_length
$LN2@Get_size_o:

; 66   :         }
; 67   :     }
; 68   : 
; 69   :     return _Count * _Ty_size;

  00029	8b 45 08	 mov	 eax, DWORD PTR __Count$[ebp]
  0002c	c1 e0 02	 shl	 eax, 2
$LN3@Get_size_o:

; 70   : }

  0002f	8b e5		 mov	 esp, ebp
  00031	5d		 pop	 ebp
  00032	c3		 ret	 0
??$_Get_size_of_n@$03@std@@YAII@Z ENDP			; std::_Get_size_of_n<4>
_TEXT	ENDS
; Function compile flags: /Odtp /RTCu
; File C:\Program Files (x86)\Microsoft Visual Studio\2019\Community\VC\Tools\MSVC\14.29.30133\include\xmemory
;	COMDAT ??$_Destroy_range@V?$allocator@PAVSprite@sf@@@std@@@std@@YAXPAPAVSprite@sf@@QAPAV12@AAV?$allocator@PAVSprite@sf@@@0@@Z
_TEXT	SEGMENT
__First$ = 8						; size = 4
__Last$ = 12						; size = 4
__Al$ = 16						; size = 4
??$_Destroy_range@V?$allocator@PAVSprite@sf@@@std@@@std@@YAXPAPAVSprite@sf@@QAPAV12@AAV?$allocator@PAVSprite@sf@@@0@@Z PROC ; std::_Destroy_range<std::allocator<sf::Sprite *> >, COMDAT

; 945  :     _Alloc_ptr_t<_Alloc> _First, const _Alloc_ptr_t<_Alloc> _Last, _Alloc& _Al) noexcept {

  00000	55		 push	 ebp
  00001	8b ec		 mov	 ebp, esp
  00003	b9 00 00 00 00	 mov	 ecx, OFFSET __79D216CD_xmemory
  00008	e8 00 00 00 00	 call	 @__CheckForDebuggerJustMyCode@4

; 946  :     // note that this is an optimization for debug mode codegen; in release mode the BE removes all of this
; 947  :     using _Ty = typename _Alloc::value_type;
; 948  :     if constexpr (!conjunction_v<is_trivially_destructible<_Ty>, _Uses_default_destroy<_Alloc, _Ty*>>) {
; 949  :         for (; _First != _Last; ++_First) {
; 950  :             allocator_traits<_Alloc>::destroy(_Al, _Unfancy(_First));
; 951  :         }
; 952  :     }
; 953  : }

  0000d	5d		 pop	 ebp
  0000e	c3		 ret	 0
??$_Destroy_range@V?$allocator@PAVSprite@sf@@@std@@@std@@YAXPAPAVSprite@sf@@QAPAV12@AAV?$allocator@PAVSprite@sf@@@0@@Z ENDP ; std::_Destroy_range<std::allocator<sf::Sprite *> >
_TEXT	ENDS
; Function compile flags: /Odtp /RTCu
; File C:\Program Files (x86)\Microsoft Visual Studio\2019\Community\VC\Tools\MSVC\14.29.30133\include\xmemory
;	COMDAT ??$_Deallocate@$07$0A@@std@@YAXPAXI@Z
_TEXT	SEGMENT
__$EHRec$ = -12						; size = 12
__Ptr$ = 8						; size = 4
__Bytes$ = 12						; size = 4
??$_Deallocate@$07$0A@@std@@YAXPAXI@Z PROC		; std::_Deallocate<8,0>, COMDAT

; 251  : _CONSTEXPR20_DYNALLOC void _Deallocate(void* _Ptr, size_t _Bytes) noexcept {

  00000	55		 push	 ebp
  00001	8b ec		 mov	 ebp, esp
  00003	6a ff		 push	 -1
  00005	68 00 00 00 00	 push	 __ehhandler$??$_Deallocate@$07$0A@@std@@YAXPAXI@Z
  0000a	64 a1 00 00 00
	00		 mov	 eax, DWORD PTR fs:0
  00010	50		 push	 eax
  00011	a1 00 00 00 00	 mov	 eax, DWORD PTR ___security_cookie
  00016	33 c5		 xor	 eax, ebp
  00018	50		 push	 eax
  00019	8d 45 f4	 lea	 eax, DWORD PTR __$EHRec$[ebp]
  0001c	64 a3 00 00 00
	00		 mov	 DWORD PTR fs:0, eax
  00022	b9 00 00 00 00	 mov	 ecx, OFFSET __79D216CD_xmemory
  00027	e8 00 00 00 00	 call	 @__CheckForDebuggerJustMyCode@4

; 252  :     // deallocate storage allocated by _Allocate when !_HAS_ALIGNED_NEW || _Align <= __STDCPP_DEFAULT_NEW_ALIGNMENT__
; 253  : #ifdef __cpp_lib_constexpr_dynamic_alloc // TRANSITION, GH-1532
; 254  :     if (_STD is_constant_evaluated()) {

  0002c	e8 00 00 00 00	 call	 ?is_constant_evaluated@std@@YA_NXZ ; std::is_constant_evaluated
  00031	0f b6 c0	 movzx	 eax, al
  00034	85 c0		 test	 eax, eax
  00036	74 0e		 je	 SHORT $LN2@Deallocate

; 255  :         ::operator delete(_Ptr);

  00038	8b 4d 08	 mov	 ecx, DWORD PTR __Ptr$[ebp]
  0003b	51		 push	 ecx
  0003c	e8 00 00 00 00	 call	 ??3@YAXPAX@Z		; operator delete
  00041	83 c4 04	 add	 esp, 4

; 256  :     } else

  00044	eb 29		 jmp	 SHORT $LN5@Deallocate
$LN2@Deallocate:

; 257  : #endif // __cpp_lib_constexpr_dynamic_alloc
; 258  :     {
; 259  : #if defined(_M_IX86) || defined(_M_X64)
; 260  :         if (_Bytes >= _Big_allocation_threshold) { // boost the alignment of big allocations to help autovectorization

  00046	81 7d 0c 00 10
	00 00		 cmp	 DWORD PTR __Bytes$[ebp], 4096 ; 00001000H
  0004d	72 10		 jb	 SHORT $LN4@Deallocate

; 261  :             _Adjust_manually_vector_aligned(_Ptr, _Bytes);

  0004f	8d 55 0c	 lea	 edx, DWORD PTR __Bytes$[ebp]
  00052	52		 push	 edx
  00053	8d 45 08	 lea	 eax, DWORD PTR __Ptr$[ebp]
  00056	50		 push	 eax
  00057	e8 00 00 00 00	 call	 ?_Adjust_manually_vector_aligned@std@@YAXAAPAXAAI@Z ; std::_Adjust_manually_vector_aligned
  0005c	83 c4 08	 add	 esp, 8
$LN4@Deallocate:

; 262  :         }
; 263  : #endif // defined(_M_IX86) || defined(_M_X64)
; 264  :         ::operator delete(_Ptr, _Bytes);

  0005f	8b 4d 0c	 mov	 ecx, DWORD PTR __Bytes$[ebp]
  00062	51		 push	 ecx
  00063	8b 55 08	 mov	 edx, DWORD PTR __Ptr$[ebp]
  00066	52		 push	 edx
  00067	e8 00 00 00 00	 call	 ??3@YAXPAXI@Z		; operator delete
  0006c	83 c4 08	 add	 esp, 8
$LN5@Deallocate:

; 265  :     }
; 266  : }

  0006f	8b 4d f4	 mov	 ecx, DWORD PTR __$EHRec$[ebp]
  00072	64 89 0d 00 00
	00 00		 mov	 DWORD PTR fs:0, ecx
  00079	59		 pop	 ecx
  0007a	8b e5		 mov	 esp, ebp
  0007c	5d		 pop	 ebp
  0007d	c3		 ret	 0
  0007e	cc		 int	 3
  0007f	cc		 int	 3
  00080	cc		 int	 3
  00081	cc		 int	 3
  00082	cc		 int	 3
_TEXT	ENDS
;	COMDAT text$x
text$x	SEGMENT
__ehhandler$??$_Deallocate@$07$0A@@std@@YAXPAXI@Z:
  00000	90		 npad	 1
  00001	90		 npad	 1
  00002	8b 54 24 08	 mov	 edx, DWORD PTR [esp+8]
  00006	8d 42 0c	 lea	 eax, DWORD PTR [edx+12]
  00009	8b 4a fc	 mov	 ecx, DWORD PTR [edx-4]
  0000c	33 c8		 xor	 ecx, eax
  0000e	e8 00 00 00 00	 call	 @__security_check_cookie@4
  00013	b8 00 00 00 00	 mov	 eax, OFFSET __ehfuncinfo$??$_Deallocate@$07$0A@@std@@YAXPAXI@Z
  00018	e9 00 00 00 00	 jmp	 ___CxxFrameHandler3
text$x	ENDS
??$_Deallocate@$07$0A@@std@@YAXPAXI@Z ENDP		; std::_Deallocate<8,0>
; Function compile flags: /Odtp /RTCu
; File C:\Program Files (x86)\Microsoft Visual Studio\2019\Community\VC\Tools\MSVC\14.29.30133\include\xmemory
;	COMDAT ??$_Destroy_range@V?$allocator@PAVTexture@sf@@@std@@@std@@YAXPAPAVTexture@sf@@QAPAV12@AAV?$allocator@PAVTexture@sf@@@0@@Z
_TEXT	SEGMENT
__First$ = 8						; size = 4
__Last$ = 12						; size = 4
__Al$ = 16						; size = 4
??$_Destroy_range@V?$allocator@PAVTexture@sf@@@std@@@std@@YAXPAPAVTexture@sf@@QAPAV12@AAV?$allocator@PAVTexture@sf@@@0@@Z PROC ; std::_Destroy_range<std::allocator<sf::Texture *> >, COMDAT

; 945  :     _Alloc_ptr_t<_Alloc> _First, const _Alloc_ptr_t<_Alloc> _Last, _Alloc& _Al) noexcept {

  00000	55		 push	 ebp
  00001	8b ec		 mov	 ebp, esp
  00003	b9 00 00 00 00	 mov	 ecx, OFFSET __79D216CD_xmemory
  00008	e8 00 00 00 00	 call	 @__CheckForDebuggerJustMyCode@4

; 946  :     // note that this is an optimization for debug mode codegen; in release mode the BE removes all of this
; 947  :     using _Ty = typename _Alloc::value_type;
; 948  :     if constexpr (!conjunction_v<is_trivially_destructible<_Ty>, _Uses_default_destroy<_Alloc, _Ty*>>) {
; 949  :         for (; _First != _Last; ++_First) {
; 950  :             allocator_traits<_Alloc>::destroy(_Al, _Unfancy(_First));
; 951  :         }
; 952  :     }
; 953  : }

  0000d	5d		 pop	 ebp
  0000e	c3		 ret	 0
??$_Destroy_range@V?$allocator@PAVTexture@sf@@@std@@@std@@YAXPAPAVTexture@sf@@QAPAV12@AAV?$allocator@PAVTexture@sf@@@0@@Z ENDP ; std::_Destroy_range<std::allocator<sf::Texture *> >
_TEXT	ENDS
; Function compile flags: /Odtp /RTCu
; File C:\Program Files (x86)\Microsoft Visual Studio\2019\Community\VC\Tools\MSVC\14.29.30133\include\xmemory
;	COMDAT ??$_Allocate@$07U_Default_allocate_traits@std@@$0A@@std@@YAPAXI@Z
_TEXT	SEGMENT
__Bytes$ = 8						; size = 4
??$_Allocate@$07U_Default_allocate_traits@std@@$0A@@std@@YAPAXI@Z PROC ; std::_Allocate<8,std::_Default_allocate_traits,0>, COMDAT

; 230  : __declspec(allocator) _CONSTEXPR20_DYNALLOC void* _Allocate(const size_t _Bytes) {

  00000	55		 push	 ebp
  00001	8b ec		 mov	 ebp, esp
  00003	b9 00 00 00 00	 mov	 ecx, OFFSET __79D216CD_xmemory
  00008	e8 00 00 00 00	 call	 @__CheckForDebuggerJustMyCode@4

; 231  :     // allocate _Bytes when !_HAS_ALIGNED_NEW || _Align <= __STDCPP_DEFAULT_NEW_ALIGNMENT__
; 232  : #if defined(_M_IX86) || defined(_M_X64)
; 233  : #ifdef __cpp_lib_constexpr_dynamic_alloc // TRANSITION, GH-1532
; 234  :     if (!_STD is_constant_evaluated())

  0000d	e8 00 00 00 00	 call	 ?is_constant_evaluated@std@@YA_NXZ ; std::is_constant_evaluated
  00012	0f b6 c0	 movzx	 eax, al
  00015	85 c0		 test	 eax, eax
  00017	75 17		 jne	 SHORT $LN2@Allocate

; 235  : #endif // __cpp_lib_constexpr_dynamic_alloc
; 236  :     {
; 237  :         if (_Bytes >= _Big_allocation_threshold) { // boost the alignment of big allocations to help autovectorization

  00019	81 7d 08 00 10
	00 00		 cmp	 DWORD PTR __Bytes$[ebp], 4096 ; 00001000H
  00020	72 0e		 jb	 SHORT $LN2@Allocate

; 238  :             return _Allocate_manually_vector_aligned<_Traits>(_Bytes);

  00022	8b 4d 08	 mov	 ecx, DWORD PTR __Bytes$[ebp]
  00025	51		 push	 ecx
  00026	e8 00 00 00 00	 call	 ??$_Allocate_manually_vector_aligned@U_Default_allocate_traits@std@@@std@@YAPAXI@Z ; std::_Allocate_manually_vector_aligned<std::_Default_allocate_traits>
  0002b	83 c4 04	 add	 esp, 4
  0002e	eb 16		 jmp	 SHORT $LN1@Allocate
$LN2@Allocate:

; 239  :         }
; 240  :     }
; 241  : #endif // defined(_M_IX86) || defined(_M_X64)
; 242  : 
; 243  :     if (_Bytes != 0) {

  00030	83 7d 08 00	 cmp	 DWORD PTR __Bytes$[ebp], 0
  00034	74 0e		 je	 SHORT $LN4@Allocate

; 244  :         return _Traits::_Allocate(_Bytes);

  00036	8b 55 08	 mov	 edx, DWORD PTR __Bytes$[ebp]
  00039	52		 push	 edx
  0003a	e8 00 00 00 00	 call	 ?_Allocate@_Default_allocate_traits@std@@SAPAXI@Z ; std::_Default_allocate_traits::_Allocate
  0003f	83 c4 04	 add	 esp, 4
  00042	eb 02		 jmp	 SHORT $LN1@Allocate
$LN4@Allocate:

; 245  :     }
; 246  : 
; 247  :     return nullptr;

  00044	33 c0		 xor	 eax, eax
$LN1@Allocate:

; 248  : }

  00046	5d		 pop	 ebp
  00047	c3		 ret	 0
??$_Allocate@$07U_Default_allocate_traits@std@@$0A@@std@@YAPAXI@Z ENDP ; std::_Allocate<8,std::_Default_allocate_traits,0>
_TEXT	ENDS
; Function compile flags: /Odtp /RTCu
; File C:\Program Files (x86)\Microsoft Visual Studio\2019\Community\VC\Tools\MSVC\14.29.30133\include\xmemory
;	COMDAT ??$_Get_size_of_n@$07@std@@YAII@Z
_TEXT	SEGMENT
__Max_possible$1 = -8					; size = 4
__Overflow_is_possible$ = -1				; size = 1
__Count$ = 8						; size = 4
??$_Get_size_of_n@$07@std@@YAII@Z PROC			; std::_Get_size_of_n<8>, COMDAT

; 59   : _NODISCARD constexpr size_t _Get_size_of_n(const size_t _Count) {

  00000	55		 push	 ebp
  00001	8b ec		 mov	 ebp, esp
  00003	83 ec 08	 sub	 esp, 8
  00006	b9 00 00 00 00	 mov	 ecx, OFFSET __79D216CD_xmemory
  0000b	e8 00 00 00 00	 call	 @__CheckForDebuggerJustMyCode@4

; 60   :     constexpr bool _Overflow_is_possible = _Ty_size > 1;

  00010	c6 45 ff 01	 mov	 BYTE PTR __Overflow_is_possible$[ebp], 1

; 61   : 
; 62   :     if constexpr (_Overflow_is_possible) {
; 63   :         constexpr size_t _Max_possible = static_cast<size_t>(-1) / _Ty_size;

  00014	c7 45 f8 ff ff
	ff 1f		 mov	 DWORD PTR __Max_possible$1[ebp], 536870911 ; 1fffffffH

; 64   :         if (_Count > _Max_possible) {

  0001b	81 7d 08 ff ff
	ff 1f		 cmp	 DWORD PTR __Count$[ebp], 536870911 ; 1fffffffH
  00022	76 05		 jbe	 SHORT $LN2@Get_size_o

; 65   :             _Throw_bad_array_new_length(); // multiply overflow

  00024	e8 00 00 00 00	 call	 ?_Throw_bad_array_new_length@std@@YAXXZ ; std::_Throw_bad_array_new_length
$LN2@Get_size_o:

; 66   :         }
; 67   :     }
; 68   : 
; 69   :     return _Count * _Ty_size;

  00029	8b 45 08	 mov	 eax, DWORD PTR __Count$[ebp]
  0002c	c1 e0 03	 shl	 eax, 3
$LN3@Get_size_o:

; 70   : }

  0002f	8b e5		 mov	 esp, ebp
  00031	5d		 pop	 ebp
  00032	c3		 ret	 0
??$_Get_size_of_n@$07@std@@YAII@Z ENDP			; std::_Get_size_of_n<8>
_TEXT	ENDS
; Function compile flags: /Odtp /RTCu
; File C:\Program Files (x86)\Microsoft Visual Studio\2019\Community\VC\Tools\MSVC\14.29.30133\include\xstddef
;	COMDAT ??$_Unfancy@U_Container_proxy@std@@@std@@YAPAU_Container_proxy@0@PAU10@@Z
_TEXT	SEGMENT
__Ptr$ = 8						; size = 4
??$_Unfancy@U_Container_proxy@std@@@std@@YAPAU_Container_proxy@0@PAU10@@Z PROC ; std::_Unfancy<std::_Container_proxy>, COMDAT

; 288  : _NODISCARD constexpr _Ty* _Unfancy(_Ty* _Ptr) noexcept { // do nothing for plain pointers

  00000	55		 push	 ebp
  00001	8b ec		 mov	 ebp, esp
  00003	b9 00 00 00 00	 mov	 ecx, OFFSET __E458E21C_xstddef
  00008	e8 00 00 00 00	 call	 @__CheckForDebuggerJustMyCode@4

; 289  :     return _Ptr;

  0000d	8b 45 08	 mov	 eax, DWORD PTR __Ptr$[ebp]

; 290  : }

  00010	5d		 pop	 ebp
  00011	c3		 ret	 0
??$_Unfancy@U_Container_proxy@std@@@std@@YAPAU_Container_proxy@0@PAU10@@Z ENDP ; std::_Unfancy<std::_Container_proxy>
_TEXT	ENDS
; Function compile flags: /Odtp /RTCu
; File C:\Program Files (x86)\Microsoft Visual Studio\2019\Community\VC\Tools\MSVC\14.29.30133\include\xmemory
;	COMDAT ??1?$_Container_proxy_ptr12@V?$allocator@U_Container_proxy@std@@@std@@@std@@QAE@XZ
_TEXT	SEGMENT
tv79 = -16						; size = 4
tv82 = -12						; size = 4
_this$ = -8						; size = 4
tv85 = -1						; size = 1
??1?$_Container_proxy_ptr12@V?$allocator@U_Container_proxy@std@@@std@@@std@@QAE@XZ PROC ; std::_Container_proxy_ptr12<std::allocator<std::_Container_proxy> >::~_Container_proxy_ptr12<std::allocator<std::_Container_proxy> >, COMDAT
; _this$ = ecx

; 1353 :     _CONSTEXPR20_CONTAINER ~_Container_proxy_ptr12() {

  00000	55		 push	 ebp
  00001	8b ec		 mov	 ebp, esp
  00003	83 ec 10	 sub	 esp, 16			; 00000010H
  00006	89 4d f8	 mov	 DWORD PTR _this$[ebp], ecx
  00009	b9 00 00 00 00	 mov	 ecx, OFFSET __79D216CD_xmemory
  0000e	e8 00 00 00 00	 call	 @__CheckForDebuggerJustMyCode@4

; 1354 :         if (_Ptr) {

  00013	8b 45 f8	 mov	 eax, DWORD PTR _this$[ebp]
  00016	89 45 f0	 mov	 DWORD PTR tv79[ebp], eax
  00019	8b 4d f0	 mov	 ecx, DWORD PTR tv79[ebp]
  0001c	89 4d f4	 mov	 DWORD PTR tv82[ebp], ecx
  0001f	8b 55 f4	 mov	 edx, DWORD PTR tv82[ebp]
  00022	c1 ea 03	 shr	 edx, 3
  00025	8a 82 00 00 00
	30		 mov	 al, BYTE PTR [edx+805306368]
  0002b	88 45 ff	 mov	 BYTE PTR tv85[ebp], al
  0002e	80 7d ff 00	 cmp	 BYTE PTR tv85[ebp], 0
  00032	74 1a		 je	 SHORT $LN4@Container_
  00034	8a 4d f4	 mov	 cl, BYTE PTR tv82[ebp]
  00037	80 e1 07	 and	 cl, 7
  0003a	80 c1 03	 add	 cl, 3
  0003d	3a 4d ff	 cmp	 cl, BYTE PTR tv85[ebp]
  00040	7c 0c		 jl	 SHORT $LN4@Container_
  00042	8b 55 f4	 mov	 edx, DWORD PTR tv82[ebp]
  00045	52		 push	 edx
  00046	e8 00 00 00 00	 call	 ___asan_report_load4
  0004b	83 c4 04	 add	 esp, 4
$LN4@Container_:
  0004e	8b 45 f8	 mov	 eax, DWORD PTR _this$[ebp]
  00051	83 38 00	 cmp	 DWORD PTR [eax], 0
  00054	74 15		 je	 SHORT $LN3@Container_

; 1355 :             _Delete_plain_internal(_Al, _Ptr);

  00056	8b 4d f8	 mov	 ecx, DWORD PTR _this$[ebp]
  00059	8b 11		 mov	 edx, DWORD PTR [ecx]
  0005b	52		 push	 edx
  0005c	8b 45 f8	 mov	 eax, DWORD PTR _this$[ebp]
  0005f	8b 48 04	 mov	 ecx, DWORD PTR [eax+4]
  00062	51		 push	 ecx
  00063	e8 00 00 00 00	 call	 ??$_Delete_plain_internal@V?$allocator@U_Container_proxy@std@@@std@@@std@@YAXAAV?$allocator@U_Container_proxy@std@@@0@QAU_Container_proxy@0@@Z ; std::_Delete_plain_internal<std::allocator<std::_Container_proxy> >
  00068	83 c4 08	 add	 esp, 8
$LN3@Container_:

; 1356 :         }
; 1357 :     }

  0006b	8b e5		 mov	 esp, ebp
  0006d	5d		 pop	 ebp
  0006e	c3		 ret	 0
??1?$_Container_proxy_ptr12@V?$allocator@U_Container_proxy@std@@@std@@@std@@QAE@XZ ENDP ; std::_Container_proxy_ptr12<std::allocator<std::_Container_proxy> >::~_Container_proxy_ptr12<std::allocator<std::_Container_proxy> >
_TEXT	ENDS
; Function compile flags: /Odtp /RTCu
; File C:\Program Files (x86)\Microsoft Visual Studio\2019\Community\VC\Tools\MSVC\14.29.30133\include\xmemory
;	COMDAT ??0?$_Container_proxy_ptr12@V?$allocator@U_Container_proxy@std@@@std@@@std@@QAE@AAV?$allocator@U_Container_proxy@std@@@1@AAU_Container_base12@1@@Z
_TEXT	SEGMENT
__asan_gen_0$ = -128					; size = 4
__asan_gen_1$ = -124					; size = 4
__asan_gen_2$ = -120					; size = 4
$T2 = -112						; size = 4
tv199 = -69						; size = 1
tv189 = -68						; size = 1
tv179 = -67						; size = 1
tv169 = -66						; size = 1
tv159 = -65						; size = 1
_this$ = -64						; size = 4
tv146 = -60						; size = 4
tv196 = -56						; size = 4
tv186 = -52						; size = 4
tv176 = -48						; size = 4
tv166 = -44						; size = 4
tv156 = -40						; size = 4
tv69 = -36						; size = 4
tv92 = -32						; size = 4
tv144 = -28						; size = 4
tv134 = -24						; size = 4
tv75 = -20						; size = 4
tv83 = -16						; size = 4
tv139 = -12						; size = 4
tv152 = -8						; size = 4
tv131 = -4						; size = 4
__Al_$ = 8						; size = 4
__Mycont$ = 12						; size = 4
??0?$_Container_proxy_ptr12@V?$allocator@U_Container_proxy@std@@@std@@@std@@QAE@AAV?$allocator@U_Container_proxy@std@@@1@AAU_Container_base12@1@@Z PROC ; std::_Container_proxy_ptr12<std::allocator<std::_Container_proxy> >::_Container_proxy_ptr12<std::allocator<std::_Container_proxy> >, COMDAT
; _this$ = ecx

; 1339 :     _CONSTEXPR20_CONTAINER _Container_proxy_ptr12(_Alloc& _Al_, _Container_base12& _Mycont) : _Al(_Al_) {

  00000	53		 push	 ebx
  00001	8b dc		 mov	 ebx, esp
  00003	83 ec 08	 sub	 esp, 8
  00006	83 e4 e0	 and	 esp, -32		; ffffffe0H
  00009	83 c4 04	 add	 esp, 4
  0000c	55		 push	 ebp
  0000d	8b 6b 04	 mov	 ebp, DWORD PTR [ebx+4]
  00010	89 6c 24 04	 mov	 DWORD PTR [esp+4], ebp
  00014	8b ec		 mov	 ebp, esp
  00016	81 ec 80 00 00
	00		 sub	 esp, 128		; 00000080H
  0001c	89 4d c0	 mov	 DWORD PTR _this$[ebp], ecx
  0001f	c7 45 80 b3 8a
	b5 41		 mov	 DWORD PTR __asan_gen_0$[ebp], 1102416563 ; 41b58ab3H
  00026	c7 45 84 00 00
	00 00		 mov	 DWORD PTR __asan_gen_1$[ebp], OFFSET __L__asan_gen_.??0?$_Container_proxy_ptr12@V?$allocator@U_Container_proxy@std@@@std@@@std@@QAE@AAV?$allocator@U_Container_proxy@std@@@1@AAU_Container_base12@1@@Z
  0002d	c7 45 88 00 00
	00 00		 mov	 DWORD PTR __asan_gen_2$[ebp], OFFSET ??0?$_Container_proxy_ptr12@V?$allocator@U_Container_proxy@std@@@std@@@std@@QAE@AAV?$allocator@U_Container_proxy@std@@@1@AAU_Container_base12@1@@Z ; std::_Container_proxy_ptr12<std::allocator<std::_Container_proxy> >::_Container_proxy_ptr12<std::allocator<std::_Container_proxy> >
  00034	8d 45 80	 lea	 eax, DWORD PTR __asan_gen_0$[ebp]
  00037	89 45 e4	 mov	 DWORD PTR tv144[ebp], eax
  0003a	8b 4d e4	 mov	 ecx, DWORD PTR tv144[ebp]
  0003d	c1 e9 03	 shr	 ecx, 3
  00040	81 c1 00 00 00
	30		 add	 ecx, 805306368		; 30000000H
  00046	89 4d c4	 mov	 DWORD PTR tv146[ebp], ecx
  00049	8b 55 c4	 mov	 edx, DWORD PTR tv146[ebp]
  0004c	c7 02 f1 f1 04
	f3		 mov	 DWORD PTR [edx], -217779727 ; f304f1f1H
  00052	83 45 c4 04	 add	 DWORD PTR tv146[ebp], 4
  00056	b8 f3 f3 00 00	 mov	 eax, 62451		; 0000f3f3H
  0005b	8b 4d c4	 mov	 ecx, DWORD PTR tv146[ebp]
  0005e	66 89 01	 mov	 WORD PTR [ecx], ax
  00061	83 45 c4 02	 add	 DWORD PTR tv146[ebp], 2
  00065	8b 55 c4	 mov	 edx, DWORD PTR tv146[ebp]
  00068	c6 02 f3	 mov	 BYTE PTR [edx], 243	; 000000f3H
  0006b	b9 00 00 00 00	 mov	 ecx, OFFSET __79D216CD_xmemory
  00070	e8 00 00 00 00	 call	 @__CheckForDebuggerJustMyCode@4
  00075	8b 4d c0	 mov	 ecx, DWORD PTR _this$[ebp]
  00078	e8 00 00 00 00	 call	 ??0_Basic_container_proxy_ptr12@std@@IAE@XZ ; std::_Basic_container_proxy_ptr12::_Basic_container_proxy_ptr12
  0007d	8b 45 c0	 mov	 eax, DWORD PTR _this$[ebp]
  00080	83 c0 04	 add	 eax, 4
  00083	89 45 dc	 mov	 DWORD PTR tv69[ebp], eax
  00086	8b 4d dc	 mov	 ecx, DWORD PTR tv69[ebp]
  00089	89 4d c8	 mov	 DWORD PTR tv196[ebp], ecx
  0008c	8b 55 c8	 mov	 edx, DWORD PTR tv196[ebp]
  0008f	c1 ea 03	 shr	 edx, 3
  00092	8a 82 00 00 00
	30		 mov	 al, BYTE PTR [edx+805306368]
  00098	88 45 bb	 mov	 BYTE PTR tv199[ebp], al
  0009b	80 7d bb 00	 cmp	 BYTE PTR tv199[ebp], 0
  0009f	74 1a		 je	 SHORT $LN7@Container_
  000a1	8a 4d c8	 mov	 cl, BYTE PTR tv196[ebp]
  000a4	80 e1 07	 and	 cl, 7
  000a7	80 c1 03	 add	 cl, 3
  000aa	3a 4d bb	 cmp	 cl, BYTE PTR tv199[ebp]
  000ad	7c 0c		 jl	 SHORT $LN7@Container_
  000af	8b 55 c8	 mov	 edx, DWORD PTR tv196[ebp]
  000b2	52		 push	 edx
  000b3	e8 00 00 00 00	 call	 ___asan_report_store4
  000b8	83 c4 04	 add	 esp, 4
$LN7@Container_:
  000bb	8b 45 dc	 mov	 eax, DWORD PTR tv69[ebp]
  000be	8b 4b 08	 mov	 ecx, DWORD PTR __Al_$[ebx]
  000c1	89 08		 mov	 DWORD PTR [eax], ecx

; 1340 :         // create a new _Container_proxy pointing at _Mycont
; 1341 :         _Ptr = _Unfancy(_Al_.allocate(1));

  000c3	6a 01		 push	 1
  000c5	8b 4b 08	 mov	 ecx, DWORD PTR __Al_$[ebx]
  000c8	e8 00 00 00 00	 call	 ?allocate@?$allocator@U_Container_proxy@std@@@std@@QAEPAU_Container_proxy@2@I@Z ; std::allocator<std::_Container_proxy>::allocate
  000cd	50		 push	 eax
  000ce	e8 00 00 00 00	 call	 ??$_Unfancy@U_Container_proxy@std@@@std@@YAPAU_Container_proxy@0@PAU10@@Z ; std::_Unfancy<std::_Container_proxy>
  000d3	83 c4 04	 add	 esp, 4
  000d6	89 45 ec	 mov	 DWORD PTR tv75[ebp], eax
  000d9	8b 55 c0	 mov	 edx, DWORD PTR _this$[ebp]
  000dc	89 55 e8	 mov	 DWORD PTR tv134[ebp], edx
  000df	8b 45 e8	 mov	 eax, DWORD PTR tv134[ebp]
  000e2	89 45 cc	 mov	 DWORD PTR tv186[ebp], eax
  000e5	8b 4d cc	 mov	 ecx, DWORD PTR tv186[ebp]
  000e8	c1 e9 03	 shr	 ecx, 3
  000eb	8a 91 00 00 00
	30		 mov	 dl, BYTE PTR [ecx+805306368]
  000f1	88 55 bc	 mov	 BYTE PTR tv189[ebp], dl
  000f4	80 7d bc 00	 cmp	 BYTE PTR tv189[ebp], 0
  000f8	74 18		 je	 SHORT $LN6@Container_
  000fa	8a 45 cc	 mov	 al, BYTE PTR tv186[ebp]
  000fd	24 07		 and	 al, 7
  000ff	04 03		 add	 al, 3
  00101	3a 45 bc	 cmp	 al, BYTE PTR tv189[ebp]
  00104	7c 0c		 jl	 SHORT $LN6@Container_
  00106	8b 4d cc	 mov	 ecx, DWORD PTR tv186[ebp]
  00109	51		 push	 ecx
  0010a	e8 00 00 00 00	 call	 ___asan_report_store4
  0010f	83 c4 04	 add	 esp, 4
$LN6@Container_:
  00112	8b 55 c0	 mov	 edx, DWORD PTR _this$[ebp]
  00115	8b 45 ec	 mov	 eax, DWORD PTR tv75[ebp]
  00118	89 02		 mov	 DWORD PTR [edx], eax

; 1342 :         _Construct_in_place(*_Ptr, _STD addressof(_Mycont));

  0011a	8b 4b 0c	 mov	 ecx, DWORD PTR __Mycont$[ebx]
  0011d	51		 push	 ecx
  0011e	e8 00 00 00 00	 call	 ??$addressof@U_Container_base12@std@@@std@@YAPAU_Container_base12@0@AAU10@@Z ; std::addressof<std::_Container_base12>
  00123	83 c4 04	 add	 esp, 4
  00126	89 45 f0	 mov	 DWORD PTR tv83[ebp], eax
  00129	8d 55 90	 lea	 edx, DWORD PTR $T2[ebp]
  0012c	89 55 d0	 mov	 DWORD PTR tv176[ebp], edx
  0012f	8b 45 d0	 mov	 eax, DWORD PTR tv176[ebp]
  00132	c1 e8 03	 shr	 eax, 3
  00135	8a 88 00 00 00
	30		 mov	 cl, BYTE PTR [eax+805306368]
  0013b	88 4d bd	 mov	 BYTE PTR tv179[ebp], cl
  0013e	80 7d bd 00	 cmp	 BYTE PTR tv179[ebp], 0
  00142	74 1a		 je	 SHORT $LN5@Container_
  00144	8a 55 d0	 mov	 dl, BYTE PTR tv176[ebp]
  00147	80 e2 07	 and	 dl, 7
  0014a	80 c2 03	 add	 dl, 3
  0014d	3a 55 bd	 cmp	 dl, BYTE PTR tv179[ebp]
  00150	7c 0c		 jl	 SHORT $LN5@Container_
  00152	8b 45 d0	 mov	 eax, DWORD PTR tv176[ebp]
  00155	50		 push	 eax
  00156	e8 00 00 00 00	 call	 ___asan_report_store4
  0015b	83 c4 04	 add	 esp, 4
$LN5@Container_:
  0015e	8b 4d f0	 mov	 ecx, DWORD PTR tv83[ebp]
  00161	89 4d 90	 mov	 DWORD PTR $T2[ebp], ecx
  00164	8d 55 90	 lea	 edx, DWORD PTR $T2[ebp]
  00167	52		 push	 edx
  00168	8b 45 c0	 mov	 eax, DWORD PTR _this$[ebp]
  0016b	8b 08		 mov	 ecx, DWORD PTR [eax]
  0016d	51		 push	 ecx
  0016e	e8 00 00 00 00	 call	 ??$_Construct_in_place@U_Container_proxy@std@@PAU_Container_base12@2@@std@@YAXAAU_Container_proxy@0@$$QAPAU_Container_base12@0@@Z ; std::_Construct_in_place<std::_Container_proxy,std::_Container_base12 *>
  00173	83 c4 08	 add	 esp, 8
  00176	8d 55 90	 lea	 edx, DWORD PTR $T2[ebp]
  00179	c1 ea 03	 shr	 edx, 3
  0017c	c6 82 00 00 00
	30 f8		 mov	 BYTE PTR [edx+805306368], 248 ; 000000f8H

; 1343 :         _Mycont._Myproxy = _Ptr;

  00183	8b 43 0c	 mov	 eax, DWORD PTR __Mycont$[ebx]
  00186	89 45 e0	 mov	 DWORD PTR tv92[ebp], eax
  00189	8b 4d c0	 mov	 ecx, DWORD PTR _this$[ebp]
  0018c	89 4d f4	 mov	 DWORD PTR tv139[ebp], ecx
  0018f	8b 55 f4	 mov	 edx, DWORD PTR tv139[ebp]
  00192	89 55 d4	 mov	 DWORD PTR tv166[ebp], edx
  00195	8b 45 d4	 mov	 eax, DWORD PTR tv166[ebp]
  00198	c1 e8 03	 shr	 eax, 3
  0019b	8a 88 00 00 00
	30		 mov	 cl, BYTE PTR [eax+805306368]
  001a1	88 4d be	 mov	 BYTE PTR tv169[ebp], cl
  001a4	80 7d be 00	 cmp	 BYTE PTR tv169[ebp], 0
  001a8	74 1a		 je	 SHORT $LN4@Container_
  001aa	8a 55 d4	 mov	 dl, BYTE PTR tv166[ebp]
  001ad	80 e2 07	 and	 dl, 7
  001b0	80 c2 03	 add	 dl, 3
  001b3	3a 55 be	 cmp	 dl, BYTE PTR tv169[ebp]
  001b6	7c 0c		 jl	 SHORT $LN4@Container_
  001b8	8b 45 d4	 mov	 eax, DWORD PTR tv166[ebp]
  001bb	50		 push	 eax
  001bc	e8 00 00 00 00	 call	 ___asan_report_load4
  001c1	83 c4 04	 add	 esp, 4
$LN4@Container_:
  001c4	8b 4d e0	 mov	 ecx, DWORD PTR tv92[ebp]
  001c7	89 4d d8	 mov	 DWORD PTR tv156[ebp], ecx
  001ca	8b 55 d8	 mov	 edx, DWORD PTR tv156[ebp]
  001cd	c1 ea 03	 shr	 edx, 3
  001d0	8a 82 00 00 00
	30		 mov	 al, BYTE PTR [edx+805306368]
  001d6	88 45 bf	 mov	 BYTE PTR tv159[ebp], al
  001d9	80 7d bf 00	 cmp	 BYTE PTR tv159[ebp], 0
  001dd	74 1a		 je	 SHORT $LN3@Container_
  001df	8a 4d d8	 mov	 cl, BYTE PTR tv156[ebp]
  001e2	80 e1 07	 and	 cl, 7
  001e5	80 c1 03	 add	 cl, 3
  001e8	3a 4d bf	 cmp	 cl, BYTE PTR tv159[ebp]
  001eb	7c 0c		 jl	 SHORT $LN3@Container_
  001ed	8b 55 d8	 mov	 edx, DWORD PTR tv156[ebp]
  001f0	52		 push	 edx
  001f1	e8 00 00 00 00	 call	 ___asan_report_store4
  001f6	83 c4 04	 add	 esp, 4
$LN3@Container_:
  001f9	8b 45 e0	 mov	 eax, DWORD PTR tv92[ebp]
  001fc	8b 4d c0	 mov	 ecx, DWORD PTR _this$[ebp]
  001ff	8b 11		 mov	 edx, DWORD PTR [ecx]
  00201	89 10		 mov	 DWORD PTR [eax], edx

; 1344 :     }

  00203	8b 45 c0	 mov	 eax, DWORD PTR _this$[ebp]
  00206	89 45 fc	 mov	 DWORD PTR tv131[ebp], eax
  00209	c7 45 80 0e 36
	e0 45		 mov	 DWORD PTR __asan_gen_0$[ebp], 1172321806 ; 45e0360eH
  00210	8d 4d 80	 lea	 ecx, DWORD PTR __asan_gen_0$[ebp]
  00213	c1 e9 03	 shr	 ecx, 3
  00216	81 c1 00 00 00
	30		 add	 ecx, 805306368		; 30000000H
  0021c	89 4d f8	 mov	 DWORD PTR tv152[ebp], ecx
  0021f	6a 07		 push	 7
  00221	8b 55 f8	 mov	 edx, DWORD PTR tv152[ebp]
  00224	52		 push	 edx
  00225	e8 00 00 00 00	 call	 ___asan_set_shadow_00
  0022a	83 c4 08	 add	 esp, 8
  0022d	8b 45 fc	 mov	 eax, DWORD PTR tv131[ebp]
  00230	8b e5		 mov	 esp, ebp
  00232	5d		 pop	 ebp
  00233	8b e3		 mov	 esp, ebx
  00235	5b		 pop	 ebx
  00236	c2 08 00	 ret	 8
??0?$_Container_proxy_ptr12@V?$allocator@U_Container_proxy@std@@@std@@@std@@QAE@AAV?$allocator@U_Container_proxy@std@@@1@AAU_Container_base12@1@@Z ENDP ; std::_Container_proxy_ptr12<std::allocator<std::_Container_proxy> >::_Container_proxy_ptr12<std::allocator<std::_Container_proxy> >
_TEXT	ENDS
; Function compile flags: /Odtp /RTCu
; File C:\Program Files (x86)\Microsoft Visual Studio\2019\Community\VC\Tools\MSVC\14.29.30133\include\utility
;	COMDAT ??$min@I@std@@YAABIABI0@Z
_TEXT	SEGMENT
$T1 = -28						; size = 4
tv70 = -24						; size = 4
tv67 = -20						; size = 4
tv65 = -16						; size = 4
tv73 = -12						; size = 4
tv83 = -8						; size = 4
tv76 = -2						; size = 1
tv86 = -1						; size = 1
__Left$ = 8						; size = 4
__Right$ = 12						; size = 4
??$min@I@std@@YAABIABI0@Z PROC				; std::min<unsigned int>, COMDAT

; 66   :     const _Ty& _Left, const _Ty& _Right) noexcept(noexcept(_Right < _Left)) /* strengthened */ {

  00000	55		 push	 ebp
  00001	8b ec		 mov	 ebp, esp
  00003	83 ec 1c	 sub	 esp, 28			; 0000001cH
  00006	b9 00 00 00 00	 mov	 ecx, OFFSET __1347750E_utility
  0000b	e8 00 00 00 00	 call	 @__CheckForDebuggerJustMyCode@4

; 67   :     // return smaller of _Left and _Right
; 68   :     return _Right < _Left ? _Right : _Left;

  00010	8b 45 0c	 mov	 eax, DWORD PTR __Right$[ebp]
  00013	89 45 ec	 mov	 DWORD PTR tv67[ebp], eax
  00016	8b 4d ec	 mov	 ecx, DWORD PTR tv67[ebp]
  00019	89 4d f8	 mov	 DWORD PTR tv83[ebp], ecx
  0001c	8b 55 f8	 mov	 edx, DWORD PTR tv83[ebp]
  0001f	c1 ea 03	 shr	 edx, 3
  00022	8a 82 00 00 00
	30		 mov	 al, BYTE PTR [edx+805306368]
  00028	88 45 ff	 mov	 BYTE PTR tv86[ebp], al
  0002b	80 7d ff 00	 cmp	 BYTE PTR tv86[ebp], 0
  0002f	74 1a		 je	 SHORT $LN6@min
  00031	8a 4d f8	 mov	 cl, BYTE PTR tv83[ebp]
  00034	80 e1 07	 and	 cl, 7
  00037	80 c1 03	 add	 cl, 3
  0003a	3a 4d ff	 cmp	 cl, BYTE PTR tv86[ebp]
  0003d	7c 0c		 jl	 SHORT $LN6@min
  0003f	8b 55 f8	 mov	 edx, DWORD PTR tv83[ebp]
  00042	52		 push	 edx
  00043	e8 00 00 00 00	 call	 ___asan_report_load4
  00048	83 c4 04	 add	 esp, 4
$LN6@min:
  0004b	8b 45 08	 mov	 eax, DWORD PTR __Left$[ebp]
  0004e	89 45 e8	 mov	 DWORD PTR tv70[ebp], eax
  00051	8b 4d e8	 mov	 ecx, DWORD PTR tv70[ebp]
  00054	89 4d f4	 mov	 DWORD PTR tv73[ebp], ecx
  00057	8b 55 f4	 mov	 edx, DWORD PTR tv73[ebp]
  0005a	c1 ea 03	 shr	 edx, 3
  0005d	8a 82 00 00 00
	30		 mov	 al, BYTE PTR [edx+805306368]
  00063	88 45 fe	 mov	 BYTE PTR tv76[ebp], al
  00066	80 7d fe 00	 cmp	 BYTE PTR tv76[ebp], 0
  0006a	74 1a		 je	 SHORT $LN5@min
  0006c	8a 4d f4	 mov	 cl, BYTE PTR tv73[ebp]
  0006f	80 e1 07	 and	 cl, 7
  00072	80 c1 03	 add	 cl, 3
  00075	3a 4d fe	 cmp	 cl, BYTE PTR tv76[ebp]
  00078	7c 0c		 jl	 SHORT $LN5@min
  0007a	8b 55 f4	 mov	 edx, DWORD PTR tv73[ebp]
  0007d	52		 push	 edx
  0007e	e8 00 00 00 00	 call	 ___asan_report_load4
  00083	83 c4 04	 add	 esp, 4
$LN5@min:
  00086	8b 45 0c	 mov	 eax, DWORD PTR __Right$[ebp]
  00089	8b 4d 08	 mov	 ecx, DWORD PTR __Left$[ebp]
  0008c	8b 10		 mov	 edx, DWORD PTR [eax]
  0008e	3b 11		 cmp	 edx, DWORD PTR [ecx]
  00090	73 08		 jae	 SHORT $LN3@min
  00092	8b 45 0c	 mov	 eax, DWORD PTR __Right$[ebp]
  00095	89 45 f0	 mov	 DWORD PTR tv65[ebp], eax
  00098	eb 06		 jmp	 SHORT $LN4@min
$LN3@min:
  0009a	8b 4d 08	 mov	 ecx, DWORD PTR __Left$[ebp]
  0009d	89 4d f0	 mov	 DWORD PTR tv65[ebp], ecx
$LN4@min:
  000a0	8b 55 f0	 mov	 edx, DWORD PTR tv65[ebp]
  000a3	89 55 e4	 mov	 DWORD PTR $T1[ebp], edx
  000a6	8b 45 e4	 mov	 eax, DWORD PTR $T1[ebp]

; 69   : }

  000a9	8b e5		 mov	 esp, ebp
  000ab	5d		 pop	 ebp
  000ac	c3		 ret	 0
??$min@I@std@@YAABIABI0@Z ENDP				; std::min<unsigned int>
_TEXT	ENDS
; Function compile flags: /Odtp /RTCu
; File C:\Program Files (x86)\Microsoft Visual Studio\2019\Community\VC\Tools\MSVC\14.29.30133\include\vector
;	COMDAT ??$_Construct_n_copies_of_ty@U_Value_init_tag@std@@@?$vector@PAVSprite@sf@@V?$allocator@PAVSprite@sf@@@std@@@std@@AAEXIABU_Value_init_tag@1@@Z
_TEXT	SEGMENT
__asan_gen_0$ = -176					; size = 4
__asan_gen_1$ = -172					; size = 4
__asan_gen_2$ = -168					; size = 4
_$S19$ = -160						; size = 1
__Proxy$ = -144						; size = 8
__Guard$3 = -128					; size = 4
tv173 = -83						; size = 1
tv163 = -82						; size = 1
tv153 = -81						; size = 1
tv137 = -80						; size = 4
_this$ = -76						; size = 4
tv170 = -72						; size = 4
__My_data$ = -68					; size = 4
tv160 = -64						; size = 4
tv150 = -60						; size = 4
tv83 = -56						; size = 4
tv135 = -52						; size = 4
__Alproxy$ = -48					; size = 4
tv85 = -44						; size = 4
tv146 = -40						; size = 4
__$ArrayPad$ = -36					; size = 4
__$EHRec$ = -12						; size = 12
__Count$ = 8						; size = 4
__Val$ = 12						; size = 4
??$_Construct_n_copies_of_ty@U_Value_init_tag@std@@@?$vector@PAVSprite@sf@@V?$allocator@PAVSprite@sf@@@std@@@std@@AAEXIABU_Value_init_tag@1@@Z PROC ; std::vector<sf::Sprite *,std::allocator<sf::Sprite *> >::_Construct_n_copies_of_ty<std::_Value_init_tag>, COMDAT
; _this$ = ecx

; 486  :     _CONSTEXPR20_CONTAINER void _Construct_n_copies_of_ty(_CRT_GUARDOVERFLOW const size_type _Count, const _Ty2& _Val) {

  00000	53		 push	 ebx
  00001	8b dc		 mov	 ebx, esp
  00003	83 ec 08	 sub	 esp, 8
  00006	83 e4 e0	 and	 esp, -32		; ffffffe0H
  00009	83 c4 04	 add	 esp, 4
  0000c	55		 push	 ebp
  0000d	8b 6b 04	 mov	 ebp, DWORD PTR [ebx+4]
  00010	89 6c 24 04	 mov	 DWORD PTR [esp+4], ebp
  00014	8b ec		 mov	 ebp, esp
  00016	6a ff		 push	 -1
  00018	68 00 00 00 00	 push	 __ehhandler$??$_Construct_n_copies_of_ty@U_Value_init_tag@std@@@?$vector@PAVSprite@sf@@V?$allocator@PAVSprite@sf@@@std@@@std@@AAEXIABU_Value_init_tag@1@@Z
  0001d	64 a1 00 00 00
	00		 mov	 eax, DWORD PTR fs:0
  00023	50		 push	 eax
  00024	53		 push	 ebx
  00025	81 c4 50 ff ff
	ff		 add	 esp, -176		; ffffff50H
  0002b	a1 00 00 00 00	 mov	 eax, DWORD PTR ___security_cookie
  00030	33 c5		 xor	 eax, ebp
  00032	89 45 dc	 mov	 DWORD PTR __$ArrayPad$[ebp], eax
  00035	50		 push	 eax
  00036	8d 45 f4	 lea	 eax, DWORD PTR __$EHRec$[ebp]
  00039	64 a3 00 00 00
	00		 mov	 DWORD PTR fs:0, eax
  0003f	89 4d b4	 mov	 DWORD PTR _this$[ebp], ecx
  00042	c7 85 50 ff ff
	ff b3 8a b5 41	 mov	 DWORD PTR __asan_gen_0$[ebp], 1102416563 ; 41b58ab3H
  0004c	c7 85 54 ff ff
	ff 00 00 00 00	 mov	 DWORD PTR __asan_gen_1$[ebp], OFFSET __L__asan_gen_.??$_Construct_n_copies_of_ty@U_Value_init_tag@std@@@?$vector@PAVSprite@sf@@V?$allocator@PAVSprite@sf@@@std@@@std@@AAEXIABU_Value_init_tag@1@@Z
  00056	c7 85 58 ff ff
	ff 00 00 00 00	 mov	 DWORD PTR __asan_gen_2$[ebp], OFFSET ??$_Construct_n_copies_of_ty@U_Value_init_tag@std@@@?$vector@PAVSprite@sf@@V?$allocator@PAVSprite@sf@@@std@@@std@@AAEXIABU_Value_init_tag@1@@Z ; std::vector<sf::Sprite *,std::allocator<sf::Sprite *> >::_Construct_n_copies_of_ty<std::_Value_init_tag>
  00060	8d 85 50 ff ff
	ff		 lea	 eax, DWORD PTR __asan_gen_0$[ebp]
  00066	89 45 cc	 mov	 DWORD PTR tv135[ebp], eax
  00069	8b 4d cc	 mov	 ecx, DWORD PTR tv135[ebp]
  0006c	c1 e9 03	 shr	 ecx, 3
  0006f	81 c1 00 00 00
	30		 add	 ecx, 805306368		; 30000000H
  00075	89 4d b0	 mov	 DWORD PTR tv137[ebp], ecx
  00078	8b 55 b0	 mov	 edx, DWORD PTR tv137[ebp]
  0007b	c7 02 f1 f1 01
	f2		 mov	 DWORD PTR [edx], -234753551 ; f201f1f1H
  00081	83 45 b0 04	 add	 DWORD PTR tv137[ebp], 4
  00085	8b 45 b0	 mov	 eax, DWORD PTR tv137[ebp]
  00088	c7 00 00 f2 f8
	f3		 mov	 DWORD PTR [eax], -201788928 ; f3f8f200H
  0008e	83 45 b0 04	 add	 DWORD PTR tv137[ebp], 4
  00092	b9 f3 f3 00 00	 mov	 ecx, 62451		; 0000f3f3H
  00097	8b 55 b0	 mov	 edx, DWORD PTR tv137[ebp]
  0009a	66 89 0a	 mov	 WORD PTR [edx], cx
  0009d	83 45 b0 02	 add	 DWORD PTR tv137[ebp], 2
  000a1	8b 45 b0	 mov	 eax, DWORD PTR tv137[ebp]
  000a4	c6 00 f3	 mov	 BYTE PTR [eax], 243	; 000000f3H
  000a7	b9 00 00 00 00	 mov	 ecx, OFFSET __324884E2_vector
  000ac	e8 00 00 00 00	 call	 @__CheckForDebuggerJustMyCode@4

; 487  :         auto&& _Alproxy = _GET_PROXY_ALLOCATOR(_Alty, _Getal());

  000b1	8b 4d b4	 mov	 ecx, DWORD PTR _this$[ebp]
  000b4	e8 00 00 00 00	 call	 ?_Getal@?$vector@PAVSprite@sf@@V?$allocator@PAVSprite@sf@@@std@@@std@@AAEAAV?$allocator@PAVSprite@sf@@@2@XZ ; std::vector<sf::Sprite *,std::allocator<sf::Sprite *> >::_Getal
  000b9	50		 push	 eax
  000ba	8d 8d 60 ff ff
	ff		 lea	 ecx, DWORD PTR _$S19$[ebp]
  000c0	e8 00 00 00 00	 call	 ??$?0PAVSprite@sf@@@?$allocator@U_Container_proxy@std@@@std@@QAE@ABV?$allocator@PAVSprite@sf@@@1@@Z ; std::allocator<std::_Container_proxy>::allocator<std::_Container_proxy><sf::Sprite *>
  000c5	8d 8d 60 ff ff
	ff		 lea	 ecx, DWORD PTR _$S19$[ebp]
  000cb	89 4d d0	 mov	 DWORD PTR __Alproxy$[ebp], ecx

; 488  :         auto& _My_data  = _Mypair._Myval2;

  000ce	8b 55 b4	 mov	 edx, DWORD PTR _this$[ebp]
  000d1	89 55 bc	 mov	 DWORD PTR __My_data$[ebp], edx

; 489  :         _Container_proxy_ptr<_Alty> _Proxy(_Alproxy, _My_data);

  000d4	8b 45 bc	 mov	 eax, DWORD PTR __My_data$[ebp]
  000d7	50		 push	 eax
  000d8	8b 4d d0	 mov	 ecx, DWORD PTR __Alproxy$[ebp]
  000db	51		 push	 ecx
  000dc	8d 8d 70 ff ff
	ff		 lea	 ecx, DWORD PTR __Proxy$[ebp]
  000e2	e8 00 00 00 00	 call	 ??0?$_Container_proxy_ptr12@V?$allocator@U_Container_proxy@std@@@std@@@std@@QAE@AAV?$allocator@U_Container_proxy@std@@@1@AAU_Container_base12@1@@Z ; std::_Container_proxy_ptr12<std::allocator<std::_Container_proxy> >::_Container_proxy_ptr12<std::allocator<std::_Container_proxy> >
  000e7	c7 45 fc 00 00
	00 00		 mov	 DWORD PTR __$EHRec$[ebp+8], 0

; 490  :         if (_Count != 0) {

  000ee	83 7b 08 00	 cmp	 DWORD PTR __Count$[ebx], 0
  000f2	0f 84 10 01 00
	00		 je	 $LN2@Construct_
  000f8	8d 55 80	 lea	 edx, DWORD PTR __Guard$3[ebp]
  000fb	c1 ea 03	 shr	 edx, 3
  000fe	c6 82 00 00 00
	30 04		 mov	 BYTE PTR [edx+805306368], 4

; 491  :             _Buy_nonzero(_Count);

  00105	8b 43 08	 mov	 eax, DWORD PTR __Count$[ebx]
  00108	50		 push	 eax
  00109	8b 4d b4	 mov	 ecx, DWORD PTR _this$[ebp]
  0010c	e8 00 00 00 00	 call	 ?_Buy_nonzero@?$vector@PAVSprite@sf@@V?$allocator@PAVSprite@sf@@@std@@@std@@AAEXI@Z ; std::vector<sf::Sprite *,std::allocator<sf::Sprite *> >::_Buy_nonzero

; 492  :             _Tidy_guard<vector> _Guard{this};

  00111	8d 4d 80	 lea	 ecx, DWORD PTR __Guard$3[ebp]
  00114	89 4d b8	 mov	 DWORD PTR tv170[ebp], ecx
  00117	8b 55 b8	 mov	 edx, DWORD PTR tv170[ebp]
  0011a	c1 ea 03	 shr	 edx, 3
  0011d	8a 82 00 00 00
	30		 mov	 al, BYTE PTR [edx+805306368]
  00123	88 45 ad	 mov	 BYTE PTR tv173[ebp], al
  00126	80 7d ad 00	 cmp	 BYTE PTR tv173[ebp], 0
  0012a	74 1a		 je	 SHORT $LN8@Construct_
  0012c	8a 4d b8	 mov	 cl, BYTE PTR tv170[ebp]
  0012f	80 e1 07	 and	 cl, 7
  00132	80 c1 03	 add	 cl, 3
  00135	3a 4d ad	 cmp	 cl, BYTE PTR tv173[ebp]
  00138	7c 0c		 jl	 SHORT $LN8@Construct_
  0013a	8b 55 b8	 mov	 edx, DWORD PTR tv170[ebp]
  0013d	52		 push	 edx
  0013e	e8 00 00 00 00	 call	 ___asan_report_store4
  00143	83 c4 04	 add	 esp, 4
$LN8@Construct_:
  00146	8b 45 b4	 mov	 eax, DWORD PTR _this$[ebp]
  00149	89 45 80	 mov	 DWORD PTR __Guard$3[ebp], eax
  0014c	c6 45 fc 01	 mov	 BYTE PTR __$EHRec$[ebp+8], 1

; 493  :             _My_data._Mylast = _Ufill(_My_data._Myfirst, _Count, _Val);

  00150	8b 4b 0c	 mov	 ecx, DWORD PTR __Val$[ebx]
  00153	0f b6 11	 movzx	 edx, BYTE PTR [ecx]
  00156	52		 push	 edx
  00157	8b 43 08	 mov	 eax, DWORD PTR __Count$[ebx]
  0015a	50		 push	 eax
  0015b	8b 4d bc	 mov	 ecx, DWORD PTR __My_data$[ebp]
  0015e	8b 51 04	 mov	 edx, DWORD PTR [ecx+4]
  00161	52		 push	 edx
  00162	8b 4d b4	 mov	 ecx, DWORD PTR _this$[ebp]
  00165	e8 00 00 00 00	 call	 ?_Ufill@?$vector@PAVSprite@sf@@V?$allocator@PAVSprite@sf@@@std@@@std@@AAEPAPAVSprite@sf@@PAPAV34@IU_Value_init_tag@2@@Z ; std::vector<sf::Sprite *,std::allocator<sf::Sprite *> >::_Ufill
  0016a	89 45 d4	 mov	 DWORD PTR tv85[ebp], eax
  0016d	8b 45 bc	 mov	 eax, DWORD PTR __My_data$[ebp]
  00170	83 c0 08	 add	 eax, 8
  00173	89 45 c8	 mov	 DWORD PTR tv83[ebp], eax
  00176	8b 4d c8	 mov	 ecx, DWORD PTR tv83[ebp]
  00179	89 4d c0	 mov	 DWORD PTR tv160[ebp], ecx
  0017c	8b 55 c0	 mov	 edx, DWORD PTR tv160[ebp]
  0017f	c1 ea 03	 shr	 edx, 3
  00182	8a 82 00 00 00
	30		 mov	 al, BYTE PTR [edx+805306368]
  00188	88 45 ae	 mov	 BYTE PTR tv163[ebp], al
  0018b	80 7d ae 00	 cmp	 BYTE PTR tv163[ebp], 0
  0018f	74 1a		 je	 SHORT $LN7@Construct_
  00191	8a 4d c0	 mov	 cl, BYTE PTR tv160[ebp]
  00194	80 e1 07	 and	 cl, 7
  00197	80 c1 03	 add	 cl, 3
  0019a	3a 4d ae	 cmp	 cl, BYTE PTR tv163[ebp]
  0019d	7c 0c		 jl	 SHORT $LN7@Construct_
  0019f	8b 55 c0	 mov	 edx, DWORD PTR tv160[ebp]
  001a2	52		 push	 edx
  001a3	e8 00 00 00 00	 call	 ___asan_report_store4
  001a8	83 c4 04	 add	 esp, 4
$LN7@Construct_:
  001ab	8b 45 c8	 mov	 eax, DWORD PTR tv83[ebp]
  001ae	8b 4d d4	 mov	 ecx, DWORD PTR tv85[ebp]
  001b1	89 08		 mov	 DWORD PTR [eax], ecx

; 494  :             _Guard._Target   = nullptr;

  001b3	8d 55 80	 lea	 edx, DWORD PTR __Guard$3[ebp]
  001b6	89 55 c4	 mov	 DWORD PTR tv150[ebp], edx
  001b9	8b 45 c4	 mov	 eax, DWORD PTR tv150[ebp]
  001bc	c1 e8 03	 shr	 eax, 3
  001bf	8a 88 00 00 00
	30		 mov	 cl, BYTE PTR [eax+805306368]
  001c5	88 4d af	 mov	 BYTE PTR tv153[ebp], cl
  001c8	80 7d af 00	 cmp	 BYTE PTR tv153[ebp], 0
  001cc	74 1a		 je	 SHORT $LN6@Construct_
  001ce	8a 55 c4	 mov	 dl, BYTE PTR tv150[ebp]
  001d1	80 e2 07	 and	 dl, 7
  001d4	80 c2 03	 add	 dl, 3
  001d7	3a 55 af	 cmp	 dl, BYTE PTR tv153[ebp]
  001da	7c 0c		 jl	 SHORT $LN6@Construct_
  001dc	8b 45 c4	 mov	 eax, DWORD PTR tv150[ebp]
  001df	50		 push	 eax
  001e0	e8 00 00 00 00	 call	 ___asan_report_store4
  001e5	83 c4 04	 add	 esp, 4
$LN6@Construct_:
  001e8	c7 45 80 00 00
	00 00		 mov	 DWORD PTR __Guard$3[ebp], 0

; 495  :         }

  001ef	c6 45 fc 00	 mov	 BYTE PTR __$EHRec$[ebp+8], 0
  001f3	8d 4d 80	 lea	 ecx, DWORD PTR __Guard$3[ebp]
  001f6	e8 00 00 00 00	 call	 ??1?$_Tidy_guard@V?$vector@PAVSprite@sf@@V?$allocator@PAVSprite@sf@@@std@@@std@@@std@@QAE@XZ ; std::_Tidy_guard<std::vector<sf::Sprite *,std::allocator<sf::Sprite *> > >::~_Tidy_guard<std::vector<sf::Sprite *,std::allocator<sf::Sprite *> > >
  001fb	8d 4d 80	 lea	 ecx, DWORD PTR __Guard$3[ebp]
  001fe	c1 e9 03	 shr	 ecx, 3
  00201	c6 81 00 00 00
	30 f8		 mov	 BYTE PTR [ecx+805306368], 248 ; 000000f8H
$LN2@Construct_:

; 496  : 
; 497  :         _Proxy._Release();

  00208	8d 8d 70 ff ff
	ff		 lea	 ecx, DWORD PTR __Proxy$[ebp]
  0020e	e8 00 00 00 00	 call	 ?_Release@_Basic_container_proxy_ptr12@std@@QAEXXZ ; std::_Basic_container_proxy_ptr12::_Release

; 498  :     }

  00213	c7 45 fc ff ff
	ff ff		 mov	 DWORD PTR __$EHRec$[ebp+8], -1
  0021a	8d 8d 70 ff ff
	ff		 lea	 ecx, DWORD PTR __Proxy$[ebp]
  00220	e8 00 00 00 00	 call	 ??1?$_Container_proxy_ptr12@V?$allocator@U_Container_proxy@std@@@std@@@std@@QAE@XZ ; std::_Container_proxy_ptr12<std::allocator<std::_Container_proxy> >::~_Container_proxy_ptr12<std::allocator<std::_Container_proxy> >
  00225	c7 85 50 ff ff
	ff 0e 36 e0 45	 mov	 DWORD PTR __asan_gen_0$[ebp], 1172321806 ; 45e0360eH
  0022f	8d 95 50 ff ff
	ff		 lea	 edx, DWORD PTR __asan_gen_0$[ebp]
  00235	c1 ea 03	 shr	 edx, 3
  00238	81 c2 00 00 00
	30		 add	 edx, 805306368		; 30000000H
  0023e	89 55 d8	 mov	 DWORD PTR tv146[ebp], edx
  00241	6a 0b		 push	 11			; 0000000bH
  00243	8b 45 d8	 mov	 eax, DWORD PTR tv146[ebp]
  00246	50		 push	 eax
  00247	e8 00 00 00 00	 call	 ___asan_set_shadow_00
  0024c	83 c4 08	 add	 esp, 8
  0024f	8b 4d f4	 mov	 ecx, DWORD PTR __$EHRec$[ebp]
  00252	64 89 0d 00 00
	00 00		 mov	 DWORD PTR fs:0, ecx
  00259	59		 pop	 ecx
  0025a	8b 4d dc	 mov	 ecx, DWORD PTR __$ArrayPad$[ebp]
  0025d	33 cd		 xor	 ecx, ebp
  0025f	e8 00 00 00 00	 call	 @__security_check_cookie@4
  00264	8b e5		 mov	 esp, ebp
  00266	5d		 pop	 ebp
  00267	8b e3		 mov	 esp, ebx
  00269	5b		 pop	 ebx
  0026a	c2 08 00	 ret	 8
_TEXT	ENDS
;	COMDAT text$x
text$x	SEGMENT
__unwindfunclet$??$_Construct_n_copies_of_ty@U_Value_init_tag@std@@@?$vector@PAVSprite@sf@@V?$allocator@PAVSprite@sf@@@std@@@std@@AAEXIABU_Value_init_tag@1@@Z$0:
  00000	8d 8d 70 ff ff
	ff		 lea	 ecx, DWORD PTR __Proxy$[ebp]
  00006	e9 00 00 00 00	 jmp	 ??1?$_Container_proxy_ptr12@V?$allocator@U_Container_proxy@std@@@std@@@std@@QAE@XZ ; std::_Container_proxy_ptr12<std::allocator<std::_Container_proxy> >::~_Container_proxy_ptr12<std::allocator<std::_Container_proxy> >
__unwindfunclet$??$_Construct_n_copies_of_ty@U_Value_init_tag@std@@@?$vector@PAVSprite@sf@@V?$allocator@PAVSprite@sf@@@std@@@std@@AAEXIABU_Value_init_tag@1@@Z$1:
  0000b	8d 4d 80	 lea	 ecx, DWORD PTR __Guard$3[ebp]
  0000e	e9 00 00 00 00	 jmp	 ??1?$_Tidy_guard@V?$vector@PAVSprite@sf@@V?$allocator@PAVSprite@sf@@@std@@@std@@@std@@QAE@XZ ; std::_Tidy_guard<std::vector<sf::Sprite *,std::allocator<sf::Sprite *> > >::~_Tidy_guard<std::vector<sf::Sprite *,std::allocator<sf::Sprite *> > >
  00013	cc		 int	 3
  00014	cc		 int	 3
  00015	cc		 int	 3
  00016	cc		 int	 3
  00017	cc		 int	 3
__ehhandler$??$_Construct_n_copies_of_ty@U_Value_init_tag@std@@@?$vector@PAVSprite@sf@@V?$allocator@PAVSprite@sf@@@std@@@std@@AAEXIABU_Value_init_tag@1@@Z:
  00018	90		 npad	 1
  00019	90		 npad	 1
  0001a	8b 54 24 08	 mov	 edx, DWORD PTR [esp+8]
  0001e	8d 42 0c	 lea	 eax, DWORD PTR [edx+12]
  00021	8b 8a 48 ff ff
	ff		 mov	 ecx, DWORD PTR [edx-184]
  00027	33 c8		 xor	 ecx, eax
  00029	e8 00 00 00 00	 call	 @__security_check_cookie@4
  0002e	8b 4a e8	 mov	 ecx, DWORD PTR [edx-24]
  00031	33 c8		 xor	 ecx, eax
  00033	e8 00 00 00 00	 call	 @__security_check_cookie@4
  00038	b8 00 00 00 00	 mov	 eax, OFFSET __ehfuncinfo$??$_Construct_n_copies_of_ty@U_Value_init_tag@std@@@?$vector@PAVSprite@sf@@V?$allocator@PAVSprite@sf@@@std@@@std@@AAEXIABU_Value_init_tag@1@@Z
  0003d	e9 00 00 00 00	 jmp	 ___CxxFrameHandler3
text$x	ENDS
??$_Construct_n_copies_of_ty@U_Value_init_tag@std@@@?$vector@PAVSprite@sf@@V?$allocator@PAVSprite@sf@@@std@@@std@@AAEXIABU_Value_init_tag@1@@Z ENDP ; std::vector<sf::Sprite *,std::allocator<sf::Sprite *> >::_Construct_n_copies_of_ty<std::_Value_init_tag>
; Function compile flags: /Odtp /RTCu
; File C:\Program Files (x86)\Microsoft Visual Studio\2019\Community\VC\Tools\MSVC\14.29.30133\include\xmemory
;	COMDAT ??$?0ABV?$allocator@PAVSprite@sf@@@std@@$$V@?$_Compressed_pair@V?$allocator@PAVSprite@sf@@@std@@V?$_Vector_val@U?$_Simple_types@PAVSprite@sf@@@std@@@2@$00@std@@QAE@U_One_then_variadic_args_t@1@ABV?$allocator@PAVSprite@sf@@@1@@Z
_TEXT	SEGMENT
_this$ = -4						; size = 4
___formal$ = 8						; size = 1
__Val1$ = 12						; size = 4
??$?0ABV?$allocator@PAVSprite@sf@@@std@@$$V@?$_Compressed_pair@V?$allocator@PAVSprite@sf@@@std@@V?$_Vector_val@U?$_Simple_types@PAVSprite@sf@@@std@@@2@$00@std@@QAE@U_One_then_variadic_args_t@1@ABV?$allocator@PAVSprite@sf@@@1@@Z PROC ; std::_Compressed_pair<std::allocator<sf::Sprite *>,std::_Vector_val<std::_Simple_types<sf::Sprite *> >,1>::_Compressed_pair<std::allocator<sf::Sprite *>,std::_Vector_val<std::_Simple_types<sf::Sprite *> >,1><std::allocator<sf::Sprite *> const &>, COMDAT
; _this$ = ecx

; 1395 :         : _Ty1(_STD forward<_Other1>(_Val1)), _Myval2(_STD forward<_Other2>(_Val2)...) {}

  00000	55		 push	 ebp
  00001	8b ec		 mov	 ebp, esp
  00003	51		 push	 ecx
  00004	89 4d fc	 mov	 DWORD PTR _this$[ebp], ecx
  00007	b9 00 00 00 00	 mov	 ecx, OFFSET __79D216CD_xmemory
  0000c	e8 00 00 00 00	 call	 @__CheckForDebuggerJustMyCode@4
  00011	8b 45 0c	 mov	 eax, DWORD PTR __Val1$[ebp]
  00014	50		 push	 eax
  00015	e8 00 00 00 00	 call	 ??$forward@ABV?$allocator@PAVSprite@sf@@@std@@@std@@YAABV?$allocator@PAVSprite@sf@@@0@ABV10@@Z ; std::forward<std::allocator<sf::Sprite *> const &>
  0001a	83 c4 04	 add	 esp, 4
  0001d	8b 4d fc	 mov	 ecx, DWORD PTR _this$[ebp]
  00020	e8 00 00 00 00	 call	 ??0?$_Vector_val@U?$_Simple_types@PAVSprite@sf@@@std@@@std@@QAE@XZ ; std::_Vector_val<std::_Simple_types<sf::Sprite *> >::_Vector_val<std::_Simple_types<sf::Sprite *> >
  00025	8b 45 fc	 mov	 eax, DWORD PTR _this$[ebp]
  00028	8b e5		 mov	 esp, ebp
  0002a	5d		 pop	 ebp
  0002b	c2 08 00	 ret	 8
??$?0ABV?$allocator@PAVSprite@sf@@@std@@$$V@?$_Compressed_pair@V?$allocator@PAVSprite@sf@@@std@@V?$_Vector_val@U?$_Simple_types@PAVSprite@sf@@@std@@@2@$00@std@@QAE@U_One_then_variadic_args_t@1@ABV?$allocator@PAVSprite@sf@@@1@@Z ENDP ; std::_Compressed_pair<std::allocator<sf::Sprite *>,std::_Vector_val<std::_Simple_types<sf::Sprite *> >,1>::_Compressed_pair<std::allocator<sf::Sprite *>,std::_Vector_val<std::_Simple_types<sf::Sprite *> >,1><std::allocator<sf::Sprite *> const &>
_TEXT	ENDS
; Function compile flags: /Odtp /RTCu
; File C:\Program Files (x86)\Microsoft Visual Studio\2019\Community\VC\Tools\MSVC\14.29.30133\include\xmemory
;	COMDAT ??$?0PAVSprite@sf@@@?$allocator@U_Container_proxy@std@@@std@@QAE@ABV?$allocator@PAVSprite@sf@@@1@@Z
_TEXT	SEGMENT
_this$ = -4						; size = 4
___formal$ = 8						; size = 4
??$?0PAVSprite@sf@@@?$allocator@U_Container_proxy@std@@@std@@QAE@ABV?$allocator@PAVSprite@sf@@@1@@Z PROC ; std::allocator<std::_Container_proxy>::allocator<std::_Container_proxy><sf::Sprite *>, COMDAT
; _this$ = ecx

; 829  :     constexpr allocator(const allocator<_Other>&) noexcept {}

  00000	55		 push	 ebp
  00001	8b ec		 mov	 ebp, esp
  00003	51		 push	 ecx
  00004	89 4d fc	 mov	 DWORD PTR _this$[ebp], ecx
  00007	b9 00 00 00 00	 mov	 ecx, OFFSET __79D216CD_xmemory
  0000c	e8 00 00 00 00	 call	 @__CheckForDebuggerJustMyCode@4
  00011	8b 45 fc	 mov	 eax, DWORD PTR _this$[ebp]
  00014	8b e5		 mov	 esp, ebp
  00016	5d		 pop	 ebp
  00017	c2 04 00	 ret	 4
??$?0PAVSprite@sf@@@?$allocator@U_Container_proxy@std@@@std@@QAE@ABV?$allocator@PAVSprite@sf@@@1@@Z ENDP ; std::allocator<std::_Container_proxy>::allocator<std::_Container_proxy><sf::Sprite *>
_TEXT	ENDS
; Function compile flags: /Odtp /RTCu
; File C:\Program Files (x86)\Microsoft Visual Studio\2019\Community\VC\Tools\MSVC\14.29.30133\include\xmemory
;	COMDAT ??$_Alloc_proxy@V?$allocator@U_Container_proxy@std@@@std@@@_Container_base12@std@@QAEX$$QAV?$allocator@U_Container_proxy@std@@@1@@Z
_TEXT	SEGMENT
__asan_gen_0$ = -104					; size = 4
__asan_gen_1$ = -100					; size = 4
__asan_gen_2$ = -96					; size = 4
$T2 = -88						; size = 4
tv153 = -43						; size = 1
tv143 = -42						; size = 1
tv133 = -41						; size = 1
tv85 = -40						; size = 4
tv150 = -36						; size = 4
tv140 = -32						; size = 4
__New_proxy$ = -28					; size = 4
tv130 = -24						; size = 4
_this$ = -20						; size = 4
tv74 = -16						; size = 4
tv75 = -12						; size = 4
tv83 = -8						; size = 4
tv94 = -4						; size = 4
__Al$ = 8						; size = 4
??$_Alloc_proxy@V?$allocator@U_Container_proxy@std@@@std@@@_Container_base12@std@@QAEX$$QAV?$allocator@U_Container_proxy@std@@@1@@Z PROC ; std::_Container_base12::_Alloc_proxy<std::allocator<std::_Container_proxy> >, COMDAT
; _this$ = ecx

; 1073 :     _CONSTEXPR20_CONTAINER void _Alloc_proxy(_Alloc&& _Al) {

  00000	53		 push	 ebx
  00001	8b dc		 mov	 ebx, esp
  00003	83 ec 08	 sub	 esp, 8
  00006	83 e4 e0	 and	 esp, -32		; ffffffe0H
  00009	83 c4 04	 add	 esp, 4
  0000c	55		 push	 ebp
  0000d	8b 6b 04	 mov	 ebp, DWORD PTR [ebx+4]
  00010	89 6c 24 04	 mov	 DWORD PTR [esp+4], ebp
  00014	8b ec		 mov	 ebp, esp
  00016	81 ec 80 00 00
	00		 sub	 esp, 128		; 00000080H
  0001c	89 4d ec	 mov	 DWORD PTR _this$[ebp], ecx
  0001f	c7 45 98 b3 8a
	b5 41		 mov	 DWORD PTR __asan_gen_0$[ebp], 1102416563 ; 41b58ab3H
  00026	c7 45 9c 00 00
	00 00		 mov	 DWORD PTR __asan_gen_1$[ebp], OFFSET __L__asan_gen_.??$_Alloc_proxy@V?$allocator@U_Container_proxy@std@@@std@@@_Container_base12@std@@QAEX$$QAV?$allocator@U_Container_proxy@std@@@1@@Z
  0002d	c7 45 a0 00 00
	00 00		 mov	 DWORD PTR __asan_gen_2$[ebp], OFFSET ??$_Alloc_proxy@V?$allocator@U_Container_proxy@std@@@std@@@_Container_base12@std@@QAEX$$QAV?$allocator@U_Container_proxy@std@@@1@@Z ; std::_Container_base12::_Alloc_proxy<std::allocator<std::_Container_proxy> >
  00034	8d 45 98	 lea	 eax, DWORD PTR __asan_gen_0$[ebp]
  00037	89 45 f8	 mov	 DWORD PTR tv83[ebp], eax
  0003a	8b 4d f8	 mov	 ecx, DWORD PTR tv83[ebp]
  0003d	c1 e9 03	 shr	 ecx, 3
  00040	81 c1 00 00 00
	30		 add	 ecx, 805306368		; 30000000H
  00046	89 4d d8	 mov	 DWORD PTR tv85[ebp], ecx
  00049	8b 55 d8	 mov	 edx, DWORD PTR tv85[ebp]
  0004c	c7 02 f1 f1 f8
	f3		 mov	 DWORD PTR [edx], -201788943 ; f3f8f1f1H
  00052	83 45 d8 04	 add	 DWORD PTR tv85[ebp], 4
  00056	b8 f3 f3 00 00	 mov	 eax, 62451		; 0000f3f3H
  0005b	8b 4d d8	 mov	 ecx, DWORD PTR tv85[ebp]
  0005e	66 89 01	 mov	 WORD PTR [ecx], ax
  00061	83 45 d8 02	 add	 DWORD PTR tv85[ebp], 2
  00065	8b 55 d8	 mov	 edx, DWORD PTR tv85[ebp]
  00068	c6 02 f3	 mov	 BYTE PTR [edx], 243	; 000000f3H
  0006b	8d 45 a8	 lea	 eax, DWORD PTR $T2[ebp]
  0006e	c1 e8 03	 shr	 eax, 3
  00071	c6 80 00 00 00
	30 04		 mov	 BYTE PTR [eax+805306368], 4
  00078	b9 00 00 00 00	 mov	 ecx, OFFSET __79D216CD_xmemory
  0007d	e8 00 00 00 00	 call	 @__CheckForDebuggerJustMyCode@4

; 1074 :         _Container_proxy* const _New_proxy = _Unfancy(_Al.allocate(1));

  00082	6a 01		 push	 1
  00084	8b 4b 08	 mov	 ecx, DWORD PTR __Al$[ebx]
  00087	e8 00 00 00 00	 call	 ?allocate@?$allocator@U_Container_proxy@std@@@std@@QAEPAU_Container_proxy@2@I@Z ; std::allocator<std::_Container_proxy>::allocate
  0008c	50		 push	 eax
  0008d	e8 00 00 00 00	 call	 ??$_Unfancy@U_Container_proxy@std@@@std@@YAPAU_Container_proxy@0@PAU10@@Z ; std::_Unfancy<std::_Container_proxy>
  00092	83 c4 04	 add	 esp, 4
  00095	89 45 e4	 mov	 DWORD PTR __New_proxy$[ebp], eax

; 1075 :         _Construct_in_place(*_New_proxy, this);

  00098	8d 4d a8	 lea	 ecx, DWORD PTR $T2[ebp]
  0009b	89 4d dc	 mov	 DWORD PTR tv150[ebp], ecx
  0009e	8b 55 dc	 mov	 edx, DWORD PTR tv150[ebp]
  000a1	c1 ea 03	 shr	 edx, 3
  000a4	8a 82 00 00 00
	30		 mov	 al, BYTE PTR [edx+805306368]
  000aa	88 45 d5	 mov	 BYTE PTR tv153[ebp], al
  000ad	80 7d d5 00	 cmp	 BYTE PTR tv153[ebp], 0
  000b1	74 1a		 je	 SHORT $LN5@Alloc_prox
  000b3	8a 4d dc	 mov	 cl, BYTE PTR tv150[ebp]
  000b6	80 e1 07	 and	 cl, 7
  000b9	80 c1 03	 add	 cl, 3
  000bc	3a 4d d5	 cmp	 cl, BYTE PTR tv153[ebp]
  000bf	7c 0c		 jl	 SHORT $LN5@Alloc_prox
  000c1	8b 55 dc	 mov	 edx, DWORD PTR tv150[ebp]
  000c4	52		 push	 edx
  000c5	e8 00 00 00 00	 call	 ___asan_report_store4
  000ca	83 c4 04	 add	 esp, 4
$LN5@Alloc_prox:
  000cd	8b 45 ec	 mov	 eax, DWORD PTR _this$[ebp]
