; Listing generated by Microsoft (R) Optimizing Compiler Version 19.29.30137.0 

	TITLE	C:\Users\theob\Documents\GitHub\as-pts1\rendu2\Debug\ProjetTutore1.obj
	.686P
	.XMM
	include listing.inc
	.model	flat

INCLUDELIB MSVCRTD
INCLUDELIB OLDNAMES

CONST	SEGMENT
$SG254796 DB	'C:\Program Files (x86)\Microsoft Visual Studio\2019\Comm'
	DB	'unity\VC\Tools\MSVC\14.29.30133\include\xlocale', 00H
___asan_rrz_$SG254796 DD 0f9H
	ORG $+52
$SG230840 DB	'Projet Tutor', 0e9H, ' Groupe 1', 00H
___asan_rrz_$SG230840 DD 0f9H
	ORG $+37
$SG230843 DB	'.\ico.png', 00H
___asan_rrz_$SG230843 DD 0f9H
	ORG $+50
$SG249217 DB	'Unable to open message catalog: ', 00H
___asan_rrz_$SG249217 DD 0f9H
	ORG $+59
$SG249224 DB	'C', 00H, ':', 00H, '\', 00H, 'U', 00H, 's', 00H, 'e', 00H
	DB	'r', 00H, 's', 00H, '\', 00H, 't', 00H, 'h', 00H, 'e', 00H, 'o'
	DB	00H, 'b', 00H, '\', 00H, 'D', 00H, 'o', 00H, 'c', 00H, 'u', 00H
	DB	'm', 00H, 'e', 00H, 'n', 00H, 't', 00H, 's', 00H, '\', 00H, 'G'
	DB	00H, 'i', 00H, 't', 00H, 'H', 00H, 'u', 00H, 'b', 00H, '\', 00H
	DB	'a', 00H, 's', 00H, '-', 00H, 'p', 00H, 't', 00H, 's', 00H, '1'
	DB	00H, '\', 00H, 'r', 00H, 'e', 00H, 'n', 00H, 'd', 00H, 'u', 00H
	DB	'2', 00H, '\', 00H, 'v', 00H, 'c', 00H, 'p', 00H, 'k', 00H, 'g'
	DB	00H, '_', 00H, 'i', 00H, 'n', 00H, 's', 00H, 't', 00H, 'a', 00H
	DB	'l', 00H, 'l', 00H, 'e', 00H, 'd', 00H, '\', 00H, 'x', 00H, '8'
	DB	00H, '6', 00H, '-', 00H, 'w', 00H, 'i', 00H, 'n', 00H, 'd', 00H
	DB	'o', 00H, 'w', 00H, 's', 00H, '\', 00H, 'x', 00H, '8', 00H, '6'
	DB	00H, '-', 00H, 'w', 00H, 'i', 00H, 'n', 00H, 'd', 00H, 'o', 00H
	DB	'w', 00H, 's', 00H, '\', 00H, 'i', 00H, 'n', 00H, 'c', 00H, 'l'
	DB	00H, 'u', 00H, 'd', 00H, 'e', 00H, '\', 00H, 'b', 00H, 'o', 00H
	DB	'o', 00H, 's', 00H, 't', 00H, '\', 00H, 'r', 00H, 'e', 00H, 'g'
	DB	00H, 'e', 00H, 'x', 00H, '\', 00H, 'v', 00H, '5', 00H, '\', 00H
	DB	'w', 00H, '3', 00H, '2', 00H, '_', 00H, 'r', 00H, 'e', 00H, 'g'
	DB	00H, 'e', 00H, 'x', 00H, '_', 00H, 't', 00H, 'r', 00H, 'a', 00H
	DB	'i', 00H, 't', 00H, 's', 00H, '.', 00H, 'h', 00H, 'p', 00H, 'p'
	DB	00H, 00H, 00H
___asan_rrz_$SG249224 DD 0f9H
	ORG $+86
$SG249225 DB	'r', 00H, ' ', 00H, '!', 00H, '=', 00H, ' ', 00H, '0', 00H
	DB	00H, 00H
___asan_rrz_$SG249225 DD 0f9H
	ORG $+46
$SG249227 DB	'C', 00H, ':', 00H, '\', 00H, 'U', 00H, 's', 00H, 'e', 00H
	DB	'r', 00H, 's', 00H, '\', 00H, 't', 00H, 'h', 00H, 'e', 00H, 'o'
	DB	00H, 'b', 00H, '\', 00H, 'D', 00H, 'o', 00H, 'c', 00H, 'u', 00H
	DB	'm', 00H, 'e', 00H, 'n', 00H, 't', 00H, 's', 00H, '\', 00H, 'G'
	DB	00H, 'i', 00H, 't', 00H, 'H', 00H, 'u', 00H, 'b', 00H, '\', 00H
	DB	'a', 00H, 's', 00H, '-', 00H, 'p', 00H, 't', 00H, 's', 00H, '1'
	DB	00H, '\', 00H, 'r', 00H, 'e', 00H, 'n', 00H, 'd', 00H, 'u', 00H
	DB	'2', 00H, '\', 00H, 'v', 00H, 'c', 00H, 'p', 00H, 'k', 00H, 'g'
	DB	00H, '_', 00H, 'i', 00H, 'n', 00H, 's', 00H, 't', 00H, 'a', 00H
	DB	'l', 00H, 'l', 00H, 'e', 00H, 'd', 00H, '\', 00H, 'x', 00H, '8'
	DB	00H, '6', 00H, '-', 00H, 'w', 00H, 'i', 00H, 'n', 00H, 'd', 00H
	DB	'o', 00H, 'w', 00H, 's', 00H, '\', 00H, 'x', 00H, '8', 00H, '6'
	DB	00H, '-', 00H, 'w', 00H, 'i', 00H, 'n', 00H, 'd', 00H, 'o', 00H
	DB	'w', 00H, 's', 00H, '\', 00H, 'i', 00H, 'n', 00H, 'c', 00H, 'l'
	DB	00H, 'u', 00H, 'd', 00H, 'e', 00H, '\', 00H, 'b', 00H, 'o', 00H
	DB	'o', 00H, 's', 00H, 't', 00H, '\', 00H, 'r', 00H, 'e', 00H, 'g'
	DB	00H, 'e', 00H, 'x', 00H, '\', 00H, 'v', 00H, '5', 00H, '\', 00H
	DB	'w', 00H, '3', 00H, '2', 00H, '_', 00H, 'r', 00H, 'e', 00H, 'g'
	DB	00H, 'e', 00H, 'x', 00H, '_', 00H, 't', 00H, 'r', 00H, 'a', 00H
	DB	'i', 00H, 't', 00H, 's', 00H, '.', 00H, 'h', 00H, 'p', 00H, 'p'
	DB	00H, 00H, 00H
___asan_rrz_$SG249227 DD 0f9H
	ORG $+86
$SG249228 DB	'0', 00H, ' ', 00H, '!', 00H, '=', 00H, ' ', 00H, 'r', 00H
	DB	00H, 00H
___asan_rrz_$SG249228 DD 0f9H
	ORG $+46
$SG258642 DB	'invalid argument', 00H
___asan_rrz_$SG258642 DD 0f9H
	ORG $+43
$SG258643 DB	'%s', 00H
___asan_rrz_$SG258643 DD 0f9H
	ORG $+57
$SG258644 DB	'C:\Program Files (x86)\Microsoft Visual Studio\2019\Comm'
	DB	'unity\VC\Tools\MSVC\14.29.30133\include\xmemory', 00H
___asan_rrz_$SG258644 DD 0f9H
	ORG $+52
$SG258645 DB	'C', 00H, ':', 00H, '\', 00H, 'P', 00H, 'r', 00H, 'o', 00H
	DB	'g', 00H, 'r', 00H, 'a', 00H, 'm', 00H, ' ', 00H, 'F', 00H, 'i'
	DB	00H, 'l', 00H, 'e', 00H, 's', 00H, ' ', 00H, '(', 00H, 'x', 00H
	DB	'8', 00H, '6', 00H, ')', 00H, '\', 00H, 'M', 00H, 'i', 00H, 'c'
	DB	00H, 'r', 00H, 'o', 00H, 's', 00H, 'o', 00H, 'f', 00H, 't', 00H
	DB	' ', 00H, 'V', 00H, 'i', 00H, 's', 00H, 'u', 00H, 'a', 00H, 'l'
	DB	00H, ' ', 00H, 'S', 00H, 't', 00H, 'u', 00H, 'd', 00H, 'i', 00H
	DB	'o', 00H, '\', 00H, '2', 00H, '0', 00H, '1', 00H, '9', 00H, '\'
	DB	00H, 'C', 00H, 'o', 00H, 'm', 00H, 'm', 00H, 'u', 00H, 'n', 00H
	DB	'i', 00H, 't', 00H, 'y', 00H, '\', 00H, 'V', 00H, 'C', 00H, '\'
	DB	00H, 'T', 00H, 'o', 00H, 'o', 00H, 'l', 00H, 's', 00H, '\', 00H
	DB	'M', 00H, 'S', 00H, 'V', 00H, 'C', 00H, '\', 00H, '1', 00H, '4'
	DB	00H, '.', 00H, '2', 00H, '9', 00H, '.', 00H, '3', 00H, '0', 00H
	DB	'1', 00H, '3', 00H, '3', 00H, '\', 00H, 'i', 00H, 'n', 00H, 'c'
	DB	00H, 'l', 00H, 'u', 00H, 'd', 00H, 'e', 00H, '\', 00H, 'x', 00H
	DB	'm', 00H, 'e', 00H, 'm', 00H, 'o', 00H, 'r', 00H, 'y', 00H, 00H
	DB	00H
___asan_rrz_$SG258645 DD 0f9H
	ORG $+44
$SG258646 DB	's', 00H, 't', 00H, 'd', 00H, ':', 00H, ':', 00H, '_', 00H
	DB	'A', 00H, 'l', 00H, 'l', 00H, 'o', 00H, 'c', 00H, 'a', 00H, 't'
	DB	00H, 'e', 00H, '_', 00H, 'm', 00H, 'a', 00H, 'n', 00H, 'u', 00H
	DB	'a', 00H, 'l', 00H, 'l', 00H, 'y', 00H, '_', 00H, 'v', 00H, 'e'
	DB	00H, 'c', 00H, 't', 00H, 'o', 00H, 'r', 00H, '_', 00H, 'a', 00H
	DB	'l', 00H, 'i', 00H, 'g', 00H, 'n', 00H, 'e', 00H, 'd', 00H, 00H
	DB	00H
___asan_rrz_$SG258646 DD 0f9H
	ORG $+46
$SG258647 DB	'"', 00H, 'i', 00H, 'n', 00H, 'v', 00H, 'a', 00H, 'l', 00H
	DB	'i', 00H, 'd', 00H, ' ', 00H, 'a', 00H, 'r', 00H, 'g', 00H, 'u'
	DB	00H, 'm', 00H, 'e', 00H, 'n', 00H, 't', 00H, '"', 00H, 00H, 00H
___asan_rrz_$SG258647 DD 0f9H
CONST	ENDS
ASAN$GL	SEGMENT
_L___asan_global_$SG258647 DD FLAT:$SG258647
	DD	026H
	DD	060H
	DD	FLAT:_L___asan_gen_.30
	DD	FLAT:_L___asan_gen_.19
	DD	00H
	DD	FLAT:_L___asan_gen_.31
	DD	00H
_L___asan_global_$SG258646 DD FLAT:$SG258646
	DD	04eH
	DD	080H
	DD	FLAT:_L___asan_gen_.28
	DD	FLAT:_L___asan_gen_.19
	DD	00H
	DD	FLAT:_L___asan_gen_.29
	DD	00H
_L___asan_global_$SG258645 DD FLAT:$SG258645
	DD	0d0H
	DD	0100H
	DD	FLAT:_L___asan_gen_.26
	DD	FLAT:_L___asan_gen_.19
	DD	00H
	DD	FLAT:_L___asan_gen_.27
	DD	00H
_L___asan_global_$SG258644 DD FLAT:$SG258644
	DD	068H
	DD	0a0H
	DD	FLAT:_L___asan_gen_.24
	DD	FLAT:_L___asan_gen_.19
	DD	00H
	DD	FLAT:_L___asan_gen_.25
	DD	00H
_L___asan_global_$SG258643 DD FLAT:$SG258643
	DD	03H
	DD	040H
	DD	FLAT:_L___asan_gen_.22
	DD	FLAT:_L___asan_gen_.19
	DD	00H
	DD	FLAT:_L___asan_gen_.23
	DD	00H
_L___asan_global_$SG258642 DD FLAT:$SG258642
	DD	011H
	DD	040H
	DD	FLAT:_L___asan_gen_.20
	DD	FLAT:_L___asan_gen_.19
	DD	00H
	DD	FLAT:_L___asan_gen_.21
	DD	00H
_L___asan_global_$SG249228 DD FLAT:$SG249228
	DD	0eH
	DD	040H
	DD	FLAT:_L___asan_gen_.17
	DD	FLAT:_L___asan_gen_.8
	DD	00H
	DD	FLAT:_L___asan_gen_.18
	DD	00H
_L___asan_global_$SG249227 DD FLAT:$SG249227
	DD	0106H
	DD	0160H
	DD	FLAT:_L___asan_gen_.15
	DD	FLAT:_L___asan_gen_.8
	DD	00H
	DD	FLAT:_L___asan_gen_.16
	DD	00H
_L___asan_global_$SG249225 DD FLAT:$SG249225
	DD	0eH
	DD	040H
	DD	FLAT:_L___asan_gen_.13
	DD	FLAT:_L___asan_gen_.8
	DD	00H
	DD	FLAT:_L___asan_gen_.14
	DD	00H
_L___asan_global_$SG249224 DD FLAT:$SG249224
	DD	0106H
	DD	0160H
	DD	FLAT:_L___asan_gen_.11
	DD	FLAT:_L___asan_gen_.8
	DD	00H
	DD	FLAT:_L___asan_gen_.12
	DD	00H
_L___asan_global_$SG249217 DD FLAT:$SG249217
	DD	021H
	DD	060H
	DD	FLAT:_L___asan_gen_.9
	DD	FLAT:_L___asan_gen_.8
	DD	00H
	DD	FLAT:_L___asan_gen_.10
	DD	00H
_L___asan_global_$SG230843 DD FLAT:$SG230843
	DD	0aH
	DD	040H
	DD	FLAT:_L___asan_gen_.6
	DD	FLAT:_L___asan_gen_.3
	DD	00H
	DD	FLAT:_L___asan_gen_.7
	DD	00H
_L___asan_global_$SG230840 DD FLAT:$SG230840
	DD	017H
	DD	040H
	DD	FLAT:_L___asan_gen_.4
	DD	FLAT:_L___asan_gen_.3
	DD	00H
	DD	FLAT:_L___asan_gen_.5
	DD	00H
_L___asan_global_$SG254796 DD FLAT:$SG254796
	DD	068H
	DD	0a0H
	DD	FLAT:_L___asan_gen_.1
	DD	FLAT:_L___asan_gen_.0
	DD	00H
	DD	FLAT:_L___asan_gen_.2
	DD	00H
ASAN$GL	ENDS
CONST	SEGMENT
	ORG $+54
_L___asan_gen_.0 DB 'xlocale', 00H
_L___asan_gen_.1 DB '<C++ string literal>', 00H
	ORG $+3
_L___asan_gen_.2 DD FLAT:_L___asan_gen_.0
	DD	020eH
	DD	059H
_L___asan_gen_.3 DB 'ProjetTutore1.cpp', 00H
	ORG $+2
_L___asan_gen_.4 DB '<C++ string literal>', 00H
	ORG $+3
_L___asan_gen_.5 DD FLAT:_L___asan_gen_.3
	DD	09H
	DD	036H
_L___asan_gen_.6 DB '<C++ string literal>', 00H
	ORG $+3
_L___asan_gen_.7 DD FLAT:_L___asan_gen_.3
	DD	0cH
	DD	01aH
_L___asan_gen_.8 DB 'w32_regex_traits.hpp', 00H
	ORG $+3
_L___asan_gen_.9 DB '<C++ string literal>', 00H
	ORG $+3
_L___asan_gen_.10 DD FLAT:_L___asan_gen_.8
	DD	02c1H
	DD	01aH
_L___asan_gen_.11 DB '<C++ string literal>', 00H
	ORG $+3
_L___asan_gen_.12 DD FLAT:_L___asan_gen_.8
	DD	02f7H
	DD	06H
_L___asan_gen_.13 DB '<C++ string literal>', 00H
	ORG $+3
_L___asan_gen_.14 DD FLAT:_L___asan_gen_.8
	DD	02f7H
	DD	06H
_L___asan_gen_.15 DB '<C++ string literal>', 00H
	ORG $+3
_L___asan_gen_.16 DD FLAT:_L___asan_gen_.8
	DD	0314H
	DD	06H
_L___asan_gen_.17 DB '<C++ string literal>', 00H
	ORG $+3
_L___asan_gen_.18 DD FLAT:_L___asan_gen_.8
	DD	0314H
	DD	06H
_L___asan_gen_.19 DB 'xmemory', 00H
_L___asan_gen_.20 DB '<C++ string literal>', 00H
	ORG $+3
_L___asan_gen_.21 DD FLAT:_L___asan_gen_.19
	DD	08eH
	DD	04H
_L___asan_gen_.22 DB '<C++ string literal>', 00H
	ORG $+3
_L___asan_gen_.23 DD FLAT:_L___asan_gen_.19
	DD	08eH
	DD	04H
_L___asan_gen_.24 DB '<C++ string literal>', 00H
	ORG $+3
_L___asan_gen_.25 DD FLAT:_L___asan_gen_.19
	DD	08eH
	DD	04H
_L___asan_gen_.26 DB '<C++ string literal>', 00H
	ORG $+3
_L___asan_gen_.27 DD FLAT:_L___asan_gen_.19
	DD	08eH
	DD	04H
_L___asan_gen_.28 DB '<C++ string literal>', 00H
	ORG $+3
_L___asan_gen_.29 DD FLAT:_L___asan_gen_.19
	DD	08eH
	DD	04H
_L___asan_gen_.30 DB '<C++ string literal>', 00H
	ORG $+3
_L___asan_gen_.31 DD FLAT:_L___asan_gen_.19
	DD	08eH
	DD	04H
CONST	ENDS
msvcjmc	SEGMENT
__4FA62C6D_Univers@h DB 01H
__B3577796_RenderStates@hpp DB 01H
__59466570_predefined C++ types (compiler internal) DB 01H
__97D3638F_vcruntime_new@h DB 01H
__741AE07E_corecrt_math@h DB 01H
__B49664B7_stdlib@h DB 01H
__244AF085_cstdlib DB 01H
__47F37C5A_xtr1common DB 01H
__1FEB9909_corecrt_memcpy_s@h DB 01H
__A751F051_corecrt_memory@h DB 01H
__9200769A_corecrt_wstring@h DB 01H
__32E5F013_string@h DB 01H
__81812A28_cstddef DB 01H
__589FA321_type_traits DB 01H
__A2143F22_corecrt_stdio_config@h DB 01H
__829E1958_corecrt_wstdio@h DB 01H
__6DFAE8B8_stdio@h DB 01H
__C6E16F6F_corecrt_wconio@h DB 01H
__6D390390_corecrt_wio@h DB 01H
__1157D6BA_corecrt_wtime@h DB 01H
__1DC1E279_stat@h DB 01H
__93DC0B45_wchar@h DB 01H
__7FE5F402_limits DB 01H
__DD5FCA34_compare DB 01H
__12269DE6_xutility DB 01H
__60BC708E_cmath DB 01H
__20BB4341_malloc@h DB 01H
__B0A13A33_vcruntime_exception@h DB 01H
__FF458F76_exception DB 01H
__C69F69CF_tuple DB 01H
__79D216CD_xmemory DB 01H
__374A57BA_xpolymorphic_allocator@h DB 01H
__0D019051_xstring DB 01H
__760BB52B_stdexcept DB 01H
__A4685E82_xcall_once@h DB 01H
__A0B61CF9_time@h DB 01H
__DDB379A0_xthreads@h DB 01H
__14D0A8C0_atomic DB 01H
__1B354CA2_system_error DB 01H
__65ADBEC9_vcruntime_typeinfo@h DB 01H
__62F96EFF_typeinfo DB 01H
__C34BF88C_memory DB 01H
__EF0EAF83_xfacet DB 01H
__B2D2BA86_ctype@h DB 01H
__7D708D37_xlocinfo DB 01H
__D23FE460_xlocale DB 01H
__4495FA24_xiosbase DB 01H
__4CB88277_xlocnum DB 01H
__845859A3_ios DB 01H
__B2A9EE53_InputStream@hpp DB 01H
__62DD75E3_NonCopyable@hpp DB 01H
__B7987E10_string DB 01H
__1589CDA2_algorithm DB 01H
__FE33131C_xlocmes DB 01H
__67DA974F_xlocmon DB 01H
__D96D2425_xloctime DB 01H
__FC4CDF9C_Thread@inl DB 01H
__3C1C7D88_ContextSettings@hpp DB 01H
__8D991C03_Drawable@hpp DB 01H
__896EE8A8_Glyph@hpp DB 01H
__69958C8C_xtree DB 01H
__E3A1A8C3_Font@hpp DB 01H
__68B92D9D_xbit_ops@h DB 01H
__0F13B0E8_xhash DB 01H
__BFE0F84B_functional DB 01H
__3A667B81_error_category@hpp DB 01H
__25339F4A_generic_category_message@hpp DB 01H
__A4E336F0_generic_category@hpp DB 01H
__2DD6F2A3_error_condition@hpp DB 01H
__C6D9B9B2_system_category@hpp DB 01H
__1B11AAFA_snprintf@hpp DB 01H
__6767E947_error_handling@hpp DB 01H
__EE1D0242_system_category_message_win32@hpp DB 01H
__F4D1038E_system_category_condition_win32@hpp DB 01H
__1D2FDE06_system_category_impl@hpp DB 01H
__13E3B269_interop_category@hpp DB 01H
__F4A89B3F_error_code@hpp DB 01H
__C655F023_std_category@hpp DB 01H
__51E12D41_error_category_impl@hpp DB 01H
__147DD91B_path_traits@hpp DB 01H
__CE27CDA6_facade_iterator_category@hpp DB 01H
__FCD69F0E_ios_state@hpp DB 01H
__32E57CF6_path@hpp DB 01H
__0269C046_errc@hpp DB 01H
__38C7FDF2_throws@hpp DB 01H
__B76B1A2C_system_error@hpp DB 01H
__8868518C_atomic_count_std_atomic@hpp DB 01H
__BFCE1B3F_intrusive_ref_counter@hpp DB 01H
__203D301F_exception@hpp DB 01H
__6D84B491_file_status@hpp DB 01H
__9E7B425B_directory@hpp DB 01H
__994C2822_operations@hpp DB 01H
__85CA39D3_convenience@hpp DB 01H
__54B77B77_fstream DB 01H
__819F9458_fstream@hpp DB 01H
__807252DF_string_file@hpp DB 01H
__2B558C5C_implementation_help@hpp DB 01H
__53FD89EC_noncopyable@hpp DB 01H
__249AC1FF_as_literal@hpp DB 01H
__CCA81496_classification@hpp DB 01H
__9E8302C5_classification@hpp DB 01H
__291069DD_compare@hpp DB 01H
__6E0894BC_finder@hpp DB 01H
__6005BCF8_finder@hpp DB 01H
__876C1A82_exception@hpp DB 01H
__C6048E53_current_function@hpp DB 01H
__550A1F1C_source_location@hpp DB 01H
__78E6F2C5_throw_exception@hpp DB 01H
__36989B12_demangle@hpp DB 01H
__DBA21239_stl_type_index@hpp DB 01H
__DFD8B503_function_base@hpp DB 01H
__0C0FE920_ratio DB 01H
__2D75401A___msvc_tzdb@hpp DB 01H
__7BF231E7_optional DB 01H
__324884E2_vector DB 01H
__1347750E_utility DB 01H
__20D3AEFC_forward_list DB 01H
__1B08F288_chrono DB 01H
__491EF713_xfilesystem_abi@h DB 01H
__2B6093AE_list DB 01H
__B111E740_filesystem DB 01H
__B26BA995_regex DB 01H
__C78A343B_SoundFileReader@hpp DB 01H
__5D3957BC_SoundFileWriter@hpp DB 01H
__A5341E86_regex_workaround@hpp DB 01H
__84A6C509_regex_traits_defaults@hpp DB 01H
__C72864EE_pattern_except@hpp DB 01H
__8A32E06C_stop_token DB 01H
__1806803A_thread DB 01H
__1EA2E370_mutex DB 01H
__BC8232E2_cpp_regex_traits@hpp DB 01H
__EF9A24B2_c_regex_traits@hpp DB 01H
__79C7FC57_basetsd@h DB 01H
__D545DD43_guiddef@h DB 01H
__D5DDFBF3_winnt@h DB 01H
__439612F0_processthreadsapi@h DB 01H
__5733279A_memoryapi@h DB 01H
__D4435474_winerror@h DB 01H
__B3ED30D4_winbase@h DB 01H
__DB057BA3_winuser@h DB 01H
__A118E6DC_stralign@h DB 01H
__43AE03FC_w32_regex_traits@hpp DB 01H
__ED044598_match_flags@hpp DB 01H
__9829EA86_regex_raw_buffer@hpp DB 01H
__BA42420E_basic_regex@hpp DB 01H
__F162022C_set DB 01H
__3C41319C_indexed_bit_flag@hpp DB 01H
__A750400E_basic_regex_creator@hpp DB 01H
__CFA0C522_basic_regex_parser@hpp DB 01H
__23D98615_mem_block_cache@hpp DB 01H
__0A52C9A5_perl_matcher_non_recursive@hpp DB 01H
__C1A77E9F_perl_matcher@hpp DB 01H
__28BBFA9C_RessourcePack@h DB 01H
__0D6BD463_Character@h DB 01H
__372D2D08_initializer_list DB 01H
__E458E21C_xstddef DB 01H
__218DFE2C_Levels@h DB 01H
__9344C8DF_Block@h DB 01H
__7385D044_any DB 01H
__78BC29F0_TerrainConstructor@h DB 01H
__9D99E827_Terrain@h DB 01H
__E4B0DE56_String@hpp DB 01H
__059B899A_ProjetTutore1@cpp DB 01H
__FA839AC8_operator_bool@hpp DB 01H
__0FFFED91_intrusive_ptr@hpp DB 01H
__B38B2551_iterator_facade@hpp DB 01H
__A2FF0B9E_istream DB 01H
__68A60A21_locale DB 01H
__C12F3EA4_ostream DB 01H
__74AB0D97_streambuf DB 01H
__038A2AA6_iterator DB 01H
__B30C2184_iosfwd DB 01H
__C23CD225_Rect@inl DB 01H
__03BEDB82_Rect@hpp DB 01H
__F1CBF088_type_index@hpp DB 01H
__68C17CDA_primary_transform@hpp DB 01H
__F54903A0_xatomic@h DB 01H
__1CB4EB11_addressof@hpp DB 01H
__1EB17C13_integral_constant@hpp DB 01H
msvcjmc	ENDS
PUBLIC	?__empty_global_delete@@YAXPAX@Z		; __empty_global_delete
PUBLIC	?__empty_global_delete@@YAXPAXI@Z		; __empty_global_delete
PUBLIC	?__empty_global_delete@@YAXPAXW4align_val_t@std@@@Z ; __empty_global_delete
PUBLIC	?__empty_global_delete@@YAXPAXIW4align_val_t@std@@@Z ; __empty_global_delete
PUBLIC	??2@YAPAXIPAX@Z					; operator new
PUBLIC	?is_constant_evaluated@std@@YA_NXZ		; std::is_constant_evaluated
PUBLIC	_wmemcpy
PUBLIC	?max@?$numeric_limits@H@std@@SAHXZ		; std::numeric_limits<int>::max
PUBLIC	??0exception@std@@QAE@QBDH@Z			; std::exception::exception
PUBLIC	??0exception@std@@QAE@ABV01@@Z			; std::exception::exception
PUBLIC	??1exception@std@@UAE@XZ			; std::exception::~exception
PUBLIC	?what@exception@std@@UBEPBDXZ			; std::exception::what
PUBLIC	??_Gexception@std@@UAEPAXI@Z			; std::exception::`scalar deleting destructor'
PUBLIC	??0bad_alloc@std@@AAE@QBD@Z			; std::bad_alloc::bad_alloc
PUBLIC	??1bad_alloc@std@@UAE@XZ			; std::bad_alloc::~bad_alloc
PUBLIC	??0bad_alloc@std@@QAE@ABV01@@Z			; std::bad_alloc::bad_alloc
PUBLIC	??_Gbad_alloc@std@@UAEPAXI@Z			; std::bad_alloc::`scalar deleting destructor'
PUBLIC	??0bad_array_new_length@std@@QAE@XZ		; std::bad_array_new_length::bad_array_new_length
PUBLIC	??1bad_array_new_length@std@@UAE@XZ		; std::bad_array_new_length::~bad_array_new_length
PUBLIC	??0bad_array_new_length@std@@QAE@ABV01@@Z	; std::bad_array_new_length::bad_array_new_length
PUBLIC	??_Gbad_array_new_length@std@@UAEPAXI@Z		; std::bad_array_new_length::`scalar deleting destructor'
PUBLIC	?_Throw_bad_array_new_length@std@@YAXXZ		; std::_Throw_bad_array_new_length
PUBLIC	?_Allocate@_Default_allocate_traits@std@@SAPAXI@Z ; std::_Default_allocate_traits::_Allocate
PUBLIC	?_Adjust_manually_vector_aligned@std@@YAXAAPAXAAI@Z ; std::_Adjust_manually_vector_aligned
PUBLIC	??$_Convert_size@I@std@@YAII@Z			; std::_Convert_size<unsigned int>
PUBLIC	??0_Container_proxy@std@@QAE@PAU_Container_base12@1@@Z ; std::_Container_proxy::_Container_proxy
PUBLIC	??0_Container_base12@std@@QAE@XZ		; std::_Container_base12::_Container_base12
PUBLIC	?_Orphan_all@_Container_base12@std@@QAEXXZ	; std::_Container_base12::_Orphan_all
PUBLIC	?_Orphan_all_unlocked_v3@_Container_base12@std@@AAEXXZ ; std::_Container_base12::_Orphan_all_unlocked_v3
PUBLIC	?_Orphan_all_locked_v3@_Container_base12@std@@AAEXXZ ; std::_Container_base12::_Orphan_all_locked_v3
PUBLIC	?_Release@_Basic_container_proxy_ptr12@std@@QAEXXZ ; std::_Basic_container_proxy_ptr12::_Release
PUBLIC	??0_Basic_container_proxy_ptr12@std@@IAE@XZ	; std::_Basic_container_proxy_ptr12::_Basic_container_proxy_ptr12
PUBLIC	??$addressof@U_Container_base12@std@@@std@@YAPAU_Container_base12@0@AAU10@@Z ; std::addressof<std::_Container_base12>
PUBLIC	??$_Construct_in_place@U_Container_proxy@std@@PAU_Container_base12@2@@std@@YAXAAU_Container_proxy@0@$$QAPAU_Container_base12@0@@Z ; std::_Construct_in_place<std::_Container_proxy,std::_Container_base12 *>
PUBLIC	?copy@?$_Char_traits@DH@std@@SAPADQADQBDI@Z	; std::_Char_traits<char,int>::copy
PUBLIC	?move@?$_Char_traits@DH@std@@SAPADQADQBDI@Z	; std::_Char_traits<char,int>::move
PUBLIC	?assign@?$_Char_traits@DH@std@@SAPADQADID@Z	; std::_Char_traits<char,int>::assign
PUBLIC	?length@?$_Narrow_char_traits@DH@std@@SAIQBD@Z	; std::_Narrow_char_traits<char,int>::length
PUBLIC	?assign@?$_Narrow_char_traits@DH@std@@SAPADQADID@Z ; std::_Narrow_char_traits<char,int>::assign
PUBLIC	?assign@?$_Narrow_char_traits@DH@std@@SAXAADABD@Z ; std::_Narrow_char_traits<char,int>::assign
PUBLIC	?_Xlen_string@std@@YAXXZ			; std::_Xlen_string
PUBLIC	??0?$allocator@D@std@@QAE@XZ			; std::allocator<char>::allocator<char>
PUBLIC	?deallocate@?$allocator@D@std@@QAEXQADI@Z	; std::allocator<char>::deallocate
PUBLIC	?allocate@?$allocator@D@std@@QAEPADI@Z		; std::allocator<char>::allocate
PUBLIC	?max_size@?$_Default_allocator_traits@V?$allocator@D@std@@@std@@SAIABV?$allocator@D@2@@Z ; std::_Default_allocator_traits<std::allocator<char> >::max_size
PUBLIC	??0?$_String_val@U?$_Simple_types@D@std@@@std@@QAE@XZ ; std::_String_val<std::_Simple_types<char> >::_String_val<std::_Simple_types<char> >
PUBLIC	?_Myptr@?$_String_val@U?$_Simple_types@D@std@@@std@@QAEPADXZ ; std::_String_val<std::_Simple_types<char> >::_Myptr
PUBLIC	?_Myptr@?$_String_val@U?$_Simple_types@D@std@@@std@@QBEPBDXZ ; std::_String_val<std::_Simple_types<char> >::_Myptr
PUBLIC	?_Large_string_engaged@?$_String_val@U?$_Simple_types@D@std@@@std@@QBE_NXZ ; std::_String_val<std::_Simple_types<char> >::_Large_string_engaged
PUBLIC	??0_Bxty@?$_String_val@U?$_Simple_types@D@std@@@std@@QAE@XZ ; std::_String_val<std::_Simple_types<char> >::_Bxty::_Bxty
PUBLIC	??1_Bxty@?$_String_val@U?$_Simple_types@D@std@@@std@@QAE@XZ ; std::_String_val<std::_Simple_types<char> >::_Bxty::~_Bxty
PUBLIC	??1?$_String_val@U?$_Simple_types@D@std@@@std@@QAE@XZ ; std::_String_val<std::_Simple_types<char> >::~_String_val<std::_Simple_types<char> >
PUBLIC	??0?$basic_string@DU?$char_traits@D@std@@V?$allocator@D@2@@std@@QAE@QBD@Z ; std::basic_string<char,std::char_traits<char>,std::allocator<char> >::basic_string<char,std::char_traits<char>,std::allocator<char> >
PUBLIC	??1?$basic_string@DU?$char_traits@D@std@@V?$allocator@D@2@@std@@QAE@XZ ; std::basic_string<char,std::char_traits<char>,std::allocator<char> >::~basic_string<char,std::char_traits<char>,std::allocator<char> >
PUBLIC	?_Copy_assign@?$basic_string@DU?$char_traits@D@std@@V?$allocator@D@2@@std@@AAEXABV12@U?$integral_constant@_N$0A@@2@@Z ; std::basic_string<char,std::char_traits<char>,std::allocator<char> >::_Copy_assign
PUBLIC	??4?$basic_string@DU?$char_traits@D@std@@V?$allocator@D@2@@std@@QAEAAV01@ABV01@@Z ; std::basic_string<char,std::char_traits<char>,std::allocator<char> >::operator=
PUBLIC	?assign@?$basic_string@DU?$char_traits@D@std@@V?$allocator@D@2@@std@@QAEAAV12@QBDI@Z ; std::basic_string<char,std::char_traits<char>,std::allocator<char> >::assign
PUBLIC	?assign@?$basic_string@DU?$char_traits@D@std@@V?$allocator@D@2@@std@@QAEAAV12@QBD@Z ; std::basic_string<char,std::char_traits<char>,std::allocator<char> >::assign
PUBLIC	?max_size@?$basic_string@DU?$char_traits@D@std@@V?$allocator@D@2@@std@@QBEIXZ ; std::basic_string<char,std::char_traits<char>,std::allocator<char> >::max_size
PUBLIC	?_Calculate_growth@?$basic_string@DU?$char_traits@D@std@@V?$allocator@D@2@@std@@CAIIII@Z ; std::basic_string<char,std::char_traits<char>,std::allocator<char> >::_Calculate_growth
PUBLIC	?_Calculate_growth@?$basic_string@DU?$char_traits@D@std@@V?$allocator@D@2@@std@@ABEII@Z ; std::basic_string<char,std::char_traits<char>,std::allocator<char> >::_Calculate_growth
PUBLIC	?_Tidy_init@?$basic_string@DU?$char_traits@D@std@@V?$allocator@D@2@@std@@AAEXXZ ; std::basic_string<char,std::char_traits<char>,std::allocator<char> >::_Tidy_init
PUBLIC	?_Tidy_deallocate@?$basic_string@DU?$char_traits@D@std@@V?$allocator@D@2@@std@@AAEXXZ ; std::basic_string<char,std::char_traits<char>,std::allocator<char> >::_Tidy_deallocate
PUBLIC	?_Getal@?$basic_string@DU?$char_traits@D@std@@V?$allocator@D@2@@std@@AAEAAV?$allocator@D@2@XZ ; std::basic_string<char,std::char_traits<char>,std::allocator<char> >::_Getal
PUBLIC	?_Getal@?$basic_string@DU?$char_traits@D@std@@V?$allocator@D@2@@std@@ABEABV?$allocator@D@2@XZ ; std::basic_string<char,std::char_traits<char>,std::allocator<char> >::_Getal
PUBLIC	?_Get_first@?$_Compressed_pair@V?$allocator@D@std@@V?$_String_val@U?$_Simple_types@D@std@@@2@$00@std@@QAEAAV?$allocator@D@2@XZ ; std::_Compressed_pair<std::allocator<char>,std::_String_val<std::_Simple_types<char> >,1>::_Get_first
PUBLIC	?_Get_first@?$_Compressed_pair@V?$allocator@D@std@@V?$_String_val@U?$_Simple_types@D@std@@@2@$00@std@@QBEABV?$allocator@D@2@XZ ; std::_Compressed_pair<std::allocator<char>,std::_String_val<std::_Simple_types<char> >,1>::_Get_first
PUBLIC	??1?$_Compressed_pair@V?$allocator@D@std@@V?$_String_val@U?$_Simple_types@D@std@@@2@$00@std@@QAE@XZ ; std::_Compressed_pair<std::allocator<char>,std::_String_val<std::_Simple_types<char> >,1>::~_Compressed_pair<std::allocator<char>,std::_String_val<std::_Simple_types<char> >,1>
PUBLIC	??0locale@std@@QAE@XZ				; std::locale::locale
PUBLIC	??1locale@std@@QAE@XZ				; std::locale::~locale
PUBLIC	??$_Maklocstr@_W@std@@YAPA_WPBDPA_WABU_Cvtvec@@@Z ; std::_Maklocstr<wchar_t>
PUBLIC	?_Maklocwcs@std@@YAPA_WPB_W@Z			; std::_Maklocwcs
PUBLIC	??$_Maklocstr@D@std@@YAPADPBDPADABU_Cvtvec@@@Z	; std::_Maklocstr<char>
PUBLIC	??$_Getvals@_W@?$time_get@DV?$istreambuf_iterator@DU?$char_traits@D@std@@@std@@@std@@IAEX_WABV_Locinfo@1@@Z ; std::time_get<char,std::istreambuf_iterator<char,std::char_traits<char> > >::_Getvals<wchar_t>
PUBLIC	??$_Getvals@_W@?$time_get@_WV?$istreambuf_iterator@_WU?$char_traits@_W@std@@@std@@@std@@IAEX_WABV_Locinfo@1@@Z ; std::time_get<wchar_t,std::istreambuf_iterator<wchar_t,std::char_traits<wchar_t> > >::_Getvals<wchar_t>
PUBLIC	??0ContextSettings@sf@@QAE@IIIIII_N@Z		; sf::ContextSettings::ContextSettings
PUBLIC	??$max@I@std@@YAABIABI0@Z			; std::max<unsigned int>
PUBLIC	??0?$allocator@H@std@@QAE@XZ			; std::allocator<int>::allocator<int>
PUBLIC	?deallocate@?$allocator@H@std@@QAEXQAHI@Z	; std::allocator<int>::deallocate
PUBLIC	?allocate@?$allocator@H@std@@QAEPAHI@Z		; std::allocator<int>::allocate
PUBLIC	?max_size@?$_Default_allocator_traits@V?$allocator@H@std@@@std@@SAIABV?$allocator@H@2@@Z ; std::_Default_allocator_traits<std::allocator<int> >::max_size
PUBLIC	?select_on_container_copy_construction@?$_Default_allocator_traits@V?$allocator@H@std@@@std@@SA?AV?$allocator@H@2@ABV32@@Z ; std::_Default_allocator_traits<std::allocator<int> >::select_on_container_copy_construction
PUBLIC	??0?$vector@HV?$allocator@H@std@@@std@@QAE@V?$initializer_list@H@1@ABV?$allocator@H@1@@Z ; std::vector<int,std::allocator<int> >::vector<int,std::allocator<int> >
PUBLIC	??0?$vector@HV?$allocator@H@std@@@std@@QAE@ABV01@@Z ; std::vector<int,std::allocator<int> >::vector<int,std::allocator<int> >
PUBLIC	??1?$vector@HV?$allocator@H@std@@@std@@QAE@XZ	; std::vector<int,std::allocator<int> >::~vector<int,std::allocator<int> >
PUBLIC	?max_size@?$vector@HV?$allocator@H@std@@@std@@QBEIXZ ; std::vector<int,std::allocator<int> >::max_size
PUBLIC	?_Destroy@?$vector@HV?$allocator@H@std@@@std@@AAEXPAH0@Z ; std::vector<int,std::allocator<int> >::_Destroy
PUBLIC	?_Buy_raw@?$vector@HV?$allocator@H@std@@@std@@AAEXI@Z ; std::vector<int,std::allocator<int> >::_Buy_raw
PUBLIC	?_Buy_nonzero@?$vector@HV?$allocator@H@std@@@std@@AAEXI@Z ; std::vector<int,std::allocator<int> >::_Buy_nonzero
PUBLIC	?_Tidy@?$vector@HV?$allocator@H@std@@@std@@AAEXXZ ; std::vector<int,std::allocator<int> >::_Tidy
PUBLIC	?_Xlength@?$vector@HV?$allocator@H@std@@@std@@CAXXZ ; std::vector<int,std::allocator<int> >::_Xlength
PUBLIC	?_Getal@?$vector@HV?$allocator@H@std@@@std@@AAEAAV?$allocator@H@2@XZ ; std::vector<int,std::allocator<int> >::_Getal
PUBLIC	?_Getal@?$vector@HV?$allocator@H@std@@@std@@ABEABV?$allocator@H@2@XZ ; std::vector<int,std::allocator<int> >::_Getal
PUBLIC	??0?$_Vector_val@U?$_Simple_types@H@std@@@std@@QAE@XZ ; std::_Vector_val<std::_Simple_types<int> >::_Vector_val<std::_Simple_types<int> >
PUBLIC	?_Get_first@?$_Compressed_pair@V?$allocator@H@std@@V?$_Vector_val@U?$_Simple_types@H@std@@@2@$00@std@@QAEAAV?$allocator@H@2@XZ ; std::_Compressed_pair<std::allocator<int>,std::_Vector_val<std::_Simple_types<int> >,1>::_Get_first
PUBLIC	?_Get_first@?$_Compressed_pair@V?$allocator@H@std@@V?$_Vector_val@U?$_Simple_types@H@std@@@2@$00@std@@QBEABV?$allocator@H@2@XZ ; std::_Compressed_pair<std::allocator<int>,std::_Vector_val<std::_Simple_types<int> >,1>::_Get_first
PUBLIC	??_G?$vector@HV?$allocator@H@std@@@std@@QAEPAXI@Z ; std::vector<int,std::allocator<int> >::`scalar deleting destructor'
PUBLIC	??0?$initializer_list@H@std@@QAE@PBH0@Z		; std::initializer_list<int>::initializer_list<int>
PUBLIC	?begin@?$initializer_list@H@std@@QBEPBHXZ	; std::initializer_list<int>::begin
PUBLIC	?end@?$initializer_list@H@std@@QBEPBHXZ		; std::initializer_list<int>::end
PUBLIC	?setDefaultFolder@RessourcePack@@QAEXV?$basic_string@DU?$char_traits@D@std@@V?$allocator@D@2@@std@@@Z ; RessourcePack::setDefaultFolder
PUBLIC	?__autoclassinit2@RessourcePack@@QAEXI@Z	; RessourcePack::__autoclassinit2
PUBLIC	??0?$allocator@V?$vector@HV?$allocator@H@std@@@std@@@std@@QAE@XZ ; std::allocator<std::vector<int,std::allocator<int> > >::allocator<std::vector<int,std::allocator<int> > >
PUBLIC	?deallocate@?$allocator@V?$vector@HV?$allocator@H@std@@@std@@@std@@QAEXQAV?$vector@HV?$allocator@H@std@@@2@I@Z ; std::allocator<std::vector<int,std::allocator<int> > >::deallocate
PUBLIC	?allocate@?$allocator@V?$vector@HV?$allocator@H@std@@@std@@@std@@QAEPAV?$vector@HV?$allocator@H@std@@@2@I@Z ; std::allocator<std::vector<int,std::allocator<int> > >::allocate
PUBLIC	?max_size@?$_Default_allocator_traits@V?$allocator@V?$vector@HV?$allocator@H@std@@@std@@@std@@@std@@SAIABV?$allocator@V?$vector@HV?$allocator@H@std@@@std@@@2@@Z ; std::_Default_allocator_traits<std::allocator<std::vector<int,std::allocator<int> > > >::max_size
PUBLIC	??0?$vector@V?$vector@HV?$allocator@H@std@@@std@@V?$allocator@V?$vector@HV?$allocator@H@std@@@std@@@2@@std@@QAE@V?$initializer_list@V?$vector@HV?$allocator@H@std@@@std@@@1@ABV?$allocator@V?$vector@HV?$allocator@H@std@@@std@@@1@@Z ; std::vector<std::vector<int,std::allocator<int> >,std::allocator<std::vector<int,std::allocator<int> > > >::vector<std::vector<int,std::allocator<int> >,std::allocator<std::vector<int,std::allocator<int> > > >
PUBLIC	??1?$vector@V?$vector@HV?$allocator@H@std@@@std@@V?$allocator@V?$vector@HV?$allocator@H@std@@@std@@@2@@std@@QAE@XZ ; std::vector<std::vector<int,std::allocator<int> >,std::allocator<std::vector<int,std::allocator<int> > > >::~vector<std::vector<int,std::allocator<int> >,std::allocator<std::vector<int,std::allocator<int> > > >
PUBLIC	?max_size@?$vector@V?$vector@HV?$allocator@H@std@@@std@@V?$allocator@V?$vector@HV?$allocator@H@std@@@std@@@2@@std@@QBEIXZ ; std::vector<std::vector<int,std::allocator<int> >,std::allocator<std::vector<int,std::allocator<int> > > >::max_size
PUBLIC	?_Destroy@?$vector@V?$vector@HV?$allocator@H@std@@@std@@V?$allocator@V?$vector@HV?$allocator@H@std@@@std@@@2@@std@@AAEXPAV?$vector@HV?$allocator@H@std@@@2@0@Z ; std::vector<std::vector<int,std::allocator<int> >,std::allocator<std::vector<int,std::allocator<int> > > >::_Destroy
PUBLIC	?_Buy_raw@?$vector@V?$vector@HV?$allocator@H@std@@@std@@V?$allocator@V?$vector@HV?$allocator@H@std@@@std@@@2@@std@@AAEXI@Z ; std::vector<std::vector<int,std::allocator<int> >,std::allocator<std::vector<int,std::allocator<int> > > >::_Buy_raw
PUBLIC	?_Buy_nonzero@?$vector@V?$vector@HV?$allocator@H@std@@@std@@V?$allocator@V?$vector@HV?$allocator@H@std@@@std@@@2@@std@@AAEXI@Z ; std::vector<std::vector<int,std::allocator<int> >,std::allocator<std::vector<int,std::allocator<int> > > >::_Buy_nonzero
PUBLIC	?_Tidy@?$vector@V?$vector@HV?$allocator@H@std@@@std@@V?$allocator@V?$vector@HV?$allocator@H@std@@@std@@@2@@std@@AAEXXZ ; std::vector<std::vector<int,std::allocator<int> >,std::allocator<std::vector<int,std::allocator<int> > > >::_Tidy
PUBLIC	?_Xlength@?$vector@V?$vector@HV?$allocator@H@std@@@std@@V?$allocator@V?$vector@HV?$allocator@H@std@@@std@@@2@@std@@CAXXZ ; std::vector<std::vector<int,std::allocator<int> >,std::allocator<std::vector<int,std::allocator<int> > > >::_Xlength
PUBLIC	?_Getal@?$vector@V?$vector@HV?$allocator@H@std@@@std@@V?$allocator@V?$vector@HV?$allocator@H@std@@@std@@@2@@std@@AAEAAV?$allocator@V?$vector@HV?$allocator@H@std@@@std@@@2@XZ ; std::vector<std::vector<int,std::allocator<int> >,std::allocator<std::vector<int,std::allocator<int> > > >::_Getal
PUBLIC	?_Getal@?$vector@V?$vector@HV?$allocator@H@std@@@std@@V?$allocator@V?$vector@HV?$allocator@H@std@@@std@@@2@@std@@ABEABV?$allocator@V?$vector@HV?$allocator@H@std@@@std@@@2@XZ ; std::vector<std::vector<int,std::allocator<int> >,std::allocator<std::vector<int,std::allocator<int> > > >::_Getal
PUBLIC	??0?$_Vector_val@U?$_Simple_types@V?$vector@HV?$allocator@H@std@@@std@@@std@@@std@@QAE@XZ ; std::_Vector_val<std::_Simple_types<std::vector<int,std::allocator<int> > > >::_Vector_val<std::_Simple_types<std::vector<int,std::allocator<int> > > >
PUBLIC	?_Get_first@?$_Compressed_pair@V?$allocator@V?$vector@HV?$allocator@H@std@@@std@@@std@@V?$_Vector_val@U?$_Simple_types@V?$vector@HV?$allocator@H@std@@@std@@@std@@@2@$00@std@@QAEAAV?$allocator@V?$vector@HV?$allocator@H@std@@@std@@@2@XZ ; std::_Compressed_pair<std::allocator<std::vector<int,std::allocator<int> > >,std::_Vector_val<std::_Simple_types<std::vector<int,std::allocator<int> > > >,1>::_Get_first
PUBLIC	?_Get_first@?$_Compressed_pair@V?$allocator@V?$vector@HV?$allocator@H@std@@@std@@@std@@V?$_Vector_val@U?$_Simple_types@V?$vector@HV?$allocator@H@std@@@std@@@std@@@2@$00@std@@QBEABV?$allocator@V?$vector@HV?$allocator@H@std@@@std@@@2@XZ ; std::_Compressed_pair<std::allocator<std::vector<int,std::allocator<int> > >,std::_Vector_val<std::_Simple_types<std::vector<int,std::allocator<int> > > >,1>::_Get_first
PUBLIC	?__autoclassinit2@?$vector@V?$vector@HV?$allocator@H@std@@@std@@V?$allocator@V?$vector@HV?$allocator@H@std@@@std@@@2@@std@@QAEXI@Z ; std::vector<std::vector<int,std::allocator<int> >,std::allocator<std::vector<int,std::allocator<int> > > >::__autoclassinit2
PUBLIC	??0?$initializer_list@V?$vector@HV?$allocator@H@std@@@std@@@std@@QAE@PBV?$vector@HV?$allocator@H@std@@@1@0@Z ; std::initializer_list<std::vector<int,std::allocator<int> > >::initializer_list<std::vector<int,std::allocator<int> > >
PUBLIC	?begin@?$initializer_list@V?$vector@HV?$allocator@H@std@@@std@@@std@@QBEPBV?$vector@HV?$allocator@H@std@@@2@XZ ; std::initializer_list<std::vector<int,std::allocator<int> > >::begin
PUBLIC	?end@?$initializer_list@V?$vector@HV?$allocator@H@std@@@std@@@std@@QBEPBV?$vector@HV?$allocator@H@std@@@2@XZ ; std::initializer_list<std::vector<int,std::allocator<int> > >::end
PUBLIC	??$?0ABV?$allocator@H@std@@$$V@?$_Compressed_pair@V?$allocator@H@std@@V?$_Vector_val@U?$_Simple_types@H@std@@@2@$00@std@@QAE@U_One_then_variadic_args_t@1@ABV?$allocator@H@1@@Z ; std::_Compressed_pair<std::allocator<int>,std::_Vector_val<std::_Simple_types<int> >,1>::_Compressed_pair<std::allocator<int>,std::_Vector_val<std::_Simple_types<int> >,1><std::allocator<int> const &>
PUBLIC	?deallocate@?$allocator@U_Container_proxy@std@@@std@@QAEXQAU_Container_proxy@2@I@Z ; std::allocator<std::_Container_proxy>::deallocate
PUBLIC	?allocate@?$allocator@U_Container_proxy@std@@@std@@QAEPAU_Container_proxy@2@I@Z ; std::allocator<std::_Container_proxy>::allocate
PUBLIC	??$?0H@?$allocator@U_Container_proxy@std@@@std@@QAE@ABV?$allocator@H@1@@Z ; std::allocator<std::_Container_proxy>::allocator<std::_Container_proxy><int>
PUBLIC	??0?$_Container_proxy_ptr12@V?$allocator@U_Container_proxy@std@@@std@@@std@@QAE@AAV?$allocator@U_Container_proxy@std@@@1@AAU_Container_base12@1@@Z ; std::_Container_proxy_ptr12<std::allocator<std::_Container_proxy> >::_Container_proxy_ptr12<std::allocator<std::_Container_proxy> >
PUBLIC	??1?$_Container_proxy_ptr12@V?$allocator@U_Container_proxy@std@@@std@@@std@@QAE@XZ ; std::_Container_proxy_ptr12<std::allocator<std::_Container_proxy> >::~_Container_proxy_ptr12<std::allocator<std::_Container_proxy> >
PUBLIC	??$_Range_construct_or_tidy@PBH@?$vector@HV?$allocator@H@std@@@std@@AAEXPBH0Uforward_iterator_tag@1@@Z ; std::vector<int,std::allocator<int> >::_Range_construct_or_tidy<int const *>
PUBLIC	??$forward@ABV?$allocator@H@std@@@std@@YAABV?$allocator@H@0@ABV10@@Z ; std::forward<std::allocator<int> const &>
PUBLIC	??$_Unfancy@U_Container_proxy@std@@@std@@YAPAU_Container_proxy@0@PAU10@@Z ; std::_Unfancy<std::_Container_proxy>
PUBLIC	??$addressof@U_Container_proxy@std@@@std@@YAPAU_Container_proxy@0@AAU10@@Z ; std::addressof<std::_Container_proxy>
PUBLIC	??$forward@PAU_Container_base12@std@@@std@@YA$$QAPAU_Container_base12@0@AAPAU10@@Z ; std::forward<std::_Container_base12 *>
PUBLIC	??$construct_at@U_Container_proxy@std@@PAU_Container_base12@2@X@std@@YAPAU_Container_proxy@0@QAU10@$$QAPAU_Container_base12@0@@Z ; std::construct_at<std::_Container_proxy,std::_Container_base12 *,void>
PUBLIC	??$_Voidify_iter@PAU_Container_proxy@std@@@std@@YAPAXPAU_Container_proxy@0@@Z ; std::_Voidify_iter<std::_Container_proxy *>
PUBLIC	??$distance@PBH@std@@YAHPBH0@Z			; std::distance<int const *>
PUBLIC	??1?$_Tidy_guard@V?$vector@HV?$allocator@H@std@@@std@@@std@@QAE@XZ ; std::_Tidy_guard<std::vector<int,std::allocator<int> > >::~_Tidy_guard<std::vector<int,std::allocator<int> > >
PUBLIC	??$_Ucopy@PBH@?$vector@HV?$allocator@H@std@@@std@@AAEPAHPBH0PAH@Z ; std::vector<int,std::allocator<int> >::_Ucopy<int const *>
PUBLIC	??$min@I@std@@YAABIABI0@Z			; std::min<unsigned int>
PUBLIC	??$_Uninitialized_copy@PBHV?$allocator@H@std@@@std@@YAPAHQBH0PAHAAV?$allocator@H@0@@Z ; std::_Uninitialized_copy<int const *,std::allocator<int> >
PUBLIC	??$_Get_unwrapped@ABQBH@std@@YA?A_TABQBH@Z	; std::_Get_unwrapped<int const * const &>
PUBLIC	??$to_address@$$CBH@std@@YAPBHQBH@Z		; std::to_address<int const >
PUBLIC	??$to_address@H@std@@YAPAHQAH@Z			; std::to_address<int>
PUBLIC	??$_Unfancy@H@std@@YAPAHPAH@Z			; std::_Unfancy<int>
PUBLIC	??$_Copy_memmove@PBHPAH@std@@YAPAHPBH0PAH@Z	; std::_Copy_memmove<int const *,int *>
PUBLIC	??0?$_Uninitialized_backout_al@V?$allocator@H@std@@@std@@QAE@PAHAAV?$allocator@H@1@@Z ; std::_Uninitialized_backout_al<std::allocator<int> >::_Uninitialized_backout_al<std::allocator<int> >
PUBLIC	??1?$_Uninitialized_backout_al@V?$allocator@H@std@@@std@@QAE@XZ ; std::_Uninitialized_backout_al<std::allocator<int> >::~_Uninitialized_backout_al<std::allocator<int> >
PUBLIC	?_Release@?$_Uninitialized_backout_al@V?$allocator@H@std@@@std@@QAEPAHXZ ; std::_Uninitialized_backout_al<std::allocator<int> >::_Release
PUBLIC	?__autoclassinit2@?$_Uninitialized_backout_al@V?$allocator@H@std@@@std@@QAEXI@Z ; std::_Uninitialized_backout_al<std::allocator<int> >::__autoclassinit2
PUBLIC	??$_Emplace_back@ABH@?$_Uninitialized_backout_al@V?$allocator@H@std@@@std@@QAEXABH@Z ; std::_Uninitialized_backout_al<std::allocator<int> >::_Emplace_back<int const &>
PUBLIC	??$forward@ABH@std@@YAABHABH@Z			; std::forward<int const &>
PUBLIC	??$construct@HABH@?$_Default_allocator_traits@V?$allocator@H@std@@@std@@SAXAAV?$allocator@H@1@QAHABH@Z ; std::_Default_allocator_traits<std::allocator<int> >::construct<int,int const &>
PUBLIC	??$construct_at@HABHX@std@@YAPAHQAHABH@Z	; std::construct_at<int,int const &,void>
PUBLIC	??$_Voidify_iter@PAH@std@@YAPAXPAH@Z		; std::_Voidify_iter<int *>
PUBLIC	??$_Destroy_range@V?$allocator@H@std@@@std@@YAXPAHQAHAAV?$allocator@H@0@@Z ; std::_Destroy_range<std::allocator<int> >
PUBLIC	??$_Delete_plain_internal@V?$allocator@U_Container_proxy@std@@@std@@@std@@YAXAAV?$allocator@U_Container_proxy@std@@@0@QAU_Container_proxy@0@@Z ; std::_Delete_plain_internal<std::allocator<std::_Container_proxy> >
PUBLIC	??$?0ABV?$allocator@V?$vector@HV?$allocator@H@std@@@std@@@std@@$$V@?$_Compressed_pair@V?$allocator@V?$vector@HV?$allocator@H@std@@@std@@@std@@V?$_Vector_val@U?$_Simple_types@V?$vector@HV?$allocator@H@std@@@std@@@std@@@2@$00@std@@QAE@U_One_then_variadic_args_t@1@ABV?$allocator@V?$vector@HV?$allocator@H@std@@@std@@@1@@Z ; std::_Compressed_pair<std::allocator<std::vector<int,std::allocator<int> > >,std::_Vector_val<std::_Simple_types<std::vector<int,std::allocator<int> > > >,1>::_Compressed_pair<std::allocator<std::vector<int,std::allocator<int> > >,std::_Vector_val<std::_Simple_types<std::vector<int,std::allocator<int> > > >,1><std::allocator<std::vector<int,std::allocator<int> > > const &>
PUBLIC	??$?0V?$vector@HV?$allocator@H@std@@@std@@@?$allocator@U_Container_proxy@std@@@std@@QAE@ABV?$allocator@V?$vector@HV?$allocator@H@std@@@std@@@1@@Z ; std::allocator<std::_Container_proxy>::allocator<std::_Container_proxy><std::vector<int,std::allocator<int> > >
PUBLIC	??$_Range_construct_or_tidy@PBV?$vector@HV?$allocator@H@std@@@std@@@?$vector@V?$vector@HV?$allocator@H@std@@@std@@V?$allocator@V?$vector@HV?$allocator@H@std@@@std@@@2@@std@@AAEXPBV?$vector@HV?$allocator@H@std@@@1@0Uforward_iterator_tag@1@@Z ; std::vector<std::vector<int,std::allocator<int> >,std::allocator<std::vector<int,std::allocator<int> > > >::_Range_construct_or_tidy<std::vector<int,std::allocator<int> > const *>
PUBLIC	??$forward@ABV?$allocator@V?$vector@HV?$allocator@H@std@@@std@@@std@@@std@@YAABV?$allocator@V?$vector@HV?$allocator@H@std@@@std@@@0@ABV10@@Z ; std::forward<std::allocator<std::vector<int,std::allocator<int> > > const &>
PUBLIC	??$distance@PBV?$vector@HV?$allocator@H@std@@@std@@@std@@YAHPBV?$vector@HV?$allocator@H@std@@@0@0@Z ; std::distance<std::vector<int,std::allocator<int> > const *>
PUBLIC	??1?$_Tidy_guard@V?$vector@V?$vector@HV?$allocator@H@std@@@std@@V?$allocator@V?$vector@HV?$allocator@H@std@@@std@@@2@@std@@@std@@QAE@XZ ; std::_Tidy_guard<std::vector<std::vector<int,std::allocator<int> >,std::allocator<std::vector<int,std::allocator<int> > > > >::~_Tidy_guard<std::vector<std::vector<int,std::allocator<int> >,std::allocator<std::vector<int,std::allocator<int> > > > >
PUBLIC	??$_Ucopy@PBV?$vector@HV?$allocator@H@std@@@std@@@?$vector@V?$vector@HV?$allocator@H@std@@@std@@V?$allocator@V?$vector@HV?$allocator@H@std@@@std@@@2@@std@@AAEPAV?$vector@HV?$allocator@H@std@@@1@PBV21@0PAV21@@Z ; std::vector<std::vector<int,std::allocator<int> >,std::allocator<std::vector<int,std::allocator<int> > > >::_Ucopy<std::vector<int,std::allocator<int> > const *>
PUBLIC	??$_Uninitialized_copy@PBV?$vector@HV?$allocator@H@std@@@std@@V?$allocator@V?$vector@HV?$allocator@H@std@@@std@@@2@@std@@YAPAV?$vector@HV?$allocator@H@std@@@0@QBV10@0PAV10@AAV?$allocator@V?$vector@HV?$allocator@H@std@@@std@@@0@@Z ; std::_Uninitialized_copy<std::vector<int,std::allocator<int> > const *,std::allocator<std::vector<int,std::allocator<int> > > >
PUBLIC	??$_Get_unwrapped@ABQBV?$vector@HV?$allocator@H@std@@@std@@@std@@YA?A_TABQBV?$vector@HV?$allocator@H@std@@@0@@Z ; std::_Get_unwrapped<std::vector<int,std::allocator<int> > const * const &>
PUBLIC	??0?$_Uninitialized_backout_al@V?$allocator@V?$vector@HV?$allocator@H@std@@@std@@@std@@@std@@QAE@PAV?$vector@HV?$allocator@H@std@@@1@AAV?$allocator@V?$vector@HV?$allocator@H@std@@@std@@@1@@Z ; std::_Uninitialized_backout_al<std::allocator<std::vector<int,std::allocator<int> > > >::_Uninitialized_backout_al<std::allocator<std::vector<int,std::allocator<int> > > >
PUBLIC	??1?$_Uninitialized_backout_al@V?$allocator@V?$vector@HV?$allocator@H@std@@@std@@@std@@@std@@QAE@XZ ; std::_Uninitialized_backout_al<std::allocator<std::vector<int,std::allocator<int> > > >::~_Uninitialized_backout_al<std::allocator<std::vector<int,std::allocator<int> > > >
PUBLIC	?_Release@?$_Uninitialized_backout_al@V?$allocator@V?$vector@HV?$allocator@H@std@@@std@@@std@@@std@@QAEPAV?$vector@HV?$allocator@H@std@@@2@XZ ; std::_Uninitialized_backout_al<std::allocator<std::vector<int,std::allocator<int> > > >::_Release
PUBLIC	?__autoclassinit2@?$_Uninitialized_backout_al@V?$allocator@V?$vector@HV?$allocator@H@std@@@std@@@std@@@std@@QAEXI@Z ; std::_Uninitialized_backout_al<std::allocator<std::vector<int,std::allocator<int> > > >::__autoclassinit2
PUBLIC	??$_Emplace_back@ABV?$vector@HV?$allocator@H@std@@@std@@@?$_Uninitialized_backout_al@V?$allocator@V?$vector@HV?$allocator@H@std@@@std@@@std@@@std@@QAEXABV?$vector@HV?$allocator@H@std@@@1@@Z ; std::_Uninitialized_backout_al<std::allocator<std::vector<int,std::allocator<int> > > >::_Emplace_back<std::vector<int,std::allocator<int> > const &>
PUBLIC	??$_Unfancy@V?$vector@HV?$allocator@H@std@@@std@@@std@@YAPAV?$vector@HV?$allocator@H@std@@@0@PAV10@@Z ; std::_Unfancy<std::vector<int,std::allocator<int> > >
PUBLIC	??$forward@ABV?$vector@HV?$allocator@H@std@@@std@@@std@@YAABV?$vector@HV?$allocator@H@std@@@0@ABV10@@Z ; std::forward<std::vector<int,std::allocator<int> > const &>
PUBLIC	??$construct@V?$vector@HV?$allocator@H@std@@@std@@ABV12@@?$_Default_allocator_traits@V?$allocator@V?$vector@HV?$allocator@H@std@@@std@@@std@@@std@@SAXAAV?$allocator@V?$vector@HV?$allocator@H@std@@@std@@@1@QAV?$vector@HV?$allocator@H@std@@@1@ABV31@@Z ; std::_Default_allocator_traits<std::allocator<std::vector<int,std::allocator<int> > > >::construct<std::vector<int,std::allocator<int> >,std::vector<int,std::allocator<int> > const &>
PUBLIC	??$construct_at@V?$vector@HV?$allocator@H@std@@@std@@ABV12@X@std@@YAPAV?$vector@HV?$allocator@H@std@@@0@QAV10@ABV10@@Z ; std::construct_at<std::vector<int,std::allocator<int> >,std::vector<int,std::allocator<int> > const &,void>
PUBLIC	??$_Voidify_iter@PAV?$vector@HV?$allocator@H@std@@@std@@@std@@YAPAXPAV?$vector@HV?$allocator@H@std@@@0@@Z ; std::_Voidify_iter<std::vector<int,std::allocator<int> > *>
PUBLIC	??$?0V?$allocator@H@std@@$$V@?$_Compressed_pair@V?$allocator@H@std@@V?$_Vector_val@U?$_Simple_types@H@std@@@2@$00@std@@QAE@U_One_then_variadic_args_t@1@$$QAV?$allocator@H@1@@Z ; std::_Compressed_pair<std::allocator<int>,std::_Vector_val<std::_Simple_types<int> >,1>::_Compressed_pair<std::allocator<int>,std::_Vector_val<std::_Simple_types<int> >,1><std::allocator<int> >
PUBLIC	??$_Ucopy@PAH@?$vector@HV?$allocator@H@std@@@std@@AAEPAHPAH00@Z ; std::vector<int,std::allocator<int> >::_Ucopy<int *>
PUBLIC	??$forward@V?$allocator@H@std@@@std@@YA$$QAV?$allocator@H@0@AAV10@@Z ; std::forward<std::allocator<int> >
PUBLIC	??$_Uninitialized_copy@PAHV?$allocator@H@std@@@std@@YAPAHQAH0PAHAAV?$allocator@H@0@@Z ; std::_Uninitialized_copy<int *,std::allocator<int> >
PUBLIC	??$_Get_unwrapped@ABQAH@std@@YA?A_TABQAH@Z	; std::_Get_unwrapped<int * const &>
PUBLIC	??$_Copy_memmove@PAHPAH@std@@YAPAHPAH00@Z	; std::_Copy_memmove<int *,int *>
PUBLIC	??$_Emplace_back@AAH@?$_Uninitialized_backout_al@V?$allocator@H@std@@@std@@QAEXAAH@Z ; std::_Uninitialized_backout_al<std::allocator<int> >::_Emplace_back<int &>
PUBLIC	??$forward@AAH@std@@YAAAHAAH@Z			; std::forward<int &>
PUBLIC	??$construct@HAAH@?$_Default_allocator_traits@V?$allocator@H@std@@@std@@SAXAAV?$allocator@H@1@QAHAAH@Z ; std::_Default_allocator_traits<std::allocator<int> >::construct<int,int &>
PUBLIC	??$construct_at@HAAHX@std@@YAPAHQAHAAH@Z	; std::construct_at<int,int &,void>
PUBLIC	??$_Destroy_range@V?$allocator@V?$vector@HV?$allocator@H@std@@@std@@@std@@@std@@YAXPAV?$vector@HV?$allocator@H@std@@@0@QAV10@AAV?$allocator@V?$vector@HV?$allocator@H@std@@@std@@@0@@Z ; std::_Destroy_range<std::allocator<std::vector<int,std::allocator<int> > > >
PUBLIC	??$destroy@V?$vector@HV?$allocator@H@std@@@std@@@?$_Default_allocator_traits@V?$allocator@V?$vector@HV?$allocator@H@std@@@std@@@std@@@std@@SAXAAV?$allocator@V?$vector@HV?$allocator@H@std@@@std@@@1@QAV?$vector@HV?$allocator@H@std@@@1@@Z ; std::_Default_allocator_traits<std::allocator<std::vector<int,std::allocator<int> > > >::destroy<std::vector<int,std::allocator<int> > >
PUBLIC	?__autoclassinit2@Univers@@QAEXI@Z		; Univers::__autoclassinit2
PUBLIC	_main
PUBLIC	??$_Get_size_of_n@$07@std@@YAII@Z		; std::_Get_size_of_n<8>
PUBLIC	??$_Allocate@$07U_Default_allocate_traits@std@@$0A@@std@@YAPAXI@Z ; std::_Allocate<8,std::_Default_allocate_traits,0>
PUBLIC	??$exchange@PAU_Container_proxy@std@@$$T@std@@YAPAU_Container_proxy@0@AAPAU10@$$QA$$T@Z ; std::exchange<std::_Container_proxy *,std::nullptr_t>
PUBLIC	??$_Get_size_of_n@$0BA@@std@@YAII@Z		; std::_Get_size_of_n<16>
PUBLIC	??$_Get_size_of_n@$03@std@@YAII@Z		; std::_Get_size_of_n<4>
PUBLIC	??$addressof@$$CBV?$basic_string@DU?$char_traits@D@std@@V?$allocator@D@2@@std@@@std@@YAPBV?$basic_string@DU?$char_traits@D@std@@V?$allocator@D@2@@0@ABV10@@Z ; std::addressof<std::basic_string<char,std::char_traits<char>,std::allocator<char> > const >
PUBLIC	??$?0D@?$allocator@U_Container_proxy@std@@@std@@QAE@ABV?$allocator@D@1@@Z ; std::allocator<std::_Container_proxy>::allocator<std::_Container_proxy><char>
PUBLIC	??$?0$$V@?$_Compressed_pair@V?$allocator@D@std@@V?$_String_val@U?$_Simple_types@D@std@@@2@$00@std@@QAE@U_Zero_then_variadic_args_t@1@@Z ; std::_Compressed_pair<std::allocator<char>,std::_String_val<std::_Simple_types<char> >,1>::_Compressed_pair<std::allocator<char>,std::_String_val<std::_Simple_types<char> >,1><>
PUBLIC	??$_Deallocate@$07$0A@@std@@YAXPAXI@Z		; std::_Deallocate<8,0>
PUBLIC	??$_Destroy_in_place@PAD@std@@YAXAAPAD@Z	; std::_Destroy_in_place<char *>
PUBLIC	??$_Unfancy@D@std@@YAPADPAD@Z			; std::_Unfancy<char>
PUBLIC	??R<lambda_1>@?1??assign@?$basic_string@DU?$char_traits@D@std@@V?$allocator@D@2@@std@@QAEAAV23@QBDI@Z@QBE@QADI0@Z ; `std::basic_string<char,std::char_traits<char>,std::allocator<char> >::assign'::`2'::<lambda_1>::operator()
PUBLIC	??$_Reallocate_for@V<lambda_1>@?1??assign@?$basic_string@DU?$char_traits@D@std@@V?$allocator@D@2@@std@@QAEAAV34@QBDI@Z@PBD@?$basic_string@DU?$char_traits@D@std@@V?$allocator@D@2@@std@@AAEAAV01@IV<lambda_1>@?1??assign@01@QAEAAV01@QBDI@Z@PBD@Z ; std::basic_string<char,std::char_traits<char>,std::allocator<char> >::_Reallocate_for<`std::basic_string<char,std::char_traits<char>,std::allocator<char> >::assign'::`2'::<lambda_1>,char const *>
PUBLIC	??$_Pocca@V?$allocator@D@std@@@std@@YAXAAV?$allocator@D@0@ABV10@@Z ; std::_Pocca<std::allocator<char> >
PUBLIC	??$_Construct_in_place@PADABQAD@std@@YAXAAPADABQAD@Z ; std::_Construct_in_place<char *,char * const &>
PUBLIC	??$_Get_size_of_n@$00@std@@YAII@Z		; std::_Get_size_of_n<1>
PUBLIC	??$construct_at@DABDX@std@@YAPADQADABD@Z	; std::construct_at<char,char const &,void>
PUBLIC	??$_Voidify_iter@PAD@std@@YAPAXPAD@Z		; std::_Voidify_iter<char *>
PUBLIC	??$forward@ABD@std@@YAABDABD@Z			; std::forward<char const &>
PUBLIC	??$_To_address@PBH@std@@YA?A_PABQBH@Z		; std::_To_address<int const *>
PUBLIC	??$_To_address@PAH@std@@YA?A_PABQAH@Z		; std::_To_address<int *>
PUBLIC	??$_Deallocate_plain@V?$allocator@U_Container_proxy@std@@@std@@@std@@YAXAAV?$allocator@U_Container_proxy@std@@@0@QAU_Container_proxy@0@@Z ; std::_Deallocate_plain<std::allocator<std::_Container_proxy> >
PUBLIC	??$destroy_at@V?$vector@HV?$allocator@H@std@@@std@@@std@@YAXQAV?$vector@HV?$allocator@H@std@@@0@@Z ; std::destroy_at<std::vector<int,std::allocator<int> > >
PUBLIC	??$_Allocate_manually_vector_aligned@U_Default_allocate_traits@std@@@std@@YAPAXI@Z ; std::_Allocate_manually_vector_aligned<std::_Default_allocate_traits>
PUBLIC	??$addressof@PAD@std@@YAPAPADAAPAD@Z		; std::addressof<char *>
PUBLIC	??$forward@ABQAD@std@@YAABQADABQAD@Z		; std::forward<char * const &>
PUBLIC	??$construct_at@PADABQADX@std@@YAPAPADQAPADABQAD@Z ; std::construct_at<char *,char * const &,void>
PUBLIC	??$_Voidify_iter@PAPAD@std@@YAPAXPAPAD@Z	; std::_Voidify_iter<char * *>
PUBLIC	?deallocate@?$_Default_allocator_traits@V?$allocator@U_Container_proxy@std@@@std@@@std@@SAXAAV?$allocator@U_Container_proxy@std@@@2@QAU_Container_proxy@2@I@Z ; std::_Default_allocator_traits<std::allocator<std::_Container_proxy> >::deallocate
PUBLIC	__JustMyCode_Default
PUBLIC	??_7exception@std@@6B@				; std::exception::`vftable'
PUBLIC	??_C@_0BC@EOODALEL@Unknown?5exception@		; `string'
PUBLIC	??_7bad_alloc@std@@6B@				; std::bad_alloc::`vftable'
PUBLIC	??_7bad_array_new_length@std@@6B@		; std::bad_array_new_length::`vftable'
PUBLIC	??_C@_0BF@KINCDENJ@bad?5array?5new?5length@	; `string'
PUBLIC	__TI3?AVbad_array_new_length@std@@
PUBLIC	__CTA3?AVbad_array_new_length@std@@
PUBLIC	??_R0?AVbad_array_new_length@std@@@8		; std::bad_array_new_length `RTTI Type Descriptor'
PUBLIC	__CT??_R0?AVbad_array_new_length@std@@@8??0bad_array_new_length@std@@QAE@ABV01@@Z12
PUBLIC	??_R0?AVbad_alloc@std@@@8			; std::bad_alloc `RTTI Type Descriptor'
PUBLIC	__CT??_R0?AVbad_alloc@std@@@8??0bad_alloc@std@@QAE@ABV01@@Z12
PUBLIC	??_R0?AVexception@std@@@8			; std::exception `RTTI Type Descriptor'
PUBLIC	__CT??_R0?AVexception@std@@@8??0exception@std@@QAE@ABV01@@Z12
PUBLIC	??_C@_0BB@FCMFBGOM@invalid?5argument@		; `string'
PUBLIC	??_C@_02DKCKIIND@?$CFs@				; `string'
PUBLIC	??_C@_0GI@MNEMJBML@C?3?2Program?5Files?5?$CIx86?$CJ?2Microsof@ ; `string'
PUBLIC	??_C@_1NA@MJBOBEJL@?$AAC?$AA?3?$AA?2?$AAP?$AAr?$AAo?$AAg?$AAr?$AAa?$AAm?$AA?5?$AAF?$AAi?$AAl?$AAe@ ; `string'
PUBLIC	??_C@_1EK@NIFDJFDG@?$AAs?$AAt?$AAd?$AA?3?$AA?3?$AA_?$AAA?$AAd?$AAj?$AAu?$AAs?$AAt?$AA_?$AAm?$AAa@ ; `string'
PUBLIC	??_C@_1CG@JNLFBNGN@?$AA?$CC?$AAi?$AAn?$AAv?$AAa?$AAl?$AAi?$AAd?$AA?5?$AAa?$AAr?$AAg?$AAu?$AAm?$AAe@ ; `string'
PUBLIC	??_C@_0BA@JFNIOLAK@string?5too?5long@		; `string'
PUBLIC	??_C@_0GI@GFIAKDGM@C?3?2Program?5Files?5?$CIx86?$CJ?2Microsof@ ; `string'
PUBLIC	??_C@_0GI@OGMNKBMN@C?3?2Program?5Files?5?$CIx86?$CJ?2Microsof@ ; `string'
PUBLIC	?level1@@3V?$vector@V?$vector@HV?$allocator@H@std@@@std@@V?$allocator@V?$vector@HV?$allocator@H@std@@@std@@@2@@std@@A ; level1
PUBLIC	??_C@_0BA@FOIKENOD@vector?5too?5long@		; `string'
PUBLIC	??_C@_0N@LPFKKEBD@?3AM?3am?3PM?3pm@		; `string'
PUBLIC	??_C@_1BK@MHIKGOKE@?$AA?3?$AAA?$AAM?$AA?3?$AAa?$AAm?$AA?3?$AAP?$AAM?$AA?3?$AAp?$AAm@ ; `string'
PUBLIC	??_R4exception@std@@6B@				; std::exception::`RTTI Complete Object Locator'
PUBLIC	??_R3exception@std@@8				; std::exception::`RTTI Class Hierarchy Descriptor'
PUBLIC	??_R2exception@std@@8				; std::exception::`RTTI Base Class Array'
PUBLIC	??_R1A@?0A@EA@exception@std@@8			; std::exception::`RTTI Base Class Descriptor at (0,-1,0,64)'
PUBLIC	??_R4bad_alloc@std@@6B@				; std::bad_alloc::`RTTI Complete Object Locator'
PUBLIC	??_R3bad_alloc@std@@8				; std::bad_alloc::`RTTI Class Hierarchy Descriptor'
PUBLIC	??_R2bad_alloc@std@@8				; std::bad_alloc::`RTTI Base Class Array'
PUBLIC	??_R1A@?0A@EA@bad_alloc@std@@8			; std::bad_alloc::`RTTI Base Class Descriptor at (0,-1,0,64)'
PUBLIC	??_R4bad_array_new_length@std@@6B@		; std::bad_array_new_length::`RTTI Complete Object Locator'
PUBLIC	??_R3bad_array_new_length@std@@8		; std::bad_array_new_length::`RTTI Class Hierarchy Descriptor'
PUBLIC	??_R2bad_array_new_length@std@@8		; std::bad_array_new_length::`RTTI Base Class Array'
PUBLIC	??_R1A@?0A@EA@bad_array_new_length@std@@8	; std::bad_array_new_length::`RTTI Base Class Descriptor at (0,-1,0,64)'
EXTRN	??_M@YGXPAXIIP6EX0@Z@Z:PROC			; `eh vector destructor iterator'
EXTRN	??2@YAPAXI@Z:PROC				; operator new
EXTRN	??3@YAXPAX@Z:PROC				; operator delete
EXTRN	??3@YAXPAXI@Z:PROC				; operator delete
EXTRN	_atexit:PROC
EXTRN	__imp___invalid_parameter:PROC
EXTRN	__imp___calloc_dbg:PROC
EXTRN	__imp___CrtDbgReport:PROC
EXTRN	__imp_??0_Lockit@std@@QAE@H@Z:PROC
EXTRN	__imp_??1_Lockit@std@@QAE@XZ:PROC
EXTRN	_memcpy:PROC
EXTRN	_memmove:PROC
EXTRN	_memset:PROC
EXTRN	__imp__wcslen:PROC
EXTRN	_strlen:PROC
EXTRN	?_Xbad_alloc@std@@YAXXZ:PROC			; std::_Xbad_alloc
EXTRN	?_Xlength_error@std@@YAXPBD@Z:PROC		; std::_Xlength_error
EXTRN	___std_exception_copy:PROC
EXTRN	___std_exception_destroy:PROC
EXTRN	??_Eexception@std@@UAEPAXI@Z:PROC		; std::exception::`vector deleting destructor'
EXTRN	??_Ebad_alloc@std@@UAEPAXI@Z:PROC		; std::bad_alloc::`vector deleting destructor'
EXTRN	??_Ebad_array_new_length@std@@UAEPAXI@Z:PROC	; std::bad_array_new_length::`vector deleting destructor'
EXTRN	__Mbrtowc:PROC
EXTRN	__imp_?_Getcvt@_Locinfo@std@@QBE?AU_Cvtvec@@XZ:PROC
EXTRN	__imp_?_Getdays@_Locinfo@std@@QBEPBDXZ:PROC
EXTRN	__imp_?_Getmonths@_Locinfo@std@@QBEPBDXZ:PROC
EXTRN	__imp_?_W_Getdays@_Locinfo@std@@QBEPBGXZ:PROC
EXTRN	__imp_?_W_Getmonths@_Locinfo@std@@QBEPBGXZ:PROC
EXTRN	?_Init@locale@std@@CAPAV_Locimp@12@_N@Z:PROC	; std::locale::_Init
EXTRN	__imp_??0String@sf@@QAE@PBDABVlocale@std@@@Z:PROC
EXTRN	__imp_??1String@sf@@QAE@XZ:PROC
EXTRN	__imp_??0VideoMode@sf@@QAE@III@Z:PROC
EXTRN	__imp_?setIcon@Window@sf@@QAEXIIPBE@Z:PROC
EXTRN	__imp_?setFramerateLimit@Window@sf@@QAEXI@Z:PROC
EXTRN	__imp_??0Image@sf@@QAE@XZ:PROC
EXTRN	__imp_??1Image@sf@@QAE@XZ:PROC
EXTRN	__imp_?loadFromFile@Image@sf@@QAE_NABV?$basic_string@DU?$char_traits@D@std@@V?$allocator@D@2@@std@@@Z:PROC
EXTRN	__imp_?getSize@Image@sf@@QBE?AV?$Vector2@I@2@XZ:PROC
EXTRN	__imp_?getPixelsPtr@Image@sf@@QBEPBEXZ:PROC
EXTRN	__imp_??0RenderWindow@sf@@QAE@VVideoMode@1@ABVString@1@IABUContextSettings@1@@Z:PROC
EXTRN	__imp_??1RenderWindow@sf@@UAE@XZ:PROC
EXTRN	??0RessourcePack@@QAE@XZ:PROC			; RessourcePack::RessourcePack
EXTRN	??1RessourcePack@@QAE@XZ:PROC			; RessourcePack::~RessourcePack
EXTRN	??0Univers@@QAE@PAVRessourcePack@@PAVRenderWindow@sf@@@Z:PROC ; Univers::Univers
EXTRN	?animate@Univers@@QAEXXZ:PROC			; Univers::animate
EXTRN	@__CheckForDebuggerJustMyCode@4:PROC
EXTRN	@__security_check_cookie@4:PROC
EXTRN	__CxxThrowException@8:PROC
EXTRN	__RTC_InitBase:PROC
EXTRN	__RTC_Shutdown:PROC
EXTRN	___CxxFrameHandler3:PROC
EXTRN	___asan_loadN:PROC
EXTRN	___asan_memcpy:PROC
EXTRN	___asan_memset:PROC
EXTRN	___asan_report_load1:PROC
EXTRN	___asan_report_load4:PROC
EXTRN	___asan_report_store1:PROC
EXTRN	___asan_report_store2:PROC
EXTRN	___asan_report_store4:PROC
EXTRN	___asan_set_shadow_00:PROC
EXTRN	___asan_set_shadow_f8:PROC
EXTRN	___asan_storeN:PROC
EXTRN	??_7type_info@@6B@:QWORD			; type_info::`vftable'
EXTRN	___security_cookie:DWORD
;	COMDAT ?level1@@3V?$vector@V?$vector@HV?$allocator@H@std@@@std@@V?$allocator@V?$vector@HV?$allocator@H@std@@@std@@@2@@std@@A
_BSS	SEGMENT
?level1@@3V?$vector@V?$vector@HV?$allocator@H@std@@@std@@V?$allocator@V?$vector@HV?$allocator@H@std@@@std@@@2@@std@@A DB 010H DUP (?) ; level1
___asan_rrz_?level1@@3V?$vector@V?$vector@HV?$allocator@H@std@@@std@@V?$allocator@V?$vector@HV?$allocator@H@std@@@std@@@2@@std@@A DB 030H DUP (?)
_BSS	ENDS
;	COMDAT ??_C@_0BC@EOODALEL@Unknown?5exception@
CONST	SEGMENT
??_C@_0BC@EOODALEL@Unknown?5exception@ DB 'Unknown exception', 00H ; `string'
___asan_rrz_??_C@_0BC@EOODALEL@Unknown?5exception@ DD 0f9H
CONST	ENDS
;	COMDAT ??_C@_0BF@KINCDENJ@bad?5array?5new?5length@
CONST	SEGMENT
??_C@_0BF@KINCDENJ@bad?5array?5new?5length@ DB 'bad array new length', 00H ; `string'
___asan_rrz_??_C@_0BF@KINCDENJ@bad?5array?5new?5length@ DD 0f9H
CONST	ENDS
;	COMDAT ??_C@_0BB@FCMFBGOM@invalid?5argument@
CONST	SEGMENT
??_C@_0BB@FCMFBGOM@invalid?5argument@ DB 'invalid argument', 00H ; `string'
___asan_rrz_??_C@_0BB@FCMFBGOM@invalid?5argument@ DD 0f9H
CONST	ENDS
;	COMDAT ??_C@_02DKCKIIND@?$CFs@
CONST	SEGMENT
??_C@_02DKCKIIND@?$CFs@ DB '%s', 00H			; `string'
___asan_rrz_??_C@_02DKCKIIND@?$CFs@ DD 0f9H
CONST	ENDS
;	COMDAT ??_C@_0GI@MNEMJBML@C?3?2Program?5Files?5?$CIx86?$CJ?2Microsof@
CONST	SEGMENT
??_C@_0GI@MNEMJBML@C?3?2Program?5Files?5?$CIx86?$CJ?2Microsof@ DB 'C:\Pro'
	DB	'gram Files (x86)\Microsoft Visual Studio\2019\Community\VC\To'
	DB	'ols\MSVC\14.29.30133\include\xmemory', 00H	; `string'
___asan_rrz_??_C@_0GI@MNEMJBML@C?3?2Program?5Files?5?$CIx86?$CJ?2Microsof@ DD 0f9H
CONST	ENDS
;	COMDAT ??_C@_1NA@MJBOBEJL@?$AAC?$AA?3?$AA?2?$AAP?$AAr?$AAo?$AAg?$AAr?$AAa?$AAm?$AA?5?$AAF?$AAi?$AAl?$AAe@
CONST	SEGMENT
??_C@_1NA@MJBOBEJL@?$AAC?$AA?3?$AA?2?$AAP?$AAr?$AAo?$AAg?$AAr?$AAa?$AAm?$AA?5?$AAF?$AAi?$AAl?$AAe@ DB 'C'
	DB	00H, ':', 00H, '\', 00H, 'P', 00H, 'r', 00H, 'o', 00H, 'g', 00H
	DB	'r', 00H, 'a', 00H, 'm', 00H, ' ', 00H, 'F', 00H, 'i', 00H, 'l'
	DB	00H, 'e', 00H, 's', 00H, ' ', 00H, '(', 00H, 'x', 00H, '8', 00H
	DB	'6', 00H, ')', 00H, '\', 00H, 'M', 00H, 'i', 00H, 'c', 00H, 'r'
	DB	00H, 'o', 00H, 's', 00H, 'o', 00H, 'f', 00H, 't', 00H, ' ', 00H
	DB	'V', 00H, 'i', 00H, 's', 00H, 'u', 00H, 'a', 00H, 'l', 00H, ' '
	DB	00H, 'S', 00H, 't', 00H, 'u', 00H, 'd', 00H, 'i', 00H, 'o', 00H
	DB	'\', 00H, '2', 00H, '0', 00H, '1', 00H, '9', 00H, '\', 00H, 'C'
	DB	00H, 'o', 00H, 'm', 00H, 'm', 00H, 'u', 00H, 'n', 00H, 'i', 00H
	DB	't', 00H, 'y', 00H, '\', 00H, 'V', 00H, 'C', 00H, '\', 00H, 'T'
	DB	00H, 'o', 00H, 'o', 00H, 'l', 00H, 's', 00H, '\', 00H, 'M', 00H
	DB	'S', 00H, 'V', 00H, 'C', 00H, '\', 00H, '1', 00H, '4', 00H, '.'
	DB	00H, '2', 00H, '9', 00H, '.', 00H, '3', 00H, '0', 00H, '1', 00H
	DB	'3', 00H, '3', 00H, '\', 00H, 'i', 00H, 'n', 00H, 'c', 00H, 'l'
	DB	00H, 'u', 00H, 'd', 00H, 'e', 00H, '\', 00H, 'x', 00H, 'm', 00H
	DB	'e', 00H, 'm', 00H, 'o', 00H, 'r', 00H, 'y', 00H, 00H, 00H ; `string'
___asan_rrz_??_C@_1NA@MJBOBEJL@?$AAC?$AA?3?$AA?2?$AAP?$AAr?$AAo?$AAg?$AAr?$AAa?$AAm?$AA?5?$AAF?$AAi?$AAl?$AAe@ DD 0f9H
CONST	ENDS
;	COMDAT ??_C@_1EK@NIFDJFDG@?$AAs?$AAt?$AAd?$AA?3?$AA?3?$AA_?$AAA?$AAd?$AAj?$AAu?$AAs?$AAt?$AA_?$AAm?$AAa@
CONST	SEGMENT
??_C@_1EK@NIFDJFDG@?$AAs?$AAt?$AAd?$AA?3?$AA?3?$AA_?$AAA?$AAd?$AAj?$AAu?$AAs?$AAt?$AA_?$AAm?$AAa@ DB 's'
	DB	00H, 't', 00H, 'd', 00H, ':', 00H, ':', 00H, '_', 00H, 'A', 00H
	DB	'd', 00H, 'j', 00H, 'u', 00H, 's', 00H, 't', 00H, '_', 00H, 'm'
	DB	00H, 'a', 00H, 'n', 00H, 'u', 00H, 'a', 00H, 'l', 00H, 'l', 00H
	DB	'y', 00H, '_', 00H, 'v', 00H, 'e', 00H, 'c', 00H, 't', 00H, 'o'
	DB	00H, 'r', 00H, '_', 00H, 'a', 00H, 'l', 00H, 'i', 00H, 'g', 00H
	DB	'n', 00H, 'e', 00H, 'd', 00H, 00H, 00H	; `string'
___asan_rrz_??_C@_1EK@NIFDJFDG@?$AAs?$AAt?$AAd?$AA?3?$AA?3?$AA_?$AAA?$AAd?$AAj?$AAu?$AAs?$AAt?$AA_?$AAm?$AAa@ DD 0f9H
CONST	ENDS
;	COMDAT ??_C@_1CG@JNLFBNGN@?$AA?$CC?$AAi?$AAn?$AAv?$AAa?$AAl?$AAi?$AAd?$AA?5?$AAa?$AAr?$AAg?$AAu?$AAm?$AAe@
CONST	SEGMENT
??_C@_1CG@JNLFBNGN@?$AA?$CC?$AAi?$AAn?$AAv?$AAa?$AAl?$AAi?$AAd?$AA?5?$AAa?$AAr?$AAg?$AAu?$AAm?$AAe@ DB '"'
	DB	00H, 'i', 00H, 'n', 00H, 'v', 00H, 'a', 00H, 'l', 00H, 'i', 00H
	DB	'd', 00H, ' ', 00H, 'a', 00H, 'r', 00H, 'g', 00H, 'u', 00H, 'm'
	DB	00H, 'e', 00H, 'n', 00H, 't', 00H, '"', 00H, 00H, 00H ; `string'
___asan_rrz_??_C@_1CG@JNLFBNGN@?$AA?$CC?$AAi?$AAn?$AAv?$AAa?$AAl?$AAi?$AAd?$AA?5?$AAa?$AAr?$AAg?$AAu?$AAm?$AAe@ DD 0f9H
CONST	ENDS
;	COMDAT ??_C@_0BA@JFNIOLAK@string?5too?5long@
CONST	SEGMENT
??_C@_0BA@JFNIOLAK@string?5too?5long@ DB 'string too long', 00H ; `string'
___asan_rrz_??_C@_0BA@JFNIOLAK@string?5too?5long@ DD 0f9H
CONST	ENDS
;	COMDAT ??_C@_0GI@GFIAKDGM@C?3?2Program?5Files?5?$CIx86?$CJ?2Microsof@
CONST	SEGMENT
??_C@_0GI@GFIAKDGM@C?3?2Program?5Files?5?$CIx86?$CJ?2Microsof@ DB 'C:\Pro'
	DB	'gram Files (x86)\Microsoft Visual Studio\2019\Community\VC\To'
	DB	'ols\MSVC\14.29.30133\include\xlocale', 00H	; `string'
___asan_rrz_??_C@_0GI@GFIAKDGM@C?3?2Program?5Files?5?$CIx86?$CJ?2Microsof@ DD 0f9H
CONST	ENDS
;	COMDAT ??_C@_0GI@OGMNKBMN@C?3?2Program?5Files?5?$CIx86?$CJ?2Microsof@
CONST	SEGMENT
??_C@_0GI@OGMNKBMN@C?3?2Program?5Files?5?$CIx86?$CJ?2Microsof@ DB 'C:\Pro'
	DB	'gram Files (x86)\Microsoft Visual Studio\2019\Community\VC\To'
	DB	'ols\MSVC\14.29.30133\include\xlocnum', 00H	; `string'
___asan_rrz_??_C@_0GI@OGMNKBMN@C?3?2Program?5Files?5?$CIx86?$CJ?2Microsof@ DD 0f9H
CONST	ENDS
;	COMDAT ??_C@_0BA@FOIKENOD@vector?5too?5long@
CONST	SEGMENT
??_C@_0BA@FOIKENOD@vector?5too?5long@ DB 'vector too long', 00H ; `string'
___asan_rrz_??_C@_0BA@FOIKENOD@vector?5too?5long@ DD 0f9H
CONST	ENDS
;	COMDAT ??_C@_0N@LPFKKEBD@?3AM?3am?3PM?3pm@
CONST	SEGMENT
??_C@_0N@LPFKKEBD@?3AM?3am?3PM?3pm@ DB ':AM:am:PM:pm', 00H ; `string'
___asan_rrz_??_C@_0N@LPFKKEBD@?3AM?3am?3PM?3pm@ DD 0f9H
CONST	ENDS
;	COMDAT ??_C@_1BK@MHIKGOKE@?$AA?3?$AAA?$AAM?$AA?3?$AAa?$AAm?$AA?3?$AAP?$AAM?$AA?3?$AAp?$AAm@
CONST	SEGMENT
??_C@_1BK@MHIKGOKE@?$AA?3?$AAA?$AAM?$AA?3?$AAa?$AAm?$AA?3?$AAP?$AAM?$AA?3?$AAp?$AAm@ DB ':'
	DB	00H, 'A', 00H, 'M', 00H, ':', 00H, 'a', 00H, 'm', 00H, ':', 00H
	DB	'P', 00H, 'M', 00H, ':', 00H, 'p', 00H, 'm', 00H, 00H, 00H ; `string'
___asan_rrz_??_C@_1BK@MHIKGOKE@?$AA?3?$AAA?$AAM?$AA?3?$AAa?$AAm?$AA?3?$AAP?$AAM?$AA?3?$AAp?$AAm@ DD 0f9H
CONST	ENDS
;	COMDAT CRT$XCU
CRT$XCU	SEGMENT
?level1$initializer$@@3P6AXXZA DD FLAT:??__Elevel1@@YAXXZ ; level1$initializer$
CRT$XCU	ENDS
;	COMDAT ASAN$GL
ASAN$GL	SEGMENT
_L___asan_global_??_C@_1BK@MHIKGOKE@?$AA?3?$AAA?$AAM?$AA?3?$AAa?$AAm?$AA?3?$AAP?$AAM?$AA?3?$AAp?$AAm@ DD FLAT:??_C@_1BK@MHIKGOKE@?$AA?3?$AAA?$AAM?$AA?3?$AAa?$AAm?$AA?3?$AAP?$AAM?$AA?3?$AAp?$AAm@
	DD	01aH
	DD	040H
	DD	FLAT:_L___asan_gen_.33
	DD	FLAT:_L___asan_gen_.30
	DD	00H
	DD	FLAT:_L___asan_gen_.34
	DD	00H
ASAN$GL	ENDS
;	COMDAT CONST
CONST	SEGMENT
_L___asan_gen_.34 DD FLAT:_L___asan_gen_.30
	DD	0b4H
	DD	03eH
CONST	ENDS
;	COMDAT CONST
CONST	SEGMENT
_L___asan_gen_.33 DB '<C++ string literal>', 00H
CONST	ENDS
;	COMDAT ASAN$GL
ASAN$GL	SEGMENT
_L___asan_global_??_C@_0N@LPFKKEBD@?3AM?3am?3PM?3pm@ DD FLAT:??_C@_0N@LPFKKEBD@?3AM?3am?3PM?3pm@
	DD	0dH
	DD	040H
	DD	FLAT:_L___asan_gen_.31
	DD	FLAT:_L___asan_gen_.30
	DD	00H
	DD	FLAT:_L___asan_gen_.32
	DD	00H
ASAN$GL	ENDS
;	COMDAT CONST
CONST	SEGMENT
_L___asan_gen_.32 DD FLAT:_L___asan_gen_.30
	DD	01b7H
	DD	030H
CONST	ENDS
;	COMDAT CONST
CONST	SEGMENT
_L___asan_gen_.31 DB '<C++ string literal>', 00H
CONST	ENDS
;	COMDAT CONST
CONST	SEGMENT
_L___asan_gen_.30 DB 'xloctime', 00H
CONST	ENDS
;	COMDAT ASAN$GL
ASAN$GL	SEGMENT
_L___asan_global_??_C@_0BA@FOIKENOD@vector?5too?5long@ DD FLAT:??_C@_0BA@FOIKENOD@vector?5too?5long@
	DD	010H
	DD	040H
	DD	FLAT:_L___asan_gen_.28
	DD	FLAT:_L___asan_gen_.27
	DD	00H
	DD	FLAT:_L___asan_gen_.29
	DD	00H
ASAN$GL	ENDS
;	COMDAT CONST
CONST	SEGMENT
_L___asan_gen_.29 DD FLAT:_L___asan_gen_.27
	DD	06eeH
	DD	017H
CONST	ENDS
;	COMDAT CONST
CONST	SEGMENT
_L___asan_gen_.28 DB '<C++ string literal>', 00H
CONST	ENDS
;	COMDAT CONST
CONST	SEGMENT
_L___asan_gen_.27 DB 'vector', 00H
CONST	ENDS
;	COMDAT ASAN$GL
ASAN$GL	SEGMENT
_L___asan_global_??_C@_0GI@OGMNKBMN@C?3?2Program?5Files?5?$CIx86?$CJ?2Microsof@ DD FLAT:??_C@_0GI@OGMNKBMN@C?3?2Program?5Files?5?$CIx86?$CJ?2Microsof@
	DD	068H
	DD	0a0H
	DD	FLAT:_L___asan_gen_.25
	DD	FLAT:_L___asan_gen_.24
	DD	00H
	DD	FLAT:_L___asan_gen_.26
	DD	00H
ASAN$GL	ENDS
;	COMDAT CONST
CONST	SEGMENT
_L___asan_gen_.26 DD FLAT:_L___asan_gen_.24
	DD	05dH
	DD	05fH
CONST	ENDS
;	COMDAT CONST
CONST	SEGMENT
_L___asan_gen_.25 DB '<C++ string literal>', 00H
CONST	ENDS
;	COMDAT CONST
CONST	SEGMENT
_L___asan_gen_.24 DB 'xlocnum', 00H
CONST	ENDS
;	COMDAT ASAN$GL
ASAN$GL	SEGMENT
_L___asan_global_??_C@_0GI@GFIAKDGM@C?3?2Program?5Files?5?$CIx86?$CJ?2Microsof@ DD FLAT:??_C@_0GI@GFIAKDGM@C?3?2Program?5Files?5?$CIx86?$CJ?2Microsof@
	DD	068H
	DD	0a0H
	DD	FLAT:_L___asan_gen_.22
	DD	FLAT:_L___asan_gen_.21
	DD	00H
	DD	FLAT:_L___asan_gen_.23
	DD	00H
ASAN$GL	ENDS
;	COMDAT CONST
CONST	SEGMENT
_L___asan_gen_.23 DD FLAT:_L___asan_gen_.21
	DD	049H
	DD	03eH
CONST	ENDS
;	COMDAT CONST
CONST	SEGMENT
_L___asan_gen_.22 DB '<C++ string literal>', 00H
CONST	ENDS
;	COMDAT CONST
CONST	SEGMENT
_L___asan_gen_.21 DB 'xlocale', 00H
CONST	ENDS
;	COMDAT ASAN$GL
ASAN$GL	SEGMENT
_L___asan_global_??_C@_0BA@JFNIOLAK@string?5too?5long@ DD FLAT:??_C@_0BA@JFNIOLAK@string?5too?5long@
	DD	010H
	DD	040H
	DD	FLAT:_L___asan_gen_.19
	DD	FLAT:_L___asan_gen_.18
	DD	00H
	DD	FLAT:_L___asan_gen_.20
	DD	00H
ASAN$GL	ENDS
;	COMDAT CONST
CONST	SEGMENT
_L___asan_gen_.20 DD FLAT:_L___asan_gen_.18
	DD	0946H
	DD	013H
CONST	ENDS
;	COMDAT CONST
CONST	SEGMENT
_L___asan_gen_.19 DB '<C++ string literal>', 00H
CONST	ENDS
;	COMDAT CONST
CONST	SEGMENT
_L___asan_gen_.18 DB 'xstring', 00H
CONST	ENDS
;	COMDAT ASAN$GL
ASAN$GL	SEGMENT
_L___asan_global_??_C@_1CG@JNLFBNGN@?$AA?$CC?$AAi?$AAn?$AAv?$AAa?$AAl?$AAi?$AAd?$AA?5?$AAa?$AAr?$AAg?$AAu?$AAm?$AAe@ DD FLAT:??_C@_1CG@JNLFBNGN@?$AA?$CC?$AAi?$AAn?$AAv?$AAa?$AAl?$AAi?$AAd?$AA?5?$AAa?$AAr?$AAg?$AAu?$AAm?$AAe@
	DD	026H
	DD	060H
	DD	FLAT:_L___asan_gen_.16
	DD	FLAT:_L___asan_gen_.5
	DD	00H
	DD	FLAT:_L___asan_gen_.17
	DD	00H
ASAN$GL	ENDS
;	COMDAT CONST
CONST	SEGMENT
_L___asan_gen_.17 DD FLAT:_L___asan_gen_.5
	DD	0a2H
	DD	04H
CONST	ENDS
;	COMDAT CONST
CONST	SEGMENT
_L___asan_gen_.16 DB '<C++ string literal>', 00H
CONST	ENDS
;	COMDAT ASAN$GL
ASAN$GL	SEGMENT
_L___asan_global_??_C@_1EK@NIFDJFDG@?$AAs?$AAt?$AAd?$AA?3?$AA?3?$AA_?$AAA?$AAd?$AAj?$AAu?$AAs?$AAt?$AA_?$AAm?$AAa@ DD FLAT:??_C@_1EK@NIFDJFDG@?$AAs?$AAt?$AAd?$AA?3?$AA?3?$AA_?$AAA?$AAd?$AAj?$AAu?$AAs?$AAt?$AA_?$AAm?$AAa@
	DD	04aH
	DD	080H
	DD	FLAT:_L___asan_gen_.14
	DD	FLAT:_L___asan_gen_.5
	DD	00H
	DD	FLAT:_L___asan_gen_.15
	DD	00H
ASAN$GL	ENDS
;	COMDAT CONST
CONST	SEGMENT
_L___asan_gen_.15 DD FLAT:_L___asan_gen_.5
	DD	0a2H
	DD	04H
CONST	ENDS
;	COMDAT CONST
CONST	SEGMENT
_L___asan_gen_.14 DB '<C++ string literal>', 00H
CONST	ENDS
;	COMDAT ASAN$GL
ASAN$GL	SEGMENT
_L___asan_global_??_C@_1NA@MJBOBEJL@?$AAC?$AA?3?$AA?2?$AAP?$AAr?$AAo?$AAg?$AAr?$AAa?$AAm?$AA?5?$AAF?$AAi?$AAl?$AAe@ DD FLAT:??_C@_1NA@MJBOBEJL@?$AAC?$AA?3?$AA?2?$AAP?$AAr?$AAo?$AAg?$AAr?$AAa?$AAm?$AA?5?$AAF?$AAi?$AAl?$AAe@
	DD	0d0H
	DD	0100H
	DD	FLAT:_L___asan_gen_.12
	DD	FLAT:_L___asan_gen_.5
	DD	00H
	DD	FLAT:_L___asan_gen_.13
	DD	00H
ASAN$GL	ENDS
;	COMDAT CONST
CONST	SEGMENT
_L___asan_gen_.13 DD FLAT:_L___asan_gen_.5
	DD	0a2H
	DD	04H
CONST	ENDS
;	COMDAT CONST
CONST	SEGMENT
_L___asan_gen_.12 DB '<C++ string literal>', 00H
CONST	ENDS
;	COMDAT ASAN$GL
ASAN$GL	SEGMENT
_L___asan_global_??_C@_0GI@MNEMJBML@C?3?2Program?5Files?5?$CIx86?$CJ?2Microsof@ DD FLAT:??_C@_0GI@MNEMJBML@C?3?2Program?5Files?5?$CIx86?$CJ?2Microsof@
	DD	068H
	DD	0a0H
	DD	FLAT:_L___asan_gen_.10
	DD	FLAT:_L___asan_gen_.5
	DD	00H
	DD	FLAT:_L___asan_gen_.11
	DD	00H
ASAN$GL	ENDS
;	COMDAT CONST
CONST	SEGMENT
_L___asan_gen_.11 DD FLAT:_L___asan_gen_.5
	DD	0a2H
	DD	04H
CONST	ENDS
;	COMDAT CONST
CONST	SEGMENT
_L___asan_gen_.10 DB '<C++ string literal>', 00H
CONST	ENDS
;	COMDAT ASAN$GL
ASAN$GL	SEGMENT
_L___asan_global_??_C@_02DKCKIIND@?$CFs@ DD FLAT:??_C@_02DKCKIIND@?$CFs@
	DD	03H
	DD	040H
	DD	FLAT:_L___asan_gen_.8
	DD	FLAT:_L___asan_gen_.5
	DD	00H
	DD	FLAT:_L___asan_gen_.9
	DD	00H
ASAN$GL	ENDS
;	COMDAT CONST
CONST	SEGMENT
_L___asan_gen_.9 DD FLAT:_L___asan_gen_.5
	DD	0a2H
	DD	04H
CONST	ENDS
;	COMDAT CONST
CONST	SEGMENT
_L___asan_gen_.8 DB '<C++ string literal>', 00H
CONST	ENDS
;	COMDAT ASAN$GL
ASAN$GL	SEGMENT
_L___asan_global_??_C@_0BB@FCMFBGOM@invalid?5argument@ DD FLAT:??_C@_0BB@FCMFBGOM@invalid?5argument@
	DD	011H
	DD	040H
	DD	FLAT:_L___asan_gen_.6
	DD	FLAT:_L___asan_gen_.5
	DD	00H
	DD	FLAT:_L___asan_gen_.7
	DD	00H
ASAN$GL	ENDS
;	COMDAT CONST
CONST	SEGMENT
_L___asan_gen_.7 DD FLAT:_L___asan_gen_.5
	DD	0a2H
	DD	04H
CONST	ENDS
;	COMDAT CONST
CONST	SEGMENT
_L___asan_gen_.6 DB '<C++ string literal>', 00H
CONST	ENDS
;	COMDAT CONST
CONST	SEGMENT
_L___asan_gen_.5 DB 'xmemory', 00H
CONST	ENDS
;	COMDAT ASAN$GL
ASAN$GL	SEGMENT
_L___asan_global_??_C@_0BF@KINCDENJ@bad?5array?5new?5length@ DD FLAT:??_C@_0BF@KINCDENJ@bad?5array?5new?5length@
	DD	015H
	DD	040H
	DD	FLAT:_L___asan_gen_.3
	DD	FLAT:_L___asan_gen_.0
	DD	00H
	DD	FLAT:_L___asan_gen_.4
	DD	00H
ASAN$GL	ENDS
;	COMDAT CONST
CONST	SEGMENT
_L___asan_gen_.4 DD FLAT:_L___asan_gen_.0
	DD	08cH
	DD	014H
CONST	ENDS
;	COMDAT CONST
CONST	SEGMENT
_L___asan_gen_.3 DB '<C++ string literal>', 00H
CONST	ENDS
;	COMDAT ASAN$GL
ASAN$GL	SEGMENT
_L___asan_global_??_C@_0BC@EOODALEL@Unknown?5exception@ DD FLAT:??_C@_0BC@EOODALEL@Unknown?5exception@
	DD	012H
	DD	040H
	DD	FLAT:_L___asan_gen_.1
	DD	FLAT:_L___asan_gen_.0
	DD	00H
	DD	FLAT:_L___asan_gen_.2
	DD	00H
ASAN$GL	ENDS
;	COMDAT CONST
CONST	SEGMENT
_L___asan_gen_.2 DD FLAT:_L___asan_gen_.0
	DD	05fH
	DD	02bH
CONST	ENDS
;	COMDAT CONST
CONST	SEGMENT
_L___asan_gen_.1 DB '<C++ string literal>', 00H
CONST	ENDS
;	COMDAT CONST
CONST	SEGMENT
_L___asan_gen_.0 DB 'vcruntime_exception.h', 00H
CONST	ENDS
;	COMDAT rtc$TMZ
rtc$TMZ	SEGMENT
__RTC_Shutdown.rtc$TMZ DD FLAT:__RTC_Shutdown
rtc$TMZ	ENDS
;	COMDAT rtc$IMZ
rtc$IMZ	SEGMENT
__RTC_InitBase.rtc$IMZ DD FLAT:__RTC_InitBase
rtc$IMZ	ENDS
;	COMDAT ??_R1A@?0A@EA@bad_array_new_length@std@@8
rdata$r	SEGMENT
??_R1A@?0A@EA@bad_array_new_length@std@@8 DD FLAT:??_R0?AVbad_array_new_length@std@@@8 ; std::bad_array_new_length::`RTTI Base Class Descriptor at (0,-1,0,64)'
	DD	02H
	DD	00H
	DD	0ffffffffH
	DD	00H
	DD	040H
	DD	FLAT:??_R3bad_array_new_length@std@@8
rdata$r	ENDS
;	COMDAT ??_R2bad_array_new_length@std@@8
rdata$r	SEGMENT
??_R2bad_array_new_length@std@@8 DD FLAT:??_R1A@?0A@EA@bad_array_new_length@std@@8 ; std::bad_array_new_length::`RTTI Base Class Array'
	DD	FLAT:??_R1A@?0A@EA@bad_alloc@std@@8
	DD	FLAT:??_R1A@?0A@EA@exception@std@@8
rdata$r	ENDS
;	COMDAT ??_R3bad_array_new_length@std@@8
rdata$r	SEGMENT
??_R3bad_array_new_length@std@@8 DD 00H			; std::bad_array_new_length::`RTTI Class Hierarchy Descriptor'
	DD	00H
	DD	03H
	DD	FLAT:??_R2bad_array_new_length@std@@8
rdata$r	ENDS
;	COMDAT ??_R4bad_array_new_length@std@@6B@
rdata$r	SEGMENT
??_R4bad_array_new_length@std@@6B@ DD 00H		; std::bad_array_new_length::`RTTI Complete Object Locator'
	DD	00H
	DD	00H
	DD	FLAT:??_R0?AVbad_array_new_length@std@@@8
	DD	FLAT:??_R3bad_array_new_length@std@@8
rdata$r	ENDS
;	COMDAT ??_R1A@?0A@EA@bad_alloc@std@@8
rdata$r	SEGMENT
??_R1A@?0A@EA@bad_alloc@std@@8 DD FLAT:??_R0?AVbad_alloc@std@@@8 ; std::bad_alloc::`RTTI Base Class Descriptor at (0,-1,0,64)'
	DD	01H
	DD	00H
	DD	0ffffffffH
	DD	00H
	DD	040H
	DD	FLAT:??_R3bad_alloc@std@@8
rdata$r	ENDS
;	COMDAT ??_R2bad_alloc@std@@8
rdata$r	SEGMENT
??_R2bad_alloc@std@@8 DD FLAT:??_R1A@?0A@EA@bad_alloc@std@@8 ; std::bad_alloc::`RTTI Base Class Array'
	DD	FLAT:??_R1A@?0A@EA@exception@std@@8
rdata$r	ENDS
;	COMDAT ??_R3bad_alloc@std@@8
rdata$r	SEGMENT
??_R3bad_alloc@std@@8 DD 00H				; std::bad_alloc::`RTTI Class Hierarchy Descriptor'
	DD	00H
	DD	02H
	DD	FLAT:??_R2bad_alloc@std@@8
rdata$r	ENDS
;	COMDAT ??_R4bad_alloc@std@@6B@
rdata$r	SEGMENT
??_R4bad_alloc@std@@6B@ DD 00H				; std::bad_alloc::`RTTI Complete Object Locator'
	DD	00H
	DD	00H
	DD	FLAT:??_R0?AVbad_alloc@std@@@8
	DD	FLAT:??_R3bad_alloc@std@@8
rdata$r	ENDS
;	COMDAT ??_R1A@?0A@EA@exception@std@@8
rdata$r	SEGMENT
??_R1A@?0A@EA@exception@std@@8 DD FLAT:??_R0?AVexception@std@@@8 ; std::exception::`RTTI Base Class Descriptor at (0,-1,0,64)'
	DD	00H
	DD	00H
	DD	0ffffffffH
	DD	00H
	DD	040H
	DD	FLAT:??_R3exception@std@@8
rdata$r	ENDS
;	COMDAT ??_R2exception@std@@8
rdata$r	SEGMENT
??_R2exception@std@@8 DD FLAT:??_R1A@?0A@EA@exception@std@@8 ; std::exception::`RTTI Base Class Array'
rdata$r	ENDS
;	COMDAT ??_R3exception@std@@8
rdata$r	SEGMENT
??_R3exception@std@@8 DD 00H				; std::exception::`RTTI Class Hierarchy Descriptor'
	DD	00H
	DD	01H
	DD	FLAT:??_R2exception@std@@8
rdata$r	ENDS
;	COMDAT ??_R4exception@std@@6B@
rdata$r	SEGMENT
??_R4exception@std@@6B@ DD 00H				; std::exception::`RTTI Complete Object Locator'
	DD	00H
	DD	00H
	DD	FLAT:??_R0?AVexception@std@@@8
	DD	FLAT:??_R3exception@std@@8
rdata$r	ENDS
;	COMDAT __CT??_R0?AVexception@std@@@8??0exception@std@@QAE@ABV01@@Z12
xdata$x	SEGMENT
__CT??_R0?AVexception@std@@@8??0exception@std@@QAE@ABV01@@Z12 DD 00H
	DD	FLAT:??_R0?AVexception@std@@@8
	DD	00H
	DD	0ffffffffH
	ORG $+4
	DD	0cH
	DD	FLAT:??0exception@std@@QAE@ABV01@@Z
xdata$x	ENDS
;	COMDAT ??_R0?AVexception@std@@@8
data$r	SEGMENT
??_R0?AVexception@std@@@8 DD FLAT:??_7type_info@@6B@	; std::exception `RTTI Type Descriptor'
	DD	00H
	DB	'.?AVexception@std@@', 00H
data$r	ENDS
;	COMDAT __CT??_R0?AVbad_alloc@std@@@8??0bad_alloc@std@@QAE@ABV01@@Z12
xdata$x	SEGMENT
__CT??_R0?AVbad_alloc@std@@@8??0bad_alloc@std@@QAE@ABV01@@Z12 DD 010H
	DD	FLAT:??_R0?AVbad_alloc@std@@@8
	DD	00H
	DD	0ffffffffH
	ORG $+4
	DD	0cH
	DD	FLAT:??0bad_alloc@std@@QAE@ABV01@@Z
xdata$x	ENDS
;	COMDAT ??_R0?AVbad_alloc@std@@@8
data$r	SEGMENT
??_R0?AVbad_alloc@std@@@8 DD FLAT:??_7type_info@@6B@	; std::bad_alloc `RTTI Type Descriptor'
	DD	00H
	DB	'.?AVbad_alloc@std@@', 00H
data$r	ENDS
;	COMDAT __CT??_R0?AVbad_array_new_length@std@@@8??0bad_array_new_length@std@@QAE@ABV01@@Z12
xdata$x	SEGMENT
__CT??_R0?AVbad_array_new_length@std@@@8??0bad_array_new_length@std@@QAE@ABV01@@Z12 DD 00H
	DD	FLAT:??_R0?AVbad_array_new_length@std@@@8
	DD	00H
	DD	0ffffffffH
	ORG $+4
	DD	0cH
	DD	FLAT:??0bad_array_new_length@std@@QAE@ABV01@@Z
xdata$x	ENDS
;	COMDAT ??_R0?AVbad_array_new_length@std@@@8
data$r	SEGMENT
??_R0?AVbad_array_new_length@std@@@8 DD FLAT:??_7type_info@@6B@ ; std::bad_array_new_length `RTTI Type Descriptor'
	DD	00H
	DB	'.?AVbad_array_new_length@std@@', 00H
data$r	ENDS
;	COMDAT __CTA3?AVbad_array_new_length@std@@
xdata$x	SEGMENT
__CTA3?AVbad_array_new_length@std@@ DD 03H
	DD	FLAT:__CT??_R0?AVbad_array_new_length@std@@@8??0bad_array_new_length@std@@QAE@ABV01@@Z12
	DD	FLAT:__CT??_R0?AVbad_alloc@std@@@8??0bad_alloc@std@@QAE@ABV01@@Z12
	DD	FLAT:__CT??_R0?AVexception@std@@@8??0exception@std@@QAE@ABV01@@Z12
xdata$x	ENDS
;	COMDAT __TI3?AVbad_array_new_length@std@@
xdata$x	SEGMENT
__TI3?AVbad_array_new_length@std@@ DD 00H
	DD	FLAT:??1bad_array_new_length@std@@UAE@XZ
	DD	00H
	DD	FLAT:__CTA3?AVbad_array_new_length@std@@
xdata$x	ENDS
;	COMDAT ??_7bad_array_new_length@std@@6B@
CONST	SEGMENT
??_7bad_array_new_length@std@@6B@ DD FLAT:??_R4bad_array_new_length@std@@6B@ ; std::bad_array_new_length::`vftable'
	DD	FLAT:??_Ebad_array_new_length@std@@UAEPAXI@Z
	DD	FLAT:?what@exception@std@@UBEPBDXZ
CONST	ENDS
;	COMDAT ??_7bad_alloc@std@@6B@
CONST	SEGMENT
??_7bad_alloc@std@@6B@ DD FLAT:??_R4bad_alloc@std@@6B@	; std::bad_alloc::`vftable'
	DD	FLAT:??_Ebad_alloc@std@@UAEPAXI@Z
	DD	FLAT:?what@exception@std@@UBEPBDXZ
CONST	ENDS
;	COMDAT ??_7exception@std@@6B@
CONST	SEGMENT
??_7exception@std@@6B@ DD FLAT:??_R4exception@std@@6B@	; std::exception::`vftable'
	DD	FLAT:??_Eexception@std@@UAEPAXI@Z
	DD	FLAT:?what@exception@std@@UBEPBDXZ
CONST	ENDS
;	COMDAT voltbl
voltbl	SEGMENT
_volmd	DB	09H
voltbl	ENDS
;	COMDAT xdata$x
xdata$x	SEGMENT
__ehfuncinfo$??$_Deallocate_plain@V?$allocator@U_Container_proxy@std@@@std@@@std@@YAXAAV?$allocator@U_Container_proxy@std@@@0@QAU_Container_proxy@0@@Z DD 019930522H
	DD	00H
	DD	00H
	DD	2 DUP(00H)
	DD	2 DUP(00H)
	DD	00H
	DD	05H
xdata$x	ENDS
;	COMDAT voltbl
voltbl	SEGMENT
_volmd	DW	023H
	DW	030dH
voltbl	ENDS
;	COMDAT CONST
CONST	SEGMENT
__L__asan_gen_.??$_Reallocate_for@V<lambda_1>@?1??assign@?$basic_string@DU?$char_traits@D@std@@V?$allocator@D@2@@std@@QAEAAV34@QBDI@Z@PBD@?$basic_string@DU?$char_traits@D@std@@V?$allocator@D@2@@std@@AAEAAV01@IV<lambda_1>@?1??assign@01@QAEAAV01@QBDI@Z@PBD@Z DB '1'
	DB	' 16 4 8 _New_ptr'
CONST	ENDS
;	COMDAT CONST
CONST	SEGMENT
__L__asan_gen_.??R<lambda_1>@?1??assign@?$basic_string@DU?$char_traits@D@std@@V?$allocator@D@2@@std@@QAEAAV23@QBDI@Z@QBE@QADI0@Z DB '1'
	DB	' 16 1 18 compiler temporary'
CONST	ENDS
;	COMDAT voltbl
voltbl	SEGMENT
_volmd	DB	09H
voltbl	ENDS
;	COMDAT xdata$x
xdata$x	SEGMENT
__ehfuncinfo$??$_Deallocate@$07$0A@@std@@YAXPAXI@Z DD 019930522H
	DD	00H
	DD	00H
	DD	2 DUP(00H)
	DD	2 DUP(00H)
	DD	00H
	DD	05H
xdata$x	ENDS
voltbl	SEGMENT
_volmd	DD	0ffffffffH
	DDSymXIndex: 	FLAT:__unwindfunclet$_main$0
	DD	053H
	DD	060H
_volmd	DD	0ffffffffH
	DDSymXIndex: 	FLAT:_main
	DD	032H
	DD	0612H
voltbl	ENDS
xdata$x	SEGMENT
__ehfuncinfo$_main DD 019930522H
	DD	08H
	DD	FLAT:__unwindtable$_main
	DD	2 DUP(00H)
	DD	2 DUP(00H)
	DD	00H
	DD	01H
__unwindtable$_main DD 0ffffffffH
	DD	FLAT:__unwindfunclet$_main$0
	DD	00H
	DD	FLAT:__unwindfunclet$_main$1
	DD	01H
	DD	FLAT:__unwindfunclet$_main$2
	DD	00H
	DD	FLAT:__unwindfunclet$_main$2
	DD	0ffffffffH
	DD	FLAT:__unwindfunclet$_main$2
	DD	04H
	DD	FLAT:__unwindfunclet$_main$3
	DD	05H
	DD	FLAT:__unwindfunclet$_main$4
	DD	05H
	DD	FLAT:__unwindfunclet$_main$5
xdata$x	ENDS
CONST	SEGMENT
	ORG $+4
__L__asan_gen_._main DB '10 16 528 6 window 32 48 2 RP 48 40 4 Univ 64 28'
	DB	' 18 compiler temporary 80 28 18 compiler temporary 96 8 18 co'
	DB	'mpiler temporary 112 12 18 compiler temporary 128 24 4 icon 1'
	DB	'44 28 18 compiler temporary 160 8 1 s'
CONST	ENDS
;	COMDAT voltbl
voltbl	SEGMENT
_volmd	DB	0b3H
voltbl	ENDS
;	COMDAT xdata$x
xdata$x	SEGMENT
__ehfuncinfo$??__Elevel1@@YAXXZ DD 019930522H
	DD	0eH
	DD	FLAT:__unwindtable$??__Elevel1@@YAXXZ
	DD	2 DUP(00H)
	DD	2 DUP(00H)
	DD	00H
	DD	01H
__unwindtable$??__Elevel1@@YAXXZ DD 0ffffffffH
	DD	FLAT:__unwindfunclet$??__Elevel1@@YAXXZ$0
	DD	00H
	DD	FLAT:__unwindfunclet$??__Elevel1@@YAXXZ$1
	DD	01H
	DD	FLAT:__unwindfunclet$??__Elevel1@@YAXXZ$2
	DD	02H
	DD	FLAT:__unwindfunclet$??__Elevel1@@YAXXZ$3
	DD	03H
	DD	FLAT:__unwindfunclet$??__Elevel1@@YAXXZ$4
	DD	04H
	DD	FLAT:__unwindfunclet$??__Elevel1@@YAXXZ$5
	DD	05H
	DD	FLAT:__unwindfunclet$??__Elevel1@@YAXXZ$6
	DD	06H
	DD	FLAT:__unwindfunclet$??__Elevel1@@YAXXZ$7
	DD	07H
	DD	FLAT:__unwindfunclet$??__Elevel1@@YAXXZ$8
	DD	08H
	DD	FLAT:__unwindfunclet$??__Elevel1@@YAXXZ$9
	DD	09H
	DD	FLAT:__unwindfunclet$??__Elevel1@@YAXXZ$10
	DD	0aH
	DD	FLAT:__unwindfunclet$??__Elevel1@@YAXXZ$11
	DD	0bH
	DD	FLAT:__unwindfunclet$??__Elevel1@@YAXXZ$12
	DD	0ffffffffH
	DD	FLAT:__unwindfunclet$??__Elevel1@@YAXXZ$14
xdata$x	ENDS
;	COMDAT CONST
CONST	SEGMENT
__L__asan_gen_.??__Elevel1@@YAXXZ DB '45 16 224 18 compiler temporary 32 '
	DB	'36 18 compiler temporary 48 36 18 compiler temporary 64 36 18'
	DB	' compiler temporary 80 36 18 compiler temporary 96 36 18 comp'
	DB	'iler temporary 112 36 18 compiler temporary 128 36 18 compile'
	DB	'r temporary 144 36 18 compiler temporary 160 36 18 compiler t'
	DB	'emporary 176 36 18 compiler temporary 192 36 18 compiler temp'
	DB	'orary 208 36 18 compiler temporary 224 36 18 compiler tempora'
	DB	'ry 240 36 18 compiler temporary 256 1 18 compiler temporary 2'
	DB	'72 1 18 compiler temporary 288 8 18 compiler temporary 304 1 '
	DB	'18 compiler temporary 320 8 18 compiler temporary 336 1 18 co'
	DB	'mpiler temporary 352 8 18 compiler temporary 368 1 18 compile'
	DB	'r temporary 384 8 18 compiler temporary 400 1 18 compiler tem'
	DB	'porary 416 8 18 compiler temporary 432 1 18 compiler temporar'
	DB	'y 448 8 18 compiler temporary 464 1 18 compiler temporary 480'
	DB	' 8 18 compiler temporary 496 1 18 compiler temporary 512 8 18'
	DB	' compiler temporary 528 1 18 compiler temporary 544 8 18 comp'
	DB	'iler temporary 560 1 18 compiler temporary 576 8 18 compiler '
	DB	'temporary 592 1 18 compiler temporary 608 8 18 compiler tempo'
	DB	'rary 624 1 18 compiler temporary 640 8 18 compiler temporary '
	DB	'656 1 18 compiler temporary 672 8 18 compiler temporary 688 1'
	DB	' 18 compiler temporary 704 8 18 compiler temporary 720 8 18 c'
	DB	'ompiler temporary'
CONST	ENDS
;	COMDAT voltbl
voltbl	SEGMENT
_volmd	DB	09H
voltbl	ENDS
;	COMDAT xdata$x
xdata$x	SEGMENT
__ehfuncinfo$??$_Destroy_range@V?$allocator@V?$vector@HV?$allocator@H@std@@@std@@@std@@@std@@YAXPAV?$vector@HV?$allocator@H@std@@@0@QAV10@AAV?$allocator@V?$vector@HV?$allocator@H@std@@@std@@@0@@Z DD 019930522H
	DD	00H
	DD	00H
	DD	2 DUP(00H)
	DD	2 DUP(00H)
	DD	00H
	DD	05H
xdata$x	ENDS
;	COMDAT voltbl
voltbl	SEGMENT
_volmd	DB	016H
	DB	023H
voltbl	ENDS
;	COMDAT voltbl
voltbl	SEGMENT
_volmd	DW	032H
	DW	01bdH
voltbl	ENDS
;	COMDAT xdata$x
xdata$x	SEGMENT
__unwindtable$??$_Uninitialized_copy@PAHV?$allocator@H@std@@@std@@YAPAHQAH0PAHAAV?$allocator@H@0@@Z DD 0ffffffffH
	DD	FLAT:__unwindfunclet$??$_Uninitialized_copy@PAHV?$allocator@H@std@@@std@@YAPAHQAH0PAHAAV?$allocator@H@0@@Z$0
__ehfuncinfo$??$_Uninitialized_copy@PAHV?$allocator@H@std@@@std@@YAPAHQAH0PAHAAV?$allocator@H@0@@Z DD 019930522H
	DD	01H
	DD	FLAT:__unwindtable$??$_Uninitialized_copy@PAHV?$allocator@H@std@@@std@@YAPAHQAH0PAHAAV?$allocator@H@0@@Z
	DD	2 DUP(00H)
	DD	2 DUP(00H)
	DD	00H
	DD	01H
xdata$x	ENDS
;	COMDAT CONST
CONST	SEGMENT
__L__asan_gen_.??$_Uninitialized_copy@PAHV?$allocator@H@std@@@std@@YAPAHQAH0PAHAAV?$allocator@H@0@@Z DB '1'
	DB	' 16 12 8 _Backout'
CONST	ENDS
;	COMDAT voltbl
voltbl	SEGMENT
_volmd	DB	016H
	DB	020H
voltbl	ENDS
;	COMDAT voltbl
voltbl	SEGMENT
_volmd	DW	02fH
	DW	0137H
voltbl	ENDS
;	COMDAT xdata$x
xdata$x	SEGMENT
__unwindtable$??$_Uninitialized_copy@PBV?$vector@HV?$allocator@H@std@@@std@@V?$allocator@V?$vector@HV?$allocator@H@std@@@std@@@2@@std@@YAPAV?$vector@HV?$allocator@H@std@@@0@QBV10@0PAV10@AAV?$allocator@V?$vector@HV?$allocator@H@std@@@std@@@0@@Z DD 0ffffffffH
	DD	FLAT:__unwindfunclet$??$_Uninitialized_copy@PBV?$vector@HV?$allocator@H@std@@@std@@V?$allocator@V?$vector@HV?$allocator@H@std@@@std@@@2@@std@@YAPAV?$vector@HV?$allocator@H@std@@@0@QBV10@0PAV10@AAV?$allocator@V?$vector@HV?$allocator@H@std@@@std@@@0@@Z$0
__ehfuncinfo$??$_Uninitialized_copy@PBV?$vector@HV?$allocator@H@std@@@std@@V?$allocator@V?$vector@HV?$allocator@H@std@@@std@@@2@@std@@YAPAV?$vector@HV?$allocator@H@std@@@0@QBV10@0PAV10@AAV?$allocator@V?$vector@HV?$allocator@H@std@@@std@@@0@@Z DD 019930522H
	DD	01H
	DD	FLAT:__unwindtable$??$_Uninitialized_copy@PBV?$vector@HV?$allocator@H@std@@@std@@V?$allocator@V?$vector@HV?$allocator@H@std@@@std@@@2@@std@@YAPAV?$vector@HV?$allocator@H@std@@@0@QBV10@0PAV10@AAV?$allocator@V?$vector@HV?$allocator@H@std@@@std@@@0@@Z
	DD	2 DUP(00H)
	DD	2 DUP(00H)
	DD	00H
	DD	01H
xdata$x	ENDS
;	COMDAT CONST
CONST	SEGMENT
__L__asan_gen_.??$_Uninitialized_copy@PBV?$vector@HV?$allocator@H@std@@@std@@V?$allocator@V?$vector@HV?$allocator@H@std@@@std@@@2@@std@@YAPAV?$vector@HV?$allocator@H@std@@@0@QBV10@0PAV10@AAV?$allocator@V?$vector@HV?$allocator@H@std@@@std@@@0@@Z DB '1'
	DB	' 16 12 8 _Backout'
CONST	ENDS
;	COMDAT voltbl
voltbl	SEGMENT
_volmd	DB	019H
	DB	026H
voltbl	ENDS
;	COMDAT voltbl
voltbl	SEGMENT
_volmd	DW	032H
	DW	0268H
voltbl	ENDS
;	COMDAT xdata$x
xdata$x	SEGMENT
__unwindtable$??$_Range_construct_or_tidy@PBV?$vector@HV?$allocator@H@std@@@std@@@?$vector@V?$vector@HV?$allocator@H@std@@@std@@V?$allocator@V?$vector@HV?$allocator@H@std@@@std@@@2@@std@@AAEXPBV?$vector@HV?$allocator@H@std@@@1@0Uforward_iterator_tag@1@@Z DD 0ffffffffH
	DD	FLAT:__unwindfunclet$??$_Range_construct_or_tidy@PBV?$vector@HV?$allocator@H@std@@@std@@@?$vector@V?$vector@HV?$allocator@H@std@@@std@@V?$allocator@V?$vector@HV?$allocator@H@std@@@std@@@2@@std@@AAEXPBV?$vector@HV?$allocator@H@std@@@1@0Uforward_iterator_tag@1@@Z$0
__ehfuncinfo$??$_Range_construct_or_tidy@PBV?$vector@HV?$allocator@H@std@@@std@@@?$vector@V?$vector@HV?$allocator@H@std@@@std@@V?$allocator@V?$vector@HV?$allocator@H@std@@@std@@@2@@std@@AAEXPBV?$vector@HV?$allocator@H@std@@@1@0Uforward_iterator_tag@1@@Z DD 019930522H
	DD	01H
	DD	FLAT:__unwindtable$??$_Range_construct_or_tidy@PBV?$vector@HV?$allocator@H@std@@@std@@@?$vector@V?$vector@HV?$allocator@H@std@@@std@@V?$allocator@V?$vector@HV?$allocator@H@std@@@std@@@2@@std@@AAEXPBV?$vector@HV?$allocator@H@std@@@1@0Uforward_iterator_tag@1@@Z
	DD	2 DUP(00H)
	DD	2 DUP(00H)
	DD	00H
	DD	01H
xdata$x	ENDS
;	COMDAT CONST
CONST	SEGMENT
__L__asan_gen_.??$_Range_construct_or_tidy@PBV?$vector@HV?$allocator@H@std@@@std@@@?$vector@V?$vector@HV?$allocator@H@std@@@std@@V?$allocator@V?$vector@HV?$allocator@H@std@@@std@@@2@@std@@AAEXPBV?$vector@HV?$allocator@H@std@@@1@0Uforward_iterator_tag@1@@Z DB '1'
	DB	' 16 4 6 _Guard'
CONST	ENDS
;	COMDAT voltbl
voltbl	SEGMENT
_volmd	DB	016H
	DB	023H
voltbl	ENDS
;	COMDAT voltbl
voltbl	SEGMENT
_volmd	DW	032H
	DW	01bdH
voltbl	ENDS
;	COMDAT xdata$x
xdata$x	SEGMENT
__unwindtable$??$_Uninitialized_copy@PBHV?$allocator@H@std@@@std@@YAPAHQBH0PAHAAV?$allocator@H@0@@Z DD 0ffffffffH
	DD	FLAT:__unwindfunclet$??$_Uninitialized_copy@PBHV?$allocator@H@std@@@std@@YAPAHQBH0PAHAAV?$allocator@H@0@@Z$0
__ehfuncinfo$??$_Uninitialized_copy@PBHV?$allocator@H@std@@@std@@YAPAHQBH0PAHAAV?$allocator@H@0@@Z DD 019930522H
	DD	01H
	DD	FLAT:__unwindtable$??$_Uninitialized_copy@PBHV?$allocator@H@std@@@std@@YAPAHQBH0PAHAAV?$allocator@H@0@@Z
	DD	2 DUP(00H)
	DD	2 DUP(00H)
	DD	00H
	DD	01H
xdata$x	ENDS
;	COMDAT CONST
CONST	SEGMENT
__L__asan_gen_.??$_Uninitialized_copy@PBHV?$allocator@H@std@@@std@@YAPAHQBH0PAHAAV?$allocator@H@0@@Z DB '1'
	DB	' 16 12 8 _Backout'
CONST	ENDS
;	COMDAT voltbl
voltbl	SEGMENT
_volmd	DB	019H
	DB	026H
voltbl	ENDS
;	COMDAT voltbl
voltbl	SEGMENT
_volmd	DW	032H
	DW	0268H
voltbl	ENDS
;	COMDAT xdata$x
xdata$x	SEGMENT
__unwindtable$??$_Range_construct_or_tidy@PBH@?$vector@HV?$allocator@H@std@@@std@@AAEXPBH0Uforward_iterator_tag@1@@Z DD 0ffffffffH
	DD	FLAT:__unwindfunclet$??$_Range_construct_or_tidy@PBH@?$vector@HV?$allocator@H@std@@@std@@AAEXPBH0Uforward_iterator_tag@1@@Z$0
__ehfuncinfo$??$_Range_construct_or_tidy@PBH@?$vector@HV?$allocator@H@std@@@std@@AAEXPBH0Uforward_iterator_tag@1@@Z DD 019930522H
	DD	01H
	DD	FLAT:__unwindtable$??$_Range_construct_or_tidy@PBH@?$vector@HV?$allocator@H@std@@@std@@AAEXPBH0Uforward_iterator_tag@1@@Z
	DD	2 DUP(00H)
	DD	2 DUP(00H)
	DD	00H
	DD	01H
xdata$x	ENDS
;	COMDAT CONST
CONST	SEGMENT
__L__asan_gen_.??$_Range_construct_or_tidy@PBH@?$vector@HV?$allocator@H@std@@@std@@AAEXPBH0Uforward_iterator_tag@1@@Z DB '1'
	DB	' 16 4 6 _Guard'
CONST	ENDS
;	COMDAT CONST
CONST	SEGMENT
__L__asan_gen_.??0?$_Container_proxy_ptr12@V?$allocator@U_Container_proxy@std@@@std@@@std@@QAE@AAV?$allocator@U_Container_proxy@std@@@1@AAU_Container_base12@1@@Z DB '1'
	DB	' 16 4 18 compiler temporary'
CONST	ENDS
;	COMDAT voltbl
voltbl	SEGMENT
_volmd	DB	09H
voltbl	ENDS
;	COMDAT xdata$x
xdata$x	SEGMENT
__ehfuncinfo$?_Tidy@?$vector@V?$vector@HV?$allocator@H@std@@@std@@V?$allocator@V?$vector@HV?$allocator@H@std@@@std@@@2@@std@@AAEXXZ DD 019930522H
	DD	00H
	DD	00H
	DD	2 DUP(00H)
	DD	2 DUP(00H)
	DD	00H
	DD	05H
xdata$x	ENDS
;	COMDAT CONST
CONST	SEGMENT
__L__asan_gen_.?max_size@?$vector@V?$vector@HV?$allocator@H@std@@@std@@V?$allocator@V?$vector@HV?$allocator@H@std@@@std@@@2@@std@@QBEIXZ DB '2'
	DB	' 16 4 18 compiler temporary 32 4 18 compiler temporary'
CONST	ENDS
;	COMDAT voltbl
voltbl	SEGMENT
_volmd	DW	023H
	DW	0133H
voltbl	ENDS
;	COMDAT CONST
CONST	SEGMENT
__L__asan_gen_.??1?$vector@V?$vector@HV?$allocator@H@std@@@std@@V?$allocator@V?$vector@HV?$allocator@H@std@@@std@@@2@@std@@QAE@XZ DB '2'
	DB	' 16 1 4 $S10 32 4 18 compiler temporary'
CONST	ENDS
;	COMDAT voltbl
voltbl	SEGMENT
_volmd	DB	019H
	DB	026H
voltbl	ENDS
;	COMDAT voltbl
voltbl	SEGMENT
_volmd	DW	032H
	DW	01d2H
voltbl	ENDS
;	COMDAT xdata$x
xdata$x	SEGMENT
__unwindtable$??0?$vector@V?$vector@HV?$allocator@H@std@@@std@@V?$allocator@V?$vector@HV?$allocator@H@std@@@std@@@2@@std@@QAE@V?$initializer_list@V?$vector@HV?$allocator@H@std@@@std@@@1@ABV?$allocator@V?$vector@HV?$allocator@H@std@@@std@@@1@@Z DD 0ffffffffH
	DD	FLAT:__unwindfunclet$??0?$vector@V?$vector@HV?$allocator@H@std@@@std@@V?$allocator@V?$vector@HV?$allocator@H@std@@@std@@@2@@std@@QAE@V?$initializer_list@V?$vector@HV?$allocator@H@std@@@std@@@1@ABV?$allocator@V?$vector@HV?$allocator@H@std@@@std@@@1@@Z$0
__ehfuncinfo$??0?$vector@V?$vector@HV?$allocator@H@std@@@std@@V?$allocator@V?$vector@HV?$allocator@H@std@@@std@@@2@@std@@QAE@V?$initializer_list@V?$vector@HV?$allocator@H@std@@@std@@@1@ABV?$allocator@V?$vector@HV?$allocator@H@std@@@std@@@1@@Z DD 019930522H
	DD	01H
	DD	FLAT:__unwindtable$??0?$vector@V?$vector@HV?$allocator@H@std@@@std@@V?$allocator@V?$vector@HV?$allocator@H@std@@@std@@@2@@std@@QAE@V?$initializer_list@V?$vector@HV?$allocator@H@std@@@std@@@1@ABV?$allocator@V?$vector@HV?$allocator@H@std@@@std@@@1@@Z
	DD	2 DUP(00H)
	DD	2 DUP(00H)
	DD	00H
	DD	01H
xdata$x	ENDS
;	COMDAT CONST
CONST	SEGMENT
__L__asan_gen_.??0?$vector@V?$vector@HV?$allocator@H@std@@@std@@V?$allocator@V?$vector@HV?$allocator@H@std@@@std@@@2@@std@@QAE@V?$initializer_list@V?$vector@HV?$allocator@H@std@@@std@@@1@ABV?$allocator@V?$vector@HV?$allocator@H@std@@@std@@@1@@Z DB '3'
	DB	' 16 1 3 $S8 32 8 6 _Proxy 48 1 18 compiler temporary'
CONST	ENDS
;	COMDAT voltbl
voltbl	SEGMENT
_volmd	DB	016H
voltbl	ENDS
;	COMDAT xdata$x
xdata$x	SEGMENT
__unwindtable$?setDefaultFolder@RessourcePack@@QAEXV?$basic_string@DU?$char_traits@D@std@@V?$allocator@D@2@@std@@@Z DD 0ffffffffH
	DD	FLAT:__unwindfunclet$?setDefaultFolder@RessourcePack@@QAEXV?$basic_string@DU?$char_traits@D@std@@V?$allocator@D@2@@std@@@Z$0
__ehfuncinfo$?setDefaultFolder@RessourcePack@@QAEXV?$basic_string@DU?$char_traits@D@std@@V?$allocator@D@2@@std@@@Z DD 019930522H
	DD	01H
	DD	FLAT:__unwindtable$?setDefaultFolder@RessourcePack@@QAEXV?$basic_string@DU?$char_traits@D@std@@V?$allocator@D@2@@std@@@Z
	DD	2 DUP(00H)
	DD	2 DUP(00H)
	DD	00H
	DD	01H
xdata$x	ENDS
;	COMDAT voltbl
voltbl	SEGMENT
_volmd	DB	09H
voltbl	ENDS
;	COMDAT xdata$x
xdata$x	SEGMENT
__ehfuncinfo$?_Tidy@?$vector@HV?$allocator@H@std@@@std@@AAEXXZ DD 019930522H
	DD	00H
	DD	00H
	DD	2 DUP(00H)
	DD	2 DUP(00H)
	DD	00H
	DD	05H
xdata$x	ENDS
;	COMDAT CONST
CONST	SEGMENT
__L__asan_gen_.?max_size@?$vector@HV?$allocator@H@std@@@std@@QBEIXZ DB '2'
	DB	' 16 4 18 compiler temporary 32 4 18 compiler temporary'
CONST	ENDS
;	COMDAT voltbl
voltbl	SEGMENT
_volmd	DW	023H
	DW	0133H
voltbl	ENDS
;	COMDAT CONST
CONST	SEGMENT
__L__asan_gen_.??1?$vector@HV?$allocator@H@std@@@std@@QAE@XZ DB '2 16 1 4'
	DB	' $S13 32 4 18 compiler temporary'
CONST	ENDS
;	COMDAT voltbl
voltbl	SEGMENT
_volmd	DB	024H
	DB	031H
voltbl	ENDS
;	COMDAT voltbl
voltbl	SEGMENT
_volmd	DW	032H
	DW	03f7H
voltbl	ENDS
;	COMDAT xdata$x
xdata$x	SEGMENT
__unwindtable$??0?$vector@HV?$allocator@H@std@@@std@@QAE@ABV01@@Z DD 0ffffffffH
	DD	FLAT:__unwindfunclet$??0?$vector@HV?$allocator@H@std@@@std@@QAE@ABV01@@Z$0
	DD	00H
	DD	FLAT:__unwindfunclet$??0?$vector@HV?$allocator@H@std@@@std@@QAE@ABV01@@Z$1
__ehfuncinfo$??0?$vector@HV?$allocator@H@std@@@std@@QAE@ABV01@@Z DD 019930522H
	DD	02H
	DD	FLAT:__unwindtable$??0?$vector@HV?$allocator@H@std@@@std@@QAE@ABV01@@Z
	DD	2 DUP(00H)
	DD	2 DUP(00H)
	DD	00H
	DD	01H
xdata$x	ENDS
;	COMDAT CONST
CONST	SEGMENT
__L__asan_gen_.??0?$vector@HV?$allocator@H@std@@@std@@QAE@ABV01@@Z DB '4 '
	DB	'16 1 18 compiler temporary 32 1 3 $S9 48 8 6 _Proxy 64 4 6 _G'
	DB	'uard'
CONST	ENDS
;	COMDAT voltbl
voltbl	SEGMENT
_volmd	DB	019H
	DB	026H
voltbl	ENDS
;	COMDAT voltbl
voltbl	SEGMENT
_volmd	DW	032H
	DW	01d2H
voltbl	ENDS
;	COMDAT xdata$x
xdata$x	SEGMENT
__unwindtable$??0?$vector@HV?$allocator@H@std@@@std@@QAE@V?$initializer_list@H@1@ABV?$allocator@H@1@@Z DD 0ffffffffH
	DD	FLAT:__unwindfunclet$??0?$vector@HV?$allocator@H@std@@@std@@QAE@V?$initializer_list@H@1@ABV?$allocator@H@1@@Z$0
__ehfuncinfo$??0?$vector@HV?$allocator@H@std@@@std@@QAE@V?$initializer_list@H@1@ABV?$allocator@H@1@@Z DD 019930522H
	DD	01H
	DD	FLAT:__unwindtable$??0?$vector@HV?$allocator@H@std@@@std@@QAE@V?$initializer_list@H@1@ABV?$allocator@H@1@@Z
	DD	2 DUP(00H)
	DD	2 DUP(00H)
	DD	00H
	DD	01H
xdata$x	ENDS
;	COMDAT CONST
CONST	SEGMENT
__L__asan_gen_.??0?$vector@HV?$allocator@H@std@@@std@@QAE@V?$initializer_list@H@1@ABV?$allocator@H@1@@Z DB '3'
	DB	' 16 1 3 $S7 32 8 6 _Proxy 48 1 18 compiler temporary'
CONST	ENDS
;	COMDAT CONST
CONST	SEGMENT
__L__asan_gen_.??$_Getvals@_W@?$time_get@_WV?$istreambuf_iterator@_WU?$char_traits@_W@std@@@std@@@std@@IAEX_WABV_Locinfo@1@@Z DB '1'
	DB	' 16 44 18 compiler temporary'
CONST	ENDS
;	COMDAT CONST
CONST	SEGMENT
__L__asan_gen_.??$_Getvals@_W@?$time_get@DV?$istreambuf_iterator@DU?$char_traits@D@std@@@std@@@std@@IAEX_WABV_Locinfo@1@@Z DB '1'
	DB	' 16 44 18 compiler temporary'
CONST	ENDS
;	COMDAT voltbl
voltbl	SEGMENT
_volmd	DW	023H
	DW	022dH
voltbl	ENDS
;	COMDAT CONST
CONST	SEGMENT
__L__asan_gen_.??$_Maklocstr@_W@std@@YAPA_WPBDPA_WABU_Cvtvec@@@Z DB '3 16'
	DB	' 8 6 _Mbst1 32 2 3 _Wc 48 8 6 _Mbst2'
CONST	ENDS
;	COMDAT voltbl
voltbl	SEGMENT
_volmd	DB	09H
voltbl	ENDS
;	COMDAT xdata$x
xdata$x	SEGMENT
__ehfuncinfo$??0locale@std@@QAE@XZ DD 019930522H
	DD	00H
	DD	00H
	DD	2 DUP(00H)
	DD	2 DUP(00H)
	DD	00H
	DD	05H
xdata$x	ENDS
;	COMDAT voltbl
voltbl	SEGMENT
_volmd	DB	09H
voltbl	ENDS
;	COMDAT xdata$x
xdata$x	SEGMENT
__ehfuncinfo$?_Tidy_deallocate@?$basic_string@DU?$char_traits@D@std@@V?$allocator@D@2@@std@@AAEXXZ DD 019930522H
	DD	00H
	DD	00H
	DD	2 DUP(00H)
	DD	2 DUP(00H)
	DD	00H
	DD	05H
xdata$x	ENDS
;	COMDAT CONST
CONST	SEGMENT
__L__asan_gen_.?_Tidy_deallocate@?$basic_string@DU?$char_traits@D@std@@V?$allocator@D@2@@std@@AAEXXZ DB '1'
	DB	' 16 1 18 compiler temporary'
CONST	ENDS
;	COMDAT voltbl
voltbl	SEGMENT
_volmd	DB	09H
voltbl	ENDS
;	COMDAT xdata$x
xdata$x	SEGMENT
__ehfuncinfo$?_Tidy_init@?$basic_string@DU?$char_traits@D@std@@V?$allocator@D@2@@std@@AAEXXZ DD 019930522H
	DD	00H
	DD	00H
	DD	2 DUP(00H)
	DD	2 DUP(00H)
	DD	00H
	DD	05H
xdata$x	ENDS
;	COMDAT CONST
CONST	SEGMENT
__L__asan_gen_.?_Tidy_init@?$basic_string@DU?$char_traits@D@std@@V?$allocator@D@2@@std@@AAEXXZ DB '1'
	DB	' 16 1 18 compiler temporary'
CONST	ENDS
;	COMDAT voltbl
voltbl	SEGMENT
_volmd	DW	023H
	DW	0253H
voltbl	ENDS
;	COMDAT CONST
CONST	SEGMENT
__L__asan_gen_.?_Calculate_growth@?$basic_string@DU?$char_traits@D@std@@V?$allocator@D@2@@std@@CAIIII@Z DB '2'
	DB	' 16 4 7 _Masked 32 4 18 compiler temporary'
CONST	ENDS
;	COMDAT voltbl
voltbl	SEGMENT
_volmd	DW	023H
	DW	02c7H
voltbl	ENDS
;	COMDAT CONST
CONST	SEGMENT
__L__asan_gen_.?max_size@?$basic_string@DU?$char_traits@D@std@@V?$allocator@D@2@@std@@QBEIXZ DB '4'
	DB	' 16 4 10 _Alloc_max 32 4 18 compiler temporary 48 4 18 compil'
	DB	'er temporary 64 4 18 compiler temporary'
CONST	ENDS
;	COMDAT CONST
CONST	SEGMENT
__L__asan_gen_.?assign@?$basic_string@DU?$char_traits@D@std@@V?$allocator@D@2@@std@@QAEAAV12@QBDI@Z DB '1'
	DB	' 16 1 18 compiler temporary'
CONST	ENDS
;	COMDAT CONST
CONST	SEGMENT
__L__asan_gen_.??4?$basic_string@DU?$char_traits@D@std@@V?$allocator@D@2@@std@@QAEAAV01@ABV01@@Z DB '1'
	DB	' 16 1 18 compiler temporary'
CONST	ENDS
;	COMDAT voltbl
voltbl	SEGMENT
_volmd	DW	023H
	DW	0160H
voltbl	ENDS
;	COMDAT CONST
CONST	SEGMENT
__L__asan_gen_.??1?$basic_string@DU?$char_traits@D@std@@V?$allocator@D@2@@std@@QAE@XZ DB '1'
	DB	' 16 1 4 $S35'
CONST	ENDS
;	COMDAT voltbl
voltbl	SEGMENT
_volmd	DB	01eH
	DB	02bH
voltbl	ENDS
;	COMDAT voltbl
voltbl	SEGMENT
_volmd	DW	032H
	DW	0153H
voltbl	ENDS
;	COMDAT xdata$x
xdata$x	SEGMENT
__unwindtable$??0?$basic_string@DU?$char_traits@D@std@@V?$allocator@D@2@@std@@QAE@QBD@Z DD 0ffffffffH
	DD	FLAT:__unwindfunclet$??0?$basic_string@DU?$char_traits@D@std@@V?$allocator@D@2@@std@@QAE@QBD@Z$0
	DD	00H
	DD	FLAT:__unwindfunclet$??0?$basic_string@DU?$char_traits@D@std@@V?$allocator@D@2@@std@@QAE@QBD@Z$1
__ehfuncinfo$??0?$basic_string@DU?$char_traits@D@std@@V?$allocator@D@2@@std@@QAE@QBD@Z DD 019930522H
	DD	02H
	DD	FLAT:__unwindtable$??0?$basic_string@DU?$char_traits@D@std@@V?$allocator@D@2@@std@@QAE@QBD@Z
	DD	2 DUP(00H)
	DD	2 DUP(00H)
	DD	00H
	DD	01H
xdata$x	ENDS
;	COMDAT CONST
CONST	SEGMENT
__L__asan_gen_.??0?$basic_string@DU?$char_traits@D@std@@V?$allocator@D@2@@std@@QAE@QBD@Z DB '2'
	DB	' 16 1 4 $S37 32 8 6 _Proxy'
CONST	ENDS
;	COMDAT voltbl
voltbl	SEGMENT
_volmd	DB	020H
	DB	0bbH
voltbl	ENDS
;	COMDAT CONST
CONST	SEGMENT
__L__asan_gen_.?_Orphan_all_locked_v3@_Container_base12@std@@AAEXXZ DB '1'
	DB	' 16 4 5 _Lock'
CONST	ENDS
;	COMDAT CONST
CONST	SEGMENT
__L__asan_gen_.?_Throw_bad_array_new_length@std@@YAXXZ DB '1 16 12 18 com'
	DB	'piler temporary'
CONST	ENDS
; Function compile flags: /Odt
;	COMDAT __JustMyCode_Default
_TEXT	SEGMENT
__JustMyCode_Default PROC				; COMDAT
  00000	55		 push	 ebp
  00001	8b ec		 mov	 ebp, esp
  00003	5d		 pop	 ebp
  00004	c3		 ret	 0
__JustMyCode_Default ENDP
_TEXT	ENDS
; Function compile flags: /Odtp /RTCu
; File C:\Program Files (x86)\Microsoft Visual Studio\2019\Community\VC\Tools\MSVC\14.29.30133\include\xmemory
;	COMDAT ?deallocate@?$_Default_allocator_traits@V?$allocator@U_Container_proxy@std@@@std@@@std@@SAXAAV?$allocator@U_Container_proxy@std@@@2@QAU_Container_proxy@2@I@Z
_TEXT	SEGMENT
__Al$ = 8						; size = 4
__Ptr$ = 12						; size = 4
__Count$ = 16						; size = 4
?deallocate@?$_Default_allocator_traits@V?$allocator@U_Container_proxy@std@@@std@@@std@@SAXAAV?$allocator@U_Container_proxy@std@@@2@QAU_Container_proxy@2@I@Z PROC ; std::_Default_allocator_traits<std::allocator<std::_Container_proxy> >::deallocate, COMDAT

; 693  :     static _CONSTEXPR20_DYNALLOC void deallocate(_Alloc& _Al, const pointer _Ptr, const size_type _Count) {

  00000	55		 push	 ebp
  00001	8b ec		 mov	 ebp, esp
  00003	b9 00 00 00 00	 mov	 ecx, OFFSET __79D216CD_xmemory
  00008	e8 00 00 00 00	 call	 @__CheckForDebuggerJustMyCode@4

; 694  :         // no overflow check on the following multiply; we assume _Allocate did that check
; 695  : #ifdef __cpp_lib_constexpr_dynamic_alloc // TRANSITION, GH-1532
; 696  :         if (_STD is_constant_evaluated()) {

  0000d	e8 00 00 00 00	 call	 ?is_constant_evaluated@std@@YA_NXZ ; std::is_constant_evaluated
  00012	0f b6 c0	 movzx	 eax, al
  00015	85 c0		 test	 eax, eax
  00017	74 12		 je	 SHORT $LN2@deallocate

; 697  :             _Al.deallocate(_Ptr, _Count);

  00019	8b 4d 10	 mov	 ecx, DWORD PTR __Count$[ebp]
  0001c	51		 push	 ecx
  0001d	8b 55 0c	 mov	 edx, DWORD PTR __Ptr$[ebp]
  00020	52		 push	 edx
  00021	8b 4d 08	 mov	 ecx, DWORD PTR __Al$[ebp]
  00024	e8 00 00 00 00	 call	 ?deallocate@?$allocator@U_Container_proxy@std@@@std@@QAEXQAU_Container_proxy@2@I@Z ; std::allocator<std::_Container_proxy>::deallocate

; 698  :         } else

  00029	eb 13		 jmp	 SHORT $LN1@deallocate
$LN2@deallocate:

; 699  : #endif // __cpp_lib_constexpr_dynamic_alloc
; 700  :         {
; 701  :             (void) _Al;
; 702  :             _Deallocate<_New_alignof<value_type>>(_Ptr, sizeof(value_type) * _Count);

  0002b	8b 45 10	 mov	 eax, DWORD PTR __Count$[ebp]
  0002e	c1 e0 03	 shl	 eax, 3
  00031	50		 push	 eax
  00032	8b 4d 0c	 mov	 ecx, DWORD PTR __Ptr$[ebp]
  00035	51		 push	 ecx
  00036	e8 00 00 00 00	 call	 ??$_Deallocate@$07$0A@@std@@YAXPAXI@Z ; std::_Deallocate<8,0>
  0003b	83 c4 08	 add	 esp, 8
$LN1@deallocate:

; 703  :         }
; 704  :     }

  0003e	5d		 pop	 ebp
  0003f	c3		 ret	 0
?deallocate@?$_Default_allocator_traits@V?$allocator@U_Container_proxy@std@@@std@@@std@@SAXAAV?$allocator@U_Container_proxy@std@@@2@QAU_Container_proxy@2@I@Z ENDP ; std::_Default_allocator_traits<std::allocator<std::_Container_proxy> >::deallocate
_TEXT	ENDS
; Function compile flags: /Odtp /RTCu
; File C:\Program Files (x86)\Microsoft Visual Studio\2019\Community\VC\Tools\MSVC\14.29.30133\include\xutility
;	COMDAT ??$_Voidify_iter@PAPAD@std@@YAPAXPAPAD@Z
_TEXT	SEGMENT
__It$ = 8						; size = 4
??$_Voidify_iter@PAPAD@std@@YAPAXPAPAD@Z PROC		; std::_Voidify_iter<char * *>, COMDAT

; 130  : _NODISCARD constexpr void* _Voidify_iter(_Iter _It) noexcept {

  00000	55		 push	 ebp
  00001	8b ec		 mov	 ebp, esp
  00003	b9 00 00 00 00	 mov	 ecx, OFFSET __12269DE6_xutility
  00008	e8 00 00 00 00	 call	 @__CheckForDebuggerJustMyCode@4

; 131  :     if constexpr (is_pointer_v<_Iter>) {
; 132  :         return const_cast<void*>(static_cast<const volatile void*>(_It));

  0000d	8b 45 08	 mov	 eax, DWORD PTR __It$[ebp]

; 133  :     } else {
; 134  :         return const_cast<void*>(static_cast<const volatile void*>(_STD addressof(*_It)));
; 135  :     }
; 136  : }

  00010	5d		 pop	 ebp
  00011	c3		 ret	 0
??$_Voidify_iter@PAPAD@std@@YAPAXPAPAD@Z ENDP		; std::_Voidify_iter<char * *>
_TEXT	ENDS
; Function compile flags: /Odtp /RTCu
; File C:\Program Files (x86)\Microsoft Visual Studio\2019\Community\VC\Tools\MSVC\14.29.30133\include\xutility
;	COMDAT ??$construct_at@PADABQADX@std@@YAPAPADQAPADABQAD@Z
_TEXT	SEGMENT
tv77 = -24						; size = 4
tv72 = -20						; size = 4
$T1 = -16						; size = 4
tv80 = -12						; size = 4
tv90 = -8						; size = 4
tv83 = -2						; size = 1
tv93 = -1						; size = 1
__Location$ = 8						; size = 4
_<_Args_0>$ = 12					; size = 4
??$construct_at@PADABQADX@std@@YAPAPADQAPADABQAD@Z PROC	; std::construct_at<char *,char * const &,void>, COMDAT

; 143  :     noexcept(::new (_Voidify_iter(_Location)) _Ty(_STD forward<_Types>(_Args)...))) /* strengthened */ {

  00000	55		 push	 ebp
  00001	8b ec		 mov	 ebp, esp
  00003	83 ec 18	 sub	 esp, 24			; 00000018H
  00006	b9 00 00 00 00	 mov	 ecx, OFFSET __12269DE6_xutility
  0000b	e8 00 00 00 00	 call	 @__CheckForDebuggerJustMyCode@4

; 144  :     return ::new (_Voidify_iter(_Location)) _Ty(_STD forward<_Types>(_Args)...);

  00010	8b 45 08	 mov	 eax, DWORD PTR __Location$[ebp]
  00013	50		 push	 eax
  00014	e8 00 00 00 00	 call	 ??$_Voidify_iter@PAPAD@std@@YAPAXPAPAD@Z ; std::_Voidify_iter<char * *>
  00019	83 c4 04	 add	 esp, 4
  0001c	50		 push	 eax
  0001d	6a 04		 push	 4
  0001f	e8 00 00 00 00	 call	 ??2@YAPAXIPAX@Z		; operator new
  00024	83 c4 08	 add	 esp, 8
  00027	89 45 f0	 mov	 DWORD PTR $T1[ebp], eax
  0002a	8b 4d 0c	 mov	 ecx, DWORD PTR _<_Args_0>$[ebp]
  0002d	51		 push	 ecx
  0002e	e8 00 00 00 00	 call	 ??$forward@ABQAD@std@@YAABQADABQAD@Z ; std::forward<char * const &>
  00033	83 c4 04	 add	 esp, 4
  00036	89 45 ec	 mov	 DWORD PTR tv72[ebp], eax
  00039	8b 55 ec	 mov	 edx, DWORD PTR tv72[ebp]
  0003c	89 55 f8	 mov	 DWORD PTR tv90[ebp], edx
  0003f	8b 45 f8	 mov	 eax, DWORD PTR tv90[ebp]
  00042	c1 e8 03	 shr	 eax, 3
  00045	8a 88 00 00 00
	30		 mov	 cl, BYTE PTR [eax+805306368]
  0004b	88 4d ff	 mov	 BYTE PTR tv93[ebp], cl
  0004e	80 7d ff 00	 cmp	 BYTE PTR tv93[ebp], 0
  00052	74 1a		 je	 SHORT $LN4@construct_
  00054	8a 55 f8	 mov	 dl, BYTE PTR tv90[ebp]
  00057	80 e2 07	 and	 dl, 7
  0005a	80 c2 03	 add	 dl, 3
  0005d	3a 55 ff	 cmp	 dl, BYTE PTR tv93[ebp]
  00060	7c 0c		 jl	 SHORT $LN4@construct_
  00062	8b 45 f8	 mov	 eax, DWORD PTR tv90[ebp]
  00065	50		 push	 eax
  00066	e8 00 00 00 00	 call	 ___asan_report_load4
  0006b	83 c4 04	 add	 esp, 4
$LN4@construct_:
  0006e	8b 4d f0	 mov	 ecx, DWORD PTR $T1[ebp]
  00071	89 4d e8	 mov	 DWORD PTR tv77[ebp], ecx
  00074	8b 55 e8	 mov	 edx, DWORD PTR tv77[ebp]
  00077	89 55 f4	 mov	 DWORD PTR tv80[ebp], edx
  0007a	8b 45 f4	 mov	 eax, DWORD PTR tv80[ebp]
  0007d	c1 e8 03	 shr	 eax, 3
  00080	8a 88 00 00 00
	30		 mov	 cl, BYTE PTR [eax+805306368]
  00086	88 4d fe	 mov	 BYTE PTR tv83[ebp], cl
  00089	80 7d fe 00	 cmp	 BYTE PTR tv83[ebp], 0
  0008d	74 1a		 je	 SHORT $LN3@construct_
  0008f	8a 55 f4	 mov	 dl, BYTE PTR tv80[ebp]
  00092	80 e2 07	 and	 dl, 7
  00095	80 c2 03	 add	 dl, 3
  00098	3a 55 fe	 cmp	 dl, BYTE PTR tv83[ebp]
  0009b	7c 0c		 jl	 SHORT $LN3@construct_
  0009d	8b 45 f4	 mov	 eax, DWORD PTR tv80[ebp]
  000a0	50		 push	 eax
  000a1	e8 00 00 00 00	 call	 ___asan_report_store4
  000a6	83 c4 04	 add	 esp, 4
$LN3@construct_:
  000a9	8b 4d f0	 mov	 ecx, DWORD PTR $T1[ebp]
  000ac	8b 55 ec	 mov	 edx, DWORD PTR tv72[ebp]
  000af	8b 02		 mov	 eax, DWORD PTR [edx]
  000b1	89 01		 mov	 DWORD PTR [ecx], eax
  000b3	8b 45 f0	 mov	 eax, DWORD PTR $T1[ebp]

; 145  : }

  000b6	8b e5		 mov	 esp, ebp
  000b8	5d		 pop	 ebp
  000b9	c3		 ret	 0
??$construct_at@PADABQADX@std@@YAPAPADQAPADABQAD@Z ENDP	; std::construct_at<char *,char * const &,void>
_TEXT	ENDS
; Function compile flags: /Odtp /RTCu
; File C:\Program Files (x86)\Microsoft Visual Studio\2019\Community\VC\Tools\MSVC\14.29.30133\include\type_traits
;	COMDAT ??$forward@ABQAD@std@@YAABQADABQAD@Z
_TEXT	SEGMENT
__Arg$ = 8						; size = 4
??$forward@ABQAD@std@@YAABQADABQAD@Z PROC		; std::forward<char * const &>, COMDAT

; 1443 :     remove_reference_t<_Ty>& _Arg) noexcept { // forward an lvalue as either an lvalue or an rvalue

  00000	55		 push	 ebp
  00001	8b ec		 mov	 ebp, esp
  00003	b9 00 00 00 00	 mov	 ecx, OFFSET __589FA321_type_traits
  00008	e8 00 00 00 00	 call	 @__CheckForDebuggerJustMyCode@4

; 1444 :     return static_cast<_Ty&&>(_Arg);

  0000d	8b 45 08	 mov	 eax, DWORD PTR __Arg$[ebp]

; 1445 : }

  00010	5d		 pop	 ebp
  00011	c3		 ret	 0
??$forward@ABQAD@std@@YAABQADABQAD@Z ENDP		; std::forward<char * const &>
_TEXT	ENDS
; Function compile flags: /Odtp /RTCu
; File C:\Program Files (x86)\Microsoft Visual Studio\2019\Community\VC\Tools\MSVC\14.29.30133\include\xstddef
;	COMDAT ??$addressof@PAD@std@@YAPAPADAAPAD@Z
_TEXT	SEGMENT
__Val$ = 8						; size = 4
??$addressof@PAD@std@@YAPAPADAAPAD@Z PROC		; std::addressof<char *>, COMDAT

; 274  : _NODISCARD constexpr _Ty* addressof(_Ty& _Val) noexcept {

  00000	55		 push	 ebp
  00001	8b ec		 mov	 ebp, esp
  00003	b9 00 00 00 00	 mov	 ecx, OFFSET __E458E21C_xstddef
  00008	e8 00 00 00 00	 call	 @__CheckForDebuggerJustMyCode@4

; 275  :     return __builtin_addressof(_Val);

  0000d	8b 45 08	 mov	 eax, DWORD PTR __Val$[ebp]

; 276  : }

  00010	5d		 pop	 ebp
  00011	c3		 ret	 0
??$addressof@PAD@std@@YAPAPADAAPAD@Z ENDP		; std::addressof<char *>
_TEXT	ENDS
; Function compile flags: /Odtp /RTCu
; File C:\Program Files (x86)\Microsoft Visual Studio\2019\Community\VC\Tools\MSVC\14.29.30133\include\xmemory
;	COMDAT ??$_Allocate_manually_vector_aligned@U_Default_allocate_traits@std@@@std@@YAPAXI@Z
_TEXT	SEGMENT
tv90 = -32						; size = 4
tv88 = -28						; size = 4
__Block_size$ = -24					; size = 4
__Ptr$ = -20						; size = 4
tv128 = -16						; size = 4
__Ptr_container$ = -12					; size = 4
tv138 = -8						; size = 4
tv131 = -2						; size = 1
tv141 = -1						; size = 1
__Bytes$ = 8						; size = 4
??$_Allocate_manually_vector_aligned@U_Default_allocate_traits@std@@@std@@YAPAXI@Z PROC ; std::_Allocate_manually_vector_aligned<std::_Default_allocate_traits>, COMDAT

; 134  : __declspec(allocator) void* _Allocate_manually_vector_aligned(const size_t _Bytes) {

  00000	55		 push	 ebp
  00001	8b ec		 mov	 ebp, esp
  00003	83 ec 20	 sub	 esp, 32			; 00000020H
  00006	b9 00 00 00 00	 mov	 ecx, OFFSET __79D216CD_xmemory
  0000b	e8 00 00 00 00	 call	 @__CheckForDebuggerJustMyCode@4

; 135  :     // allocate _Bytes manually aligned to at least _Big_allocation_alignment
; 136  :     const size_t _Block_size = _Non_user_size + _Bytes;

  00010	8b 45 08	 mov	 eax, DWORD PTR __Bytes$[ebp]
  00013	83 c0 27	 add	 eax, 39			; 00000027H
  00016	89 45 e8	 mov	 DWORD PTR __Block_size$[ebp], eax

; 137  :     if (_Block_size <= _Bytes) {

  00019	8b 4d e8	 mov	 ecx, DWORD PTR __Block_size$[ebp]
  0001c	3b 4d 08	 cmp	 ecx, DWORD PTR __Bytes$[ebp]
  0001f	77 05		 ja	 SHORT $LN8@Allocate_m

; 138  :         _Throw_bad_array_new_length(); // add overflow

  00021	e8 00 00 00 00	 call	 ?_Throw_bad_array_new_length@std@@YAXXZ ; std::_Throw_bad_array_new_length
$LN8@Allocate_m:

; 139  :     }
; 140  : 
; 141  :     const uintptr_t _Ptr_container = reinterpret_cast<uintptr_t>(_Traits::_Allocate(_Block_size));

  00026	8b 55 e8	 mov	 edx, DWORD PTR __Block_size$[ebp]
  00029	52		 push	 edx
  0002a	e8 00 00 00 00	 call	 ?_Allocate@_Default_allocate_traits@std@@SAPAXI@Z ; std::_Default_allocate_traits::_Allocate
  0002f	83 c4 04	 add	 esp, 4
  00032	89 45 f4	 mov	 DWORD PTR __Ptr_container$[ebp], eax
$LN4@Allocate_m:

; 142  :     _STL_VERIFY(_Ptr_container != 0, "invalid argument"); // validate even in release since we're doing p[-1]

  00035	83 7d f4 00	 cmp	 DWORD PTR __Ptr_container$[ebp], 0
  00039	74 02		 je	 SHORT $LN7@Allocate_m
  0003b	eb 4a		 jmp	 SHORT $LN2@Allocate_m
$LN7@Allocate_m:
  0003d	68 00 00 00 00	 push	 OFFSET $SG258642
  00042	68 00 00 00 00	 push	 OFFSET $SG258643
  00047	6a 00		 push	 0
  00049	68 8e 00 00 00	 push	 142			; 0000008eH
  0004e	68 00 00 00 00	 push	 OFFSET $SG258644
  00053	6a 02		 push	 2
  00055	ff 15 00 00 00
	00		 call	 DWORD PTR __imp___CrtDbgReport
  0005b	83 c4 18	 add	 esp, 24			; 00000018H
  0005e	83 f8 01	 cmp	 eax, 1
  00061	75 01		 jne	 SHORT $LN12@Allocate_m
  00063	cc		 int	 3
$LN12@Allocate_m:
  00064	6a 00		 push	 0
  00066	68 8e 00 00 00	 push	 142			; 0000008eH
  0006b	68 00 00 00 00	 push	 OFFSET $SG258645
  00070	68 00 00 00 00	 push	 OFFSET $SG258646
  00075	68 00 00 00 00	 push	 OFFSET $SG258647
  0007a	ff 15 00 00 00
	00		 call	 DWORD PTR __imp___invalid_parameter
  00080	83 c4 14	 add	 esp, 20			; 00000014H
  00083	33 c9		 xor	 ecx, ecx
  00085	75 b6		 jne	 SHORT $LN7@Allocate_m
$LN2@Allocate_m:
  00087	33 d2		 xor	 edx, edx
  00089	75 aa		 jne	 SHORT $LN4@Allocate_m

; 143  :     void* const _Ptr = reinterpret_cast<void*>((_Ptr_container + _Non_user_size) & ~(_Big_allocation_alignment - 1));

  0008b	8b 45 f4	 mov	 eax, DWORD PTR __Ptr_container$[ebp]
  0008e	83 c0 27	 add	 eax, 39			; 00000027H
  00091	83 e0 e0	 and	 eax, -32		; ffffffe0H
  00094	89 45 ec	 mov	 DWORD PTR __Ptr$[ebp], eax

; 144  :     static_cast<uintptr_t*>(_Ptr)[-1] = _Ptr_container;

  00097	b9 04 00 00 00	 mov	 ecx, 4
  0009c	6b d1 ff	 imul	 edx, ecx, -1
  0009f	8b 45 ec	 mov	 eax, DWORD PTR __Ptr$[ebp]
  000a2	03 c2		 add	 eax, edx
  000a4	89 45 e4	 mov	 DWORD PTR tv88[ebp], eax
  000a7	8b 4d e4	 mov	 ecx, DWORD PTR tv88[ebp]
  000aa	89 4d f8	 mov	 DWORD PTR tv138[ebp], ecx
  000ad	8b 55 f8	 mov	 edx, DWORD PTR tv138[ebp]
  000b0	c1 ea 03	 shr	 edx, 3
  000b3	8a 82 00 00 00
	30		 mov	 al, BYTE PTR [edx+805306368]
  000b9	88 45 ff	 mov	 BYTE PTR tv141[ebp], al
  000bc	80 7d ff 00	 cmp	 BYTE PTR tv141[ebp], 0
  000c0	74 1a		 je	 SHORT $LN14@Allocate_m
  000c2	8a 4d f8	 mov	 cl, BYTE PTR tv138[ebp]
  000c5	80 e1 07	 and	 cl, 7
  000c8	80 c1 03	 add	 cl, 3
  000cb	3a 4d ff	 cmp	 cl, BYTE PTR tv141[ebp]
  000ce	7c 0c		 jl	 SHORT $LN14@Allocate_m
  000d0	8b 55 f8	 mov	 edx, DWORD PTR tv138[ebp]
  000d3	52		 push	 edx
  000d4	e8 00 00 00 00	 call	 ___asan_report_store4
  000d9	83 c4 04	 add	 esp, 4
$LN14@Allocate_m:
  000dc	8b 45 e4	 mov	 eax, DWORD PTR tv88[ebp]
  000df	8b 4d f4	 mov	 ecx, DWORD PTR __Ptr_container$[ebp]
  000e2	89 08		 mov	 DWORD PTR [eax], ecx

; 145  : 
; 146  : #ifdef _DEBUG
; 147  :     static_cast<uintptr_t*>(_Ptr)[-2] = _Big_allocation_sentinel;

  000e4	ba 04 00 00 00	 mov	 edx, 4
  000e9	6b c2 fe	 imul	 eax, edx, -2
  000ec	8b 4d ec	 mov	 ecx, DWORD PTR __Ptr$[ebp]
  000ef	03 c8		 add	 ecx, eax
  000f1	89 4d e0	 mov	 DWORD PTR tv90[ebp], ecx
  000f4	8b 55 e0	 mov	 edx, DWORD PTR tv90[ebp]
  000f7	89 55 f0	 mov	 DWORD PTR tv128[ebp], edx
  000fa	8b 45 f0	 mov	 eax, DWORD PTR tv128[ebp]
  000fd	c1 e8 03	 shr	 eax, 3
  00100	8a 88 00 00 00
	30		 mov	 cl, BYTE PTR [eax+805306368]
  00106	88 4d fe	 mov	 BYTE PTR tv131[ebp], cl
  00109	80 7d fe 00	 cmp	 BYTE PTR tv131[ebp], 0
  0010d	74 1a		 je	 SHORT $LN13@Allocate_m
  0010f	8a 55 f0	 mov	 dl, BYTE PTR tv128[ebp]
  00112	80 e2 07	 and	 dl, 7
  00115	80 c2 03	 add	 dl, 3
  00118	3a 55 fe	 cmp	 dl, BYTE PTR tv131[ebp]
  0011b	7c 0c		 jl	 SHORT $LN13@Allocate_m
  0011d	8b 45 f0	 mov	 eax, DWORD PTR tv128[ebp]
  00120	50		 push	 eax
  00121	e8 00 00 00 00	 call	 ___asan_report_store4
  00126	83 c4 04	 add	 esp, 4
$LN13@Allocate_m:
  00129	8b 4d e0	 mov	 ecx, DWORD PTR tv90[ebp]
  0012c	c7 01 fa fa fa
	fa		 mov	 DWORD PTR [ecx], -84215046 ; fafafafaH

; 148  : #endif // _DEBUG
; 149  :     return _Ptr;

  00132	8b 45 ec	 mov	 eax, DWORD PTR __Ptr$[ebp]
$LN11@Allocate_m:

; 150  : }

  00135	8b e5		 mov	 esp, ebp
  00137	5d		 pop	 ebp
  00138	c3		 ret	 0
??$_Allocate_manually_vector_aligned@U_Default_allocate_traits@std@@@std@@YAPAXI@Z ENDP ; std::_Allocate_manually_vector_aligned<std::_Default_allocate_traits>
_TEXT	ENDS
; Function compile flags: /Odtp /RTCu
; File C:\Program Files (x86)\Microsoft Visual Studio\2019\Community\VC\Tools\MSVC\14.29.30133\include\xmemory
;	COMDAT ??$destroy_at@V?$vector@HV?$allocator@H@std@@@std@@@std@@YAXQAV?$vector@HV?$allocator@H@std@@@0@@Z
_TEXT	SEGMENT
__Location$ = 8						; size = 4
??$destroy_at@V?$vector@HV?$allocator@H@std@@@std@@@std@@YAXQAV?$vector@HV?$allocator@H@std@@@0@@Z PROC ; std::destroy_at<std::vector<int,std::allocator<int> > >, COMDAT

; 318  : _CONSTEXPR20_DYNALLOC void destroy_at(_Ty* const _Location) noexcept /* strengthened */ {

  00000	55		 push	 ebp
  00001	8b ec		 mov	 ebp, esp
  00003	b9 00 00 00 00	 mov	 ecx, OFFSET __79D216CD_xmemory
  00008	e8 00 00 00 00	 call	 @__CheckForDebuggerJustMyCode@4

; 319  : #if _HAS_CXX20
; 320  :     if constexpr (is_array_v<_Ty>) {
; 321  :         _Destroy_range(_STD begin(*_Location), _STD end(*_Location));
; 322  :     } else
; 323  : #endif // _HAS_CXX20
; 324  :     {
; 325  :         _Location->~_Ty();

  0000d	6a 00		 push	 0
  0000f	8b 4d 08	 mov	 ecx, DWORD PTR __Location$[ebp]
  00012	e8 00 00 00 00	 call	 ??_G?$vector@HV?$allocator@H@std@@@std@@QAEPAXI@Z

; 326  :     }
; 327  : }

  00017	5d		 pop	 ebp
  00018	c3		 ret	 0
??$destroy_at@V?$vector@HV?$allocator@H@std@@@std@@@std@@YAXQAV?$vector@HV?$allocator@H@std@@@0@@Z ENDP ; std::destroy_at<std::vector<int,std::allocator<int> > >
_TEXT	ENDS
; Function compile flags: /Odtp /RTCu
; File C:\Program Files (x86)\Microsoft Visual Studio\2019\Community\VC\Tools\MSVC\14.29.30133\include\xmemory
;	COMDAT ??$_Deallocate_plain@V?$allocator@U_Container_proxy@std@@@std@@@std@@YAXAAV?$allocator@U_Container_proxy@std@@@0@QAU_Container_proxy@0@@Z
_TEXT	SEGMENT
__$EHRec$ = -12						; size = 12
__Al$ = 8						; size = 4
__Ptr$ = 12						; size = 4
??$_Deallocate_plain@V?$allocator@U_Container_proxy@std@@@std@@@std@@YAXAAV?$allocator@U_Container_proxy@std@@@0@QAU_Container_proxy@0@@Z PROC ; std::_Deallocate_plain<std::allocator<std::_Container_proxy> >, COMDAT

; 985  : _CONSTEXPR20_DYNALLOC void _Deallocate_plain(_Alloc& _Al, typename _Alloc::value_type* const _Ptr) noexcept {

  00000	55		 push	 ebp
  00001	8b ec		 mov	 ebp, esp
  00003	6a ff		 push	 -1
  00005	68 00 00 00 00	 push	 __ehhandler$??$_Deallocate_plain@V?$allocator@U_Container_proxy@std@@@std@@@std@@YAXAAV?$allocator@U_Container_proxy@std@@@0@QAU_Container_proxy@0@@Z
  0000a	64 a1 00 00 00
	00		 mov	 eax, DWORD PTR fs:0
  00010	50		 push	 eax
  00011	a1 00 00 00 00	 mov	 eax, DWORD PTR ___security_cookie
  00016	33 c5		 xor	 eax, ebp
  00018	50		 push	 eax
  00019	8d 45 f4	 lea	 eax, DWORD PTR __$EHRec$[ebp]
  0001c	64 a3 00 00 00
	00		 mov	 DWORD PTR fs:0, eax
  00022	b9 00 00 00 00	 mov	 ecx, OFFSET __79D216CD_xmemory
  00027	e8 00 00 00 00	 call	 @__CheckForDebuggerJustMyCode@4

; 986  :     // deallocate a plain pointer using an allocator
; 987  :     using _Alloc_traits = allocator_traits<_Alloc>;
; 988  :     if constexpr (is_same_v<_Alloc_ptr_t<_Alloc>, typename _Alloc::value_type*>) {
; 989  :         _Alloc_traits::deallocate(_Al, _Ptr, 1);

  0002c	6a 01		 push	 1
  0002e	8b 45 0c	 mov	 eax, DWORD PTR __Ptr$[ebp]
  00031	50		 push	 eax
  00032	8b 4d 08	 mov	 ecx, DWORD PTR __Al$[ebp]
  00035	51		 push	 ecx
  00036	e8 00 00 00 00	 call	 ?deallocate@?$_Default_allocator_traits@V?$allocator@U_Container_proxy@std@@@std@@@std@@SAXAAV?$allocator@U_Container_proxy@std@@@2@QAU_Container_proxy@2@I@Z ; std::_Default_allocator_traits<std::allocator<std::_Container_proxy> >::deallocate
  0003b	83 c4 0c	 add	 esp, 12			; 0000000cH

; 990  :     } else {
; 991  :         using _Ptr_traits = pointer_traits<_Alloc_ptr_t<_Alloc>>;
; 992  :         _Alloc_traits::deallocate(_Al, _Ptr_traits::pointer_to(*_Ptr), 1);
; 993  :     }
; 994  : }

  0003e	8b 4d f4	 mov	 ecx, DWORD PTR __$EHRec$[ebp]
  00041	64 89 0d 00 00
	00 00		 mov	 DWORD PTR fs:0, ecx
  00048	59		 pop	 ecx
  00049	8b e5		 mov	 esp, ebp
  0004b	5d		 pop	 ebp
  0004c	c3		 ret	 0
  0004d	cc		 int	 3
  0004e	cc		 int	 3
  0004f	cc		 int	 3
  00050	cc		 int	 3
  00051	cc		 int	 3
_TEXT	ENDS
;	COMDAT text$x
text$x	SEGMENT
__ehhandler$??$_Deallocate_plain@V?$allocator@U_Container_proxy@std@@@std@@@std@@YAXAAV?$allocator@U_Container_proxy@std@@@0@QAU_Container_proxy@0@@Z:
  00000	90		 npad	 1
  00001	90		 npad	 1
  00002	8b 54 24 08	 mov	 edx, DWORD PTR [esp+8]
  00006	8d 42 0c	 lea	 eax, DWORD PTR [edx+12]
  00009	8b 4a fc	 mov	 ecx, DWORD PTR [edx-4]
  0000c	33 c8		 xor	 ecx, eax
  0000e	e8 00 00 00 00	 call	 @__security_check_cookie@4
  00013	b8 00 00 00 00	 mov	 eax, OFFSET __ehfuncinfo$??$_Deallocate_plain@V?$allocator@U_Container_proxy@std@@@std@@@std@@YAXAAV?$allocator@U_Container_proxy@std@@@0@QAU_Container_proxy@0@@Z
  00018	e9 00 00 00 00	 jmp	 ___CxxFrameHandler3
text$x	ENDS
??$_Deallocate_plain@V?$allocator@U_Container_proxy@std@@@std@@@std@@YAXAAV?$allocator@U_Container_proxy@std@@@0@QAU_Container_proxy@0@@Z ENDP ; std::_Deallocate_plain<std::allocator<std::_Container_proxy> >
; Function compile flags: /Odtp /RTCu
; File C:\Program Files (x86)\Microsoft Visual Studio\2019\Community\VC\Tools\MSVC\14.29.30133\include\xutility
;	COMDAT ??$_To_address@PAH@std@@YA?A_PABQAH@Z
_TEXT	SEGMENT
__Val$ = 8						; size = 4
??$_To_address@PAH@std@@YA?A_PABQAH@Z PROC		; std::_To_address<int *>, COMDAT

; 4070 : _NODISCARD constexpr auto _To_address(const _Iter& _Val) noexcept {

  00000	55		 push	 ebp
  00001	8b ec		 mov	 ebp, esp
  00003	b9 00 00 00 00	 mov	 ecx, OFFSET __12269DE6_xutility
  00008	e8 00 00 00 00	 call	 @__CheckForDebuggerJustMyCode@4

; 4071 :     _STL_INTERNAL_STATIC_ASSERT(contiguous_iterator<_Iter>);
; 4072 :     return _STD to_address(_Val);

  0000d	8b 45 08	 mov	 eax, DWORD PTR __Val$[ebp]
  00010	8b 08		 mov	 ecx, DWORD PTR [eax]
  00012	51		 push	 ecx
  00013	e8 00 00 00 00	 call	 ??$to_address@H@std@@YAPAHQAH@Z ; std::to_address<int>
  00018	83 c4 04	 add	 esp, 4

; 4073 : }

  0001b	5d		 pop	 ebp
  0001c	c3		 ret	 0
??$_To_address@PAH@std@@YA?A_PABQAH@Z ENDP		; std::_To_address<int *>
_TEXT	ENDS
; Function compile flags: /Odtp /RTCu
; File C:\Program Files (x86)\Microsoft Visual Studio\2019\Community\VC\Tools\MSVC\14.29.30133\include\xutility
;	COMDAT ??$_To_address@PBH@std@@YA?A_PABQBH@Z
_TEXT	SEGMENT
__Val$ = 8						; size = 4
??$_To_address@PBH@std@@YA?A_PABQBH@Z PROC		; std::_To_address<int const *>, COMDAT

; 4070 : _NODISCARD constexpr auto _To_address(const _Iter& _Val) noexcept {

  00000	55		 push	 ebp
  00001	8b ec		 mov	 ebp, esp
  00003	b9 00 00 00 00	 mov	 ecx, OFFSET __12269DE6_xutility
  00008	e8 00 00 00 00	 call	 @__CheckForDebuggerJustMyCode@4

; 4071 :     _STL_INTERNAL_STATIC_ASSERT(contiguous_iterator<_Iter>);
; 4072 :     return _STD to_address(_Val);

  0000d	8b 45 08	 mov	 eax, DWORD PTR __Val$[ebp]
  00010	8b 08		 mov	 ecx, DWORD PTR [eax]
  00012	51		 push	 ecx
  00013	e8 00 00 00 00	 call	 ??$to_address@$$CBH@std@@YAPBHQBH@Z ; std::to_address<int const >
  00018	83 c4 04	 add	 esp, 4

; 4073 : }

  0001b	5d		 pop	 ebp
  0001c	c3		 ret	 0
??$_To_address@PBH@std@@YA?A_PABQBH@Z ENDP		; std::_To_address<int const *>
_TEXT	ENDS
; Function compile flags: /Odtp /RTCu
; File C:\Program Files (x86)\Microsoft Visual Studio\2019\Community\VC\Tools\MSVC\14.29.30133\include\type_traits
;	COMDAT ??$forward@ABD@std@@YAABDABD@Z
_TEXT	SEGMENT
__Arg$ = 8						; size = 4
??$forward@ABD@std@@YAABDABD@Z PROC			; std::forward<char const &>, COMDAT

; 1443 :     remove_reference_t<_Ty>& _Arg) noexcept { // forward an lvalue as either an lvalue or an rvalue

  00000	55		 push	 ebp
  00001	8b ec		 mov	 ebp, esp
  00003	b9 00 00 00 00	 mov	 ecx, OFFSET __589FA321_type_traits
  00008	e8 00 00 00 00	 call	 @__CheckForDebuggerJustMyCode@4

; 1444 :     return static_cast<_Ty&&>(_Arg);

  0000d	8b 45 08	 mov	 eax, DWORD PTR __Arg$[ebp]

; 1445 : }

  00010	5d		 pop	 ebp
  00011	c3		 ret	 0
??$forward@ABD@std@@YAABDABD@Z ENDP			; std::forward<char const &>
_TEXT	ENDS
; Function compile flags: /Odtp /RTCu
; File C:\Program Files (x86)\Microsoft Visual Studio\2019\Community\VC\Tools\MSVC\14.29.30133\include\xutility
;	COMDAT ??$_Voidify_iter@PAD@std@@YAPAXPAD@Z
_TEXT	SEGMENT
__It$ = 8						; size = 4
??$_Voidify_iter@PAD@std@@YAPAXPAD@Z PROC		; std::_Voidify_iter<char *>, COMDAT

; 130  : _NODISCARD constexpr void* _Voidify_iter(_Iter _It) noexcept {

  00000	55		 push	 ebp
  00001	8b ec		 mov	 ebp, esp
  00003	b9 00 00 00 00	 mov	 ecx, OFFSET __12269DE6_xutility
  00008	e8 00 00 00 00	 call	 @__CheckForDebuggerJustMyCode@4

; 131  :     if constexpr (is_pointer_v<_Iter>) {
; 132  :         return const_cast<void*>(static_cast<const volatile void*>(_It));

  0000d	8b 45 08	 mov	 eax, DWORD PTR __It$[ebp]

; 133  :     } else {
; 134  :         return const_cast<void*>(static_cast<const volatile void*>(_STD addressof(*_It)));
; 135  :     }
; 136  : }

  00010	5d		 pop	 ebp
  00011	c3		 ret	 0
??$_Voidify_iter@PAD@std@@YAPAXPAD@Z ENDP		; std::_Voidify_iter<char *>
_TEXT	ENDS
; Function compile flags: /Odtp /RTCu
; File C:\Program Files (x86)\Microsoft Visual Studio\2019\Community\VC\Tools\MSVC\14.29.30133\include\xutility
;	COMDAT ??$construct_at@DABDX@std@@YAPADQADABD@Z
_TEXT	SEGMENT
tv77 = -24						; size = 4
tv72 = -20						; size = 4
$T1 = -16						; size = 4
tv80 = -12						; size = 4
tv90 = -8						; size = 4
tv83 = -2						; size = 1
tv93 = -1						; size = 1
__Location$ = 8						; size = 4
_<_Args_0>$ = 12					; size = 4
??$construct_at@DABDX@std@@YAPADQADABD@Z PROC		; std::construct_at<char,char const &,void>, COMDAT

; 143  :     noexcept(::new (_Voidify_iter(_Location)) _Ty(_STD forward<_Types>(_Args)...))) /* strengthened */ {

  00000	55		 push	 ebp
  00001	8b ec		 mov	 ebp, esp
  00003	83 ec 18	 sub	 esp, 24			; 00000018H
  00006	b9 00 00 00 00	 mov	 ecx, OFFSET __12269DE6_xutility
  0000b	e8 00 00 00 00	 call	 @__CheckForDebuggerJustMyCode@4

; 144  :     return ::new (_Voidify_iter(_Location)) _Ty(_STD forward<_Types>(_Args)...);

  00010	8b 45 08	 mov	 eax, DWORD PTR __Location$[ebp]
  00013	50		 push	 eax
  00014	e8 00 00 00 00	 call	 ??$_Voidify_iter@PAD@std@@YAPAXPAD@Z ; std::_Voidify_iter<char *>
  00019	83 c4 04	 add	 esp, 4
  0001c	50		 push	 eax
  0001d	6a 01		 push	 1
  0001f	e8 00 00 00 00	 call	 ??2@YAPAXIPAX@Z		; operator new
  00024	83 c4 08	 add	 esp, 8
  00027	89 45 f0	 mov	 DWORD PTR $T1[ebp], eax
  0002a	8b 4d 0c	 mov	 ecx, DWORD PTR _<_Args_0>$[ebp]
  0002d	51		 push	 ecx
  0002e	e8 00 00 00 00	 call	 ??$forward@ABD@std@@YAABDABD@Z ; std::forward<char const &>
  00033	83 c4 04	 add	 esp, 4
  00036	89 45 ec	 mov	 DWORD PTR tv72[ebp], eax
  00039	8b 55 ec	 mov	 edx, DWORD PTR tv72[ebp]
  0003c	89 55 f8	 mov	 DWORD PTR tv90[ebp], edx
  0003f	8b 45 f8	 mov	 eax, DWORD PTR tv90[ebp]
  00042	c1 e8 03	 shr	 eax, 3
  00045	8a 88 00 00 00
	30		 mov	 cl, BYTE PTR [eax+805306368]
  0004b	88 4d ff	 mov	 BYTE PTR tv93[ebp], cl
  0004e	80 7d ff 00	 cmp	 BYTE PTR tv93[ebp], 0
  00052	74 17		 je	 SHORT $LN4@construct_
  00054	8a 55 f8	 mov	 dl, BYTE PTR tv90[ebp]
  00057	80 e2 07	 and	 dl, 7
  0005a	3a 55 ff	 cmp	 dl, BYTE PTR tv93[ebp]
  0005d	7c 0c		 jl	 SHORT $LN4@construct_
  0005f	8b 45 f8	 mov	 eax, DWORD PTR tv90[ebp]
  00062	50		 push	 eax
  00063	e8 00 00 00 00	 call	 ___asan_report_load1
  00068	83 c4 04	 add	 esp, 4
$LN4@construct_:
  0006b	8b 4d f0	 mov	 ecx, DWORD PTR $T1[ebp]
  0006e	89 4d e8	 mov	 DWORD PTR tv77[ebp], ecx
  00071	8b 55 e8	 mov	 edx, DWORD PTR tv77[ebp]
  00074	89 55 f4	 mov	 DWORD PTR tv80[ebp], edx
  00077	8b 45 f4	 mov	 eax, DWORD PTR tv80[ebp]
  0007a	c1 e8 03	 shr	 eax, 3
  0007d	8a 88 00 00 00
	30		 mov	 cl, BYTE PTR [eax+805306368]
  00083	88 4d fe	 mov	 BYTE PTR tv83[ebp], cl
  00086	80 7d fe 00	 cmp	 BYTE PTR tv83[ebp], 0
  0008a	74 17		 je	 SHORT $LN3@construct_
  0008c	8a 55 f4	 mov	 dl, BYTE PTR tv80[ebp]
  0008f	80 e2 07	 and	 dl, 7
  00092	3a 55 fe	 cmp	 dl, BYTE PTR tv83[ebp]
  00095	7c 0c		 jl	 SHORT $LN3@construct_
  00097	8b 45 f4	 mov	 eax, DWORD PTR tv80[ebp]
  0009a	50		 push	 eax
  0009b	e8 00 00 00 00	 call	 ___asan_report_store1
  000a0	83 c4 04	 add	 esp, 4
$LN3@construct_:
  000a3	8b 4d f0	 mov	 ecx, DWORD PTR $T1[ebp]
  000a6	8b 55 ec	 mov	 edx, DWORD PTR tv72[ebp]
  000a9	8a 02		 mov	 al, BYTE PTR [edx]
  000ab	88 01		 mov	 BYTE PTR [ecx], al
  000ad	8b 45 f0	 mov	 eax, DWORD PTR $T1[ebp]

; 145  : }

  000b0	8b e5		 mov	 esp, ebp
  000b2	5d		 pop	 ebp
  000b3	c3		 ret	 0
??$construct_at@DABDX@std@@YAPADQADABD@Z ENDP		; std::construct_at<char,char const &,void>
_TEXT	ENDS
; Function compile flags: /Odtp /RTCu
; File C:\Program Files (x86)\Microsoft Visual Studio\2019\Community\VC\Tools\MSVC\14.29.30133\include\xmemory
;	COMDAT ??$_Get_size_of_n@$00@std@@YAII@Z
_TEXT	SEGMENT
__Overflow_is_possible$ = -1				; size = 1
__Count$ = 8						; size = 4
??$_Get_size_of_n@$00@std@@YAII@Z PROC			; std::_Get_size_of_n<1>, COMDAT

; 59   : _NODISCARD constexpr size_t _Get_size_of_n(const size_t _Count) {

  00000	55		 push	 ebp
  00001	8b ec		 mov	 ebp, esp
  00003	51		 push	 ecx
  00004	b9 00 00 00 00	 mov	 ecx, OFFSET __79D216CD_xmemory
  00009	e8 00 00 00 00	 call	 @__CheckForDebuggerJustMyCode@4

; 60   :     constexpr bool _Overflow_is_possible = _Ty_size > 1;

  0000e	c6 45 ff 00	 mov	 BYTE PTR __Overflow_is_possible$[ebp], 0

; 61   : 
; 62   :     if constexpr (_Overflow_is_possible) {
; 63   :         constexpr size_t _Max_possible = static_cast<size_t>(-1) / _Ty_size;
; 64   :         if (_Count > _Max_possible) {
; 65   :             _Throw_bad_array_new_length(); // multiply overflow
; 66   :         }
; 67   :     }
; 68   : 
; 69   :     return _Count * _Ty_size;

  00012	8b 45 08	 mov	 eax, DWORD PTR __Count$[ebp]

; 70   : }

  00015	8b e5		 mov	 esp, ebp
  00017	5d		 pop	 ebp
  00018	c3		 ret	 0
??$_Get_size_of_n@$00@std@@YAII@Z ENDP			; std::_Get_size_of_n<1>
_TEXT	ENDS
; Function compile flags: /Odtp /RTCu
; File C:\Program Files (x86)\Microsoft Visual Studio\2019\Community\VC\Tools\MSVC\14.29.30133\include\xutility
;	COMDAT ??$_Construct_in_place@PADABQAD@std@@YAXAAPADABQAD@Z
_TEXT	SEGMENT
tv92 = -32						; size = 4
tv75 = -28						; size = 4
tv77 = -24						; size = 4
tv87 = -20						; size = 4
$T1 = -16						; size = 4
tv95 = -12						; size = 4
tv137 = -8						; size = 4
tv130 = -2						; size = 1
tv140 = -1						; size = 1
__Obj$ = 8						; size = 4
_<_Args_0>$ = 12					; size = 4
??$_Construct_in_place@PADABQAD@std@@YAXAAPADABQAD@Z PROC ; std::_Construct_in_place<char *,char * const &>, COMDAT

; 151  :     is_nothrow_constructible_v<_Ty, _Types...>) {

  00000	55		 push	 ebp
  00001	8b ec		 mov	 ebp, esp
  00003	83 ec 20	 sub	 esp, 32			; 00000020H
  00006	b9 00 00 00 00	 mov	 ecx, OFFSET __12269DE6_xutility
  0000b	e8 00 00 00 00	 call	 @__CheckForDebuggerJustMyCode@4

; 152  : #ifdef __cpp_lib_constexpr_dynamic_alloc
; 153  :     if (_STD is_constant_evaluated()) {

  00010	e8 00 00 00 00	 call	 ?is_constant_evaluated@std@@YA_NXZ ; std::is_constant_evaluated
  00015	0f b6 c0	 movzx	 eax, al
  00018	85 c0		 test	 eax, eax
  0001a	74 33		 je	 SHORT $LN2@Construct_

; 154  :         _STD construct_at(_STD addressof(_Obj), _STD forward<_Types>(_Args)...);

  0001c	8b 4d 0c	 mov	 ecx, DWORD PTR _<_Args_0>$[ebp]
  0001f	51		 push	 ecx
  00020	e8 00 00 00 00	 call	 ??$forward@ABQAD@std@@YAABQADABQAD@Z ; std::forward<char * const &>
  00025	83 c4 04	 add	 esp, 4
  00028	89 45 e8	 mov	 DWORD PTR tv77[ebp], eax
  0002b	8b 55 08	 mov	 edx, DWORD PTR __Obj$[ebp]
  0002e	52		 push	 edx
  0002f	e8 00 00 00 00	 call	 ??$addressof@PAD@std@@YAPAPADAAPAD@Z ; std::addressof<char *>
  00034	83 c4 04	 add	 esp, 4
  00037	89 45 e4	 mov	 DWORD PTR tv75[ebp], eax
  0003a	8b 45 e8	 mov	 eax, DWORD PTR tv77[ebp]
  0003d	50		 push	 eax
  0003e	8b 4d e4	 mov	 ecx, DWORD PTR tv75[ebp]
  00041	51		 push	 ecx
  00042	e8 00 00 00 00	 call	 ??$construct_at@PADABQADX@std@@YAPAPADQAPADABQAD@Z ; std::construct_at<char *,char * const &,void>
  00047	83 c4 08	 add	 esp, 8

; 155  :     } else

  0004a	e9 ac 00 00 00	 jmp	 $LN4@Construct_
$LN2@Construct_:

; 151  :     is_nothrow_constructible_v<_Ty, _Types...>) {

  0004f	8b 55 08	 mov	 edx, DWORD PTR __Obj$[ebp]
  00052	52		 push	 edx
  00053	e8 00 00 00 00	 call	 ??$addressof@PAD@std@@YAPAPADAAPAD@Z ; std::addressof<char *>
  00058	83 c4 04	 add	 esp, 4
  0005b	50		 push	 eax
  0005c	e8 00 00 00 00	 call	 ??$_Voidify_iter@PAPAD@std@@YAPAXPAPAD@Z ; std::_Voidify_iter<char * *>
  00061	83 c4 04	 add	 esp, 4
  00064	50		 push	 eax
  00065	6a 04		 push	 4
  00067	e8 00 00 00 00	 call	 ??2@YAPAXIPAX@Z		; operator new
  0006c	83 c4 08	 add	 esp, 8
  0006f	89 45 f0	 mov	 DWORD PTR $T1[ebp], eax
  00072	8b 45 0c	 mov	 eax, DWORD PTR _<_Args_0>$[ebp]
  00075	50		 push	 eax
  00076	e8 00 00 00 00	 call	 ??$forward@ABQAD@std@@YAABQADABQAD@Z ; std::forward<char * const &>
  0007b	83 c4 04	 add	 esp, 4
  0007e	89 45 ec	 mov	 DWORD PTR tv87[ebp], eax
  00081	8b 4d ec	 mov	 ecx, DWORD PTR tv87[ebp]
  00084	89 4d f8	 mov	 DWORD PTR tv137[ebp], ecx
  00087	8b 55 f8	 mov	 edx, DWORD PTR tv137[ebp]
  0008a	c1 ea 03	 shr	 edx, 3
  0008d	8a 82 00 00 00
	30		 mov	 al, BYTE PTR [edx+805306368]
  00093	88 45 ff	 mov	 BYTE PTR tv140[ebp], al
  00096	80 7d ff 00	 cmp	 BYTE PTR tv140[ebp], 0
  0009a	74 1a		 je	 SHORT $LN6@Construct_
  0009c	8a 4d f8	 mov	 cl, BYTE PTR tv137[ebp]
  0009f	80 e1 07	 and	 cl, 7
  000a2	80 c1 03	 add	 cl, 3
  000a5	3a 4d ff	 cmp	 cl, BYTE PTR tv140[ebp]
  000a8	7c 0c		 jl	 SHORT $LN6@Construct_
  000aa	8b 55 f8	 mov	 edx, DWORD PTR tv137[ebp]
  000ad	52		 push	 edx
  000ae	e8 00 00 00 00	 call	 ___asan_report_load4
  000b3	83 c4 04	 add	 esp, 4
$LN6@Construct_:
  000b6	8b 45 f0	 mov	 eax, DWORD PTR $T1[ebp]
  000b9	89 45 e0	 mov	 DWORD PTR tv92[ebp], eax
  000bc	8b 4d e0	 mov	 ecx, DWORD PTR tv92[ebp]
  000bf	89 4d f4	 mov	 DWORD PTR tv95[ebp], ecx
  000c2	8b 55 f4	 mov	 edx, DWORD PTR tv95[ebp]
  000c5	c1 ea 03	 shr	 edx, 3
  000c8	8a 82 00 00 00
	30		 mov	 al, BYTE PTR [edx+805306368]
  000ce	88 45 fe	 mov	 BYTE PTR tv130[ebp], al
  000d1	80 7d fe 00	 cmp	 BYTE PTR tv130[ebp], 0
  000d5	74 1a		 je	 SHORT $LN5@Construct_
  000d7	8a 4d f4	 mov	 cl, BYTE PTR tv95[ebp]
  000da	80 e1 07	 and	 cl, 7
  000dd	80 c1 03	 add	 cl, 3
  000e0	3a 4d fe	 cmp	 cl, BYTE PTR tv130[ebp]
  000e3	7c 0c		 jl	 SHORT $LN5@Construct_
  000e5	8b 55 f4	 mov	 edx, DWORD PTR tv95[ebp]
  000e8	52		 push	 edx
  000e9	e8 00 00 00 00	 call	 ___asan_report_store4
  000ee	83 c4 04	 add	 esp, 4
$LN5@Construct_:
  000f1	8b 45 f0	 mov	 eax, DWORD PTR $T1[ebp]
  000f4	8b 4d ec	 mov	 ecx, DWORD PTR tv87[ebp]
  000f7	8b 11		 mov	 edx, DWORD PTR [ecx]
  000f9	89 10		 mov	 DWORD PTR [eax], edx
$LN4@Construct_:

; 156  : #endif // __cpp_lib_constexpr_dynamic_alloc
; 157  :     {
; 158  :         ::new (_Voidify_iter(_STD addressof(_Obj))) _Ty(_STD forward<_Types>(_Args)...);
; 159  :     }
; 160  : }

  000fb	8b e5		 mov	 esp, ebp
  000fd	5d		 pop	 ebp
  000fe	c3		 ret	 0
??$_Construct_in_place@PADABQAD@std@@YAXAAPADABQAD@Z ENDP ; std::_Construct_in_place<char *,char * const &>
_TEXT	ENDS
; Function compile flags: /Odtp /RTCu
; File C:\Program Files (x86)\Microsoft Visual Studio\2019\Community\VC\Tools\MSVC\14.29.30133\include\xmemory
;	COMDAT ??$_Pocca@V?$allocator@D@std@@@std@@YAXAAV?$allocator@D@0@ABV10@@Z
_TEXT	SEGMENT
__Left$ = 8						; size = 4
__Right$ = 12						; size = 4
??$_Pocca@V?$allocator@D@std@@@std@@YAXAAV?$allocator@D@0@ABV10@@Z PROC ; std::_Pocca<std::allocator<char> >, COMDAT

; 918  : _CONSTEXPR20 void _Pocca(_Alloc& _Left, const _Alloc& _Right) noexcept {

  00000	55		 push	 ebp
  00001	8b ec		 mov	 ebp, esp
  00003	b9 00 00 00 00	 mov	 ecx, OFFSET __79D216CD_xmemory
  00008	e8 00 00 00 00	 call	 @__CheckForDebuggerJustMyCode@4

; 919  :     if constexpr (allocator_traits<_Alloc>::propagate_on_container_copy_assignment::value) {
; 920  :         _Left = _Right;
; 921  :     }
; 922  : }

  0000d	5d		 pop	 ebp
  0000e	c3		 ret	 0
??$_Pocca@V?$allocator@D@std@@@std@@YAXAAV?$allocator@D@0@ABV10@@Z ENDP ; std::_Pocca<std::allocator<char> >
_TEXT	ENDS
; Function compile flags: /Odtp /RTCu
; File C:\Program Files (x86)\Microsoft Visual Studio\2019\Community\VC\Tools\MSVC\14.29.30133\include\xstring
;	COMDAT ??$_Reallocate_for@V<lambda_1>@?1??assign@?$basic_string@DU?$char_traits@D@std@@V?$allocator@D@2@@std@@QAEAAV34@QBDI@Z@PBD@?$basic_string@DU?$char_traits@D@std@@V?$allocator@D@2@@std@@AAEAAV01@IV<lambda_1>@?1??assign@01@QAEAAV01@QBDI@Z@PBD@Z
_TEXT	SEGMENT
__asan_gen_0$ = -144					; size = 4
__asan_gen_1$ = -140					; size = 4
__asan_gen_2$ = -136					; size = 4
__New_ptr$ = -128					; size = 4
tv241 = -86						; size = 1
tv231 = -85						; size = 1
tv221 = -84						; size = 1
tv211 = -83						; size = 1
tv201 = -82						; size = 1
tv191 = -81						; size = 1
_this$ = -80						; size = 4
tv181 = -76						; size = 4
tv238 = -72						; size = 4
tv228 = -68						; size = 4
tv218 = -64						; size = 4
tv208 = -60						; size = 4
__New_capacity$ = -56					; size = 4
tv198 = -52						; size = 4
tv188 = -48						; size = 4
tv69 = -44						; size = 4
tv136 = -40						; size = 4
tv139 = -36						; size = 4
__Old_capacity$ = -32					; size = 4
__Al$ = -28						; size = 4
tv158 = -24						; size = 4
tv179 = -20						; size = 4
tv75 = -16						; size = 4
tv184 = -12						; size = 4
tv166 = -8						; size = 4
__$ArrayPad$ = -4					; size = 4
__New_size$ = 8						; size = 4
__Fn$ = 12						; size = 1
_<_Args_0>$ = 16					; size = 4
??$_Reallocate_for@V<lambda_1>@?1??assign@?$basic_string@DU?$char_traits@D@std@@V?$allocator@D@2@@std@@QAEAAV34@QBDI@Z@PBD@?$basic_string@DU?$char_traits@D@std@@V?$allocator@D@2@@std@@AAEAAV01@IV<lambda_1>@?1??assign@01@QAEAAV01@QBDI@Z@PBD@Z PROC ; std::basic_string<char,std::char_traits<char>,std::allocator<char> >::_Reallocate_for<`std::basic_string<char,std::char_traits<char>,std::allocator<char> >::assign'::`2'::<lambda_1>,char const *>, COMDAT
; _this$ = ecx

; 4505 :     _CONSTEXPR20_CONTAINER basic_string& _Reallocate_for(const size_type _New_size, _Fty _Fn, _ArgTys... _Args) {

  00000	53		 push	 ebx
  00001	8b dc		 mov	 ebx, esp
  00003	83 ec 08	 sub	 esp, 8
  00006	83 e4 e0	 and	 esp, -32		; ffffffe0H
  00009	83 c4 04	 add	 esp, 4
  0000c	55		 push	 ebp
  0000d	8b 6b 04	 mov	 ebp, DWORD PTR [ebx+4]
  00010	89 6c 24 04	 mov	 DWORD PTR [esp+4], ebp
  00014	8b ec		 mov	 ebp, esp
  00016	81 ec a0 00 00
	00		 sub	 esp, 160		; 000000a0H
  0001c	a1 00 00 00 00	 mov	 eax, DWORD PTR ___security_cookie
  00021	33 c5		 xor	 eax, ebp
  00023	89 45 fc	 mov	 DWORD PTR __$ArrayPad$[ebp], eax
  00026	89 4d b0	 mov	 DWORD PTR _this$[ebp], ecx
  00029	c7 85 70 ff ff
	ff b3 8a b5 41	 mov	 DWORD PTR __asan_gen_0$[ebp], 1102416563 ; 41b58ab3H
  00033	c7 85 74 ff ff
	ff 00 00 00 00	 mov	 DWORD PTR __asan_gen_1$[ebp], OFFSET __L__asan_gen_.??$_Reallocate_for@V<lambda_1>@?1??assign@?$basic_string@DU?$char_traits@D@std@@V?$allocator@D@2@@std@@QAEAAV34@QBDI@Z@PBD@?$basic_string@DU?$char_traits@D@std@@V?$allocator@D@2@@std@@AAEAAV01@IV<lambda_1>@?1??assign@01@QAEAAV01@QBDI@Z@PBD@Z
  0003d	c7 85 78 ff ff
	ff 00 00 00 00	 mov	 DWORD PTR __asan_gen_2$[ebp], OFFSET ??$_Reallocate_for@V<lambda_1>@?1??assign@?$basic_string@DU?$char_traits@D@std@@V?$allocator@D@2@@std@@QAEAAV34@QBDI@Z@PBD@?$basic_string@DU?$char_traits@D@std@@V?$allocator@D@2@@std@@AAEAAV01@IV<lambda_1>@?1??assign@01@QAEAAV01@QBDI@Z@PBD@Z ; std::basic_string<char,std::char_traits<char>,std::allocator<char> >::_Reallocate_for<`std::basic_string<char,std::char_traits<char>,std::allocator<char> >::assign'::`2'::<lambda_1>,char const *>
  00047	8d 85 70 ff ff
	ff		 lea	 eax, DWORD PTR __asan_gen_0$[ebp]
  0004d	89 45 ec	 mov	 DWORD PTR tv179[ebp], eax
  00050	8b 4d ec	 mov	 ecx, DWORD PTR tv179[ebp]
  00053	c1 e9 03	 shr	 ecx, 3
  00056	81 c1 00 00 00
	30		 add	 ecx, 805306368		; 30000000H
  0005c	89 4d b4	 mov	 DWORD PTR tv181[ebp], ecx
  0005f	8b 55 b4	 mov	 edx, DWORD PTR tv181[ebp]
  00062	c7 02 f1 f1 04
	f3		 mov	 DWORD PTR [edx], -217779727 ; f304f1f1H
  00068	83 45 b4 04	 add	 DWORD PTR tv181[ebp], 4
  0006c	b8 f3 f3 00 00	 mov	 eax, 62451		; 0000f3f3H
  00071	8b 4d b4	 mov	 ecx, DWORD PTR tv181[ebp]
  00074	66 89 01	 mov	 WORD PTR [ecx], ax
  00077	83 45 b4 02	 add	 DWORD PTR tv181[ebp], 2
  0007b	8b 55 b4	 mov	 edx, DWORD PTR tv181[ebp]
  0007e	c6 02 f3	 mov	 BYTE PTR [edx], 243	; 000000f3H
  00081	b9 00 00 00 00	 mov	 ecx, OFFSET __0D019051_xstring
  00086	e8 00 00 00 00	 call	 @__CheckForDebuggerJustMyCode@4

; 4506 :         // reallocate to store exactly _New_size elements, new buffer prepared by
; 4507 :         // _Fn(_New_ptr, _New_size, _Args...)
; 4508 :         if (_New_size > max_size()) {

  0008b	8b 4d b0	 mov	 ecx, DWORD PTR _this$[ebp]
  0008e	e8 00 00 00 00	 call	 ?max_size@?$basic_string@DU?$char_traits@D@std@@V?$allocator@D@2@@std@@QBEIXZ ; std::basic_string<char,std::char_traits<char>,std::allocator<char> >::max_size
  00093	39 43 08	 cmp	 DWORD PTR __New_size$[ebx], eax
  00096	76 05		 jbe	 SHORT $LN2@Reallocate

; 4509 :             _Xlen_string(); // result too long

  00098	e8 00 00 00 00	 call	 ?_Xlen_string@std@@YAXXZ ; std::_Xlen_string
$LN2@Reallocate:

; 4510 :         }
; 4511 : 
; 4512 :         const size_type _Old_capacity = _Mypair._Myval2._Myres;

  0009d	8b 45 b0	 mov	 eax, DWORD PTR _this$[ebp]
  000a0	83 c0 18	 add	 eax, 24			; 00000018H
  000a3	89 45 d4	 mov	 DWORD PTR tv69[ebp], eax
  000a6	8b 4d d4	 mov	 ecx, DWORD PTR tv69[ebp]
  000a9	89 4d b8	 mov	 DWORD PTR tv238[ebp], ecx
  000ac	8b 55 b8	 mov	 edx, DWORD PTR tv238[ebp]
  000af	c1 ea 03	 shr	 edx, 3
  000b2	8a 82 00 00 00
	30		 mov	 al, BYTE PTR [edx+805306368]
  000b8	88 45 aa	 mov	 BYTE PTR tv241[ebp], al
  000bb	80 7d aa 00	 cmp	 BYTE PTR tv241[ebp], 0
  000bf	74 1a		 je	 SHORT $LN12@Reallocate
  000c1	8a 4d b8	 mov	 cl, BYTE PTR tv238[ebp]
  000c4	80 e1 07	 and	 cl, 7
  000c7	80 c1 03	 add	 cl, 3
  000ca	3a 4d aa	 cmp	 cl, BYTE PTR tv241[ebp]
  000cd	7c 0c		 jl	 SHORT $LN12@Reallocate
  000cf	8b 55 b8	 mov	 edx, DWORD PTR tv238[ebp]
  000d2	52		 push	 edx
  000d3	e8 00 00 00 00	 call	 ___asan_report_load4
  000d8	83 c4 04	 add	 esp, 4
$LN12@Reallocate:
  000db	8b 45 d4	 mov	 eax, DWORD PTR tv69[ebp]
  000de	8b 08		 mov	 ecx, DWORD PTR [eax]
  000e0	89 4d e0	 mov	 DWORD PTR __Old_capacity$[ebp], ecx

; 4513 :         const size_type _New_capacity = _Calculate_growth(_New_size);

  000e3	8b 53 08	 mov	 edx, DWORD PTR __New_size$[ebx]
  000e6	52		 push	 edx
  000e7	8b 4d b0	 mov	 ecx, DWORD PTR _this$[ebp]
  000ea	e8 00 00 00 00	 call	 ?_Calculate_growth@?$basic_string@DU?$char_traits@D@std@@V?$allocator@D@2@@std@@ABEII@Z ; std::basic_string<char,std::char_traits<char>,std::allocator<char> >::_Calculate_growth
  000ef	89 45 c8	 mov	 DWORD PTR __New_capacity$[ebp], eax

; 4514 :         auto& _Al                     = _Getal();

  000f2	8b 4d b0	 mov	 ecx, DWORD PTR _this$[ebp]
  000f5	e8 00 00 00 00	 call	 ?_Getal@?$basic_string@DU?$char_traits@D@std@@V?$allocator@D@2@@std@@AAEAAV?$allocator@D@2@XZ ; std::basic_string<char,std::char_traits<char>,std::allocator<char> >::_Getal
  000fa	89 45 e4	 mov	 DWORD PTR __Al$[ebp], eax

; 4515 :         const pointer _New_ptr        = _Al.allocate(_New_capacity + 1); // throws

  000fd	33 c0		 xor	 eax, eax
  000ff	8b 4d c8	 mov	 ecx, DWORD PTR __New_capacity$[ebp]
  00102	83 c1 01	 add	 ecx, 1
  00105	0f 92 c0	 setb	 al
  00108	f7 d8		 neg	 eax
  0010a	0b c1		 or	 eax, ecx
  0010c	50		 push	 eax
  0010d	8b 4d e4	 mov	 ecx, DWORD PTR __Al$[ebp]
  00110	e8 00 00 00 00	 call	 ?allocate@?$allocator@D@std@@QAEPADI@Z ; std::allocator<char>::allocate
  00115	89 45 f0	 mov	 DWORD PTR tv75[ebp], eax
  00118	8d 55 80	 lea	 edx, DWORD PTR __New_ptr$[ebp]
  0011b	89 55 bc	 mov	 DWORD PTR tv228[ebp], edx
  0011e	8b 45 bc	 mov	 eax, DWORD PTR tv228[ebp]
  00121	c1 e8 03	 shr	 eax, 3
  00124	8a 88 00 00 00
	30		 mov	 cl, BYTE PTR [eax+805306368]
  0012a	88 4d ab	 mov	 BYTE PTR tv231[ebp], cl
  0012d	80 7d ab 00	 cmp	 BYTE PTR tv231[ebp], 0
  00131	74 1a		 je	 SHORT $LN11@Reallocate
  00133	8a 55 bc	 mov	 dl, BYTE PTR tv228[ebp]
  00136	80 e2 07	 and	 dl, 7
  00139	80 c2 03	 add	 dl, 3
  0013c	3a 55 ab	 cmp	 dl, BYTE PTR tv231[ebp]
  0013f	7c 0c		 jl	 SHORT $LN11@Reallocate
  00141	8b 45 bc	 mov	 eax, DWORD PTR tv228[ebp]
  00144	50		 push	 eax
  00145	e8 00 00 00 00	 call	 ___asan_report_store4
  0014a	83 c4 04	 add	 esp, 4
$LN11@Reallocate:
  0014d	8b 4d f0	 mov	 ecx, DWORD PTR tv75[ebp]
  00150	89 4d 80	 mov	 DWORD PTR __New_ptr$[ebp], ecx

; 4516 : 
; 4517 : #ifdef __cpp_lib_constexpr_string
; 4518 :         if (_STD is_constant_evaluated()) { // Begin the lifetimes of the objects before copying to avoid UB

  00153	e8 00 00 00 00	 call	 ?is_constant_evaluated@std@@YA_NXZ ; std::is_constant_evaluated
  00158	0f b6 d0	 movzx	 edx, al
  0015b	85 d2		 test	 edx, edx
  0015d	74 1e		 je	 SHORT $LN3@Reallocate

; 4519 :             _Traits::assign(_Unfancy(_New_ptr), _New_capacity + 1, _Elem());

  0015f	6a 00		 push	 0
  00161	8b 45 c8	 mov	 eax, DWORD PTR __New_capacity$[ebp]
  00164	83 c0 01	 add	 eax, 1
  00167	50		 push	 eax
  00168	8b 4d 80	 mov	 ecx, DWORD PTR __New_ptr$[ebp]
  0016b	51		 push	 ecx
  0016c	e8 00 00 00 00	 call	 ??$_Unfancy@D@std@@YAPADPAD@Z ; std::_Unfancy<char>
  00171	83 c4 04	 add	 esp, 4
  00174	50		 push	 eax
  00175	e8 00 00 00 00	 call	 ?assign@?$_Narrow_char_traits@DH@std@@SAPADQADID@Z ; std::_Narrow_char_traits<char,int>::assign
  0017a	83 c4 0c	 add	 esp, 12			; 0000000cH
$LN3@Reallocate:

; 4520 :         }
; 4521 : #endif // __cpp_lib_constexpr_string
; 4522 :         _Mypair._Myval2._Orphan_all();

  0017d	8b 4d b0	 mov	 ecx, DWORD PTR _this$[ebp]
  00180	e8 00 00 00 00	 call	 ?_Orphan_all@_Container_base12@std@@QAEXXZ ; std::_Container_base12::_Orphan_all

; 4523 :         _Mypair._Myval2._Mysize = _New_size;

  00185	8b 55 b0	 mov	 edx, DWORD PTR _this$[ebp]
  00188	83 c2 14	 add	 edx, 20			; 00000014H
  0018b	89 55 d8	 mov	 DWORD PTR tv136[ebp], edx
  0018e	8b 45 d8	 mov	 eax, DWORD PTR tv136[ebp]
  00191	89 45 c0	 mov	 DWORD PTR tv218[ebp], eax
  00194	8b 4d c0	 mov	 ecx, DWORD PTR tv218[ebp]
  00197	c1 e9 03	 shr	 ecx, 3
  0019a	8a 91 00 00 00
	30		 mov	 dl, BYTE PTR [ecx+805306368]
  001a0	88 55 ac	 mov	 BYTE PTR tv221[ebp], dl
  001a3	80 7d ac 00	 cmp	 BYTE PTR tv221[ebp], 0
  001a7	74 18		 je	 SHORT $LN10@Reallocate
  001a9	8a 45 c0	 mov	 al, BYTE PTR tv218[ebp]
  001ac	24 07		 and	 al, 7
  001ae	04 03		 add	 al, 3
  001b0	3a 45 ac	 cmp	 al, BYTE PTR tv221[ebp]
  001b3	7c 0c		 jl	 SHORT $LN10@Reallocate
  001b5	8b 4d c0	 mov	 ecx, DWORD PTR tv218[ebp]
  001b8	51		 push	 ecx
  001b9	e8 00 00 00 00	 call	 ___asan_report_store4
  001be	83 c4 04	 add	 esp, 4
$LN10@Reallocate:
  001c1	8b 55 d8	 mov	 edx, DWORD PTR tv136[ebp]
  001c4	8b 43 08	 mov	 eax, DWORD PTR __New_size$[ebx]
  001c7	89 02		 mov	 DWORD PTR [edx], eax

; 4524 :         _Mypair._Myval2._Myres  = _New_capacity;

  001c9	8b 4d b0	 mov	 ecx, DWORD PTR _this$[ebp]
  001cc	83 c1 18	 add	 ecx, 24			; 00000018H
  001cf	89 4d dc	 mov	 DWORD PTR tv139[ebp], ecx
  001d2	8b 55 dc	 mov	 edx, DWORD PTR tv139[ebp]
  001d5	89 55 c4	 mov	 DWORD PTR tv208[ebp], edx
  001d8	8b 45 c4	 mov	 eax, DWORD PTR tv208[ebp]
  001db	c1 e8 03	 shr	 eax, 3
  001de	8a 88 00 00 00
	30		 mov	 cl, BYTE PTR [eax+805306368]
  001e4	88 4d ad	 mov	 BYTE PTR tv211[ebp], cl
  001e7	80 7d ad 00	 cmp	 BYTE PTR tv211[ebp], 0
  001eb	74 1a		 je	 SHORT $LN9@Reallocate
  001ed	8a 55 c4	 mov	 dl, BYTE PTR tv208[ebp]
  001f0	80 e2 07	 and	 dl, 7
  001f3	80 c2 03	 add	 dl, 3
  001f6	3a 55 ad	 cmp	 dl, BYTE PTR tv211[ebp]
  001f9	7c 0c		 jl	 SHORT $LN9@Reallocate
  001fb	8b 45 c4	 mov	 eax, DWORD PTR tv208[ebp]
  001fe	50		 push	 eax
  001ff	e8 00 00 00 00	 call	 ___asan_report_store4
  00204	83 c4 04	 add	 esp, 4
$LN9@Reallocate:
  00207	8b 4d dc	 mov	 ecx, DWORD PTR tv139[ebp]
  0020a	8b 55 c8	 mov	 edx, DWORD PTR __New_capacity$[ebp]
  0020d	89 11		 mov	 DWORD PTR [ecx], edx

; 4525 :         _Fn(_Unfancy(_New_ptr), _New_size, _Args...);

  0020f	8b 43 10	 mov	 eax, DWORD PTR _<_Args_0>$[ebx]
  00212	50		 push	 eax
  00213	8b 4b 08	 mov	 ecx, DWORD PTR __New_size$[ebx]
  00216	51		 push	 ecx
  00217	8b 55 80	 mov	 edx, DWORD PTR __New_ptr$[ebp]
  0021a	52		 push	 edx
  0021b	e8 00 00 00 00	 call	 ??$_Unfancy@D@std@@YAPADPAD@Z ; std::_Unfancy<char>
  00220	83 c4 04	 add	 esp, 4
  00223	50		 push	 eax
  00224	8d 4b 0c	 lea	 ecx, DWORD PTR __Fn$[ebx]
  00227	e8 00 00 00 00	 call	 ??R<lambda_1>@?1??assign@?$basic_string@DU?$char_traits@D@std@@V?$allocator@D@2@@std@@QAEAAV23@QBDI@Z@QBE@QADI0@Z ; `std::basic_string<char,std::char_traits<char>,std::allocator<char> >::assign'::`2'::<lambda_1>::operator()

; 4526 :         if (_BUF_SIZE <= _Old_capacity) {

  0022c	83 7d e0 10	 cmp	 DWORD PTR __Old_capacity$[ebp], 16 ; 00000010H
  00230	0f 82 91 00 00
	00		 jb	 $LN4@Reallocate

; 4527 :             _Al.deallocate(_Mypair._Myval2._Bx._Ptr, _Old_capacity + 1);

  00236	8b 45 e0	 mov	 eax, DWORD PTR __Old_capacity$[ebp]
  00239	83 c0 01	 add	 eax, 1
  0023c	50		 push	 eax
  0023d	8b 4d b0	 mov	 ecx, DWORD PTR _this$[ebp]
  00240	8b 51 04	 mov	 edx, DWORD PTR [ecx+4]
  00243	52		 push	 edx
  00244	8b 4d e4	 mov	 ecx, DWORD PTR __Al$[ebp]
  00247	e8 00 00 00 00	 call	 ?deallocate@?$allocator@D@std@@QAEXQADI@Z ; std::allocator<char>::deallocate

; 4528 :             _Mypair._Myval2._Bx._Ptr = _New_ptr;

  0024c	8b 45 b0	 mov	 eax, DWORD PTR _this$[ebp]
  0024f	83 c0 04	 add	 eax, 4
  00252	89 45 e8	 mov	 DWORD PTR tv158[ebp], eax
  00255	8d 4d 80	 lea	 ecx, DWORD PTR __New_ptr$[ebp]
  00258	89 4d cc	 mov	 DWORD PTR tv198[ebp], ecx
  0025b	8b 55 cc	 mov	 edx, DWORD PTR tv198[ebp]
  0025e	c1 ea 03	 shr	 edx, 3
  00261	8a 82 00 00 00
	30		 mov	 al, BYTE PTR [edx+805306368]
  00267	88 45 ae	 mov	 BYTE PTR tv201[ebp], al
  0026a	80 7d ae 00	 cmp	 BYTE PTR tv201[ebp], 0
  0026e	74 1a		 je	 SHORT $LN8@Reallocate
  00270	8a 4d cc	 mov	 cl, BYTE PTR tv198[ebp]
  00273	80 e1 07	 and	 cl, 7
  00276	80 c1 03	 add	 cl, 3
  00279	3a 4d ae	 cmp	 cl, BYTE PTR tv201[ebp]
  0027c	7c 0c		 jl	 SHORT $LN8@Reallocate
  0027e	8b 55 cc	 mov	 edx, DWORD PTR tv198[ebp]
  00281	52		 push	 edx
  00282	e8 00 00 00 00	 call	 ___asan_report_load4
  00287	83 c4 04	 add	 esp, 4
$LN8@Reallocate:
  0028a	8b 45 e8	 mov	 eax, DWORD PTR tv158[ebp]
  0028d	89 45 d0	 mov	 DWORD PTR tv188[ebp], eax
  00290	8b 4d d0	 mov	 ecx, DWORD PTR tv188[ebp]
  00293	c1 e9 03	 shr	 ecx, 3
  00296	8a 91 00 00 00
	30		 mov	 dl, BYTE PTR [ecx+805306368]
  0029c	88 55 af	 mov	 BYTE PTR tv191[ebp], dl
  0029f	80 7d af 00	 cmp	 BYTE PTR tv191[ebp], 0
  002a3	74 18		 je	 SHORT $LN7@Reallocate
  002a5	8a 45 d0	 mov	 al, BYTE PTR tv188[ebp]
  002a8	24 07		 and	 al, 7
  002aa	04 03		 add	 al, 3
  002ac	3a 45 af	 cmp	 al, BYTE PTR tv191[ebp]
  002af	7c 0c		 jl	 SHORT $LN7@Reallocate
  002b1	8b 4d d0	 mov	 ecx, DWORD PTR tv188[ebp]
  002b4	51		 push	 ecx
  002b5	e8 00 00 00 00	 call	 ___asan_report_store4
  002ba	83 c4 04	 add	 esp, 4
$LN7@Reallocate:
  002bd	8b 55 e8	 mov	 edx, DWORD PTR tv158[ebp]
  002c0	8b 45 80	 mov	 eax, DWORD PTR __New_ptr$[ebp]
  002c3	89 02		 mov	 DWORD PTR [edx], eax

; 4529 :         } else {

  002c5	eb 13		 jmp	 SHORT $LN5@Reallocate
$LN4@Reallocate:

; 4530 :             _Construct_in_place(_Mypair._Myval2._Bx._Ptr, _New_ptr);

  002c7	8d 4d 80	 lea	 ecx, DWORD PTR __New_ptr$[ebp]
  002ca	51		 push	 ecx
  002cb	8b 55 b0	 mov	 edx, DWORD PTR _this$[ebp]
  002ce	83 c2 04	 add	 edx, 4
  002d1	52		 push	 edx
  002d2	e8 00 00 00 00	 call	 ??$_Construct_in_place@PADABQAD@std@@YAXAAPADABQAD@Z ; std::_Construct_in_place<char *,char * const &>
  002d7	83 c4 08	 add	 esp, 8
$LN5@Reallocate:

; 4531 :         }
; 4532 : 
; 4533 :         return *this;

  002da	8b 45 b0	 mov	 eax, DWORD PTR _this$[ebp]
  002dd	89 45 f8	 mov	 DWORD PTR tv166[ebp], eax
  002e0	c7 85 70 ff ff
	ff 0e 36 e0 45	 mov	 DWORD PTR __asan_gen_0$[ebp], 1172321806 ; 45e0360eH
  002ea	8d 8d 70 ff ff
	ff		 lea	 ecx, DWORD PTR __asan_gen_0$[ebp]
  002f0	c1 e9 03	 shr	 ecx, 3
  002f3	81 c1 00 00 00
	30		 add	 ecx, 805306368		; 30000000H
  002f9	89 4d f4	 mov	 DWORD PTR tv184[ebp], ecx
  002fc	6a 07		 push	 7
  002fe	8b 55 f4	 mov	 edx, DWORD PTR tv184[ebp]
  00301	52		 push	 edx
  00302	e8 00 00 00 00	 call	 ___asan_set_shadow_00
  00307	83 c4 08	 add	 esp, 8
  0030a	8b 45 f8	 mov	 eax, DWORD PTR tv166[ebp]
$LN6@Reallocate:

; 4534 :     }

  0030d	8b 4d fc	 mov	 ecx, DWORD PTR __$ArrayPad$[ebp]
  00310	33 cd		 xor	 ecx, ebp
  00312	e8 00 00 00 00	 call	 @__security_check_cookie@4
  00317	8b e5		 mov	 esp, ebp
  00319	5d		 pop	 ebp
  0031a	8b e3		 mov	 esp, ebx
  0031c	5b		 pop	 ebx
  0031d	c2 0c 00	 ret	 12			; 0000000cH
??$_Reallocate_for@V<lambda_1>@?1??assign@?$basic_string@DU?$char_traits@D@std@@V?$allocator@D@2@@std@@QAEAAV34@QBDI@Z@PBD@?$basic_string@DU?$char_traits@D@std@@V?$allocator@D@2@@std@@AAEAAV01@IV<lambda_1>@?1??assign@01@QAEAAV01@QBDI@Z@PBD@Z ENDP ; std::basic_string<char,std::char_traits<char>,std::allocator<char> >::_Reallocate_for<`std::basic_string<char,std::char_traits<char>,std::allocator<char> >::assign'::`2'::<lambda_1>,char const *>
_TEXT	ENDS
; Function compile flags: /Odtp /RTCu
; File C:\Program Files (x86)\Microsoft Visual Studio\2019\Community\VC\Tools\MSVC\14.29.30133\include\xstring
;	COMDAT ??R<lambda_1>@?1??assign@?$basic_string@DU?$char_traits@D@std@@V?$allocator@D@2@@std@@QAEAAV23@QBDI@Z@QBE@QADI0@Z
_TEXT	SEGMENT
__asan_gen_0$ = -80					; size = 4
__asan_gen_1$ = -76					; size = 4
__asan_gen_2$ = -72					; size = 4
$T2 = -64						; size = 1
tv89 = -21						; size = 1
tv76 = -20						; size = 4
tv86 = -16						; size = 4
tv74 = -12						; size = 4
tv82 = -8						; size = 4
_this$ = -4						; size = 4
__New_ptr$ = 8						; size = 4
__Count$ = 12						; size = 4
__Ptr$ = 16						; size = 4
??R<lambda_1>@?1??assign@?$basic_string@DU?$char_traits@D@std@@V?$allocator@D@2@@std@@QAEAAV23@QBDI@Z@QBE@QADI0@Z PROC ; `std::basic_string<char,std::char_traits<char>,std::allocator<char> >::assign'::`2'::<lambda_1>::operator(), COMDAT
; _this$ = ecx

; 3259 :             },

  00000	53		 push	 ebx
  00001	8b dc		 mov	 ebx, esp
  00003	83 ec 08	 sub	 esp, 8
  00006	83 e4 e0	 and	 esp, -32		; ffffffe0H
  00009	83 c4 04	 add	 esp, 4
  0000c	55		 push	 ebp
  0000d	8b 6b 04	 mov	 ebp, DWORD PTR [ebx+4]
  00010	89 6c 24 04	 mov	 DWORD PTR [esp+4], ebp
  00014	8b ec		 mov	 ebp, esp
  00016	83 ec 60	 sub	 esp, 96			; 00000060H
  00019	89 4d fc	 mov	 DWORD PTR _this$[ebp], ecx
  0001c	c7 45 b0 b3 8a
	b5 41		 mov	 DWORD PTR __asan_gen_0$[ebp], 1102416563 ; 41b58ab3H
  00023	c7 45 b4 00 00
	00 00		 mov	 DWORD PTR __asan_gen_1$[ebp], OFFSET __L__asan_gen_.??R<lambda_1>@?1??assign@?$basic_string@DU?$char_traits@D@std@@V?$allocator@D@2@@std@@QAEAAV23@QBDI@Z@QBE@QADI0@Z
  0002a	c7 45 b8 00 00
	00 00		 mov	 DWORD PTR __asan_gen_2$[ebp], OFFSET ??R<lambda_1>@?1??assign@?$basic_string@DU?$char_traits@D@std@@V?$allocator@D@2@@std@@QAEAAV23@QBDI@Z@QBE@QADI0@Z ; `std::basic_string<char,std::char_traits<char>,std::allocator<char> >::assign'::`2'::<lambda_1>::operator()
  00031	8d 45 b0	 lea	 eax, DWORD PTR __asan_gen_0$[ebp]
  00034	89 45 f4	 mov	 DWORD PTR tv74[ebp], eax
  00037	8b 4d f4	 mov	 ecx, DWORD PTR tv74[ebp]
  0003a	c1 e9 03	 shr	 ecx, 3
  0003d	81 c1 00 00 00
	30		 add	 ecx, 805306368		; 30000000H
  00043	89 4d ec	 mov	 DWORD PTR tv76[ebp], ecx
  00046	8b 55 ec	 mov	 edx, DWORD PTR tv76[ebp]
  00049	c7 02 f1 f1 01
	f3		 mov	 DWORD PTR [edx], -217976335 ; f301f1f1H
  0004f	83 45 ec 04	 add	 DWORD PTR tv76[ebp], 4
  00053	b8 f3 f3 00 00	 mov	 eax, 62451		; 0000f3f3H
  00058	8b 4d ec	 mov	 ecx, DWORD PTR tv76[ebp]
  0005b	66 89 01	 mov	 WORD PTR [ecx], ax
  0005e	83 45 ec 02	 add	 DWORD PTR tv76[ebp], 2
  00062	8b 55 ec	 mov	 edx, DWORD PTR tv76[ebp]
  00065	c6 02 f3	 mov	 BYTE PTR [edx], 243	; 000000f3H
  00068	b9 00 00 00 00	 mov	 ecx, OFFSET __0D019051_xstring
  0006d	e8 00 00 00 00	 call	 @__CheckForDebuggerJustMyCode@4

; 3257 :                 _Traits::copy(_New_ptr, _Ptr, _Count);

  00072	8b 43 0c	 mov	 eax, DWORD PTR __Count$[ebx]
  00075	50		 push	 eax
  00076	8b 4b 10	 mov	 ecx, DWORD PTR __Ptr$[ebx]
  00079	51		 push	 ecx
  0007a	8b 53 08	 mov	 edx, DWORD PTR __New_ptr$[ebx]
  0007d	52		 push	 edx
  0007e	e8 00 00 00 00	 call	 ?copy@?$_Char_traits@DH@std@@SAPADQADQBDI@Z ; std::_Char_traits<char,int>::copy
  00083	83 c4 0c	 add	 esp, 12			; 0000000cH

; 3258 :                 _Traits::assign(_New_ptr[_Count], _Elem());

  00086	8d 45 c0	 lea	 eax, DWORD PTR $T2[ebp]
  00089	89 45 f0	 mov	 DWORD PTR tv86[ebp], eax
  0008c	8b 4d f0	 mov	 ecx, DWORD PTR tv86[ebp]
  0008f	c1 e9 03	 shr	 ecx, 3
  00092	8a 91 00 00 00
	30		 mov	 dl, BYTE PTR [ecx+805306368]
  00098	88 55 eb	 mov	 BYTE PTR tv89[ebp], dl
  0009b	80 7d eb 00	 cmp	 BYTE PTR tv89[ebp], 0
  0009f	74 16		 je	 SHORT $LN3@operator
  000a1	8a 45 f0	 mov	 al, BYTE PTR tv86[ebp]
  000a4	24 07		 and	 al, 7
  000a6	3a 45 eb	 cmp	 al, BYTE PTR tv89[ebp]
  000a9	7c 0c		 jl	 SHORT $LN3@operator
  000ab	8b 4d f0	 mov	 ecx, DWORD PTR tv86[ebp]
  000ae	51		 push	 ecx
  000af	e8 00 00 00 00	 call	 ___asan_report_store1
  000b4	83 c4 04	 add	 esp, 4
$LN3@operator:
  000b7	c6 45 c0 00	 mov	 BYTE PTR $T2[ebp], 0
  000bb	8d 55 c0	 lea	 edx, DWORD PTR $T2[ebp]
  000be	52		 push	 edx
  000bf	8b 43 08	 mov	 eax, DWORD PTR __New_ptr$[ebx]
  000c2	03 43 0c	 add	 eax, DWORD PTR __Count$[ebx]
  000c5	50		 push	 eax
  000c6	e8 00 00 00 00	 call	 ?assign@?$_Narrow_char_traits@DH@std@@SAXAADABD@Z ; std::_Narrow_char_traits<char,int>::assign
  000cb	83 c4 08	 add	 esp, 8
  000ce	8d 4d c0	 lea	 ecx, DWORD PTR $T2[ebp]
  000d1	c1 e9 03	 shr	 ecx, 3
  000d4	c6 81 00 00 00
	30 f8		 mov	 BYTE PTR [ecx+805306368], 248 ; 000000f8H

; 3259 :             },

  000db	c7 45 b0 0e 36
	e0 45		 mov	 DWORD PTR __asan_gen_0$[ebp], 1172321806 ; 45e0360eH
  000e2	8d 55 b0	 lea	 edx, DWORD PTR __asan_gen_0$[ebp]
  000e5	c1 ea 03	 shr	 edx, 3
  000e8	81 c2 00 00 00
	30		 add	 edx, 805306368		; 30000000H
  000ee	89 55 f8	 mov	 DWORD PTR tv82[ebp], edx
  000f1	6a 07		 push	 7
  000f3	8b 45 f8	 mov	 eax, DWORD PTR tv82[ebp]
  000f6	50		 push	 eax
  000f7	e8 00 00 00 00	 call	 ___asan_set_shadow_00
  000fc	83 c4 08	 add	 esp, 8
  000ff	8b e5		 mov	 esp, ebp
  00101	5d		 pop	 ebp
  00102	8b e3		 mov	 esp, ebx
  00104	5b		 pop	 ebx
  00105	c2 0c 00	 ret	 12			; 0000000cH
??R<lambda_1>@?1??assign@?$basic_string@DU?$char_traits@D@std@@V?$allocator@D@2@@std@@QAEAAV23@QBDI@Z@QBE@QADI0@Z ENDP ; `std::basic_string<char,std::char_traits<char>,std::allocator<char> >::assign'::`2'::<lambda_1>::operator()
_TEXT	ENDS
; Function compile flags: /Odtp /RTCu
; File C:\Program Files (x86)\Microsoft Visual Studio\2019\Community\VC\Tools\MSVC\14.29.30133\include\xstddef
;	COMDAT ??$_Unfancy@D@std@@YAPADPAD@Z
_TEXT	SEGMENT
__Ptr$ = 8						; size = 4
??$_Unfancy@D@std@@YAPADPAD@Z PROC			; std::_Unfancy<char>, COMDAT

; 288  : _NODISCARD constexpr _Ty* _Unfancy(_Ty* _Ptr) noexcept { // do nothing for plain pointers

  00000	55		 push	 ebp
  00001	8b ec		 mov	 ebp, esp
  00003	b9 00 00 00 00	 mov	 ecx, OFFSET __E458E21C_xstddef
  00008	e8 00 00 00 00	 call	 @__CheckForDebuggerJustMyCode@4

; 289  :     return _Ptr;

  0000d	8b 45 08	 mov	 eax, DWORD PTR __Ptr$[ebp]

; 290  : }

  00010	5d		 pop	 ebp
  00011	c3		 ret	 0
??$_Unfancy@D@std@@YAPADPAD@Z ENDP			; std::_Unfancy<char>
_TEXT	ENDS
; Function compile flags: /Odtp /RTCu
; File C:\Program Files (x86)\Microsoft Visual Studio\2019\Community\VC\Tools\MSVC\14.29.30133\include\xmemory
;	COMDAT ??$_Destroy_in_place@PAD@std@@YAXAAPAD@Z
_TEXT	SEGMENT
__Obj$ = 8						; size = 4
??$_Destroy_in_place@PAD@std@@YAXAAPAD@Z PROC		; std::_Destroy_in_place<char *>, COMDAT

; 307  : _CONSTEXPR20_DYNALLOC void _Destroy_in_place(_Ty& _Obj) noexcept {

  00000	55		 push	 ebp
  00001	8b ec		 mov	 ebp, esp
  00003	b9 00 00 00 00	 mov	 ecx, OFFSET __79D216CD_xmemory
  00008	e8 00 00 00 00	 call	 @__CheckForDebuggerJustMyCode@4

; 308  :     if constexpr (is_array_v<_Ty>) {
; 309  :         _Destroy_range(_Obj, _Obj + extent_v<_Ty>);
; 310  :     } else {
; 311  :         _Obj.~_Ty();
; 312  :     }
; 313  : }

  0000d	5d		 pop	 ebp
  0000e	c3		 ret	 0
??$_Destroy_in_place@PAD@std@@YAXAAPAD@Z ENDP		; std::_Destroy_in_place<char *>
_TEXT	ENDS
; Function compile flags: /Odtp /RTCu
; File C:\Program Files (x86)\Microsoft Visual Studio\2019\Community\VC\Tools\MSVC\14.29.30133\include\xmemory
;	COMDAT ??$_Deallocate@$07$0A@@std@@YAXPAXI@Z
_TEXT	SEGMENT
__$EHRec$ = -12						; size = 12
__Ptr$ = 8						; size = 4
__Bytes$ = 12						; size = 4
??$_Deallocate@$07$0A@@std@@YAXPAXI@Z PROC		; std::_Deallocate<8,0>, COMDAT

; 251  : _CONSTEXPR20_DYNALLOC void _Deallocate(void* _Ptr, size_t _Bytes) noexcept {

  00000	55		 push	 ebp
  00001	8b ec		 mov	 ebp, esp
  00003	6a ff		 push	 -1
  00005	68 00 00 00 00	 push	 __ehhandler$??$_Deallocate@$07$0A@@std@@YAXPAXI@Z
  0000a	64 a1 00 00 00
	00		 mov	 eax, DWORD PTR fs:0
  00010	50		 push	 eax
  00011	a1 00 00 00 00	 mov	 eax, DWORD PTR ___security_cookie
  00016	33 c5		 xor	 eax, ebp
  00018	50		 push	 eax
  00019	8d 45 f4	 lea	 eax, DWORD PTR __$EHRec$[ebp]
  0001c	64 a3 00 00 00
	00		 mov	 DWORD PTR fs:0, eax
  00022	b9 00 00 00 00	 mov	 ecx, OFFSET __79D216CD_xmemory
  00027	e8 00 00 00 00	 call	 @__CheckForDebuggerJustMyCode@4

; 252  :     // deallocate storage allocated by _Allocate when !_HAS_ALIGNED_NEW || _Align <= __STDCPP_DEFAULT_NEW_ALIGNMENT__
; 253  : #ifdef __cpp_lib_constexpr_dynamic_alloc // TRANSITION, GH-1532
; 254  :     if (_STD is_constant_evaluated()) {

  0002c	e8 00 00 00 00	 call	 ?is_constant_evaluated@std@@YA_NXZ ; std::is_constant_evaluated
  00031	0f b6 c0	 movzx	 eax, al
  00034	85 c0		 test	 eax, eax
  00036	74 0e		 je	 SHORT $LN2@Deallocate

; 255  :         ::operator delete(_Ptr);

  00038	8b 4d 08	 mov	 ecx, DWORD PTR __Ptr$[ebp]
  0003b	51		 push	 ecx
  0003c	e8 00 00 00 00	 call	 ??3@YAXPAX@Z		; operator delete
  00041	83 c4 04	 add	 esp, 4

; 256  :     } else

  00044	eb 29		 jmp	 SHORT $LN5@Deallocate
$LN2@Deallocate:

; 257  : #endif // __cpp_lib_constexpr_dynamic_alloc
; 258  :     {
; 259  : #if defined(_M_IX86) || defined(_M_X64)
; 260  :         if (_Bytes >= _Big_allocation_threshold) { // boost the alignment of big allocations to help autovectorization

  00046	81 7d 0c 00 10
	00 00		 cmp	 DWORD PTR __Bytes$[ebp], 4096 ; 00001000H
  0004d	72 10		 jb	 SHORT $LN4@Deallocate

; 261  :             _Adjust_manually_vector_aligned(_Ptr, _Bytes);

  0004f	8d 55 0c	 lea	 edx, DWORD PTR __Bytes$[ebp]
  00052	52		 push	 edx
  00053	8d 45 08	 lea	 eax, DWORD PTR __Ptr$[ebp]
  00056	50		 push	 eax
  00057	e8 00 00 00 00	 call	 ?_Adjust_manually_vector_aligned@std@@YAXAAPAXAAI@Z ; std::_Adjust_manually_vector_aligned
  0005c	83 c4 08	 add	 esp, 8
$LN4@Deallocate:

; 262  :         }
; 263  : #endif // defined(_M_IX86) || defined(_M_X64)
; 264  :         ::operator delete(_Ptr, _Bytes);

  0005f	8b 4d 0c	 mov	 ecx, DWORD PTR __Bytes$[ebp]
  00062	51		 push	 ecx
  00063	8b 55 08	 mov	 edx, DWORD PTR __Ptr$[ebp]
  00066	52		 push	 edx
  00067	e8 00 00 00 00	 call	 ??3@YAXPAXI@Z		; operator delete
  0006c	83 c4 08	 add	 esp, 8
$LN5@Deallocate:

; 265  :     }
; 266  : }

  0006f	8b 4d f4	 mov	 ecx, DWORD PTR __$EHRec$[ebp]
  00072	64 89 0d 00 00
	00 00		 mov	 DWORD PTR fs:0, ecx
  00079	59		 pop	 ecx
  0007a	8b e5		 mov	 esp, ebp
  0007c	5d		 pop	 ebp
  0007d	c3		 ret	 0
  0007e	cc		 int	 3
  0007f	cc		 int	 3
  00080	cc		 int	 3
  00081	cc		 int	 3
  00082	cc		 int	 3
_TEXT	ENDS
;	COMDAT text$x
text$x	SEGMENT
__ehhandler$??$_Deallocate@$07$0A@@std@@YAXPAXI@Z:
  00000	90		 npad	 1
  00001	90		 npad	 1
  00002	8b 54 24 08	 mov	 edx, DWORD PTR [esp+8]
  00006	8d 42 0c	 lea	 eax, DWORD PTR [edx+12]
  00009	8b 4a fc	 mov	 ecx, DWORD PTR [edx-4]
  0000c	33 c8		 xor	 ecx, eax
  0000e	e8 00 00 00 00	 call	 @__security_check_cookie@4
  00013	b8 00 00 00 00	 mov	 eax, OFFSET __ehfuncinfo$??$_Deallocate@$07$0A@@std@@YAXPAXI@Z
  00018	e9 00 00 00 00	 jmp	 ___CxxFrameHandler3
text$x	ENDS
??$_Deallocate@$07$0A@@std@@YAXPAXI@Z ENDP		; std::_Deallocate<8,0>
; Function compile flags: /Odtp /RTCu
; File C:\Program Files (x86)\Microsoft Visual Studio\2019\Community\VC\Tools\MSVC\14.29.30133\include\xmemory
;	COMDAT ??$?0$$V@?$_Compressed_pair@V?$allocator@D@std@@V?$_String_val@U?$_Simple_types@D@std@@@2@$00@std@@QAE@U_Zero_then_variadic_args_t@1@@Z
_TEXT	SEGMENT
_this$ = -4						; size = 4
___formal$ = 8						; size = 1
??$?0$$V@?$_Compressed_pair@V?$allocator@D@std@@V?$_String_val@U?$_Simple_types@D@std@@@2@$00@std@@QAE@U_Zero_then_variadic_args_t@1@@Z PROC ; std::_Compressed_pair<std::allocator<char>,std::_String_val<std::_Simple_types<char> >,1>::_Compressed_pair<std::allocator<char>,std::_String_val<std::_Simple_types<char> >,1><>, COMDAT
; _this$ = ecx

; 1390 :         : _Ty1(), _Myval2(_STD forward<_Other2>(_Val2)...) {}

  00000	55		 push	 ebp
  00001	8b ec		 mov	 ebp, esp
  00003	51		 push	 ecx
  00004	89 4d fc	 mov	 DWORD PTR _this$[ebp], ecx
  00007	b9 00 00 00 00	 mov	 ecx, OFFSET __79D216CD_xmemory
  0000c	e8 00 00 00 00	 call	 @__CheckForDebuggerJustMyCode@4
  00011	8b 4d fc	 mov	 ecx, DWORD PTR _this$[ebp]
  00014	e8 00 00 00 00	 call	 ??0?$allocator@D@std@@QAE@XZ ; std::allocator<char>::allocator<char>
  00019	8b 4d fc	 mov	 ecx, DWORD PTR _this$[ebp]
  0001c	e8 00 00 00 00	 call	 ??0?$_String_val@U?$_Simple_types@D@std@@@std@@QAE@XZ ; std::_String_val<std::_Simple_types<char> >::_String_val<std::_Simple_types<char> >
  00021	8b 45 fc	 mov	 eax, DWORD PTR _this$[ebp]
  00024	8b e5		 mov	 esp, ebp
  00026	5d		 pop	 ebp
  00027	c2 04 00	 ret	 4
??$?0$$V@?$_Compressed_pair@V?$allocator@D@std@@V?$_String_val@U?$_Simple_types@D@std@@@2@$00@std@@QAE@U_Zero_then_variadic_args_t@1@@Z ENDP ; std::_Compressed_pair<std::allocator<char>,std::_String_val<std::_Simple_types<char> >,1>::_Compressed_pair<std::allocator<char>,std::_String_val<std::_Simple_types<char> >,1><>
_TEXT	ENDS
; Function compile flags: /Odtp /RTCu
; File C:\Program Files (x86)\Microsoft Visual Studio\2019\Community\VC\Tools\MSVC\14.29.30133\include\xmemory
;	COMDAT ??$?0D@?$allocator@U_Container_proxy@std@@@std@@QAE@ABV?$allocator@D@1@@Z
_TEXT	SEGMENT
_this$ = -4						; size = 4
___formal$ = 8						; size = 4
??$?0D@?$allocator@U_Container_proxy@std@@@std@@QAE@ABV?$allocator@D@1@@Z PROC ; std::allocator<std::_Container_proxy>::allocator<std::_Container_proxy><char>, COMDAT
; _this$ = ecx

; 829  :     constexpr allocator(const allocator<_Other>&) noexcept {}

  00000	55		 push	 ebp
  00001	8b ec		 mov	 ebp, esp
  00003	51		 push	 ecx
  00004	89 4d fc	 mov	 DWORD PTR _this$[ebp], ecx
  00007	b9 00 00 00 00	 mov	 ecx, OFFSET __79D216CD_xmemory
  0000c	e8 00 00 00 00	 call	 @__CheckForDebuggerJustMyCode@4
  00011	8b 45 fc	 mov	 eax, DWORD PTR _this$[ebp]
  00014	8b e5		 mov	 esp, ebp
  00016	5d		 pop	 ebp
  00017	c2 04 00	 ret	 4
??$?0D@?$allocator@U_Container_proxy@std@@@std@@QAE@ABV?$allocator@D@1@@Z ENDP ; std::allocator<std::_Container_proxy>::allocator<std::_Container_proxy><char>
_TEXT	ENDS
; Function compile flags: /Odtp /RTCu
; File C:\Program Files (x86)\Microsoft Visual Studio\2019\Community\VC\Tools\MSVC\14.29.30133\include\xstddef
;	COMDAT ??$addressof@$$CBV?$basic_string@DU?$char_traits@D@std@@V?$allocator@D@2@@std@@@std@@YAPBV?$basic_string@DU?$char_traits@D@std@@V?$allocator@D@2@@0@ABV10@@Z
_TEXT	SEGMENT
__Val$ = 8						; size = 4
??$addressof@$$CBV?$basic_string@DU?$char_traits@D@std@@V?$allocator@D@2@@std@@@std@@YAPBV?$basic_string@DU?$char_traits@D@std@@V?$allocator@D@2@@0@ABV10@@Z PROC ; std::addressof<std::basic_string<char,std::char_traits<char>,std::allocator<char> > const >, COMDAT

; 274  : _NODISCARD constexpr _Ty* addressof(_Ty& _Val) noexcept {

  00000	55		 push	 ebp
  00001	8b ec		 mov	 ebp, esp
  00003	b9 00 00 00 00	 mov	 ecx, OFFSET __E458E21C_xstddef
  00008	e8 00 00 00 00	 call	 @__CheckForDebuggerJustMyCode@4

; 275  :     return __builtin_addressof(_Val);

  0000d	8b 45 08	 mov	 eax, DWORD PTR __Val$[ebp]

; 276  : }

  00010	5d		 pop	 ebp
  00011	c3		 ret	 0
??$addressof@$$CBV?$basic_string@DU?$char_traits@D@std@@V?$allocator@D@2@@std@@@std@@YAPBV?$basic_string@DU?$char_traits@D@std@@V?$allocator@D@2@@0@ABV10@@Z ENDP ; std::addressof<std::basic_string<char,std::char_traits<char>,std::allocator<char> > const >
_TEXT	ENDS
; Function compile flags: /Odtp /RTCu
; File C:\Program Files (x86)\Microsoft Visual Studio\2019\Community\VC\Tools\MSVC\14.29.30133\include\xmemory
;	COMDAT ??$_Get_size_of_n@$03@std@@YAII@Z
_TEXT	SEGMENT
__Max_possible$1 = -8					; size = 4
__Overflow_is_possible$ = -1				; size = 1
__Count$ = 8						; size = 4
??$_Get_size_of_n@$03@std@@YAII@Z PROC			; std::_Get_size_of_n<4>, COMDAT

; 59   : _NODISCARD constexpr size_t _Get_size_of_n(const size_t _Count) {

  00000	55		 push	 ebp
  00001	8b ec		 mov	 ebp, esp
  00003	83 ec 08	 sub	 esp, 8
  00006	b9 00 00 00 00	 mov	 ecx, OFFSET __79D216CD_xmemory
  0000b	e8 00 00 00 00	 call	 @__CheckForDebuggerJustMyCode@4

; 60   :     constexpr bool _Overflow_is_possible = _Ty_size > 1;

  00010	c6 45 ff 01	 mov	 BYTE PTR __Overflow_is_possible$[ebp], 1

; 61   : 
; 62   :     if constexpr (_Overflow_is_possible) {
; 63   :         constexpr size_t _Max_possible = static_cast<size_t>(-1) / _Ty_size;

  00014	c7 45 f8 ff ff
	ff 3f		 mov	 DWORD PTR __Max_possible$1[ebp], 1073741823 ; 3fffffffH

; 64   :         if (_Count > _Max_possible) {

  0001b	81 7d 08 ff ff
	ff 3f		 cmp	 DWORD PTR __Count$[ebp], 1073741823 ; 3fffffffH
  00022	76 05		 jbe	 SHORT $LN2@Get_size_o

; 65   :             _Throw_bad_array_new_length(); // multiply overflow

  00024	e8 00 00 00 00	 call	 ?_Throw_bad_array_new_length@std@@YAXXZ ; std::_Throw_bad_array_new_length
$LN2@Get_size_o:

; 66   :         }
; 67   :     }
; 68   : 
; 69   :     return _Count * _Ty_size;

  00029	8b 45 08	 mov	 eax, DWORD PTR __Count$[ebp]
  0002c	c1 e0 02	 shl	 eax, 2
$LN3@Get_size_o:

; 70   : }

  0002f	8b e5		 mov	 esp, ebp
  00031	5d		 pop	 ebp
  00032	c3		 ret	 0
??$_Get_size_of_n@$03@std@@YAII@Z ENDP			; std::_Get_size_of_n<4>
_TEXT	ENDS
; Function compile flags: /Odtp /RTCu
; File C:\Program Files (x86)\Microsoft Visual Studio\2019\Community\VC\Tools\MSVC\14.29.30133\include\xmemory
;	COMDAT ??$_Get_size_of_n@$0BA@@std@@YAII@Z
_TEXT	SEGMENT
__Max_possible$1 = -8					; size = 4
__Overflow_is_possible$ = -1				; size = 1
__Count$ = 8						; size = 4
??$_Get_size_of_n@$0BA@@std@@YAII@Z PROC		; std::_Get_size_of_n<16>, COMDAT

; 59   : _NODISCARD constexpr size_t _Get_size_of_n(const size_t _Count) {

  00000	55		 push	 ebp
  00001	8b ec		 mov	 ebp, esp
  00003	83 ec 08	 sub	 esp, 8
  00006	b9 00 00 00 00	 mov	 ecx, OFFSET __79D216CD_xmemory
  0000b	e8 00 00 00 00	 call	 @__CheckForDebuggerJustMyCode@4

; 60   :     constexpr bool _Overflow_is_possible = _Ty_size > 1;

  00010	c6 45 ff 01	 mov	 BYTE PTR __Overflow_is_possible$[ebp], 1

; 61   : 
; 62   :     if constexpr (_Overflow_is_possible) {
; 63   :         constexpr size_t _Max_possible = static_cast<size_t>(-1) / _Ty_size;

  00014	c7 45 f8 ff ff
	ff 0f		 mov	 DWORD PTR __Max_possible$1[ebp], 268435455 ; 0fffffffH

; 64   :         if (_Count > _Max_possible) {

  0001b	81 7d 08 ff ff
	ff 0f		 cmp	 DWORD PTR __Count$[ebp], 268435455 ; 0fffffffH
  00022	76 05		 jbe	 SHORT $LN2@Get_size_o

; 65   :             _Throw_bad_array_new_length(); // multiply overflow

  00024	e8 00 00 00 00	 call	 ?_Throw_bad_array_new_length@std@@YAXXZ ; std::_Throw_bad_array_new_length
$LN2@Get_size_o:

; 66   :         }
; 67   :     }
; 68   : 
; 69   :     return _Count * _Ty_size;

  00029	8b 45 08	 mov	 eax, DWORD PTR __Count$[ebp]
  0002c	c1 e0 04	 shl	 eax, 4
$LN3@Get_size_o:

; 70   : }

  0002f	8b e5		 mov	 esp, ebp
  00031	5d		 pop	 ebp
  00032	c3		 ret	 0
??$_Get_size_of_n@$0BA@@std@@YAII@Z ENDP		; std::_Get_size_of_n<16>
_TEXT	ENDS
; Function compile flags: /Odtp /RTCu
; File C:\Program Files (x86)\Microsoft Visual Studio\2019\Community\VC\Tools\MSVC\14.29.30133\include\utility
;	COMDAT ??$exchange@PAU_Container_proxy@std@@$$T@std@@YAPAU_Container_proxy@0@AAPAU10@$$QA$$T@Z
_TEXT	SEGMENT
__Old_val$ = -32					; size = 4
tv71 = -28						; size = 4
tv68 = -24						; size = 4
tv65 = -20						; size = 4
tv74 = -16						; size = 4
tv84 = -12						; size = 4
tv94 = -8						; size = 4
tv77 = -3						; size = 1
tv87 = -2						; size = 1
tv129 = -1						; size = 1
__Val$ = 8						; size = 4
__New_val$ = 12						; size = 4
??$exchange@PAU_Container_proxy@std@@$$T@std@@YAPAU_Container_proxy@0@AAPAU10@$$QA$$T@Z PROC ; std::exchange<std::_Container_proxy *,std::nullptr_t>, COMDAT

; 614  :     conjunction_v<is_nothrow_move_constructible<_Ty>, is_nothrow_assignable<_Ty&, _Other>>) /* strengthened */ {

  00000	55		 push	 ebp
  00001	8b ec		 mov	 ebp, esp
  00003	83 ec 20	 sub	 esp, 32			; 00000020H
  00006	b9 00 00 00 00	 mov	 ecx, OFFSET __1347750E_utility
  0000b	e8 00 00 00 00	 call	 @__CheckForDebuggerJustMyCode@4

; 615  :     // assign _New_val to _Val, return previous _Val
; 616  :     _Ty _Old_val = static_cast<_Ty&&>(_Val);

  00010	8b 45 08	 mov	 eax, DWORD PTR __Val$[ebp]
  00013	89 45 ec	 mov	 DWORD PTR tv65[ebp], eax
  00016	8b 4d ec	 mov	 ecx, DWORD PTR tv65[ebp]
  00019	89 4d f8	 mov	 DWORD PTR tv94[ebp], ecx
  0001c	8b 55 f8	 mov	 edx, DWORD PTR tv94[ebp]
  0001f	c1 ea 03	 shr	 edx, 3
  00022	8a 82 00 00 00
	30		 mov	 al, BYTE PTR [edx+805306368]
  00028	88 45 ff	 mov	 BYTE PTR tv129[ebp], al
  0002b	80 7d ff 00	 cmp	 BYTE PTR tv129[ebp], 0
  0002f	74 1a		 je	 SHORT $LN5@exchange
  00031	8a 4d f8	 mov	 cl, BYTE PTR tv94[ebp]
  00034	80 e1 07	 and	 cl, 7
  00037	80 c1 03	 add	 cl, 3
  0003a	3a 4d ff	 cmp	 cl, BYTE PTR tv129[ebp]
  0003d	7c 0c		 jl	 SHORT $LN5@exchange
  0003f	8b 55 f8	 mov	 edx, DWORD PTR tv94[ebp]
  00042	52		 push	 edx
  00043	e8 00 00 00 00	 call	 ___asan_report_load4
  00048	83 c4 04	 add	 esp, 4
$LN5@exchange:
  0004b	8b 45 08	 mov	 eax, DWORD PTR __Val$[ebp]
  0004e	8b 08		 mov	 ecx, DWORD PTR [eax]
  00050	89 4d e0	 mov	 DWORD PTR __Old_val$[ebp], ecx

; 617  :     _Val         = static_cast<_Other&&>(_New_val);

  00053	8b 55 0c	 mov	 edx, DWORD PTR __New_val$[ebp]
  00056	89 55 e8	 mov	 DWORD PTR tv68[ebp], edx
  00059	8b 45 e8	 mov	 eax, DWORD PTR tv68[ebp]
  0005c	89 45 f4	 mov	 DWORD PTR tv84[ebp], eax
  0005f	8b 4d f4	 mov	 ecx, DWORD PTR tv84[ebp]
  00062	c1 e9 03	 shr	 ecx, 3
  00065	8a 91 00 00 00
	30		 mov	 dl, BYTE PTR [ecx+805306368]
  0006b	88 55 fe	 mov	 BYTE PTR tv87[ebp], dl
  0006e	80 7d fe 00	 cmp	 BYTE PTR tv87[ebp], 0
  00072	74 18		 je	 SHORT $LN4@exchange
  00074	8a 45 f4	 mov	 al, BYTE PTR tv84[ebp]
  00077	24 07		 and	 al, 7
  00079	04 03		 add	 al, 3
  0007b	3a 45 fe	 cmp	 al, BYTE PTR tv87[ebp]
  0007e	7c 0c		 jl	 SHORT $LN4@exchange
  00080	8b 4d f4	 mov	 ecx, DWORD PTR tv84[ebp]
  00083	51		 push	 ecx
  00084	e8 00 00 00 00	 call	 ___asan_report_load4
  00089	83 c4 04	 add	 esp, 4
$LN4@exchange:
  0008c	8b 55 08	 mov	 edx, DWORD PTR __Val$[ebp]
  0008f	89 55 e4	 mov	 DWORD PTR tv71[ebp], edx
  00092	8b 45 e4	 mov	 eax, DWORD PTR tv71[ebp]
  00095	89 45 f0	 mov	 DWORD PTR tv74[ebp], eax
  00098	8b 4d f0	 mov	 ecx, DWORD PTR tv74[ebp]
  0009b	c1 e9 03	 shr	 ecx, 3
  0009e	8a 91 00 00 00
	30		 mov	 dl, BYTE PTR [ecx+805306368]
  000a4	88 55 fd	 mov	 BYTE PTR tv77[ebp], dl
  000a7	80 7d fd 00	 cmp	 BYTE PTR tv77[ebp], 0
  000ab	74 18		 je	 SHORT $LN3@exchange
  000ad	8a 45 f0	 mov	 al, BYTE PTR tv74[ebp]
  000b0	24 07		 and	 al, 7
  000b2	04 03		 add	 al, 3
  000b4	3a 45 fd	 cmp	 al, BYTE PTR tv77[ebp]
  000b7	7c 0c		 jl	 SHORT $LN3@exchange
  000b9	8b 4d f0	 mov	 ecx, DWORD PTR tv74[ebp]
  000bc	51		 push	 ecx
  000bd	e8 00 00 00 00	 call	 ___asan_report_store4
  000c2	83 c4 04	 add	 esp, 4
$LN3@exchange:
  000c5	8b 55 08	 mov	 edx, DWORD PTR __Val$[ebp]
  000c8	8b 45 0c	 mov	 eax, DWORD PTR __New_val$[ebp]
  000cb	8b 08		 mov	 ecx, DWORD PTR [eax]
  000cd	89 0a		 mov	 DWORD PTR [edx], ecx

; 618  :     return _Old_val;

  000cf	8b 45 e0	 mov	 eax, DWORD PTR __Old_val$[ebp]

; 619  : }

  000d2	8b e5		 mov	 esp, ebp
  000d4	5d		 pop	 ebp
  000d5	c3		 ret	 0
??$exchange@PAU_Container_proxy@std@@$$T@std@@YAPAU_Container_proxy@0@AAPAU10@$$QA$$T@Z ENDP ; std::exchange<std::_Container_proxy *,std::nullptr_t>
_TEXT	ENDS
; Function compile flags: /Odtp /RTCu
; File C:\Program Files (x86)\Microsoft Visual Studio\2019\Community\VC\Tools\MSVC\14.29.30133\include\xmemory
;	COMDAT ??$_Allocate@$07U_Default_allocate_traits@std@@$0A@@std@@YAPAXI@Z
_TEXT	SEGMENT
__Bytes$ = 8						; size = 4
??$_Allocate@$07U_Default_allocate_traits@std@@$0A@@std@@YAPAXI@Z PROC ; std::_Allocate<8,std::_Default_allocate_traits,0>, COMDAT

; 230  : __declspec(allocator) _CONSTEXPR20_DYNALLOC void* _Allocate(const size_t _Bytes) {

  00000	55		 push	 ebp
  00001	8b ec		 mov	 ebp, esp
  00003	b9 00 00 00 00	 mov	 ecx, OFFSET __79D216CD_xmemory
  00008	e8 00 00 00 00	 call	 @__CheckForDebuggerJustMyCode@4

; 231  :     // allocate _Bytes when !_HAS_ALIGNED_NEW || _Align <= __STDCPP_DEFAULT_NEW_ALIGNMENT__
; 232  : #if defined(_M_IX86) || defined(_M_X64)
; 233  : #ifdef __cpp_lib_constexpr_dynamic_alloc // TRANSITION, GH-1532
; 234  :     if (!_STD is_constant_evaluated())

  0000d	e8 00 00 00 00	 call	 ?is_constant_evaluated@std@@YA_NXZ ; std::is_constant_evaluated
  00012	0f b6 c0	 movzx	 eax, al
  00015	85 c0		 test	 eax, eax
  00017	75 17		 jne	 SHORT $LN2@Allocate

; 235  : #endif // __cpp_lib_constexpr_dynamic_alloc
; 236  :     {
; 237  :         if (_Bytes >= _Big_allocation_threshold) { // boost the alignment of big allocations to help autovectorization

  00019	81 7d 08 00 10
	00 00		 cmp	 DWORD PTR __Bytes$[ebp], 4096 ; 00001000H
  00020	72 0e		 jb	 SHORT $LN2@Allocate

; 238  :             return _Allocate_manually_vector_aligned<_Traits>(_Bytes);

  00022	8b 4d 08	 mov	 ecx, DWORD PTR __Bytes$[ebp]
  00025	51		 push	 ecx
  00026	e8 00 00 00 00	 call	 ??$_Allocate_manually_vector_aligned@U_Default_allocate_traits@std@@@std@@YAPAXI@Z ; std::_Allocate_manually_vector_aligned<std::_Default_allocate_traits>
  0002b	83 c4 04	 add	 esp, 4
  0002e	eb 16		 jmp	 SHORT $LN1@Allocate
$LN2@Allocate:

; 239  :         }
; 240  :     }
; 241  : #endif // defined(_M_IX86) || defined(_M_X64)
; 242  : 
; 243  :     if (_Bytes != 0) {

  00030	83 7d 08 00	 cmp	 DWORD PTR __Bytes$[ebp], 0
  00034	74 0e		 je	 SHORT $LN4@Allocate

; 244  :         return _Traits::_Allocate(_Bytes);

  00036	8b 55 08	 mov	 edx, DWORD PTR __Bytes$[ebp]
  00039	52		 push	 edx
  0003a	e8 00 00 00 00	 call	 ?_Allocate@_Default_allocate_traits@std@@SAPAXI@Z ; std::_Default_allocate_traits::_Allocate
  0003f	83 c4 04	 add	 esp, 4
  00042	eb 02		 jmp	 SHORT $LN1@Allocate
$LN4@Allocate:

; 245  :     }
; 246  : 
; 247  :     return nullptr;

  00044	33 c0		 xor	 eax, eax
$LN1@Allocate:

; 248  : }

  00046	5d		 pop	 ebp
  00047	c3		 ret	 0
??$_Allocate@$07U_Default_allocate_traits@std@@$0A@@std@@YAPAXI@Z ENDP ; std::_Allocate<8,std::_Default_allocate_traits,0>
_TEXT	ENDS
; Function compile flags: /Odtp /RTCu
; File C:\Program Files (x86)\Microsoft Visual Studio\2019\Community\VC\Tools\MSVC\14.29.30133\include\xmemory
;	COMDAT ??$_Get_size_of_n@$07@std@@YAII@Z
_TEXT	SEGMENT
__Max_possible$1 = -8					; size = 4
__Overflow_is_possible$ = -1				; size = 1
__Count$ = 8						; size = 4
??$_Get_size_of_n@$07@std@@YAII@Z PROC			; std::_Get_size_of_n<8>, COMDAT

; 59   : _NODISCARD constexpr size_t _Get_size_of_n(const size_t _Count) {

  00000	55		 push	 ebp
  00001	8b ec		 mov	 ebp, esp
  00003	83 ec 08	 sub	 esp, 8
  00006	b9 00 00 00 00	 mov	 ecx, OFFSET __79D216CD_xmemory
  0000b	e8 00 00 00 00	 call	 @__CheckForDebuggerJustMyCode@4

; 60   :     constexpr bool _Overflow_is_possible = _Ty_size > 1;

  00010	c6 45 ff 01	 mov	 BYTE PTR __Overflow_is_possible$[ebp], 1

; 61   : 
; 62   :     if constexpr (_Overflow_is_possible) {
; 63   :         constexpr size_t _Max_possible = static_cast<size_t>(-1) / _Ty_size;

  00014	c7 45 f8 ff ff
	ff 1f		 mov	 DWORD PTR __Max_possible$1[ebp], 536870911 ; 1fffffffH

; 64   :         if (_Count > _Max_possible) {

  0001b	81 7d 08 ff ff
	ff 1f		 cmp	 DWORD PTR __Count$[ebp], 536870911 ; 1fffffffH
  00022	76 05		 jbe	 SHORT $LN2@Get_size_o

; 65   :             _Throw_bad_array_new_length(); // multiply overflow

  00024	e8 00 00 00 00	 call	 ?_Throw_bad_array_new_length@std@@YAXXZ ; std::_Throw_bad_array_new_length
$LN2@Get_size_o:

; 66   :         }
; 67   :     }
; 68   : 
; 69   :     return _Count * _Ty_size;

  00029	8b 45 08	 mov	 eax, DWORD PTR __Count$[ebp]
  0002c	c1 e0 03	 shl	 eax, 3
$LN3@Get_size_o:

; 70   : }

  0002f	8b e5		 mov	 esp, ebp
  00031	5d		 pop	 ebp
  00032	c3		 ret	 0
??$_Get_size_of_n@$07@std@@YAII@Z ENDP			; std::_Get_size_of_n<8>
_TEXT	ENDS
; Function compile flags: /Odtp /RTCu
; File C:\Users\theob\Documents\GitHub\as-pts1\rendu2\ProjetTutore1.cpp
_TEXT	SEGMENT
__asan_gen_0$ = -1248					; size = 4
__asan_gen_1$ = -1244					; size = 4
__asan_gen_2$ = -1240					; size = 4
_window$ = -1232					; size = 528
_RP$ = -672						; size = 48
_Univ$ = -592						; size = 40
$T3 = -520						; size = 28
$T4 = -456						; size = 28
$T5 = -392						; size = 8
$T6 = -376						; size = 12
_icon$ = -328						; size = 24
$T7 = -272						; size = 28
_s$8 = -208						; size = 8
tv292 = -162						; size = 1
$T9 = -161						; size = 1
tv220 = -160						; size = 4
tv205 = -156						; size = 4
tv289 = -152						; size = 4
tv206 = -148						; size = 4
tv211 = -144						; size = 4
tv216 = -140						; size = 4
tv247 = -136						; size = 4
tv271 = -132						; size = 4
tv264 = -128						; size = 4
tv254 = -124						; size = 4
tv180 = -120						; size = 4
tv203 = -116						; size = 4
tv210 = -112						; size = 4
tv215 = -108						; size = 4
tv241 = -104						; size = 4
tv235 = -100						; size = 4
tv229 = -96						; size = 4
tv223 = -92						; size = 4
tv201 = -88						; size = 4
tv190 = -84						; size = 4
tv95 = -80						; size = 4
tv173 = -76						; size = 4
$T10 = -72						; size = 4
tv284 = -68						; size = 4
tv65 = -64						; size = 4
$T11 = -60						; size = 4
$T12 = -56						; size = 12
__$ArrayPad$ = -36					; size = 4
__$EHRec$ = -12						; size = 12
_argc$ = 8						; size = 4
_argv$ = 12						; size = 4
_main	PROC

; 8    : {

  00000	53		 push	 ebx
  00001	8b dc		 mov	 ebx, esp
  00003	83 ec 08	 sub	 esp, 8
  00006	83 e4 e0	 and	 esp, -32		; ffffffe0H
  00009	83 c4 04	 add	 esp, 4
  0000c	55		 push	 ebp
  0000d	8b 6b 04	 mov	 ebp, DWORD PTR [ebx+4]
  00010	89 6c 24 04	 mov	 DWORD PTR [esp+4], ebp
  00014	8b ec		 mov	 ebp, esp
  00016	6a ff		 push	 -1
  00018	68 00 00 00 00	 push	 __ehhandler$_main
  0001d	64 a1 00 00 00
	00		 mov	 eax, DWORD PTR fs:0
  00023	50		 push	 eax
  00024	53		 push	 ebx
  00025	81 c4 30 fb ff
	ff		 add	 esp, -1232		; fffffb30H
  0002b	a1 00 00 00 00	 mov	 eax, DWORD PTR ___security_cookie
  00030	33 c5		 xor	 eax, ebp
  00032	89 45 dc	 mov	 DWORD PTR __$ArrayPad$[ebp], eax
  00035	50		 push	 eax
  00036	8d 45 f4	 lea	 eax, DWORD PTR __$EHRec$[ebp]
  00039	64 a3 00 00 00
	00		 mov	 DWORD PTR fs:0, eax
  0003f	c7 85 20 fb ff
	ff b3 8a b5 41	 mov	 DWORD PTR __asan_gen_0$[ebp], 1102416563 ; 41b58ab3H
  00049	c7 85 24 fb ff
	ff 00 00 00 00	 mov	 DWORD PTR __asan_gen_1$[ebp], OFFSET __L__asan_gen_._main
  00053	c7 85 28 fb ff
	ff 00 00 00 00	 mov	 DWORD PTR __asan_gen_2$[ebp], OFFSET _main
  0005d	8d 85 20 fb ff
	ff		 lea	 eax, DWORD PTR __asan_gen_0$[ebp]
  00063	89 45 8c	 mov	 DWORD PTR tv203[ebp], eax
  00066	8b 4d 8c	 mov	 ecx, DWORD PTR tv203[ebp]
  00069	c1 e9 03	 shr	 ecx, 3
  0006c	81 c1 00 00 00
	30		 add	 ecx, 805306368		; 30000000H
  00072	89 8d 64 ff ff
	ff		 mov	 DWORD PTR tv205[ebp], ecx
  00078	ba f1 f1 00 00	 mov	 edx, 61937		; 0000f1f1H
  0007d	8b 85 64 ff ff
	ff		 mov	 eax, DWORD PTR tv205[ebp]
  00083	66 89 10	 mov	 WORD PTR [eax], dx
  00086	8b 8d 64 ff ff
	ff		 mov	 ecx, DWORD PTR tv205[ebp]
  0008c	83 c1 02	 add	 ecx, 2
  0008f	89 8d 6c ff ff
	ff		 mov	 DWORD PTR tv206[ebp], ecx
  00095	6a 42		 push	 66			; 00000042H
  00097	8b 95 6c ff ff
	ff		 mov	 edx, DWORD PTR tv206[ebp]
  0009d	52		 push	 edx
  0009e	e8 00 00 00 00	 call	 ___asan_set_shadow_00
  000a3	83 c4 08	 add	 esp, 8
  000a6	8b 85 6c ff ff
	ff		 mov	 eax, DWORD PTR tv206[ebp]
  000ac	83 c0 42	 add	 eax, 66			; 00000042H
  000af	89 45 90	 mov	 DWORD PTR tv210[ebp], eax
  000b2	8b 4d 90	 mov	 ecx, DWORD PTR tv210[ebp]
  000b5	c7 01 f2 f2 f2
	f2		 mov	 DWORD PTR [ecx], -218959118 ; f2f2f2f2H
  000bb	8b 95 64 ff ff
	ff		 mov	 edx, DWORD PTR tv205[ebp]
  000c1	83 c2 48	 add	 edx, 72			; 00000048H
  000c4	89 95 70 ff ff
	ff		 mov	 DWORD PTR tv211[ebp], edx
  000ca	6a 06		 push	 6
  000cc	8b 85 70 ff ff
	ff		 mov	 eax, DWORD PTR tv211[ebp]
  000d2	50		 push	 eax
  000d3	e8 00 00 00 00	 call	 ___asan_set_shadow_00
  000d8	83 c4 08	 add	 esp, 8
  000db	8b 8d 70 ff ff
	ff		 mov	 ecx, DWORD PTR tv211[ebp]
  000e1	83 c1 06	 add	 ecx, 6
  000e4	89 4d 94	 mov	 DWORD PTR tv215[ebp], ecx
  000e7	8b 55 94	 mov	 edx, DWORD PTR tv215[ebp]
  000ea	c7 02 f2 f2 f2
	f2		 mov	 DWORD PTR [edx], -218959118 ; f2f2f2f2H
  000f0	8b 85 64 ff ff
	ff		 mov	 eax, DWORD PTR tv205[ebp]
  000f6	83 c0 52	 add	 eax, 82			; 00000052H
  000f9	89 85 74 ff ff
	ff		 mov	 DWORD PTR tv216[ebp], eax
  000ff	6a 05		 push	 5
  00101	8b 8d 74 ff ff
	ff		 mov	 ecx, DWORD PTR tv216[ebp]
  00107	51		 push	 ecx
  00108	e8 00 00 00 00	 call	 ___asan_set_shadow_00
  0010d	83 c4 08	 add	 esp, 8
  00110	8b 95 74 ff ff
	ff		 mov	 edx, DWORD PTR tv216[ebp]
  00116	83 c2 05	 add	 edx, 5
  00119	89 95 60 ff ff
	ff		 mov	 DWORD PTR tv220[ebp], edx
  0011f	8b 85 60 ff ff
	ff		 mov	 eax, DWORD PTR tv220[ebp]
  00125	c7 00 f2 f2 f2
	f2		 mov	 DWORD PTR [eax], -218959118 ; f2f2f2f2H
  0012b	83 85 60 ff ff
	ff 04		 add	 DWORD PTR tv220[ebp], 4
  00132	8b 8d 60 ff ff
	ff		 mov	 ecx, DWORD PTR tv220[ebp]
  00138	c7 01 00 00 00
	04		 mov	 DWORD PTR [ecx], 67108864 ; 04000000H
  0013e	83 85 60 ff ff
	ff 04		 add	 DWORD PTR tv220[ebp], 4
  00145	8b 95 60 ff ff
	ff		 mov	 edx, DWORD PTR tv220[ebp]
  0014b	c7 02 f2 f2 f2
	f2		 mov	 DWORD PTR [edx], -218959118 ; f2f2f2f2H
  00151	83 85 60 ff ff
	ff 04		 add	 DWORD PTR tv220[ebp], 4
  00158	8b 85 60 ff ff
	ff		 mov	 eax, DWORD PTR tv220[ebp]
  0015e	c7 00 00 00 00
	04		 mov	 DWORD PTR [eax], 67108864 ; 04000000H
  00164	83 85 60 ff ff
	ff 04		 add	 DWORD PTR tv220[ebp], 4
  0016b	8b 8d 60 ff ff
	ff		 mov	 ecx, DWORD PTR tv220[ebp]
  00171	c7 01 f2 f2 f2
	f2		 mov	 DWORD PTR [ecx], -218959118 ; f2f2f2f2H
  00177	83 85 60 ff ff
	ff 04		 add	 DWORD PTR tv220[ebp], 4
  0017e	8b 95 60 ff ff
	ff		 mov	 edx, DWORD PTR tv220[ebp]
  00184	c7 02 00 f2 00
	04		 mov	 DWORD PTR [edx], 67170816 ; 0400f200H
  0018a	83 85 60 ff ff
	ff 04		 add	 DWORD PTR tv220[ebp], 4
  00191	8b 85 60 ff ff
	ff		 mov	 eax, DWORD PTR tv220[ebp]
  00197	c7 00 f2 f2 f2
	f2		 mov	 DWORD PTR [eax], -218959118 ; f2f2f2f2H
  0019d	83 85 60 ff ff
	ff 04		 add	 DWORD PTR tv220[ebp], 4
  001a4	8b 8d 60 ff ff
	ff		 mov	 ecx, DWORD PTR tv220[ebp]
  001aa	c7 01 f8 f8 f8
	f2		 mov	 DWORD PTR [ecx], -218564360 ; f2f8f8f8H
  001b0	83 85 60 ff ff
	ff 04		 add	 DWORD PTR tv220[ebp], 4
  001b7	8b 95 60 ff ff
	ff		 mov	 edx, DWORD PTR tv220[ebp]
  001bd	c7 02 f2 f2 f2
	f8		 mov	 DWORD PTR [edx], -118295822 ; f8f2f2f2H
  001c3	83 85 60 ff ff
	ff 04		 add	 DWORD PTR tv220[ebp], 4
  001ca	8b 85 60 ff ff
	ff		 mov	 eax, DWORD PTR tv220[ebp]
  001d0	c7 00 f8 f8 04
	f2		 mov	 DWORD PTR [eax], -234555144 ; f204f8f8H
  001d6	83 85 60 ff ff
	ff 04		 add	 DWORD PTR tv220[ebp], 4
  001dd	8b 8d 60 ff ff
	ff		 mov	 ecx, DWORD PTR tv220[ebp]
  001e3	c7 01 f2 f2 f2
	f8		 mov	 DWORD PTR [ecx], -118295822 ; f8f2f2f2H
  001e9	83 85 60 ff ff
	ff 04		 add	 DWORD PTR tv220[ebp], 4
  001f0	8b 95 60 ff ff
	ff		 mov	 edx, DWORD PTR tv220[ebp]
  001f6	c7 02 f3 f3 f3
	f3		 mov	 DWORD PTR [edx], -202116109 ; f3f3f3f3H
  001fc	8d 85 b8 fe ff
	ff		 lea	 eax, DWORD PTR _icon$[ebp]
  00202	c1 e8 03	 shr	 eax, 3
  00205	05 00 00 00 30	 add	 eax, 805306368		; 30000000H
  0020a	89 45 98	 mov	 DWORD PTR tv241[ebp], eax
  0020d	6a 03		 push	 3
  0020f	8b 4d 98	 mov	 ecx, DWORD PTR tv241[ebp]
  00212	51		 push	 ecx
  00213	e8 00 00 00 00	 call	 ___asan_set_shadow_00
  00218	83 c4 08	 add	 esp, 8
  0021b	8d 95 60 fd ff
	ff		 lea	 edx, DWORD PTR _RP$[ebp]
  00221	c1 ea 03	 shr	 edx, 3
  00224	81 c2 00 00 00
	30		 add	 edx, 805306368		; 30000000H
  0022a	89 55 9c	 mov	 DWORD PTR tv235[ebp], edx
  0022d	6a 06		 push	 6
  0022f	8b 45 9c	 mov	 eax, DWORD PTR tv235[ebp]
  00232	50		 push	 eax
  00233	e8 00 00 00 00	 call	 ___asan_set_shadow_00
  00238	83 c4 08	 add	 esp, 8
  0023b	8d 8d b0 fd ff
	ff		 lea	 ecx, DWORD PTR _Univ$[ebp]
  00241	c1 e9 03	 shr	 ecx, 3
  00244	81 c1 00 00 00
	30		 add	 ecx, 805306368		; 30000000H
  0024a	89 4d a0	 mov	 DWORD PTR tv229[ebp], ecx
  0024d	6a 05		 push	 5
  0024f	8b 55 a0	 mov	 edx, DWORD PTR tv229[ebp]
  00252	52		 push	 edx
  00253	e8 00 00 00 00	 call	 ___asan_set_shadow_00
  00258	83 c4 08	 add	 esp, 8
  0025b	8d 85 30 fb ff
	ff		 lea	 eax, DWORD PTR _window$[ebp]
  00261	c1 e8 03	 shr	 eax, 3
  00264	05 00 00 00 30	 add	 eax, 805306368		; 30000000H
  00269	89 45 a4	 mov	 DWORD PTR tv223[ebp], eax
  0026c	6a 42		 push	 66			; 00000042H
  0026e	8b 4d a4	 mov	 ecx, DWORD PTR tv223[ebp]
  00271	51		 push	 ecx
  00272	e8 00 00 00 00	 call	 ___asan_set_shadow_00
  00277	83 c4 08	 add	 esp, 8
  0027a	8d 95 f0 fe ff
	ff		 lea	 edx, DWORD PTR $T7[ebp]
  00280	c1 ea 03	 shr	 edx, 3
  00283	81 c2 00 00 00
	30		 add	 edx, 805306368		; 30000000H
  00289	89 95 78 ff ff
	ff		 mov	 DWORD PTR tv247[ebp], edx
  0028f	6a 03		 push	 3
  00291	8b 85 78 ff ff
	ff		 mov	 eax, DWORD PTR tv247[ebp]
  00297	50		 push	 eax
  00298	e8 00 00 00 00	 call	 ___asan_set_shadow_00
  0029d	83 c4 08	 add	 esp, 8
  002a0	8b 8d 78 ff ff
	ff		 mov	 ecx, DWORD PTR tv247[ebp]
  002a6	c6 41 03 04	 mov	 BYTE PTR [ecx+3], 4
  002aa	b9 00 00 00 00	 mov	 ecx, OFFSET __059B899A_ProjetTutore1@cpp
  002af	e8 00 00 00 00	 call	 @__CheckForDebuggerJustMyCode@4

; 9    :     sf::RenderWindow window(sf::VideoMode(1280, 720), "Projet Tutor Groupe 1");

  002b4	6a 00		 push	 0
  002b6	6a 00		 push	 0
  002b8	6a 01		 push	 1
  002ba	6a 01		 push	 1
  002bc	6a 00		 push	 0
  002be	6a 00		 push	 0
  002c0	6a 00		 push	 0
  002c2	8d 8d f8 fd ff
	ff		 lea	 ecx, DWORD PTR $T3[ebp]
  002c8	e8 00 00 00 00	 call	 ??0ContextSettings@sf@@QAE@IIIIII_N@Z ; sf::ContextSettings::ContextSettings
  002cd	89 45 b0	 mov	 DWORD PTR tv95[ebp], eax
  002d0	8d 8d 78 fe ff
	ff		 lea	 ecx, DWORD PTR $T5[ebp]
  002d6	e8 00 00 00 00	 call	 ??0locale@std@@QAE@XZ	; std::locale::locale
  002db	89 45 a8	 mov	 DWORD PTR tv201[ebp], eax
  002de	8b 55 a8	 mov	 edx, DWORD PTR tv201[ebp]
  002e1	89 55 ac	 mov	 DWORD PTR tv190[ebp], edx
  002e4	c7 45 fc 00 00
	00 00		 mov	 DWORD PTR __$EHRec$[ebp+8], 0
  002eb	8b 45 ac	 mov	 eax, DWORD PTR tv190[ebp]
  002ee	50		 push	 eax
  002ef	68 00 00 00 00	 push	 OFFSET $SG230840
  002f4	8d 8d 38 fe ff
	ff		 lea	 ecx, DWORD PTR $T4[ebp]
  002fa	ff 15 00 00 00
	00		 call	 DWORD PTR __imp_??0String@sf@@QAE@PBDABVlocale@std@@@Z
  00300	c6 45 fc 01	 mov	 BYTE PTR __$EHRec$[ebp+8], 1
  00304	6a 20		 push	 32			; 00000020H
  00306	68 d0 02 00 00	 push	 720			; 000002d0H
  0030b	68 00 05 00 00	 push	 1280			; 00000500H
  00310	8d 8d 88 fe ff
	ff		 lea	 ecx, DWORD PTR $T6[ebp]
  00316	ff 15 00 00 00
	00		 call	 DWORD PTR __imp_??0VideoMode@sf@@QAE@III@Z
  0031c	6a 0c		 push	 12			; 0000000cH
  0031e	50		 push	 eax
  0031f	8d 4d c8	 lea	 ecx, DWORD PTR $T12[ebp]
  00322	51		 push	 ecx
  00323	e8 00 00 00 00	 call	 ___asan_memcpy
  00328	83 c4 0c	 add	 esp, 12			; 0000000cH
  0032b	8b 55 b0	 mov	 edx, DWORD PTR tv95[ebp]
  0032e	52		 push	 edx
  0032f	6a 07		 push	 7
  00331	8d 85 38 fe ff
	ff		 lea	 eax, DWORD PTR $T4[ebp]
  00337	50		 push	 eax
  00338	83 ec 0c	 sub	 esp, 12			; 0000000cH
  0033b	8b cc		 mov	 ecx, esp
  0033d	8b 55 c8	 mov	 edx, DWORD PTR $T12[ebp]
  00340	89 11		 mov	 DWORD PTR [ecx], edx
  00342	8b 45 cc	 mov	 eax, DWORD PTR $T12[ebp+4]
  00345	89 41 04	 mov	 DWORD PTR [ecx+4], eax
  00348	8b 55 d0	 mov	 edx, DWORD PTR $T12[ebp+8]
  0034b	89 51 08	 mov	 DWORD PTR [ecx+8], edx
  0034e	8d 8d 30 fb ff
	ff		 lea	 ecx, DWORD PTR _window$[ebp]
  00354	ff 15 00 00 00
	00		 call	 DWORD PTR __imp_??0RenderWindow@sf@@QAE@VVideoMode@1@ABVString@1@IABUContextSettings@1@@Z
  0035a	c6 45 fc 03	 mov	 BYTE PTR __$EHRec$[ebp+8], 3
  0035e	8d 8d 38 fe ff
	ff		 lea	 ecx, DWORD PTR $T4[ebp]
  00364	ff 15 00 00 00
	00		 call	 DWORD PTR __imp_??1String@sf@@QAE@XZ
  0036a	c6 45 fc 04	 mov	 BYTE PTR __$EHRec$[ebp+8], 4
  0036e	8d 8d 78 fe ff
	ff		 lea	 ecx, DWORD PTR $T5[ebp]
  00374	e8 00 00 00 00	 call	 ??1locale@std@@QAE@XZ	; std::locale::~locale
  00379	8d 85 f8 fd ff
	ff		 lea	 eax, DWORD PTR $T3[ebp]
  0037f	c1 e8 03	 shr	 eax, 3
  00382	05 00 00 00 30	 add	 eax, 805306368		; 30000000H
  00387	89 85 7c ff ff
	ff		 mov	 DWORD PTR tv271[ebp], eax
  0038d	6a 03		 push	 3
  0038f	8b 8d 7c ff ff
	ff		 mov	 ecx, DWORD PTR tv271[ebp]
  00395	51		 push	 ecx
  00396	e8 00 00 00 00	 call	 ___asan_set_shadow_f8
  0039b	83 c4 08	 add	 esp, 8
  0039e	8b 95 7c ff ff
	ff		 mov	 edx, DWORD PTR tv271[ebp]
  003a4	c6 42 03 f8	 mov	 BYTE PTR [edx+3], 248	; 000000f8H
  003a8	8d 85 38 fe ff
	ff		 lea	 eax, DWORD PTR $T4[ebp]
  003ae	c1 e8 03	 shr	 eax, 3
  003b1	05 00 00 00 30	 add	 eax, 805306368		; 30000000H
  003b6	89 45 80	 mov	 DWORD PTR tv264[ebp], eax
  003b9	6a 03		 push	 3
  003bb	8b 4d 80	 mov	 ecx, DWORD PTR tv264[ebp]
  003be	51		 push	 ecx
  003bf	e8 00 00 00 00	 call	 ___asan_set_shadow_f8
  003c4	83 c4 08	 add	 esp, 8
  003c7	8b 55 80	 mov	 edx, DWORD PTR tv264[ebp]
  003ca	c6 42 03 f8	 mov	 BYTE PTR [edx+3], 248	; 000000f8H
  003ce	8d 85 78 fe ff
	ff		 lea	 eax, DWORD PTR $T5[ebp]
  003d4	c1 e8 03	 shr	 eax, 3
  003d7	c6 80 00 00 00
	30 f8		 mov	 BYTE PTR [eax+805306368], 248 ; 000000f8H
  003de	8d 8d 88 fe ff
	ff		 lea	 ecx, DWORD PTR $T6[ebp]
  003e4	c1 e9 03	 shr	 ecx, 3
  003e7	81 c1 00 00 00
	30		 add	 ecx, 805306368		; 30000000H
  003ed	89 4d 84	 mov	 DWORD PTR tv254[ebp], ecx
  003f0	6a 01		 push	 1
  003f2	8b 55 84	 mov	 edx, DWORD PTR tv254[ebp]
  003f5	52		 push	 edx
  003f6	e8 00 00 00 00	 call	 ___asan_set_shadow_f8
  003fb	83 c4 08	 add	 esp, 8
  003fe	8b 45 84	 mov	 eax, DWORD PTR tv254[ebp]
  00401	c6 40 01 f8	 mov	 BYTE PTR [eax+1], 248	; 000000f8H

; 10   :     window.setFramerateLimit(144);

  00405	68 90 00 00 00	 push	 144			; 00000090H
  0040a	8d 8d 30 fb ff
	ff		 lea	 ecx, DWORD PTR _window$[ebp]
  00410	ff 15 00 00 00
	00		 call	 DWORD PTR __imp_?setFramerateLimit@Window@sf@@QAEXI@Z

; 11   :     sf::Image icon;

  00416	8d 8d b8 fe ff
	ff		 lea	 ecx, DWORD PTR _icon$[ebp]
  0041c	ff 15 00 00 00
	00		 call	 DWORD PTR __imp_??0Image@sf@@QAE@XZ
  00422	c6 45 fc 05	 mov	 BYTE PTR __$EHRec$[ebp+8], 5

; 12   :     if (icon.loadFromFile(".\\ico.png")) { // File/Image/Pixel

  00426	68 00 00 00 00	 push	 OFFSET $SG230843
  0042b	8d 8d f0 fe ff
	ff		 lea	 ecx, DWORD PTR $T7[ebp]
  00431	e8 00 00 00 00	 call	 ??0?$basic_string@DU?$char_traits@D@std@@V?$allocator@D@2@@std@@QAE@QBD@Z ; std::basic_string<char,std::char_traits<char>,std::allocator<char> >::basic_string<char,std::char_traits<char>,std::allocator<char> >
  00436	c6 45 fc 06	 mov	 BYTE PTR __$EHRec$[ebp+8], 6
  0043a	8d 8d f0 fe ff
	ff		 lea	 ecx, DWORD PTR $T7[ebp]
  00440	51		 push	 ecx
  00441	8d 8d b8 fe ff
	ff		 lea	 ecx, DWORD PTR _icon$[ebp]
  00447	ff 15 00 00 00
	00		 call	 DWORD PTR __imp_?loadFromFile@Image@sf@@QAE_NABV?$basic_string@DU?$char_traits@D@std@@V?$allocator@D@2@@std@@@Z
  0044d	88 85 5f ff ff
	ff		 mov	 BYTE PTR $T9[ebp], al
  00453	c6 45 fc 05	 mov	 BYTE PTR __$EHRec$[ebp+8], 5
  00457	8d 8d f0 fe ff
	ff		 lea	 ecx, DWORD PTR $T7[ebp]
  0045d	e8 00 00 00 00	 call	 ??1?$basic_string@DU?$char_traits@D@std@@V?$allocator@D@2@@std@@QAE@XZ ; std::basic_string<char,std::char_traits<char>,std::allocator<char> >::~basic_string<char,std::char_traits<char>,std::allocator<char> >
  00462	0f b6 95 5f ff
	ff ff		 movzx	 edx, BYTE PTR $T9[ebp]
  00469	85 d2		 test	 edx, edx
  0046b	74 5a		 je	 SHORT $LN2@main
  0046d	8d 85 30 ff ff
	ff		 lea	 eax, DWORD PTR _s$8[ebp]
  00473	c1 e8 03	 shr	 eax, 3
  00476	c6 80 00 00 00
	30 00		 mov	 BYTE PTR [eax+805306368], 0

; 13   :         sf::Vector2u s = icon.getSize();

  0047d	8d 8d 30 ff ff
	ff		 lea	 ecx, DWORD PTR _s$8[ebp]
  00483	51		 push	 ecx
  00484	8d 8d b8 fe ff
	ff		 lea	 ecx, DWORD PTR _icon$[ebp]
  0048a	ff 15 00 00 00
	00		 call	 DWORD PTR __imp_?getSize@Image@sf@@QBE?AV?$Vector2@I@2@XZ

; 14   :         window.setIcon(s.x, s.y, icon.getPixelsPtr());

  00490	8d 8d b8 fe ff
	ff		 lea	 ecx, DWORD PTR _icon$[ebp]
  00496	ff 15 00 00 00
	00		 call	 DWORD PTR __imp_?getPixelsPtr@Image@sf@@QBEPBEXZ
  0049c	50		 push	 eax
  0049d	8b 95 34 ff ff
	ff		 mov	 edx, DWORD PTR _s$8[ebp+4]
  004a3	52		 push	 edx
  004a4	8b 85 30 ff ff
	ff		 mov	 eax, DWORD PTR _s$8[ebp]
  004aa	50		 push	 eax
  004ab	8d 8d 30 fb ff
	ff		 lea	 ecx, DWORD PTR _window$[ebp]
  004b1	ff 15 00 00 00
	00		 call	 DWORD PTR __imp_?setIcon@Window@sf@@QAEXIIPBE@Z

; 15   :     }

  004b7	8d 8d 30 ff ff
	ff		 lea	 ecx, DWORD PTR _s$8[ebp]
  004bd	c1 e9 03	 shr	 ecx, 3
  004c0	c6 81 00 00 00
	30 f8		 mov	 BYTE PTR [ecx+805306368], 248 ; 000000f8H
$LN2@main:

; 16   :     RessourcePack RP;

  004c7	6a 30		 push	 48			; 00000030H
  004c9	8d 8d 60 fd ff
	ff		 lea	 ecx, DWORD PTR _RP$[ebp]
  004cf	e8 00 00 00 00	 call	 ?__autoclassinit2@RessourcePack@@QAEXI@Z
  004d4	8d 8d 60 fd ff
	ff		 lea	 ecx, DWORD PTR _RP$[ebp]
  004da	e8 00 00 00 00	 call	 ??0RessourcePack@@QAE@XZ ; RessourcePack::RessourcePack
  004df	c6 45 fc 07	 mov	 BYTE PTR __$EHRec$[ebp+8], 7

; 17   :     Univers Univ(&RP,&window);

  004e3	6a 28		 push	 40			; 00000028H
  004e5	8d 8d b0 fd ff
	ff		 lea	 ecx, DWORD PTR _Univ$[ebp]
  004eb	e8 00 00 00 00	 call	 ?__autoclassinit2@Univers@@QAEXI@Z
  004f0	8d 95 30 fb ff
	ff		 lea	 edx, DWORD PTR _window$[ebp]
  004f6	52		 push	 edx
  004f7	8d 85 60 fd ff
	ff		 lea	 eax, DWORD PTR _RP$[ebp]
  004fd	50		 push	 eax
  004fe	8d 8d b0 fd ff
	ff		 lea	 ecx, DWORD PTR _Univ$[ebp]
  00504	e8 00 00 00 00	 call	 ??0Univers@@QAE@PAVRessourcePack@@PAVRenderWindow@sf@@@Z ; Univers::Univers

; 18   :     if (argc > 0) {

  00509	83 7b 08 00	 cmp	 DWORD PTR _argc$[ebx], 0
  0050d	7e 7e		 jle	 SHORT $LN3@main

; 19   :         RP.setDefaultFolder(argv[0]);

  0050f	83 ec 1c	 sub	 esp, 28			; 0000001cH
  00512	8b cc		 mov	 ecx, esp
  00514	89 65 c4	 mov	 DWORD PTR $T11[ebp], esp
  00517	89 4d b4	 mov	 DWORD PTR tv173[ebp], ecx
  0051a	ba 04 00 00 00	 mov	 edx, 4
  0051f	6b c2 00	 imul	 eax, edx, 0
  00522	8b 4b 0c	 mov	 ecx, DWORD PTR _argv$[ebx]
  00525	03 c8		 add	 ecx, eax
  00527	89 4d 88	 mov	 DWORD PTR tv180[ebp], ecx
  0052a	8b 55 88	 mov	 edx, DWORD PTR tv180[ebp]
  0052d	89 95 68 ff ff
	ff		 mov	 DWORD PTR tv289[ebp], edx
  00533	8b 85 68 ff ff
	ff		 mov	 eax, DWORD PTR tv289[ebp]
  00539	c1 e8 03	 shr	 eax, 3
  0053c	8a 88 00 00 00
	30		 mov	 cl, BYTE PTR [eax+805306368]
  00542	88 8d 5e ff ff
	ff		 mov	 BYTE PTR tv292[ebp], cl
  00548	80 bd 5e ff ff
	ff 00		 cmp	 BYTE PTR tv292[ebp], 0
  0054f	74 23		 je	 SHORT $LN12@main
  00551	8a 95 68 ff ff
	ff		 mov	 dl, BYTE PTR tv289[ebp]
  00557	80 e2 07	 and	 dl, 7
  0055a	80 c2 03	 add	 dl, 3
  0055d	3a 95 5e ff ff
	ff		 cmp	 dl, BYTE PTR tv292[ebp]
  00563	7c 0f		 jl	 SHORT $LN12@main
  00565	8b 85 68 ff ff
	ff		 mov	 eax, DWORD PTR tv289[ebp]
  0056b	50		 push	 eax
  0056c	e8 00 00 00 00	 call	 ___asan_report_load4
  00571	83 c4 04	 add	 esp, 4
$LN12@main:
  00574	8b 4d 88	 mov	 ecx, DWORD PTR tv180[ebp]
  00577	8b 11		 mov	 edx, DWORD PTR [ecx]
  00579	52		 push	 edx
  0057a	8b 4d b4	 mov	 ecx, DWORD PTR tv173[ebp]
  0057d	e8 00 00 00 00	 call	 ??0?$basic_string@DU?$char_traits@D@std@@V?$allocator@D@2@@std@@QAE@QBD@Z ; std::basic_string<char,std::char_traits<char>,std::allocator<char> >::basic_string<char,std::char_traits<char>,std::allocator<char> >
  00582	8d 8d 60 fd ff
	ff		 lea	 ecx, DWORD PTR _RP$[ebp]
  00588	e8 00 00 00 00	 call	 ?setDefaultFolder@RessourcePack@@QAEXV?$basic_string@DU?$char_traits@D@std@@V?$allocator@D@2@@std@@@Z ; RessourcePack::setDefaultFolder
$LN3@main:

; 20   :     }
; 21   :     Univ.animate();

  0058d	8d 8d b0 fd ff
	ff		 lea	 ecx, DWORD PTR _Univ$[ebp]
  00593	e8 00 00 00 00	 call	 ?animate@Univers@@QAEXXZ ; Univers::animate

; 22   :     
; 23   :     return EXIT_SUCCESS;

  00598	c7 45 b8 00 00
	00 00		 mov	 DWORD PTR $T10[ebp], 0
  0059f	c6 45 fc 05	 mov	 BYTE PTR __$EHRec$[ebp+8], 5
  005a3	8d 8d 60 fd ff
	ff		 lea	 ecx, DWORD PTR _RP$[ebp]
  005a9	e8 00 00 00 00	 call	 ??1RessourcePack@@QAE@XZ ; RessourcePack::~RessourcePack
  005ae	c6 45 fc 04	 mov	 BYTE PTR __$EHRec$[ebp+8], 4
  005b2	8d 8d b8 fe ff
	ff		 lea	 ecx, DWORD PTR _icon$[ebp]
  005b8	ff 15 00 00 00
	00		 call	 DWORD PTR __imp_??1Image@sf@@QAE@XZ
  005be	c7 45 fc ff ff
	ff ff		 mov	 DWORD PTR __$EHRec$[ebp+8], -1
  005c5	8d 8d 30 fb ff
	ff		 lea	 ecx, DWORD PTR _window$[ebp]
  005cb	ff 15 00 00 00
	00		 call	 DWORD PTR __imp_??1RenderWindow@sf@@UAE@XZ
  005d1	8b 45 b8	 mov	 eax, DWORD PTR $T10[ebp]
  005d4	89 45 c0	 mov	 DWORD PTR tv65[ebp], eax
  005d7	c7 85 20 fb ff
	ff 0e 36 e0 45	 mov	 DWORD PTR __asan_gen_0$[ebp], 1172321806 ; 45e0360eH
  005e1	8d 8d 20 fb ff
	ff		 lea	 ecx, DWORD PTR __asan_gen_0$[ebp]
  005e7	c1 e9 03	 shr	 ecx, 3
  005ea	81 c1 00 00 00
	30		 add	 ecx, 805306368		; 30000000H
  005f0	89 4d bc	 mov	 DWORD PTR tv284[ebp], ecx
  005f3	68 87 00 00 00	 push	 135			; 00000087H
  005f8	8b 55 bc	 mov	 edx, DWORD PTR tv284[ebp]
  005fb	52		 push	 edx
  005fc	e8 00 00 00 00	 call	 ___asan_set_shadow_00
  00601	83 c4 08	 add	 esp, 8
  00604	8b 45 c0	 mov	 eax, DWORD PTR tv65[ebp]

; 24   : }

  00607	8b 4d f4	 mov	 ecx, DWORD PTR __$EHRec$[ebp]
  0060a	64 89 0d 00 00
	00 00		 mov	 DWORD PTR fs:0, ecx
  00611	59		 pop	 ecx
  00612	8b 4d dc	 mov	 ecx, DWORD PTR __$ArrayPad$[ebp]
  00615	33 cd		 xor	 ecx, ebp
  00617	e8 00 00 00 00	 call	 @__security_check_cookie@4
  0061c	8b e5		 mov	 esp, ebp
  0061e	5d		 pop	 ebp
  0061f	8b e3		 mov	 esp, ebx
  00621	5b		 pop	 ebx
  00622	c3		 ret	 0
_TEXT	ENDS
text$x	SEGMENT
__unwindfunclet$_main$0:
  00000	8d 8d 78 fe ff
	ff		 lea	 ecx, DWORD PTR $T5[ebp]
  00006	e9 00 00 00 00	 jmp	 ??1locale@std@@QAE@XZ	; std::locale::~locale
__unwindfunclet$_main$1:
  0000b	8d 8d 38 fe ff
	ff		 lea	 ecx, DWORD PTR $T4[ebp]
  00011	ff 25 00 00 00
	00		 jmp	 DWORD PTR __imp_??1String@sf@@QAE@XZ
__unwindfunclet$_main$2:
  00017	8d 8d 30 fb ff
	ff		 lea	 ecx, DWORD PTR _window$[ebp]
  0001d	ff 25 00 00 00
	00		 jmp	 DWORD PTR __imp_??1RenderWindow@sf@@UAE@XZ
__unwindfunclet$_main$3:
  00023	8d 8d b8 fe ff
	ff		 lea	 ecx, DWORD PTR _icon$[ebp]
  00029	ff 25 00 00 00
	00		 jmp	 DWORD PTR __imp_??1Image@sf@@QAE@XZ
__unwindfunclet$_main$4:
  0002f	8d 8d f0 fe ff
	ff		 lea	 ecx, DWORD PTR $T7[ebp]
  00035	e9 00 00 00 00	 jmp	 ??1?$basic_string@DU?$char_traits@D@std@@V?$allocator@D@2@@std@@QAE@XZ ; std::basic_string<char,std::char_traits<char>,std::allocator<char> >::~basic_string<char,std::char_traits<char>,std::allocator<char> >
__unwindfunclet$_main$5:
  0003a	8d 8d 60 fd ff
	ff		 lea	 ecx, DWORD PTR _RP$[ebp]
  00040	e9 00 00 00 00	 jmp	 ??1RessourcePack@@QAE@XZ ; RessourcePack::~RessourcePack
  00045	cc		 int	 3
  00046	cc		 int	 3
  00047	cc		 int	 3
  00048	cc		 int	 3
  00049	cc		 int	 3
__ehhandler$_main:
  0004a	90		 npad	 1
  0004b	90		 npad	 1
  0004c	8b 54 24 08	 mov	 edx, DWORD PTR [esp+8]
  00050	8d 42 0c	 lea	 eax, DWORD PTR [edx+12]
  00053	8b 8a 28 fb ff
	ff		 mov	 ecx, DWORD PTR [edx-1240]
  00059	33 c8		 xor	 ecx, eax
  0005b	e8 00 00 00 00	 call	 @__security_check_cookie@4
  00060	8b 4a e8	 mov	 ecx, DWORD PTR [edx-24]
  00063	33 c8		 xor	 ecx, eax
  00065	e8 00 00 00 00	 call	 @__security_check_cookie@4
  0006a	b8 00 00 00 00	 mov	 eax, OFFSET __ehfuncinfo$_main
  0006f	e9 00 00 00 00	 jmp	 ___CxxFrameHandler3
text$x	ENDS
_main	ENDP
; Function compile flags: /Odtp /RTCu
;	COMDAT ?__autoclassinit2@Univers@@QAEXI@Z
_TEXT	SEGMENT
_this$ = -4						; size = 4
_classSize$ = 8						; size = 4
?__autoclassinit2@Univers@@QAEXI@Z PROC			; Univers::__autoclassinit2, COMDAT
; _this$ = ecx
  00000	55		 push	 ebp
  00001	8b ec		 mov	 ebp, esp
  00003	51		 push	 ecx
  00004	89 4d fc	 mov	 DWORD PTR _this$[ebp], ecx
  00007	8b 45 08	 mov	 eax, DWORD PTR _classSize$[ebp]
  0000a	50		 push	 eax
  0000b	6a 00		 push	 0
  0000d	8b 4d fc	 mov	 ecx, DWORD PTR _this$[ebp]
  00010	51		 push	 ecx
  00011	e8 00 00 00 00	 call	 ___asan_memset
  00016	83 c4 0c	 add	 esp, 12			; 0000000cH
  00019	8b e5		 mov	 esp, ebp
  0001b	5d		 pop	 ebp
  0001c	c2 04 00	 ret	 4
?__autoclassinit2@Univers@@QAEXI@Z ENDP			; Univers::__autoclassinit2
_TEXT	ENDS
; Function compile flags: /Odtp /RTCu
;	COMDAT ??__Flevel1@@YAXXZ
text$yd	SEGMENT
??__Flevel1@@YAXXZ PROC					; `dynamic atexit destructor for 'level1'', COMDAT
  00000	55		 push	 ebp
  00001	8b ec		 mov	 ebp, esp
  00003	b9 00 00 00 00	 mov	 ecx, OFFSET ?level1@@3V?$vector@V?$vector@HV?$allocator@H@std@@@std@@V?$allocator@V?$vector@HV?$allocator@H@std@@@std@@@2@@std@@A ; level1
  00008	e8 00 00 00 00	 call	 ??1?$vector@V?$vector@HV?$allocator@H@std@@@std@@V?$allocator@V?$vector@HV?$allocator@H@std@@@std@@@2@@std@@QAE@XZ ; std::vector<std::vector<int,std::allocator<int> >,std::allocator<std::vector<int,std::allocator<int> > > >::~vector<std::vector<int,std::allocator<int> >,std::allocator<std::vector<int,std::allocator<int> > > >
  0000d	5d		 pop	 ebp
  0000e	c3		 ret	 0
??__Flevel1@@YAXXZ ENDP					; `dynamic atexit destructor for 'level1''
text$yd	ENDS
; Function compile flags: /Odtp /RTCu
; File C:\Users\theob\Documents\GitHub\as-pts1\rendu2\Levels.h
;	COMDAT ??__Elevel1@@YAXXZ
text$di	SEGMENT
__asan_gen_0$ = -2248					; size = 4
__asan_gen_1$ = -2244					; size = 4
__asan_gen_2$ = -2240					; size = 4
$T3 = -2232						; size = 224
$T4 = -1976						; size = 36
$T5 = -1904						; size = 36
$T6 = -1832						; size = 36
$T7 = -1760						; size = 36
$T8 = -1688						; size = 36
$T9 = -1616						; size = 36
$T10 = -1544						; size = 36
$T11 = -1472						; size = 36
$T12 = -1400						; size = 36
$T13 = -1328						; size = 36
$T14 = -1256						; size = 36
$T15 = -1184						; size = 36
$T16 = -1112						; size = 36
$T17 = -1040						; size = 36
$T18 = -968						; size = 1
$T19 = -952						; size = 1
$T20 = -936						; size = 8
$T21 = -920						; size = 1
$T22 = -904						; size = 8
$T23 = -888						; size = 1
$T24 = -872						; size = 8
$T25 = -856						; size = 1
$T26 = -840						; size = 8
$T27 = -824						; size = 1
$T28 = -808						; size = 8
$T29 = -792						; size = 1
$T30 = -776						; size = 8
$T31 = -760						; size = 1
$T32 = -744						; size = 8
$T33 = -728						; size = 1
$T34 = -712						; size = 8
$T35 = -696						; size = 1
$T36 = -680						; size = 8
$T37 = -664						; size = 1
$T38 = -648						; size = 8
$T39 = -632						; size = 1
$T40 = -616						; size = 8
$T41 = -600						; size = 1
$T42 = -584						; size = 8
$T43 = -568						; size = 1
$T44 = -552						; size = 8
$T45 = -536						; size = 1
$T46 = -520						; size = 8
$T47 = -504						; size = 8
tv1007 = -460						; size = 4
tv918 = -456						; size = 4
tv924 = -452						; size = 4
tv930 = -448						; size = 4
tv936 = -444						; size = 4
tv942 = -440						; size = 4
tv948 = -436						; size = 4
tv954 = -432						; size = 4
tv960 = -428						; size = 4
tv966 = -424						; size = 4
tv972 = -420						; size = 4
tv978 = -416						; size = 4
tv984 = -412						; size = 4
tv990 = -408						; size = 4
tv996 = -404						; size = 4
tv1002 = -400						; size = 4
tv919 = -396						; size = 4
tv1185 = -392						; size = 4
tv1172 = -388						; size = 4
tv1159 = -384						; size = 4
tv1146 = -380						; size = 4
tv1133 = -376						; size = 4
tv1120 = -372						; size = 4
tv1107 = -368						; size = 4
tv1094 = -364						; size = 4
tv1081 = -360						; size = 4
tv1068 = -356						; size = 4
tv1055 = -352						; size = 4
tv1042 = -348						; size = 4
tv1029 = -344						; size = 4
tv1016 = -340						; size = 4
tv916 = -336						; size = 4
tv923 = -332						; size = 4
tv928 = -328						; size = 4
tv929 = -324						; size = 4
tv934 = -320						; size = 4
tv935 = -316						; size = 4
tv940 = -312						; size = 4
tv941 = -308						; size = 4
tv946 = -304						; size = 4
tv947 = -300						; size = 4
tv952 = -296						; size = 4
tv953 = -292						; size = 4
tv958 = -288						; size = 4
tv959 = -284						; size = 4
tv964 = -280						; size = 4
tv965 = -276						; size = 4
tv970 = -272						; size = 4
tv971 = -268						; size = 4
tv976 = -264						; size = 4
tv977 = -260						; size = 4
tv982 = -256						; size = 4
tv983 = -252						; size = 4
tv988 = -248						; size = 4
tv989 = -244						; size = 4
tv994 = -240						; size = 4
tv995 = -236						; size = 4
tv1000 = -232						; size = 4
tv1001 = -228						; size = 4
tv1006 = -224						; size = 4
tv84 = -220						; size = 4
tv164 = -216						; size = 4
tv179 = -212						; size = 4
tv226 = -208						; size = 4
tv241 = -204						; size = 4
tv320 = -200						; size = 4
tv335 = -196						; size = 4
tv350 = -192						; size = 4
tv397 = -188						; size = 4
tv412 = -184						; size = 4
tv459 = -180						; size = 4
tv474 = -176						; size = 4
tv553 = -172						; size = 4
tv568 = -168						; size = 4
tv612 = -164						; size = 4
tv1195 = -160						; size = 4
tv1204 = -156						; size = 4
$T48 = -152						; size = 8
$T49 = -144						; size = 8
$T50 = -136						; size = 8
$T51 = -128						; size = 8
$T52 = -120						; size = 8
$T53 = -112						; size = 8
$T54 = -104						; size = 8
$T55 = -96						; size = 8
$T56 = -88						; size = 8
$T57 = -80						; size = 8
$T58 = -72						; size = 8
$T59 = -64						; size = 8
$T60 = -56						; size = 8
$T61 = -48						; size = 8
$T62 = -40						; size = 8
__$EHRec$ = -12						; size = 12
??__Elevel1@@YAXXZ PROC					; `dynamic initializer for 'level1'', COMDAT

; 19   : };

  00000	53		 push	 ebx
  00001	8b dc		 mov	 ebx, esp
  00003	83 ec 08	 sub	 esp, 8
  00006	83 e4 e0	 and	 esp, -32		; ffffffe0H
  00009	83 c4 04	 add	 esp, 4
  0000c	55		 push	 ebp
  0000d	8b 6b 04	 mov	 ebp, DWORD PTR [ebx+4]
  00010	89 6c 24 04	 mov	 DWORD PTR [esp+4], ebp
  00014	8b ec		 mov	 ebp, esp
  00016	6a ff		 push	 -1
  00018	68 00 00 00 00	 push	 __ehhandler$??__Elevel1@@YAXXZ
  0001d	64 a1 00 00 00
	00		 mov	 eax, DWORD PTR fs:0
  00023	50		 push	 eax
  00024	53		 push	 ebx
  00025	81 c4 30 f7 ff
	ff		 add	 esp, -2256		; fffff730H
  0002b	a1 00 00 00 00	 mov	 eax, DWORD PTR ___security_cookie
  00030	33 c5		 xor	 eax, ebp
  00032	50		 push	 eax
  00033	8d 45 f4	 lea	 eax, DWORD PTR __$EHRec$[ebp]
  00036	64 a3 00 00 00
	00		 mov	 DWORD PTR fs:0, eax
  0003c	c7 85 38 f7 ff
	ff b3 8a b5 41	 mov	 DWORD PTR __asan_gen_0$[ebp], 1102416563 ; 41b58ab3H
  00046	c7 85 3c f7 ff
	ff 00 00 00 00	 mov	 DWORD PTR __asan_gen_1$[ebp], OFFSET __L__asan_gen_.??__Elevel1@@YAXXZ
  00050	c7 85 40 f7 ff
	ff 00 00 00 00	 mov	 DWORD PTR __asan_gen_2$[ebp], OFFSET ??__Elevel1@@YAXXZ ; `dynamic initializer for 'level1''
  0005a	8d 85 38 f7 ff
	ff		 lea	 eax, DWORD PTR __asan_gen_0$[ebp]
  00060	89 85 b0 fe ff
	ff		 mov	 DWORD PTR tv916[ebp], eax
  00066	8b 8d b0 fe ff
	ff		 mov	 ecx, DWORD PTR tv916[ebp]
  0006c	c1 e9 03	 shr	 ecx, 3
  0006f	81 c1 00 00 00
	30		 add	 ecx, 805306368		; 30000000H
  00075	89 8d 38 fe ff
	ff		 mov	 DWORD PTR tv918[ebp], ecx
  0007b	ba f1 f1 00 00	 mov	 edx, 61937		; 0000f1f1H
  00080	8b 85 38 fe ff
	ff		 mov	 eax, DWORD PTR tv918[ebp]
  00086	66 89 10	 mov	 WORD PTR [eax], dx
  00089	8b 8d 38 fe ff
	ff		 mov	 ecx, DWORD PTR tv918[ebp]
  0008f	83 c1 02	 add	 ecx, 2
  00092	89 8d 74 fe ff
	ff		 mov	 DWORD PTR tv919[ebp], ecx
  00098	6a 1c		 push	 28			; 0000001cH
  0009a	8b 95 74 fe ff
	ff		 mov	 edx, DWORD PTR tv919[ebp]
  000a0	52		 push	 edx
  000a1	e8 00 00 00 00	 call	 ___asan_set_shadow_00
  000a6	83 c4 08	 add	 esp, 8
  000a9	8b 85 74 fe ff
	ff		 mov	 eax, DWORD PTR tv919[ebp]
  000af	83 c0 1c	 add	 eax, 28			; 0000001cH
  000b2	89 85 b4 fe ff
	ff		 mov	 DWORD PTR tv923[ebp], eax
  000b8	8b 8d b4 fe ff
	ff		 mov	 ecx, DWORD PTR tv923[ebp]
  000be	c7 01 f2 f2 f2
	f2		 mov	 DWORD PTR [ecx], -218959118 ; f2f2f2f2H
  000c4	8b 95 38 fe ff
	ff		 mov	 edx, DWORD PTR tv918[ebp]
  000ca	83 c2 22	 add	 edx, 34			; 00000022H
  000cd	89 95 3c fe ff
	ff		 mov	 DWORD PTR tv924[ebp], edx
  000d3	6a 04		 push	 4
  000d5	8b 85 3c fe ff
	ff		 mov	 eax, DWORD PTR tv924[ebp]
  000db	50		 push	 eax
  000dc	e8 00 00 00 00	 call	 ___asan_set_shadow_00
  000e1	83 c4 08	 add	 esp, 8
  000e4	8b 8d 3c fe ff
	ff		 mov	 ecx, DWORD PTR tv924[ebp]
  000ea	83 c1 04	 add	 ecx, 4
  000ed	89 8d b8 fe ff
	ff		 mov	 DWORD PTR tv928[ebp], ecx
  000f3	8b 95 b8 fe ff
	ff		 mov	 edx, DWORD PTR tv928[ebp]
  000f9	c6 02 04	 mov	 BYTE PTR [edx], 4
  000fc	8b 85 3c fe ff
	ff		 mov	 eax, DWORD PTR tv924[ebp]
  00102	83 c0 05	 add	 eax, 5
  00105	89 85 bc fe ff
	ff		 mov	 DWORD PTR tv929[ebp], eax
  0010b	8b 8d bc fe ff
	ff		 mov	 ecx, DWORD PTR tv929[ebp]
  00111	c7 01 f2 f2 f2
	f2		 mov	 DWORD PTR [ecx], -218959118 ; f2f2f2f2H
  00117	8b 95 38 fe ff
	ff		 mov	 edx, DWORD PTR tv918[ebp]
  0011d	83 c2 2b	 add	 edx, 43			; 0000002bH
  00120	89 95 40 fe ff
	ff		 mov	 DWORD PTR tv930[ebp], edx
  00126	6a 04		 push	 4
  00128	8b 85 40 fe ff
	ff		 mov	 eax, DWORD PTR tv930[ebp]
  0012e	50		 push	 eax
  0012f	e8 00 00 00 00	 call	 ___asan_set_shadow_00
  00134	83 c4 08	 add	 esp, 8
  00137	8b 8d 40 fe ff
	ff		 mov	 ecx, DWORD PTR tv930[ebp]
  0013d	83 c1 04	 add	 ecx, 4
  00140	89 8d c0 fe ff
	ff		 mov	 DWORD PTR tv934[ebp], ecx
  00146	8b 95 c0 fe ff
	ff		 mov	 edx, DWORD PTR tv934[ebp]
  0014c	c6 02 04	 mov	 BYTE PTR [edx], 4
  0014f	8b 85 40 fe ff
	ff		 mov	 eax, DWORD PTR tv930[ebp]
  00155	83 c0 05	 add	 eax, 5
  00158	89 85 c4 fe ff
	ff		 mov	 DWORD PTR tv935[ebp], eax
  0015e	8b 8d c4 fe ff
	ff		 mov	 ecx, DWORD PTR tv935[ebp]
  00164	c7 01 f2 f2 f2
	f2		 mov	 DWORD PTR [ecx], -218959118 ; f2f2f2f2H
  0016a	8b 95 38 fe ff
	ff		 mov	 edx, DWORD PTR tv918[ebp]
  00170	83 c2 34	 add	 edx, 52			; 00000034H
  00173	89 95 44 fe ff
	ff		 mov	 DWORD PTR tv936[ebp], edx
  00179	6a 04		 push	 4
  0017b	8b 85 44 fe ff
	ff		 mov	 eax, DWORD PTR tv936[ebp]
  00181	50		 push	 eax
  00182	e8 00 00 00 00	 call	 ___asan_set_shadow_00
  00187	83 c4 08	 add	 esp, 8
  0018a	8b 8d 44 fe ff
	ff		 mov	 ecx, DWORD PTR tv936[ebp]
  00190	83 c1 04	 add	 ecx, 4
  00193	89 8d c8 fe ff
	ff		 mov	 DWORD PTR tv940[ebp], ecx
  00199	8b 95 c8 fe ff
	ff		 mov	 edx, DWORD PTR tv940[ebp]
  0019f	c6 02 04	 mov	 BYTE PTR [edx], 4
  001a2	8b 85 44 fe ff
	ff		 mov	 eax, DWORD PTR tv936[ebp]
  001a8	83 c0 05	 add	 eax, 5
  001ab	89 85 cc fe ff
	ff		 mov	 DWORD PTR tv941[ebp], eax
  001b1	8b 8d cc fe ff
	ff		 mov	 ecx, DWORD PTR tv941[ebp]
  001b7	c7 01 f2 f2 f2
	f2		 mov	 DWORD PTR [ecx], -218959118 ; f2f2f2f2H
  001bd	8b 95 38 fe ff
	ff		 mov	 edx, DWORD PTR tv918[ebp]
  001c3	83 c2 3d	 add	 edx, 61			; 0000003dH
  001c6	89 95 48 fe ff
	ff		 mov	 DWORD PTR tv942[ebp], edx
  001cc	6a 04		 push	 4
  001ce	8b 85 48 fe ff
	ff		 mov	 eax, DWORD PTR tv942[ebp]
  001d4	50		 push	 eax
  001d5	e8 00 00 00 00	 call	 ___asan_set_shadow_00
  001da	83 c4 08	 add	 esp, 8
  001dd	8b 8d 48 fe ff
	ff		 mov	 ecx, DWORD PTR tv942[ebp]
  001e3	83 c1 04	 add	 ecx, 4
  001e6	89 8d d0 fe ff
	ff		 mov	 DWORD PTR tv946[ebp], ecx
  001ec	8b 95 d0 fe ff
	ff		 mov	 edx, DWORD PTR tv946[ebp]
  001f2	c6 02 04	 mov	 BYTE PTR [edx], 4
  001f5	8b 85 48 fe ff
	ff		 mov	 eax, DWORD PTR tv942[ebp]
  001fb	83 c0 05	 add	 eax, 5
  001fe	89 85 d4 fe ff
	ff		 mov	 DWORD PTR tv947[ebp], eax
  00204	8b 8d d4 fe ff
	ff		 mov	 ecx, DWORD PTR tv947[ebp]
  0020a	c7 01 f2 f2 f2
	f2		 mov	 DWORD PTR [ecx], -218959118 ; f2f2f2f2H
  00210	8b 95 38 fe ff
	ff		 mov	 edx, DWORD PTR tv918[ebp]
  00216	83 c2 46	 add	 edx, 70			; 00000046H
  00219	89 95 4c fe ff
	ff		 mov	 DWORD PTR tv948[ebp], edx
  0021f	6a 04		 push	 4
  00221	8b 85 4c fe ff
	ff		 mov	 eax, DWORD PTR tv948[ebp]
  00227	50		 push	 eax
  00228	e8 00 00 00 00	 call	 ___asan_set_shadow_00
  0022d	83 c4 08	 add	 esp, 8
  00230	8b 8d 4c fe ff
	ff		 mov	 ecx, DWORD PTR tv948[ebp]
  00236	83 c1 04	 add	 ecx, 4
  00239	89 8d d8 fe ff
	ff		 mov	 DWORD PTR tv952[ebp], ecx
  0023f	8b 95 d8 fe ff
	ff		 mov	 edx, DWORD PTR tv952[ebp]
  00245	c6 02 04	 mov	 BYTE PTR [edx], 4
  00248	8b 85 4c fe ff
	ff		 mov	 eax, DWORD PTR tv948[ebp]
  0024e	83 c0 05	 add	 eax, 5
  00251	89 85 dc fe ff
	ff		 mov	 DWORD PTR tv953[ebp], eax
  00257	8b 8d dc fe ff
	ff		 mov	 ecx, DWORD PTR tv953[ebp]
  0025d	c7 01 f2 f2 f2
	f2		 mov	 DWORD PTR [ecx], -218959118 ; f2f2f2f2H
  00263	8b 95 38 fe ff
	ff		 mov	 edx, DWORD PTR tv918[ebp]
  00269	83 c2 4f	 add	 edx, 79			; 0000004fH
  0026c	89 95 50 fe ff
	ff		 mov	 DWORD PTR tv954[ebp], edx
  00272	6a 04		 push	 4
  00274	8b 85 50 fe ff
	ff		 mov	 eax, DWORD PTR tv954[ebp]
  0027a	50		 push	 eax
  0027b	e8 00 00 00 00	 call	 ___asan_set_shadow_00
  00280	83 c4 08	 add	 esp, 8
  00283	8b 8d 50 fe ff
	ff		 mov	 ecx, DWORD PTR tv954[ebp]
  00289	83 c1 04	 add	 ecx, 4
  0028c	89 8d e0 fe ff
	ff		 mov	 DWORD PTR tv958[ebp], ecx
  00292	8b 95 e0 fe ff
	ff		 mov	 edx, DWORD PTR tv958[ebp]
  00298	c6 02 04	 mov	 BYTE PTR [edx], 4
  0029b	8b 85 50 fe ff
	ff		 mov	 eax, DWORD PTR tv954[ebp]
  002a1	83 c0 05	 add	 eax, 5
  002a4	89 85 e4 fe ff
	ff		 mov	 DWORD PTR tv959[ebp], eax
  002aa	8b 8d e4 fe ff
	ff		 mov	 ecx, DWORD PTR tv959[ebp]
  002b0	c7 01 f2 f2 f2
	f2		 mov	 DWORD PTR [ecx], -218959118 ; f2f2f2f2H
  002b6	8b 95 38 fe ff
	ff		 mov	 edx, DWORD PTR tv918[ebp]
  002bc	83 c2 58	 add	 edx, 88			; 00000058H
  002bf	89 95 54 fe ff
	ff		 mov	 DWORD PTR tv960[ebp], edx
  002c5	6a 04		 push	 4
  002c7	8b 85 54 fe ff
	ff		 mov	 eax, DWORD PTR tv960[ebp]
  002cd	50		 push	 eax
  002ce	e8 00 00 00 00	 call	 ___asan_set_shadow_00
  002d3	83 c4 08	 add	 esp, 8
  002d6	8b 8d 54 fe ff
	ff		 mov	 ecx, DWORD PTR tv960[ebp]
  002dc	83 c1 04	 add	 ecx, 4
  002df	89 8d e8 fe ff
	ff		 mov	 DWORD PTR tv964[ebp], ecx
  002e5	8b 95 e8 fe ff
	ff		 mov	 edx, DWORD PTR tv964[ebp]
  002eb	c6 02 04	 mov	 BYTE PTR [edx], 4
  002ee	8b 85 54 fe ff
	ff		 mov	 eax, DWORD PTR tv960[ebp]
  002f4	83 c0 05	 add	 eax, 5
  002f7	89 85 ec fe ff
	ff		 mov	 DWORD PTR tv965[ebp], eax
  002fd	8b 8d ec fe ff
	ff		 mov	 ecx, DWORD PTR tv965[ebp]
  00303	c7 01 f2 f2 f2
	f2		 mov	 DWORD PTR [ecx], -218959118 ; f2f2f2f2H
  00309	8b 95 38 fe ff
	ff		 mov	 edx, DWORD PTR tv918[ebp]
  0030f	83 c2 61	 add	 edx, 97			; 00000061H
  00312	89 95 58 fe ff
	ff		 mov	 DWORD PTR tv966[ebp], edx
  00318	6a 04		 push	 4
  0031a	8b 85 58 fe ff
	ff		 mov	 eax, DWORD PTR tv966[ebp]
  00320	50		 push	 eax
  00321	e8 00 00 00 00	 call	 ___asan_set_shadow_00
  00326	83 c4 08	 add	 esp, 8
  00329	8b 8d 58 fe ff
	ff		 mov	 ecx, DWORD PTR tv966[ebp]
  0032f	83 c1 04	 add	 ecx, 4
  00332	89 8d f0 fe ff
	ff		 mov	 DWORD PTR tv970[ebp], ecx
  00338	8b 95 f0 fe ff
	ff		 mov	 edx, DWORD PTR tv970[ebp]
  0033e	c6 02 04	 mov	 BYTE PTR [edx], 4
  00341	8b 85 58 fe ff
	ff		 mov	 eax, DWORD PTR tv966[ebp]
  00347	83 c0 05	 add	 eax, 5
  0034a	89 85 f4 fe ff
	ff		 mov	 DWORD PTR tv971[ebp], eax
  00350	8b 8d f4 fe ff
	ff		 mov	 ecx, DWORD PTR tv971[ebp]
  00356	c7 01 f2 f2 f2
	f2		 mov	 DWORD PTR [ecx], -218959118 ; f2f2f2f2H
  0035c	8b 95 38 fe ff
	ff		 mov	 edx, DWORD PTR tv918[ebp]
  00362	83 c2 6a	 add	 edx, 106		; 0000006aH
  00365	89 95 5c fe ff
	ff		 mov	 DWORD PTR tv972[ebp], edx
  0036b	6a 04		 push	 4
  0036d	8b 85 5c fe ff
	ff		 mov	 eax, DWORD PTR tv972[ebp]
  00373	50		 push	 eax
  00374	e8 00 00 00 00	 call	 ___asan_set_shadow_00
  00379	83 c4 08	 add	 esp, 8
  0037c	8b 8d 5c fe ff
	ff		 mov	 ecx, DWORD PTR tv972[ebp]
  00382	83 c1 04	 add	 ecx, 4
  00385	89 8d f8 fe ff
	ff		 mov	 DWORD PTR tv976[ebp], ecx
  0038b	8b 95 f8 fe ff
	ff		 mov	 edx, DWORD PTR tv976[ebp]
  00391	c6 02 04	 mov	 BYTE PTR [edx], 4
  00394	8b 85 5c fe ff
	ff		 mov	 eax, DWORD PTR tv972[ebp]
  0039a	83 c0 05	 add	 eax, 5
  0039d	89 85 fc fe ff
	ff		 mov	 DWORD PTR tv977[ebp], eax
  003a3	8b 8d fc fe ff
	ff		 mov	 ecx, DWORD PTR tv977[ebp]
  003a9	c7 01 f2 f2 f2
	f2		 mov	 DWORD PTR [ecx], -218959118 ; f2f2f2f2H
  003af	8b 95 38 fe ff
	ff		 mov	 edx, DWORD PTR tv918[ebp]
  003b5	83 c2 73	 add	 edx, 115		; 00000073H
  003b8	89 95 60 fe ff
	ff		 mov	 DWORD PTR tv978[ebp], edx
  003be	6a 04		 push	 4
  003c0	8b 85 60 fe ff
	ff		 mov	 eax, DWORD PTR tv978[ebp]
  003c6	50		 push	 eax
  003c7	e8 00 00 00 00	 call	 ___asan_set_shadow_00
  003cc	83 c4 08	 add	 esp, 8
  003cf	8b 8d 60 fe ff
	ff		 mov	 ecx, DWORD PTR tv978[ebp]
  003d5	83 c1 04	 add	 ecx, 4
  003d8	89 8d 00 ff ff
	ff		 mov	 DWORD PTR tv982[ebp], ecx
  003de	8b 95 00 ff ff
	ff		 mov	 edx, DWORD PTR tv982[ebp]
  003e4	c6 02 04	 mov	 BYTE PTR [edx], 4
  003e7	8b 85 60 fe ff
	ff		 mov	 eax, DWORD PTR tv978[ebp]
  003ed	83 c0 05	 add	 eax, 5
  003f0	89 85 04 ff ff
	ff		 mov	 DWORD PTR tv983[ebp], eax
  003f6	8b 8d 04 ff ff
	ff		 mov	 ecx, DWORD PTR tv983[ebp]
  003fc	c7 01 f2 f2 f2
	f2		 mov	 DWORD PTR [ecx], -218959118 ; f2f2f2f2H
  00402	8b 95 38 fe ff
	ff		 mov	 edx, DWORD PTR tv918[ebp]
  00408	83 c2 7c	 add	 edx, 124		; 0000007cH
  0040b	89 95 64 fe ff
	ff		 mov	 DWORD PTR tv984[ebp], edx
  00411	6a 04		 push	 4
  00413	8b 85 64 fe ff
	ff		 mov	 eax, DWORD PTR tv984[ebp]
  00419	50		 push	 eax
  0041a	e8 00 00 00 00	 call	 ___asan_set_shadow_00
  0041f	83 c4 08	 add	 esp, 8
  00422	8b 8d 64 fe ff
	ff		 mov	 ecx, DWORD PTR tv984[ebp]
  00428	83 c1 04	 add	 ecx, 4
  0042b	89 8d 08 ff ff
	ff		 mov	 DWORD PTR tv988[ebp], ecx
  00431	8b 95 08 ff ff
	ff		 mov	 edx, DWORD PTR tv988[ebp]
  00437	c6 02 04	 mov	 BYTE PTR [edx], 4
  0043a	8b 85 64 fe ff
	ff		 mov	 eax, DWORD PTR tv984[ebp]
  00440	83 c0 05	 add	 eax, 5
  00443	89 85 0c ff ff
	ff		 mov	 DWORD PTR tv989[ebp], eax
  00449	8b 8d 0c ff ff
	ff		 mov	 ecx, DWORD PTR tv989[ebp]
  0044f	c7 01 f2 f2 f2
	f2		 mov	 DWORD PTR [ecx], -218959118 ; f2f2f2f2H
  00455	8b 95 38 fe ff
	ff		 mov	 edx, DWORD PTR tv918[ebp]
  0045b	81 c2 85 00 00
	00		 add	 edx, 133		; 00000085H
  00461	89 95 68 fe ff
	ff		 mov	 DWORD PTR tv990[ebp], edx
  00467	6a 04		 push	 4
  00469	8b 85 68 fe ff
	ff		 mov	 eax, DWORD PTR tv990[ebp]
  0046f	50		 push	 eax
  00470	e8 00 00 00 00	 call	 ___asan_set_shadow_00
  00475	83 c4 08	 add	 esp, 8
  00478	8b 8d 68 fe ff
	ff		 mov	 ecx, DWORD PTR tv990[ebp]
  0047e	83 c1 04	 add	 ecx, 4
  00481	89 8d 10 ff ff
	ff		 mov	 DWORD PTR tv994[ebp], ecx
  00487	8b 95 10 ff ff
	ff		 mov	 edx, DWORD PTR tv994[ebp]
  0048d	c6 02 04	 mov	 BYTE PTR [edx], 4
  00490	8b 85 68 fe ff
	ff		 mov	 eax, DWORD PTR tv990[ebp]
  00496	83 c0 05	 add	 eax, 5
  00499	89 85 14 ff ff
	ff		 mov	 DWORD PTR tv995[ebp], eax
  0049f	8b 8d 14 ff ff
	ff		 mov	 ecx, DWORD PTR tv995[ebp]
  004a5	c7 01 f2 f2 f2
	f2		 mov	 DWORD PTR [ecx], -218959118 ; f2f2f2f2H
  004ab	8b 95 38 fe ff
	ff		 mov	 edx, DWORD PTR tv918[ebp]
  004b1	81 c2 8e 00 00
	00		 add	 edx, 142		; 0000008eH
  004b7	89 95 6c fe ff
	ff		 mov	 DWORD PTR tv996[ebp], edx
  004bd	6a 04		 push	 4
  004bf	8b 85 6c fe ff
	ff		 mov	 eax, DWORD PTR tv996[ebp]
  004c5	50		 push	 eax
  004c6	e8 00 00 00 00	 call	 ___asan_set_shadow_00
  004cb	83 c4 08	 add	 esp, 8
  004ce	8b 8d 6c fe ff
	ff		 mov	 ecx, DWORD PTR tv996[ebp]
  004d4	83 c1 04	 add	 ecx, 4
  004d7	89 8d 18 ff ff
	ff		 mov	 DWORD PTR tv1000[ebp], ecx
  004dd	8b 95 18 ff ff
	ff		 mov	 edx, DWORD PTR tv1000[ebp]
  004e3	c6 02 04	 mov	 BYTE PTR [edx], 4
  004e6	8b 85 6c fe ff
	ff		 mov	 eax, DWORD PTR tv996[ebp]
  004ec	83 c0 05	 add	 eax, 5
  004ef	89 85 1c ff ff
	ff		 mov	 DWORD PTR tv1001[ebp], eax
  004f5	8b 8d 1c ff ff
	ff		 mov	 ecx, DWORD PTR tv1001[ebp]
  004fb	c7 01 f2 f2 f2
	f2		 mov	 DWORD PTR [ecx], -218959118 ; f2f2f2f2H
  00501	8b 95 38 fe ff
	ff		 mov	 edx, DWORD PTR tv918[ebp]
  00507	81 c2 97 00 00
	00		 add	 edx, 151		; 00000097H
  0050d	89 95 70 fe ff
	ff		 mov	 DWORD PTR tv1002[ebp], edx
  00513	6a 04		 push	 4
  00515	8b 85 70 fe ff
	ff		 mov	 eax, DWORD PTR tv1002[ebp]
  0051b	50		 push	 eax
  0051c	e8 00 00 00 00	 call	 ___asan_set_shadow_00
  00521	83 c4 08	 add	 esp, 8
  00524	8b 8d 70 fe ff
	ff		 mov	 ecx, DWORD PTR tv1002[ebp]
  0052a	83 c1 04	 add	 ecx, 4
  0052d	89 8d 20 ff ff
	ff		 mov	 DWORD PTR tv1006[ebp], ecx
  00533	8b 95 20 ff ff
	ff		 mov	 edx, DWORD PTR tv1006[ebp]
  00539	c6 02 04	 mov	 BYTE PTR [edx], 4
  0053c	8b 85 70 fe ff
	ff		 mov	 eax, DWORD PTR tv1002[ebp]
  00542	83 c0 05	 add	 eax, 5
  00545	89 85 34 fe ff
	ff		 mov	 DWORD PTR tv1007[ebp], eax
  0054b	8b 8d 34 fe ff
	ff		 mov	 ecx, DWORD PTR tv1007[ebp]
  00551	c7 01 f2 f2 f2
	f2		 mov	 DWORD PTR [ecx], -218959118 ; f2f2f2f2H
  00557	83 85 34 fe ff
	ff 04		 add	 DWORD PTR tv1007[ebp], 4
  0055e	8b 95 34 fe ff
	ff		 mov	 edx, DWORD PTR tv1007[ebp]
  00564	c7 02 01 f2 01
	f2		 mov	 DWORD PTR [edx], -234753535 ; f201f201H
  0056a	83 85 34 fe ff
	ff 04		 add	 DWORD PTR tv1007[ebp], 4
  00571	8b 85 34 fe ff
	ff		 mov	 eax, DWORD PTR tv1007[ebp]
  00577	c7 00 00 f2 01
	f2		 mov	 DWORD PTR [eax], -234753536 ; f201f200H
  0057d	83 85 34 fe ff
	ff 04		 add	 DWORD PTR tv1007[ebp], 4
  00584	8b 8d 34 fe ff
	ff		 mov	 ecx, DWORD PTR tv1007[ebp]
  0058a	c7 01 00 f2 01
	f2		 mov	 DWORD PTR [ecx], -234753536 ; f201f200H
  00590	83 85 34 fe ff
	ff 04		 add	 DWORD PTR tv1007[ebp], 4
  00597	8b 95 34 fe ff
	ff		 mov	 edx, DWORD PTR tv1007[ebp]
  0059d	c7 02 00 f2 01
	f2		 mov	 DWORD PTR [edx], -234753536 ; f201f200H
  005a3	83 85 34 fe ff
	ff 04		 add	 DWORD PTR tv1007[ebp], 4
  005aa	8b 85 34 fe ff
	ff		 mov	 eax, DWORD PTR tv1007[ebp]
  005b0	c7 00 00 f2 01
	f2		 mov	 DWORD PTR [eax], -234753536 ; f201f200H
  005b6	83 85 34 fe ff
	ff 04		 add	 DWORD PTR tv1007[ebp], 4
  005bd	8b 8d 34 fe ff
	ff		 mov	 ecx, DWORD PTR tv1007[ebp]
  005c3	c7 01 00 f2 01
	f2		 mov	 DWORD PTR [ecx], -234753536 ; f201f200H
  005c9	83 85 34 fe ff
	ff 04		 add	 DWORD PTR tv1007[ebp], 4
  005d0	8b 95 34 fe ff
	ff		 mov	 edx, DWORD PTR tv1007[ebp]
  005d6	c7 02 00 f2 01
	f2		 mov	 DWORD PTR [edx], -234753536 ; f201f200H
  005dc	83 85 34 fe ff
	ff 04		 add	 DWORD PTR tv1007[ebp], 4
  005e3	8b 85 34 fe ff
	ff		 mov	 eax, DWORD PTR tv1007[ebp]
  005e9	c7 00 00 f2 01
	f2		 mov	 DWORD PTR [eax], -234753536 ; f201f200H
  005ef	83 85 34 fe ff
	ff 04		 add	 DWORD PTR tv1007[ebp], 4
  005f6	8b 8d 34 fe ff
	ff		 mov	 ecx, DWORD PTR tv1007[ebp]
  005fc	c7 01 00 f2 01
	f2		 mov	 DWORD PTR [ecx], -234753536 ; f201f200H
  00602	83 85 34 fe ff
	ff 04		 add	 DWORD PTR tv1007[ebp], 4
  00609	8b 95 34 fe ff
	ff		 mov	 edx, DWORD PTR tv1007[ebp]
  0060f	c7 02 00 f2 01
	f2		 mov	 DWORD PTR [edx], -234753536 ; f201f200H
  00615	83 85 34 fe ff
	ff 04		 add	 DWORD PTR tv1007[ebp], 4
  0061c	8b 85 34 fe ff
	ff		 mov	 eax, DWORD PTR tv1007[ebp]
  00622	c7 00 00 f2 01
	f2		 mov	 DWORD PTR [eax], -234753536 ; f201f200H
  00628	83 85 34 fe ff
	ff 04		 add	 DWORD PTR tv1007[ebp], 4
  0062f	8b 8d 34 fe ff
	ff		 mov	 ecx, DWORD PTR tv1007[ebp]
  00635	c7 01 00 f2 01
	f2		 mov	 DWORD PTR [ecx], -234753536 ; f201f200H
  0063b	83 85 34 fe ff
	ff 04		 add	 DWORD PTR tv1007[ebp], 4
  00642	8b 95 34 fe ff
	ff		 mov	 edx, DWORD PTR tv1007[ebp]
  00648	c7 02 00 f2 01
	f2		 mov	 DWORD PTR [edx], -234753536 ; f201f200H
  0064e	83 85 34 fe ff
	ff 04		 add	 DWORD PTR tv1007[ebp], 4
  00655	8b 85 34 fe ff
	ff		 mov	 eax, DWORD PTR tv1007[ebp]
  0065b	c7 00 00 f2 01
	f2		 mov	 DWORD PTR [eax], -234753536 ; f201f200H
  00661	83 85 34 fe ff
	ff 04		 add	 DWORD PTR tv1007[ebp], 4
  00668	8b 8d 34 fe ff
	ff		 mov	 ecx, DWORD PTR tv1007[ebp]
  0066e	c7 01 00 f2 00
	f3		 mov	 DWORD PTR [ecx], -218041856 ; f300f200H
  00674	83 85 34 fe ff
	ff 04		 add	 DWORD PTR tv1007[ebp], 4
  0067b	ba f3 f3 00 00	 mov	 edx, 62451		; 0000f3f3H
  00680	8b 85 34 fe ff
	ff		 mov	 eax, DWORD PTR tv1007[ebp]
  00686	66 89 10	 mov	 WORD PTR [eax], dx
  00689	83 85 34 fe ff
	ff 02		 add	 DWORD PTR tv1007[ebp], 2
  00690	8b 8d 34 fe ff
	ff		 mov	 ecx, DWORD PTR tv1007[ebp]
  00696	c6 01 f3	 mov	 BYTE PTR [ecx], 243	; 000000f3H
  00699	b9 00 00 00 00	 mov	 ecx, OFFSET __218DFE2C_Levels@h
  0069e	e8 00 00 00 00	 call	 @__CheckForDebuggerJustMyCode@4

; 4    : inline std::vector<std::vector<int>> level1 = {

  006a3	6a 10		 push	 16			; 00000010H
  006a5	b9 00 00 00 00	 mov	 ecx, OFFSET ?level1@@3V?$vector@V?$vector@HV?$allocator@H@std@@@std@@V?$allocator@V?$vector@HV?$allocator@H@std@@@std@@@2@@std@@A ; level1
  006aa	e8 00 00 00 00	 call	 ?__autoclassinit2@?$vector@V?$vector@HV?$allocator@H@std@@@std@@V?$allocator@V?$vector@HV?$allocator@H@std@@@std@@@2@@std@@QAEXI@Z
  006af	8d 8d 38 fc ff
	ff		 lea	 ecx, DWORD PTR $T18[ebp]
  006b5	e8 00 00 00 00	 call	 ??0?$allocator@V?$vector@HV?$allocator@H@std@@@std@@@std@@QAE@XZ ; std::allocator<std::vector<int,std::allocator<int> > >::allocator<std::vector<int,std::allocator<int> > >
  006ba	89 85 5c ff ff
	ff		 mov	 DWORD PTR tv612[ebp], eax
  006c0	8d 8d 48 fc ff
	ff		 lea	 ecx, DWORD PTR $T19[ebp]
  006c6	e8 00 00 00 00	 call	 ??0?$allocator@H@std@@QAE@XZ ; std::allocator<int>::allocator<int>
  006cb	89 85 24 ff ff
	ff		 mov	 DWORD PTR tv84[ebp], eax
  006d1	c7 85 48 f8 ff
	ff 00 00 00 00	 mov	 DWORD PTR $T4[ebp], 0
  006db	c7 85 4c f8 ff
	ff 00 00 00 00	 mov	 DWORD PTR $T4[ebp+4], 0
  006e5	c7 85 50 f8 ff
	ff 00 00 00 00	 mov	 DWORD PTR $T4[ebp+8], 0
  006ef	c7 85 54 f8 ff
	ff 00 00 00 00	 mov	 DWORD PTR $T4[ebp+12], 0
  006f9	c7 85 58 f8 ff
	ff 00 00 00 00	 mov	 DWORD PTR $T4[ebp+16], 0
  00703	c7 85 5c f8 ff
	ff 00 00 00 00	 mov	 DWORD PTR $T4[ebp+20], 0
  0070d	c7 85 60 f8 ff
	ff 00 00 00 00	 mov	 DWORD PTR $T4[ebp+24], 0
  00717	c7 85 64 f8 ff
	ff 00 00 00 00	 mov	 DWORD PTR $T4[ebp+28], 0
  00721	c7 85 68 f8 ff
	ff 00 00 00 00	 mov	 DWORD PTR $T4[ebp+32], 0
  0072b	8d 95 48 f8 ff
	ff		 lea	 edx, DWORD PTR $T4[ebp]
  00731	83 c2 24	 add	 edx, 36			; 00000024H
  00734	52		 push	 edx
  00735	8d 85 48 f8 ff
	ff		 lea	 eax, DWORD PTR $T4[ebp]
  0073b	50		 push	 eax
  0073c	8d 8d 58 fc ff
	ff		 lea	 ecx, DWORD PTR $T20[ebp]
  00742	e8 00 00 00 00	 call	 ??0?$initializer_list@H@std@@QAE@PBH0@Z ; std::initializer_list<int>::initializer_list<int>
  00747	6a 08		 push	 8
  00749	50		 push	 eax
  0074a	8d 8d 68 ff ff
	ff		 lea	 ecx, DWORD PTR $T48[ebp]
  00750	51		 push	 ecx
  00751	e8 00 00 00 00	 call	 ___asan_memcpy
  00756	83 c4 0c	 add	 esp, 12			; 0000000cH
  00759	8b 95 24 ff ff
	ff		 mov	 edx, DWORD PTR tv84[ebp]
  0075f	52		 push	 edx
  00760	8b 85 6c ff ff
	ff		 mov	 eax, DWORD PTR $T48[ebp+4]
  00766	50		 push	 eax
  00767	8b 8d 68 ff ff
	ff		 mov	 ecx, DWORD PTR $T48[ebp]
  0076d	51		 push	 ecx
  0076e	8d 8d 48 f7 ff
	ff		 lea	 ecx, DWORD PTR $T3[ebp]
  00774	e8 00 00 00 00	 call	 ??0?$vector@HV?$allocator@H@std@@@std@@QAE@V?$initializer_list@H@1@ABV?$allocator@H@1@@Z ; std::vector<int,std::allocator<int> >::vector<int,std::allocator<int> >
  00779	c7 45 fc 00 00
	00 00		 mov	 DWORD PTR __$EHRec$[ebp+8], 0
  00780	8d 8d 68 fc ff
	ff		 lea	 ecx, DWORD PTR $T21[ebp]
  00786	e8 00 00 00 00	 call	 ??0?$allocator@H@std@@QAE@XZ ; std::allocator<int>::allocator<int>
  0078b	89 85 28 ff ff
	ff		 mov	 DWORD PTR tv164[ebp], eax
  00791	c7 85 90 f8 ff
	ff 00 00 00 00	 mov	 DWORD PTR $T5[ebp], 0
  0079b	c7 85 94 f8 ff
	ff 00 00 00 00	 mov	 DWORD PTR $T5[ebp+4], 0
  007a5	c7 85 98 f8 ff
	ff 00 00 00 00	 mov	 DWORD PTR $T5[ebp+8], 0
  007af	c7 85 9c f8 ff
	ff 00 00 00 00	 mov	 DWORD PTR $T5[ebp+12], 0
  007b9	c7 85 a0 f8 ff
	ff 00 00 00 00	 mov	 DWORD PTR $T5[ebp+16], 0
  007c3	c7 85 a4 f8 ff
	ff 00 00 00 00	 mov	 DWORD PTR $T5[ebp+20], 0
  007cd	c7 85 a8 f8 ff
	ff 00 00 00 00	 mov	 DWORD PTR $T5[ebp+24], 0
  007d7	c7 85 ac f8 ff
	ff 00 00 00 00	 mov	 DWORD PTR $T5[ebp+28], 0
  007e1	c7 85 b0 f8 ff
	ff 00 00 00 00	 mov	 DWORD PTR $T5[ebp+32], 0
  007eb	8d 95 90 f8 ff
	ff		 lea	 edx, DWORD PTR $T5[ebp]
  007f1	83 c2 24	 add	 edx, 36			; 00000024H
  007f4	52		 push	 edx
  007f5	8d 85 90 f8 ff
	ff		 lea	 eax, DWORD PTR $T5[ebp]
  007fb	50		 push	 eax
  007fc	8d 8d 78 fc ff
	ff		 lea	 ecx, DWORD PTR $T22[ebp]
  00802	e8 00 00 00 00	 call	 ??0?$initializer_list@H@std@@QAE@PBH0@Z ; std::initializer_list<int>::initializer_list<int>
  00807	6a 08		 push	 8
  00809	50		 push	 eax
  0080a	8d 8d 70 ff ff
	ff		 lea	 ecx, DWORD PTR $T49[ebp]
  00810	51		 push	 ecx
  00811	e8 00 00 00 00	 call	 ___asan_memcpy
  00816	83 c4 0c	 add	 esp, 12			; 0000000cH
  00819	8b 95 28 ff ff
	ff		 mov	 edx, DWORD PTR tv164[ebp]
  0081f	52		 push	 edx
  00820	8b 85 74 ff ff
	ff		 mov	 eax, DWORD PTR $T49[ebp+4]
  00826	50		 push	 eax
  00827	8b 8d 70 ff ff
	ff		 mov	 ecx, DWORD PTR $T49[ebp]
  0082d	51		 push	 ecx
  0082e	8d 8d 58 f7 ff
	ff		 lea	 ecx, DWORD PTR $T3[ebp+16]
  00834	e8 00 00 00 00	 call	 ??0?$vector@HV?$allocator@H@std@@@std@@QAE@V?$initializer_list@H@1@ABV?$allocator@H@1@@Z ; std::vector<int,std::allocator<int> >::vector<int,std::allocator<int> >
  00839	c6 45 fc 01	 mov	 BYTE PTR __$EHRec$[ebp+8], 1
  0083d	8d 8d 88 fc ff
	ff		 lea	 ecx, DWORD PTR $T23[ebp]
  00843	e8 00 00 00 00	 call	 ??0?$allocator@H@std@@QAE@XZ ; std::allocator<int>::allocator<int>
  00848	89 85 2c ff ff
	ff		 mov	 DWORD PTR tv179[ebp], eax
  0084e	c7 85 d8 f8 ff
	ff 00 00 00 00	 mov	 DWORD PTR $T6[ebp], 0
  00858	c7 85 dc f8 ff
	ff 00 00 00 00	 mov	 DWORD PTR $T6[ebp+4], 0
  00862	c7 85 e0 f8 ff
	ff 00 00 00 00	 mov	 DWORD PTR $T6[ebp+8], 0
  0086c	c7 85 e4 f8 ff
	ff 00 00 00 00	 mov	 DWORD PTR $T6[ebp+12], 0
  00876	c7 85 e8 f8 ff
	ff 00 00 00 00	 mov	 DWORD PTR $T6[ebp+16], 0
  00880	c7 85 ec f8 ff
	ff 00 00 00 00	 mov	 DWORD PTR $T6[ebp+20], 0
  0088a	c7 85 f0 f8 ff
	ff 00 00 00 00	 mov	 DWORD PTR $T6[ebp+24], 0
  00894	c7 85 f4 f8 ff
	ff 00 00 00 00	 mov	 DWORD PTR $T6[ebp+28], 0
  0089e	c7 85 f8 f8 ff
	ff 00 00 00 00	 mov	 DWORD PTR $T6[ebp+32], 0
  008a8	8d 95 d8 f8 ff
	ff		 lea	 edx, DWORD PTR $T6[ebp]
  008ae	83 c2 24	 add	 edx, 36			; 00000024H
  008b1	52		 push	 edx
  008b2	8d 85 d8 f8 ff
	ff		 lea	 eax, DWORD PTR $T6[ebp]
  008b8	50		 push	 eax
  008b9	8d 8d 98 fc ff
	ff		 lea	 ecx, DWORD PTR $T24[ebp]
  008bf	e8 00 00 00 00	 call	 ??0?$initializer_list@H@std@@QAE@PBH0@Z ; std::initializer_list<int>::initializer_list<int>
  008c4	6a 08		 push	 8
  008c6	50		 push	 eax
  008c7	8d 8d 78 ff ff
	ff		 lea	 ecx, DWORD PTR $T50[ebp]
  008cd	51		 push	 ecx
  008ce	e8 00 00 00 00	 call	 ___asan_memcpy
  008d3	83 c4 0c	 add	 esp, 12			; 0000000cH
  008d6	8b 95 2c ff ff
	ff		 mov	 edx, DWORD PTR tv179[ebp]
  008dc	52		 push	 edx
  008dd	8b 85 7c ff ff
	ff		 mov	 eax, DWORD PTR $T50[ebp+4]
  008e3	50		 push	 eax
  008e4	8b 8d 78 ff ff
	ff		 mov	 ecx, DWORD PTR $T50[ebp]
  008ea	51		 push	 ecx
  008eb	8d 8d 68 f7 ff
	ff		 lea	 ecx, DWORD PTR $T3[ebp+32]
  008f1	e8 00 00 00 00	 call	 ??0?$vector@HV?$allocator@H@std@@@std@@QAE@V?$initializer_list@H@1@ABV?$allocator@H@1@@Z ; std::vector<int,std::allocator<int> >::vector<int,std::allocator<int> >
  008f6	c6 45 fc 02	 mov	 BYTE PTR __$EHRec$[ebp+8], 2
  008fa	8d 8d a8 fc ff
	ff		 lea	 ecx, DWORD PTR $T25[ebp]
  00900	e8 00 00 00 00	 call	 ??0?$allocator@H@std@@QAE@XZ ; std::allocator<int>::allocator<int>
  00905	89 85 30 ff ff
	ff		 mov	 DWORD PTR tv226[ebp], eax
  0090b	c7 85 20 f9 ff
	ff 00 00 00 00	 mov	 DWORD PTR $T7[ebp], 0
  00915	c7 85 24 f9 ff
	ff 00 00 00 00	 mov	 DWORD PTR $T7[ebp+4], 0
  0091f	c7 85 28 f9 ff
	ff 00 00 00 00	 mov	 DWORD PTR $T7[ebp+8], 0
  00929	c7 85 2c f9 ff
	ff 00 00 00 00	 mov	 DWORD PTR $T7[ebp+12], 0
  00933	c7 85 30 f9 ff
	ff 00 00 00 00	 mov	 DWORD PTR $T7[ebp+16], 0
  0093d	c7 85 34 f9 ff
	ff 00 00 00 00	 mov	 DWORD PTR $T7[ebp+20], 0
  00947	c7 85 38 f9 ff
	ff 00 00 00 00	 mov	 DWORD PTR $T7[ebp+24], 0
  00951	c7 85 3c f9 ff
	ff 00 00 00 00	 mov	 DWORD PTR $T7[ebp+28], 0
  0095b	c7 85 40 f9 ff
	ff 00 00 00 00	 mov	 DWORD PTR $T7[ebp+32], 0
  00965	8d 95 20 f9 ff
	ff		 lea	 edx, DWORD PTR $T7[ebp]
  0096b	83 c2 24	 add	 edx, 36			; 00000024H
  0096e	52		 push	 edx
  0096f	8d 85 20 f9 ff
	ff		 lea	 eax, DWORD PTR $T7[ebp]
  00975	50		 push	 eax
  00976	8d 8d b8 fc ff
	ff		 lea	 ecx, DWORD PTR $T26[ebp]
  0097c	e8 00 00 00 00	 call	 ??0?$initializer_list@H@std@@QAE@PBH0@Z ; std::initializer_list<int>::initializer_list<int>
  00981	6a 08		 push	 8
  00983	50		 push	 eax
  00984	8d 4d 80	 lea	 ecx, DWORD PTR $T51[ebp]
  00987	51		 push	 ecx
  00988	e8 00 00 00 00	 call	 ___asan_memcpy
  0098d	83 c4 0c	 add	 esp, 12			; 0000000cH
  00990	8b 95 30 ff ff
	ff		 mov	 edx, DWORD PTR tv226[ebp]
  00996	52		 push	 edx
  00997	8b 45 84	 mov	 eax, DWORD PTR $T51[ebp+4]
  0099a	50		 push	 eax
  0099b	8b 4d 80	 mov	 ecx, DWORD PTR $T51[ebp]
  0099e	51		 push	 ecx
  0099f	8d 8d 78 f7 ff
	ff		 lea	 ecx, DWORD PTR $T3[ebp+48]
  009a5	e8 00 00 00 00	 call	 ??0?$vector@HV?$allocator@H@std@@@std@@QAE@V?$initializer_list@H@1@ABV?$allocator@H@1@@Z ; std::vector<int,std::allocator<int> >::vector<int,std::allocator<int> >
  009aa	c6 45 fc 03	 mov	 BYTE PTR __$EHRec$[ebp+8], 3
  009ae	8d 8d c8 fc ff
	ff		 lea	 ecx, DWORD PTR $T27[ebp]
  009b4	e8 00 00 00 00	 call	 ??0?$allocator@H@std@@QAE@XZ ; std::allocator<int>::allocator<int>
  009b9	89 85 34 ff ff
	ff		 mov	 DWORD PTR tv241[ebp], eax
  009bf	c7 85 68 f9 ff
	ff 00 00 00 00	 mov	 DWORD PTR $T8[ebp], 0
  009c9	c7 85 6c f9 ff
	ff 00 00 00 00	 mov	 DWORD PTR $T8[ebp+4], 0
  009d3	c7 85 70 f9 ff
	ff 00 00 00 00	 mov	 DWORD PTR $T8[ebp+8], 0
  009dd	c7 85 74 f9 ff
	ff 00 00 00 00	 mov	 DWORD PTR $T8[ebp+12], 0
  009e7	c7 85 78 f9 ff
	ff 00 00 00 00	 mov	 DWORD PTR $T8[ebp+16], 0
  009f1	c7 85 7c f9 ff
	ff 00 00 00 00	 mov	 DWORD PTR $T8[ebp+20], 0
  009fb	c7 85 80 f9 ff
	ff 00 00 00 00	 mov	 DWORD PTR $T8[ebp+24], 0
  00a05	c7 85 84 f9 ff
	ff 00 00 00 00	 mov	 DWORD PTR $T8[ebp+28], 0
  00a0f	c7 85 88 f9 ff
	ff 00 00 00 00	 mov	 DWORD PTR $T8[ebp+32], 0
  00a19	8d 95 68 f9 ff
	ff		 lea	 edx, DWORD PTR $T8[ebp]
  00a1f	83 c2 24	 add	 edx, 36			; 00000024H
  00a22	52		 push	 edx
  00a23	8d 85 68 f9 ff
	ff		 lea	 eax, DWORD PTR $T8[ebp]
  00a29	50		 push	 eax
  00a2a	8d 8d d8 fc ff
	ff		 lea	 ecx, DWORD PTR $T28[ebp]
  00a30	e8 00 00 00 00	 call	 ??0?$initializer_list@H@std@@QAE@PBH0@Z ; std::initializer_list<int>::initializer_list<int>
  00a35	6a 08		 push	 8
  00a37	50		 push	 eax
  00a38	8d 4d 88	 lea	 ecx, DWORD PTR $T52[ebp]
  00a3b	51		 push	 ecx
  00a3c	e8 00 00 00 00	 call	 ___asan_memcpy
  00a41	83 c4 0c	 add	 esp, 12			; 0000000cH
  00a44	8b 95 34 ff ff
	ff		 mov	 edx, DWORD PTR tv241[ebp]
  00a4a	52		 push	 edx
  00a4b	8b 45 8c	 mov	 eax, DWORD PTR $T52[ebp+4]
  00a4e	50		 push	 eax
  00a4f	8b 4d 88	 mov	 ecx, DWORD PTR $T52[ebp]
  00a52	51		 push	 ecx
  00a53	8d 8d 88 f7 ff
	ff		 lea	 ecx, DWORD PTR $T3[ebp+64]
  00a59	e8 00 00 00 00	 call	 ??0?$vector@HV?$allocator@H@std@@@std@@QAE@V?$initializer_list@H@1@ABV?$allocator@H@1@@Z ; std::vector<int,std::allocator<int> >::vector<int,std::allocator<int> >
  00a5e	c6 45 fc 04	 mov	 BYTE PTR __$EHRec$[ebp+8], 4
  00a62	8d 8d e8 fc ff
	ff		 lea	 ecx, DWORD PTR $T29[ebp]
  00a68	e8 00 00 00 00	 call	 ??0?$allocator@H@std@@QAE@XZ ; std::allocator<int>::allocator<int>
  00a6d	89 85 38 ff ff
	ff		 mov	 DWORD PTR tv320[ebp], eax
  00a73	c7 85 b0 f9 ff
	ff 00 00 00 00	 mov	 DWORD PTR $T9[ebp], 0
  00a7d	c7 85 b4 f9 ff
	ff 00 00 00 00	 mov	 DWORD PTR $T9[ebp+4], 0
  00a87	c7 85 b8 f9 ff
	ff 00 00 00 00	 mov	 DWORD PTR $T9[ebp+8], 0
  00a91	c7 85 bc f9 ff
	ff 00 00 00 00	 mov	 DWORD PTR $T9[ebp+12], 0
  00a9b	c7 85 c0 f9 ff
	ff 00 00 00 00	 mov	 DWORD PTR $T9[ebp+16], 0
  00aa5	c7 85 c4 f9 ff
	ff 00 00 00 00	 mov	 DWORD PTR $T9[ebp+20], 0
  00aaf	c7 85 c8 f9 ff
	ff 03 00 00 00	 mov	 DWORD PTR $T9[ebp+24], 3
  00ab9	c7 85 cc f9 ff
	ff 00 00 00 00	 mov	 DWORD PTR $T9[ebp+28], 0
  00ac3	c7 85 d0 f9 ff
	ff 00 00 00 00	 mov	 DWORD PTR $T9[ebp+32], 0
  00acd	8d 95 b0 f9 ff
	ff		 lea	 edx, DWORD PTR $T9[ebp]
  00ad3	83 c2 24	 add	 edx, 36			; 00000024H
  00ad6	52		 push	 edx
  00ad7	8d 85 b0 f9 ff
	ff		 lea	 eax, DWORD PTR $T9[ebp]
  00add	50		 push	 eax
  00ade	8d 8d f8 fc ff
	ff		 lea	 ecx, DWORD PTR $T30[ebp]
  00ae4	e8 00 00 00 00	 call	 ??0?$initializer_list@H@std@@QAE@PBH0@Z ; std::initializer_list<int>::initializer_list<int>
  00ae9	6a 08		 push	 8
  00aeb	50		 push	 eax
  00aec	8d 4d 90	 lea	 ecx, DWORD PTR $T53[ebp]
  00aef	51		 push	 ecx
  00af0	e8 00 00 00 00	 call	 ___asan_memcpy
  00af5	83 c4 0c	 add	 esp, 12			; 0000000cH
  00af8	8b 95 38 ff ff
	ff		 mov	 edx, DWORD PTR tv320[ebp]
  00afe	52		 push	 edx
  00aff	8b 45 94	 mov	 eax, DWORD PTR $T53[ebp+4]
  00b02	50		 push	 eax
  00b03	8b 4d 90	 mov	 ecx, DWORD PTR $T53[ebp]
  00b06	51		 push	 ecx
  00b07	8d 8d 98 f7 ff
	ff		 lea	 ecx, DWORD PTR $T3[ebp+80]
  00b0d	e8 00 00 00 00	 call	 ??0?$vector@HV?$allocator@H@std@@@std@@QAE@V?$initializer_list@H@1@ABV?$allocator@H@1@@Z ; std::vector<int,std::allocator<int> >::vector<int,std::allocator<int> >
  00b12	c6 45 fc 05	 mov	 BYTE PTR __$EHRec$[ebp+8], 5
  00b16	8d 8d 08 fd ff
	ff		 lea	 ecx, DWORD PTR $T31[ebp]
  00b1c	e8 00 00 00 00	 call	 ??0?$allocator@H@std@@QAE@XZ ; std::allocator<int>::allocator<int>
  00b21	89 85 3c ff ff
	ff		 mov	 DWORD PTR tv335[ebp], eax
  00b27	c7 85 f8 f9 ff
	ff 00 00 00 00	 mov	 DWORD PTR $T10[ebp], 0
  00b31	c7 85 fc f9 ff
	ff 00 00 00 00	 mov	 DWORD PTR $T10[ebp+4], 0
  00b3b	c7 85 00 fa ff
	ff 00 00 00 00	 mov	 DWORD PTR $T10[ebp+8], 0
  00b45	c7 85 04 fa ff
	ff 00 00 00 00	 mov	 DWORD PTR $T10[ebp+12], 0
  00b4f	c7 85 08 fa ff
	ff 00 00 00 00	 mov	 DWORD PTR $T10[ebp+16], 0
  00b59	c7 85 0c fa ff
	ff 00 00 00 00	 mov	 DWORD PTR $T10[ebp+20], 0
  00b63	c7 85 10 fa ff
	ff 05 00 00 00	 mov	 DWORD PTR $T10[ebp+24], 5
  00b6d	c7 85 14 fa ff
	ff 00 00 00 00	 mov	 DWORD PTR $T10[ebp+28], 0
  00b77	c7 85 18 fa ff
	ff 00 00 00 00	 mov	 DWORD PTR $T10[ebp+32], 0
  00b81	8d 95 f8 f9 ff
	ff		 lea	 edx, DWORD PTR $T10[ebp]
  00b87	83 c2 24	 add	 edx, 36			; 00000024H
  00b8a	52		 push	 edx
  00b8b	8d 85 f8 f9 ff
	ff		 lea	 eax, DWORD PTR $T10[ebp]
  00b91	50		 push	 eax
  00b92	8d 8d 18 fd ff
	ff		 lea	 ecx, DWORD PTR $T32[ebp]
  00b98	e8 00 00 00 00	 call	 ??0?$initializer_list@H@std@@QAE@PBH0@Z ; std::initializer_list<int>::initializer_list<int>
  00b9d	6a 08		 push	 8
  00b9f	50		 push	 eax
  00ba0	8d 4d 98	 lea	 ecx, DWORD PTR $T54[ebp]
  00ba3	51		 push	 ecx
  00ba4	e8 00 00 00 00	 call	 ___asan_memcpy
  00ba9	83 c4 0c	 add	 esp, 12			; 0000000cH
  00bac	8b 95 3c ff ff
	ff		 mov	 edx, DWORD PTR tv335[ebp]
  00bb2	52		 push	 edx
  00bb3	8b 45 9c	 mov	 eax, DWORD PTR $T54[ebp+4]
  00bb6	50		 push	 eax
  00bb7	8b 4d 98	 mov	 ecx, DWORD PTR $T54[ebp]
  00bba	51		 push	 ecx
  00bbb	8d 8d a8 f7 ff
	ff		 lea	 ecx, DWORD PTR $T3[ebp+96]
  00bc1	e8 00 00 00 00	 call	 ??0?$vector@HV?$allocator@H@std@@@std@@QAE@V?$initializer_list@H@1@ABV?$allocator@H@1@@Z ; std::vector<int,std::allocator<int> >::vector<int,std::allocator<int> >
  00bc6	c6 45 fc 06	 mov	 BYTE PTR __$EHRec$[ebp+8], 6
  00bca	8d 8d 28 fd ff
	ff		 lea	 ecx, DWORD PTR $T33[ebp]
  00bd0	e8 00 00 00 00	 call	 ??0?$allocator@H@std@@QAE@XZ ; std::allocator<int>::allocator<int>
  00bd5	89 85 40 ff ff
	ff		 mov	 DWORD PTR tv350[ebp], eax
  00bdb	c7 85 40 fa ff
	ff 00 00 00 00	 mov	 DWORD PTR $T11[ebp], 0
  00be5	c7 85 44 fa ff
	ff 00 00 00 00	 mov	 DWORD PTR $T11[ebp+4], 0
  00bef	c7 85 48 fa ff
	ff 00 00 00 00	 mov	 DWORD PTR $T11[ebp+8], 0
  00bf9	c7 85 4c fa ff
	ff 00 00 00 00	 mov	 DWORD PTR $T11[ebp+12], 0
  00c03	c7 85 50 fa ff
	ff 00 00 00 00	 mov	 DWORD PTR $T11[ebp+16], 0
  00c0d	c7 85 54 fa ff
	ff 00 00 00 00	 mov	 DWORD PTR $T11[ebp+20], 0
  00c17	c7 85 58 fa ff
	ff 03 00 00 00	 mov	 DWORD PTR $T11[ebp+24], 3
  00c21	c7 85 5c fa ff
	ff 00 00 00 00	 mov	 DWORD PTR $T11[ebp+28], 0
  00c2b	c7 85 60 fa ff
	ff 00 00 00 00	 mov	 DWORD PTR $T11[ebp+32], 0
  00c35	8d 95 40 fa ff
	ff		 lea	 edx, DWORD PTR $T11[ebp]
  00c3b	83 c2 24	 add	 edx, 36			; 00000024H
  00c3e	52		 push	 edx
  00c3f	8d 85 40 fa ff
	ff		 lea	 eax, DWORD PTR $T11[ebp]
  00c45	50		 push	 eax
  00c46	8d 8d 38 fd ff
	ff		 lea	 ecx, DWORD PTR $T34[ebp]
  00c4c	e8 00 00 00 00	 call	 ??0?$initializer_list@H@std@@QAE@PBH0@Z ; std::initializer_list<int>::initializer_list<int>
  00c51	6a 08		 push	 8
  00c53	50		 push	 eax
  00c54	8d 4d a0	 lea	 ecx, DWORD PTR $T55[ebp]
  00c57	51		 push	 ecx
  00c58	e8 00 00 00 00	 call	 ___asan_memcpy
  00c5d	83 c4 0c	 add	 esp, 12			; 0000000cH
  00c60	8b 95 40 ff ff
	ff		 mov	 edx, DWORD PTR tv350[ebp]
  00c66	52		 push	 edx
  00c67	8b 45 a4	 mov	 eax, DWORD PTR $T55[ebp+4]
  00c6a	50		 push	 eax
  00c6b	8b 4d a0	 mov	 ecx, DWORD PTR $T55[ebp]
  00c6e	51		 push	 ecx
  00c6f	8d 8d b8 f7 ff
	ff		 lea	 ecx, DWORD PTR $T3[ebp+112]
  00c75	e8 00 00 00 00	 call	 ??0?$vector@HV?$allocator@H@std@@@std@@QAE@V?$initializer_list@H@1@ABV?$allocator@H@1@@Z ; std::vector<int,std::allocator<int> >::vector<int,std::allocator<int> >
  00c7a	c6 45 fc 07	 mov	 BYTE PTR __$EHRec$[ebp+8], 7
  00c7e	8d 8d 48 fd ff
	ff		 lea	 ecx, DWORD PTR $T35[ebp]
  00c84	e8 00 00 00 00	 call	 ??0?$allocator@H@std@@QAE@XZ ; std::allocator<int>::allocator<int>
  00c89	89 85 44 ff ff
	ff		 mov	 DWORD PTR tv397[ebp], eax
  00c8f	c7 85 88 fa ff
	ff 02 00 00 00	 mov	 DWORD PTR $T12[ebp], 2
  00c99	c7 85 8c fa ff
	ff 00 00 00 00	 mov	 DWORD PTR $T12[ebp+4], 0
  00ca3	c7 85 90 fa ff
	ff 00 00 00 00	 mov	 DWORD PTR $T12[ebp+8], 0
  00cad	c7 85 94 fa ff
	ff 02 00 00 00	 mov	 DWORD PTR $T12[ebp+12], 2
  00cb7	c7 85 98 fa ff
	ff 00 00 00 00	 mov	 DWORD PTR $T12[ebp+16], 0
  00cc1	c7 85 9c fa ff
	ff 02 00 00 00	 mov	 DWORD PTR $T12[ebp+20], 2
  00ccb	c7 85 a0 fa ff
	ff 02 00 00 00	 mov	 DWORD PTR $T12[ebp+24], 2
  00cd5	c7 85 a4 fa ff
	ff 06 00 00 00	 mov	 DWORD PTR $T12[ebp+28], 6
  00cdf	c7 85 a8 fa ff
	ff 02 00 00 00	 mov	 DWORD PTR $T12[ebp+32], 2
  00ce9	8d 95 88 fa ff
	ff		 lea	 edx, DWORD PTR $T12[ebp]
  00cef	83 c2 24	 add	 edx, 36			; 00000024H
  00cf2	52		 push	 edx
  00cf3	8d 85 88 fa ff
	ff		 lea	 eax, DWORD PTR $T12[ebp]
  00cf9	50		 push	 eax
  00cfa	8d 8d 58 fd ff
	ff		 lea	 ecx, DWORD PTR $T36[ebp]
  00d00	e8 00 00 00 00	 call	 ??0?$initializer_list@H@std@@QAE@PBH0@Z ; std::initializer_list<int>::initializer_list<int>
  00d05	6a 08		 push	 8
  00d07	50		 push	 eax
  00d08	8d 4d a8	 lea	 ecx, DWORD PTR $T56[ebp]
  00d0b	51		 push	 ecx
  00d0c	e8 00 00 00 00	 call	 ___asan_memcpy
  00d11	83 c4 0c	 add	 esp, 12			; 0000000cH
  00d14	8b 95 44 ff ff
	ff		 mov	 edx, DWORD PTR tv397[ebp]
  00d1a	52		 push	 edx
  00d1b	8b 45 ac	 mov	 eax, DWORD PTR $T56[ebp+4]
  00d1e	50		 push	 eax
  00d1f	8b 4d a8	 mov	 ecx, DWORD PTR $T56[ebp]
  00d22	51		 push	 ecx
  00d23	8d 8d c8 f7 ff
	ff		 lea	 ecx, DWORD PTR $T3[ebp+128]
  00d29	e8 00 00 00 00	 call	 ??0?$vector@HV?$allocator@H@std@@@std@@QAE@V?$initializer_list@H@1@ABV?$allocator@H@1@@Z ; std::vector<int,std::allocator<int> >::vector<int,std::allocator<int> >
  00d2e	c6 45 fc 08	 mov	 BYTE PTR __$EHRec$[ebp+8], 8
  00d32	8d 8d 68 fd ff
	ff		 lea	 ecx, DWORD PTR $T37[ebp]
  00d38	e8 00 00 00 00	 call	 ??0?$allocator@H@std@@QAE@XZ ; std::allocator<int>::allocator<int>
  00d3d	89 85 48 ff ff
	ff		 mov	 DWORD PTR tv412[ebp], eax
  00d43	c7 85 d0 fa ff
	ff 00 00 00 00	 mov	 DWORD PTR $T13[ebp], 0
  00d4d	c7 85 d4 fa ff
	ff 02 00 00 00	 mov	 DWORD PTR $T13[ebp+4], 2
  00d57	c7 85 d8 fa ff
	ff 00 00 00 00	 mov	 DWORD PTR $T13[ebp+8], 0
  00d61	c7 85 dc fa ff
	ff 00 00 00 00	 mov	 DWORD PTR $T13[ebp+12], 0
  00d6b	c7 85 e0 fa ff
	ff 00 00 00 00	 mov	 DWORD PTR $T13[ebp+16], 0
  00d75	c7 85 e4 fa ff
	ff 03 00 00 00	 mov	 DWORD PTR $T13[ebp+20], 3
  00d7f	c7 85 e8 fa ff
	ff 03 00 00 00	 mov	 DWORD PTR $T13[ebp+24], 3
  00d89	c7 85 ec fa ff
	ff 02 00 00 00	 mov	 DWORD PTR $T13[ebp+28], 2
  00d93	c7 85 f0 fa ff
	ff 02 00 00 00	 mov	 DWORD PTR $T13[ebp+32], 2
  00d9d	8d 95 d0 fa ff
	ff		 lea	 edx, DWORD PTR $T13[ebp]
  00da3	83 c2 24	 add	 edx, 36			; 00000024H
  00da6	52		 push	 edx
  00da7	8d 85 d0 fa ff
	ff		 lea	 eax, DWORD PTR $T13[ebp]
  00dad	50		 push	 eax
  00dae	8d 8d 78 fd ff
	ff		 lea	 ecx, DWORD PTR $T38[ebp]
  00db4	e8 00 00 00 00	 call	 ??0?$initializer_list@H@std@@QAE@PBH0@Z ; std::initializer_list<int>::initializer_list<int>
  00db9	6a 08		 push	 8
  00dbb	50		 push	 eax
  00dbc	8d 4d b0	 lea	 ecx, DWORD PTR $T57[ebp]
  00dbf	51		 push	 ecx
  00dc0	e8 00 00 00 00	 call	 ___asan_memcpy
  00dc5	83 c4 0c	 add	 esp, 12			; 0000000cH
  00dc8	8b 95 48 ff ff
	ff		 mov	 edx, DWORD PTR tv412[ebp]
  00dce	52		 push	 edx
  00dcf	8b 45 b4	 mov	 eax, DWORD PTR $T57[ebp+4]
  00dd2	50		 push	 eax
  00dd3	8b 4d b0	 mov	 ecx, DWORD PTR $T57[ebp]
  00dd6	51		 push	 ecx
  00dd7	8d 8d d8 f7 ff
	ff		 lea	 ecx, DWORD PTR $T3[ebp+144]
  00ddd	e8 00 00 00 00	 call	 ??0?$vector@HV?$allocator@H@std@@@std@@QAE@V?$initializer_list@H@1@ABV?$allocator@H@1@@Z ; std::vector<int,std::allocator<int> >::vector<int,std::allocator<int> >
  00de2	c6 45 fc 09	 mov	 BYTE PTR __$EHRec$[ebp+8], 9
  00de6	8d 8d 88 fd ff
	ff		 lea	 ecx, DWORD PTR $T39[ebp]
  00dec	e8 00 00 00 00	 call	 ??0?$allocator@H@std@@QAE@XZ ; std::allocator<int>::allocator<int>
  00df1	89 85 4c ff ff
	ff		 mov	 DWORD PTR tv459[ebp], eax
  00df7	c7 85 18 fb ff
	ff 00 00 00 00	 mov	 DWORD PTR $T14[ebp], 0
  00e01	c7 85 1c fb ff
	ff 00 00 00 00	 mov	 DWORD PTR $T14[ebp+4], 0
  00e0b	c7 85 20 fb ff
	ff 05 00 00 00	 mov	 DWORD PTR $T14[ebp+8], 5
  00e15	c7 85 24 fb ff
	ff 00 00 00 00	 mov	 DWORD PTR $T14[ebp+12], 0
  00e1f	c7 85 28 fb ff
	ff 00 00 00 00	 mov	 DWORD PTR $T14[ebp+16], 0
  00e29	c7 85 2c fb ff
	ff 00 00 00 00	 mov	 DWORD PTR $T14[ebp+20], 0
  00e33	c7 85 30 fb ff
	ff 04 00 00 00	 mov	 DWORD PTR $T14[ebp+24], 4
  00e3d	c7 85 34 fb ff
	ff 03 00 00 00	 mov	 DWORD PTR $T14[ebp+28], 3
  00e47	c7 85 38 fb ff
	ff 00 00 00 00	 mov	 DWORD PTR $T14[ebp+32], 0
  00e51	8d 95 18 fb ff
	ff		 lea	 edx, DWORD PTR $T14[ebp]
  00e57	83 c2 24	 add	 edx, 36			; 00000024H
  00e5a	52		 push	 edx
  00e5b	8d 85 18 fb ff
	ff		 lea	 eax, DWORD PTR $T14[ebp]
  00e61	50		 push	 eax
  00e62	8d 8d 98 fd ff
	ff		 lea	 ecx, DWORD PTR $T40[ebp]
  00e68	e8 00 00 00 00	 call	 ??0?$initializer_list@H@std@@QAE@PBH0@Z ; std::initializer_list<int>::initializer_list<int>
  00e6d	6a 08		 push	 8
  00e6f	50		 push	 eax
  00e70	8d 4d b8	 lea	 ecx, DWORD PTR $T58[ebp]
  00e73	51		 push	 ecx
  00e74	e8 00 00 00 00	 call	 ___asan_memcpy
  00e79	83 c4 0c	 add	 esp, 12			; 0000000cH
  00e7c	8b 95 4c ff ff
	ff		 mov	 edx, DWORD PTR tv459[ebp]
  00e82	52		 push	 edx
  00e83	8b 45 bc	 mov	 eax, DWORD PTR $T58[ebp+4]
  00e86	50		 push	 eax
  00e87	8b 4d b8	 mov	 ecx, DWORD PTR $T58[ebp]
  00e8a	51		 push	 ecx
  00e8b	8d 8d e8 f7 ff
	ff		 lea	 ecx, DWORD PTR $T3[ebp+160]
  00e91	e8 00 00 00 00	 call	 ??0?$vector@HV?$allocator@H@std@@@std@@QAE@V?$initializer_list@H@1@ABV?$allocator@H@1@@Z ; std::vector<int,std::allocator<int> >::vector<int,std::allocator<int> >
  00e96	c6 45 fc 0a	 mov	 BYTE PTR __$EHRec$[ebp+8], 10 ; 0000000aH
  00e9a	8d 8d a8 fd ff
	ff		 lea	 ecx, DWORD PTR $T41[ebp]
  00ea0	e8 00 00 00 00	 call	 ??0?$allocator@H@std@@QAE@XZ ; std::allocator<int>::allocator<int>
  00ea5	89 85 50 ff ff
	ff		 mov	 DWORD PTR tv474[ebp], eax
  00eab	c7 85 60 fb ff
	ff 00 00 00 00	 mov	 DWORD PTR $T15[ebp], 0
  00eb5	c7 85 64 fb ff
	ff 00 00 00 00	 mov	 DWORD PTR $T15[ebp+4], 0
  00ebf	c7 85 68 fb ff
	ff 03 00 00 00	 mov	 DWORD PTR $T15[ebp+8], 3
  00ec9	c7 85 6c fb ff
	ff 02 00 00 00	 mov	 DWORD PTR $T15[ebp+12], 2
  00ed3	c7 85 70 fb ff
	ff ff ff ff ff	 mov	 DWORD PTR $T15[ebp+16], -1
  00edd	c7 85 74 fb ff
	ff 00 00 00 00	 mov	 DWORD PTR $T15[ebp+20], 0
  00ee7	c7 85 78 fb ff
	ff 00 00 00 00	 mov	 DWORD PTR $T15[ebp+24], 0
  00ef1	c7 85 7c fb ff
	ff 02 00 00 00	 mov	 DWORD PTR $T15[ebp+28], 2
  00efb	c7 85 80 fb ff
	ff 00 00 00 00	 mov	 DWORD PTR $T15[ebp+32], 0
  00f05	8d 95 60 fb ff
	ff		 lea	 edx, DWORD PTR $T15[ebp]
  00f0b	83 c2 24	 add	 edx, 36			; 00000024H
  00f0e	52		 push	 edx
  00f0f	8d 85 60 fb ff
	ff		 lea	 eax, DWORD PTR $T15[ebp]
  00f15	50		 push	 eax
  00f16	8d 8d b8 fd ff
	ff		 lea	 ecx, DWORD PTR $T42[ebp]
  00f1c	e8 00 00 00 00	 call	 ??0?$initializer_list@H@std@@QAE@PBH0@Z ; std::initializer_list<int>::initializer_list<int>
  00f21	6a 08		 push	 8
  00f23	50		 push	 eax
  00f24	8d 4d c0	 lea	 ecx, DWORD PTR $T59[ebp]
  00f27	51		 push	 ecx
  00f28	e8 00 00 00 00	 call	 ___asan_memcpy
  00f2d	83 c4 0c	 add	 esp, 12			; 0000000cH
  00f30	8b 95 50 ff ff
	ff		 mov	 edx, DWORD PTR tv474[ebp]
  00f36	52		 push	 edx
  00f37	8b 45 c4	 mov	 eax, DWORD PTR $T59[ebp+4]
  00f3a	50		 push	 eax
  00f3b	8b 4d c0	 mov	 ecx, DWORD PTR $T59[ebp]
  00f3e	51		 push	 ecx
  00f3f	8d 8d f8 f7 ff
	ff		 lea	 ecx, DWORD PTR $T3[ebp+176]
  00f45	e8 00 00 00 00	 call	 ??0?$vector@HV?$allocator@H@std@@@std@@QAE@V?$initializer_list@H@1@ABV?$allocator@H@1@@Z ; std::vector<int,std::allocator<int> >::vector<int,std::allocator<int> >
  00f4a	c6 45 fc 0b	 mov	 BYTE PTR __$EHRec$[ebp+8], 11 ; 0000000bH
  00f4e	8d 8d c8 fd ff
	ff		 lea	 ecx, DWORD PTR $T43[ebp]
