; Listing generated by Microsoft (R) Optimizing Compiler Version 19.29.30137.0 

	TITLE	C:\Users\theob\Documents\GitHub\as-pts1\rendu2\Debug\Univers.obj
	.686P
	.XMM
	include listing.inc
	.model	flat

INCLUDELIB MSVCRTD
INCLUDELIB OLDNAMES

CONST	SEGMENT
$SG262473 DB	'invalid argument', 00H
___asan_rrz_$SG262473 DD 0f9H
	ORG $+43
$SG262474 DB	'%s', 00H
___asan_rrz_$SG262474 DD 0f9H
	ORG $+57
$SG262475 DB	'C:\Program Files (x86)\Microsoft Visual Studio\2019\Comm'
	DB	'unity\VC\Tools\MSVC\14.29.30133\include\xmemory', 00H
___asan_rrz_$SG262475 DD 0f9H
	ORG $+52
$SG262476 DB	'C', 00H, ':', 00H, '\', 00H, 'P', 00H, 'r', 00H, 'o', 00H
	DB	'g', 00H, 'r', 00H, 'a', 00H, 'm', 00H, ' ', 00H, 'F', 00H, 'i'
	DB	00H, 'l', 00H, 'e', 00H, 's', 00H, ' ', 00H, '(', 00H, 'x', 00H
	DB	'8', 00H, '6', 00H, ')', 00H, '\', 00H, 'M', 00H, 'i', 00H, 'c'
	DB	00H, 'r', 00H, 'o', 00H, 's', 00H, 'o', 00H, 'f', 00H, 't', 00H
	DB	' ', 00H, 'V', 00H, 'i', 00H, 's', 00H, 'u', 00H, 'a', 00H, 'l'
	DB	00H, ' ', 00H, 'S', 00H, 't', 00H, 'u', 00H, 'd', 00H, 'i', 00H
	DB	'o', 00H, '\', 00H, '2', 00H, '0', 00H, '1', 00H, '9', 00H, '\'
	DB	00H, 'C', 00H, 'o', 00H, 'm', 00H, 'm', 00H, 'u', 00H, 'n', 00H
	DB	'i', 00H, 't', 00H, 'y', 00H, '\', 00H, 'V', 00H, 'C', 00H, '\'
	DB	00H, 'T', 00H, 'o', 00H, 'o', 00H, 'l', 00H, 's', 00H, '\', 00H
	DB	'M', 00H, 'S', 00H, 'V', 00H, 'C', 00H, '\', 00H, '1', 00H, '4'
	DB	00H, '.', 00H, '2', 00H, '9', 00H, '.', 00H, '3', 00H, '0', 00H
	DB	'1', 00H, '3', 00H, '3', 00H, '\', 00H, 'i', 00H, 'n', 00H, 'c'
	DB	00H, 'l', 00H, 'u', 00H, 'd', 00H, 'e', 00H, '\', 00H, 'x', 00H
	DB	'm', 00H, 'e', 00H, 'm', 00H, 'o', 00H, 'r', 00H, 'y', 00H, 00H
	DB	00H
___asan_rrz_$SG262476 DD 0f9H
	ORG $+44
$SG262477 DB	's', 00H, 't', 00H, 'd', 00H, ':', 00H, ':', 00H, '_', 00H
	DB	'A', 00H, 'l', 00H, 'l', 00H, 'o', 00H, 'c', 00H, 'a', 00H, 't'
	DB	00H, 'e', 00H, '_', 00H, 'm', 00H, 'a', 00H, 'n', 00H, 'u', 00H
	DB	'a', 00H, 'l', 00H, 'l', 00H, 'y', 00H, '_', 00H, 'v', 00H, 'e'
	DB	00H, 'c', 00H, 't', 00H, 'o', 00H, 'r', 00H, '_', 00H, 'a', 00H
	DB	'l', 00H, 'i', 00H, 'g', 00H, 'n', 00H, 'e', 00H, 'd', 00H, 00H
	DB	00H
___asan_rrz_$SG262477 DD 0f9H
	ORG $+46
$SG262478 DB	'"', 00H, 'i', 00H, 'n', 00H, 'v', 00H, 'a', 00H, 'l', 00H
	DB	'i', 00H, 'd', 00H, ' ', 00H, 'a', 00H, 'r', 00H, 'g', 00H, 'u'
	DB	00H, 'm', 00H, 'e', 00H, 'n', 00H, 't', 00H, '"', 00H, 00H, 00H
___asan_rrz_$SG262478 DD 0f9H
	ORG $+54
$SG231304 DB	'Current Viewport : %d x %d', 00H
___asan_rrz_$SG231304 DD 0f9H
	ORG $+33
$SG231380 DB	'\Ressources\img', 00H
___asan_rrz_$SG231380 DD 0f9H
	ORG $+44
$SG231381 DB	'\Ressources\audio', 00H
___asan_rrz_$SG231381 DD 0f9H
	ORG $+42
$SG231382 DB	'\Ressources\img\backgrounds', 00H
___asan_rrz_$SG231382 DD 0f9H
	ORG $+32
$SG258354 DB	'C:\Program Files (x86)\Microsoft Visual Studio\2019\Comm'
	DB	'unity\VC\Tools\MSVC\14.29.30133\include\xlocale', 00H
___asan_rrz_$SG258354 DD 0f9H
	ORG $+52
$SG250660 DB	'Unable to open message catalog: ', 00H
___asan_rrz_$SG250660 DD 0f9H
	ORG $+59
$SG250667 DB	'C', 00H, ':', 00H, '\', 00H, 'U', 00H, 's', 00H, 'e', 00H
	DB	'r', 00H, 's', 00H, '\', 00H, 't', 00H, 'h', 00H, 'e', 00H, 'o'
	DB	00H, 'b', 00H, '\', 00H, 'D', 00H, 'o', 00H, 'c', 00H, 'u', 00H
	DB	'm', 00H, 'e', 00H, 'n', 00H, 't', 00H, 's', 00H, '\', 00H, 'G'
	DB	00H, 'i', 00H, 't', 00H, 'H', 00H, 'u', 00H, 'b', 00H, '\', 00H
	DB	'a', 00H, 's', 00H, '-', 00H, 'p', 00H, 't', 00H, 's', 00H, '1'
	DB	00H, '\', 00H, 'r', 00H, 'e', 00H, 'n', 00H, 'd', 00H, 'u', 00H
	DB	'2', 00H, '\', 00H, 'v', 00H, 'c', 00H, 'p', 00H, 'k', 00H, 'g'
	DB	00H, '_', 00H, 'i', 00H, 'n', 00H, 's', 00H, 't', 00H, 'a', 00H
	DB	'l', 00H, 'l', 00H, 'e', 00H, 'd', 00H, '\', 00H, 'x', 00H, '8'
	DB	00H, '6', 00H, '-', 00H, 'w', 00H, 'i', 00H, 'n', 00H, 'd', 00H
	DB	'o', 00H, 'w', 00H, 's', 00H, '\', 00H, 'x', 00H, '8', 00H, '6'
	DB	00H, '-', 00H, 'w', 00H, 'i', 00H, 'n', 00H, 'd', 00H, 'o', 00H
	DB	'w', 00H, 's', 00H, '\', 00H, 'i', 00H, 'n', 00H, 'c', 00H, 'l'
	DB	00H, 'u', 00H, 'd', 00H, 'e', 00H, '\', 00H, 'b', 00H, 'o', 00H
	DB	'o', 00H, 's', 00H, 't', 00H, '\', 00H, 'r', 00H, 'e', 00H, 'g'
	DB	00H, 'e', 00H, 'x', 00H, '\', 00H, 'v', 00H, '5', 00H, '\', 00H
	DB	'w', 00H, '3', 00H, '2', 00H, '_', 00H, 'r', 00H, 'e', 00H, 'g'
	DB	00H, 'e', 00H, 'x', 00H, '_', 00H, 't', 00H, 'r', 00H, 'a', 00H
	DB	'i', 00H, 't', 00H, 's', 00H, '.', 00H, 'h', 00H, 'p', 00H, 'p'
	DB	00H, 00H, 00H
___asan_rrz_$SG250667 DD 0f9H
	ORG $+86
$SG250668 DB	'r', 00H, ' ', 00H, '!', 00H, '=', 00H, ' ', 00H, '0', 00H
	DB	00H, 00H
___asan_rrz_$SG250668 DD 0f9H
	ORG $+46
$SG250670 DB	'C', 00H, ':', 00H, '\', 00H, 'U', 00H, 's', 00H, 'e', 00H
	DB	'r', 00H, 's', 00H, '\', 00H, 't', 00H, 'h', 00H, 'e', 00H, 'o'
	DB	00H, 'b', 00H, '\', 00H, 'D', 00H, 'o', 00H, 'c', 00H, 'u', 00H
	DB	'm', 00H, 'e', 00H, 'n', 00H, 't', 00H, 's', 00H, '\', 00H, 'G'
	DB	00H, 'i', 00H, 't', 00H, 'H', 00H, 'u', 00H, 'b', 00H, '\', 00H
	DB	'a', 00H, 's', 00H, '-', 00H, 'p', 00H, 't', 00H, 's', 00H, '1'
	DB	00H, '\', 00H, 'r', 00H, 'e', 00H, 'n', 00H, 'd', 00H, 'u', 00H
	DB	'2', 00H, '\', 00H, 'v', 00H, 'c', 00H, 'p', 00H, 'k', 00H, 'g'
	DB	00H, '_', 00H, 'i', 00H, 'n', 00H, 's', 00H, 't', 00H, 'a', 00H
	DB	'l', 00H, 'l', 00H, 'e', 00H, 'd', 00H, '\', 00H, 'x', 00H, '8'
	DB	00H, '6', 00H, '-', 00H, 'w', 00H, 'i', 00H, 'n', 00H, 'd', 00H
	DB	'o', 00H, 'w', 00H, 's', 00H, '\', 00H, 'x', 00H, '8', 00H, '6'
	DB	00H, '-', 00H, 'w', 00H, 'i', 00H, 'n', 00H, 'd', 00H, 'o', 00H
	DB	'w', 00H, 's', 00H, '\', 00H, 'i', 00H, 'n', 00H, 'c', 00H, 'l'
	DB	00H, 'u', 00H, 'd', 00H, 'e', 00H, '\', 00H, 'b', 00H, 'o', 00H
	DB	'o', 00H, 's', 00H, 't', 00H, '\', 00H, 'r', 00H, 'e', 00H, 'g'
	DB	00H, 'e', 00H, 'x', 00H, '\', 00H, 'v', 00H, '5', 00H, '\', 00H
	DB	'w', 00H, '3', 00H, '2', 00H, '_', 00H, 'r', 00H, 'e', 00H, 'g'
	DB	00H, 'e', 00H, 'x', 00H, '_', 00H, 't', 00H, 'r', 00H, 'a', 00H
	DB	'i', 00H, 't', 00H, 's', 00H, '.', 00H, 'h', 00H, 'p', 00H, 'p'
	DB	00H, 00H, 00H
___asan_rrz_$SG250670 DD 0f9H
	ORG $+86
$SG250671 DB	'0', 00H, ' ', 00H, '!', 00H, '=', 00H, ' ', 00H, 'r', 00H
	DB	00H, 00H
___asan_rrz_$SG250671 DD 0f9H
CONST	ENDS
ASAN$GL	SEGMENT
_L___asan_global_$SG250671 DD FLAT:$SG250671
	DD	0eH
	DD	040H
	DD	FLAT:_L___asan_gen_.34
	DD	FLAT:_L___asan_gen_.25
	DD	00H
	DD	FLAT:_L___asan_gen_.35
	DD	00H
_L___asan_global_$SG250670 DD FLAT:$SG250670
	DD	0106H
	DD	0160H
	DD	FLAT:_L___asan_gen_.32
	DD	FLAT:_L___asan_gen_.25
	DD	00H
	DD	FLAT:_L___asan_gen_.33
	DD	00H
_L___asan_global_$SG250668 DD FLAT:$SG250668
	DD	0eH
	DD	040H
	DD	FLAT:_L___asan_gen_.30
	DD	FLAT:_L___asan_gen_.25
	DD	00H
	DD	FLAT:_L___asan_gen_.31
	DD	00H
_L___asan_global_$SG250667 DD FLAT:$SG250667
	DD	0106H
	DD	0160H
	DD	FLAT:_L___asan_gen_.28
	DD	FLAT:_L___asan_gen_.25
	DD	00H
	DD	FLAT:_L___asan_gen_.29
	DD	00H
_L___asan_global_$SG250660 DD FLAT:$SG250660
	DD	021H
	DD	060H
	DD	FLAT:_L___asan_gen_.26
	DD	FLAT:_L___asan_gen_.25
	DD	00H
	DD	FLAT:_L___asan_gen_.27
	DD	00H
_L___asan_global_$SG258354 DD FLAT:$SG258354
	DD	068H
	DD	0a0H
	DD	FLAT:_L___asan_gen_.23
	DD	FLAT:_L___asan_gen_.22
	DD	00H
	DD	FLAT:_L___asan_gen_.24
	DD	00H
_L___asan_global_$SG231382 DD FLAT:$SG231382
	DD	01cH
	DD	040H
	DD	FLAT:_L___asan_gen_.20
	DD	FLAT:_L___asan_gen_.13
	DD	00H
	DD	FLAT:_L___asan_gen_.21
	DD	00H
_L___asan_global_$SG231381 DD FLAT:$SG231381
	DD	012H
	DD	040H
	DD	FLAT:_L___asan_gen_.18
	DD	FLAT:_L___asan_gen_.13
	DD	00H
	DD	FLAT:_L___asan_gen_.19
	DD	00H
_L___asan_global_$SG231380 DD FLAT:$SG231380
	DD	010H
	DD	040H
	DD	FLAT:_L___asan_gen_.16
	DD	FLAT:_L___asan_gen_.13
	DD	00H
	DD	FLAT:_L___asan_gen_.17
	DD	00H
_L___asan_global_$SG231304 DD FLAT:$SG231304
	DD	01bH
	DD	040H
	DD	FLAT:_L___asan_gen_.14
	DD	FLAT:_L___asan_gen_.13
	DD	00H
	DD	FLAT:_L___asan_gen_.15
	DD	00H
_L___asan_global_$SG262478 DD FLAT:$SG262478
	DD	026H
	DD	060H
	DD	FLAT:_L___asan_gen_.11
	DD	FLAT:_L___asan_gen_.0
	DD	00H
	DD	FLAT:_L___asan_gen_.12
	DD	00H
_L___asan_global_$SG262477 DD FLAT:$SG262477
	DD	04eH
	DD	080H
	DD	FLAT:_L___asan_gen_.9
	DD	FLAT:_L___asan_gen_.0
	DD	00H
	DD	FLAT:_L___asan_gen_.10
	DD	00H
_L___asan_global_$SG262476 DD FLAT:$SG262476
	DD	0d0H
	DD	0100H
	DD	FLAT:_L___asan_gen_.7
	DD	FLAT:_L___asan_gen_.0
	DD	00H
	DD	FLAT:_L___asan_gen_.8
	DD	00H
_L___asan_global_$SG262475 DD FLAT:$SG262475
	DD	068H
	DD	0a0H
	DD	FLAT:_L___asan_gen_.5
	DD	FLAT:_L___asan_gen_.0
	DD	00H
	DD	FLAT:_L___asan_gen_.6
	DD	00H
_L___asan_global_$SG262474 DD FLAT:$SG262474
	DD	03H
	DD	040H
	DD	FLAT:_L___asan_gen_.3
	DD	FLAT:_L___asan_gen_.0
	DD	00H
	DD	FLAT:_L___asan_gen_.4
	DD	00H
_L___asan_global_$SG262473 DD FLAT:$SG262473
	DD	011H
	DD	040H
	DD	FLAT:_L___asan_gen_.1
	DD	FLAT:_L___asan_gen_.0
	DD	00H
	DD	FLAT:_L___asan_gen_.2
	DD	00H
ASAN$GL	ENDS
CONST	SEGMENT
	ORG $+46
_L___asan_gen_.0 DB 'xmemory', 00H
_L___asan_gen_.1 DB '<C++ string literal>', 00H
	ORG $+3
_L___asan_gen_.2 DD FLAT:_L___asan_gen_.0
	DD	08eH
	DD	04H
_L___asan_gen_.3 DB '<C++ string literal>', 00H
	ORG $+3
_L___asan_gen_.4 DD FLAT:_L___asan_gen_.0
	DD	08eH
	DD	04H
_L___asan_gen_.5 DB '<C++ string literal>', 00H
	ORG $+3
_L___asan_gen_.6 DD FLAT:_L___asan_gen_.0
	DD	08eH
	DD	04H
_L___asan_gen_.7 DB '<C++ string literal>', 00H
	ORG $+3
_L___asan_gen_.8 DD FLAT:_L___asan_gen_.0
	DD	08eH
	DD	04H
_L___asan_gen_.9 DB '<C++ string literal>', 00H
	ORG $+3
_L___asan_gen_.10 DD FLAT:_L___asan_gen_.0
	DD	08eH
	DD	04H
_L___asan_gen_.11 DB '<C++ string literal>', 00H
	ORG $+3
_L___asan_gen_.12 DD FLAT:_L___asan_gen_.0
	DD	08eH
	DD	04H
_L___asan_gen_.13 DB 'Univers.cpp', 00H
_L___asan_gen_.14 DB '<C++ string literal>', 00H
	ORG $+3
_L___asan_gen_.15 DD FLAT:_L___asan_gen_.13
	DD	097H
	DD	010H
_L___asan_gen_.16 DB '<C++ string literal>', 00H
	ORG $+3
_L___asan_gen_.17 DD FLAT:_L___asan_gen_.13
	DD	0a3H
	DD	018H
_L___asan_gen_.18 DB '<C++ string literal>', 00H
	ORG $+3
_L___asan_gen_.19 DD FLAT:_L___asan_gen_.13
	DD	0a4H
	DD	01eH
_L___asan_gen_.20 DB '<C++ string literal>', 00H
	ORG $+3
_L___asan_gen_.21 DD FLAT:_L___asan_gen_.13
	DD	0a5H
	DD	020H
_L___asan_gen_.22 DB 'xlocale', 00H
_L___asan_gen_.23 DB '<C++ string literal>', 00H
	ORG $+3
_L___asan_gen_.24 DD FLAT:_L___asan_gen_.22
	DD	020eH
	DD	059H
_L___asan_gen_.25 DB 'w32_regex_traits.hpp', 00H
	ORG $+3
_L___asan_gen_.26 DB '<C++ string literal>', 00H
	ORG $+3
_L___asan_gen_.27 DD FLAT:_L___asan_gen_.25
	DD	02c1H
	DD	01aH
_L___asan_gen_.28 DB '<C++ string literal>', 00H
	ORG $+3
_L___asan_gen_.29 DD FLAT:_L___asan_gen_.25
	DD	02f7H
	DD	06H
_L___asan_gen_.30 DB '<C++ string literal>', 00H
	ORG $+3
_L___asan_gen_.31 DD FLAT:_L___asan_gen_.25
	DD	02f7H
	DD	06H
_L___asan_gen_.32 DB '<C++ string literal>', 00H
	ORG $+3
_L___asan_gen_.33 DD FLAT:_L___asan_gen_.25
	DD	0314H
	DD	06H
_L___asan_gen_.34 DB '<C++ string literal>', 00H
	ORG $+3
_L___asan_gen_.35 DD FLAT:_L___asan_gen_.25
	DD	0314H
	DD	06H
CONST	ENDS
msvcjmc	SEGMENT
__B3577796_RenderStates@hpp DB 01H
__705FE7F9_iostream DB 01H
__59466570_predefined C++ types (compiler internal) DB 01H
__741AE07E_corecrt_math@h DB 01H
__B49664B7_stdlib@h DB 01H
__244AF085_cstdlib DB 01H
__A2143F22_corecrt_stdio_config@h DB 01H
__829E1958_corecrt_wstdio@h DB 01H
__6DFAE8B8_stdio@h DB 01H
__1FEB9909_corecrt_memcpy_s@h DB 01H
__C6E16F6F_corecrt_wconio@h DB 01H
__6D390390_corecrt_wio@h DB 01H
__9200769A_corecrt_wstring@h DB 01H
__1157D6BA_corecrt_wtime@h DB 01H
__1DC1E279_stat@h DB 01H
__93DC0B45_wchar@h DB 01H
__47F37C5A_xtr1common DB 01H
__81812A28_cstddef DB 01H
__7FE5F402_limits DB 01H
__97D3638F_vcruntime_new@h DB 01H
__589FA321_type_traits DB 01H
__20BB4341_malloc@h DB 01H
__B0A13A33_vcruntime_exception@h DB 01H
__FF458F76_exception DB 01H
__A751F051_corecrt_memory@h DB 01H
__32E5F013_string@h DB 01H
__DD5FCA34_compare DB 01H
__12269DE6_xutility DB 01H
__C69F69CF_tuple DB 01H
__79D216CD_xmemory DB 01H
__374A57BA_xpolymorphic_allocator@h DB 01H
__0D019051_xstring DB 01H
__B2D2BA86_ctype@h DB 01H
__B7987E10_string DB 01H
__65ADBEC9_vcruntime_typeinfo@h DB 01H
__62F96EFF_typeinfo DB 01H
__A0B61CF9_time@h DB 01H
__DDB379A0_xthreads@h DB 01H
__14D0A8C0_atomic DB 01H
__C34BF88C_memory DB 01H
__60BC708E_cmath DB 01H
__68B92D9D_xbit_ops@h DB 01H
__0F13B0E8_xhash DB 01H
__BFE0F84B_functional DB 01H
__760BB52B_stdexcept DB 01H
__A4685E82_xcall_once@h DB 01H
__1B354CA2_system_error DB 01H
__3A667B81_error_category@hpp DB 01H
__25339F4A_generic_category_message@hpp DB 01H
__A4E336F0_generic_category@hpp DB 01H
__2DD6F2A3_error_condition@hpp DB 01H
__C6D9B9B2_system_category@hpp DB 01H
__1B11AAFA_snprintf@hpp DB 01H
__6767E947_error_handling@hpp DB 01H
__EE1D0242_system_category_message_win32@hpp DB 01H
__F4D1038E_system_category_condition_win32@hpp DB 01H
__1D2FDE06_system_category_impl@hpp DB 01H
__13E3B269_interop_category@hpp DB 01H
__EF0EAF83_xfacet DB 01H
__7D708D37_xlocinfo DB 01H
__D23FE460_xlocale DB 01H
__4495FA24_xiosbase DB 01H
__4CB88277_xlocnum DB 01H
__845859A3_ios DB 01H
__F4A89B3F_error_code@hpp DB 01H
__C655F023_std_category@hpp DB 01H
__51E12D41_error_category_impl@hpp DB 01H
__FE33131C_xlocmes DB 01H
__67DA974F_xlocmon DB 01H
__D96D2425_xloctime DB 01H
__147DD91B_path_traits@hpp DB 01H
__CE27CDA6_facade_iterator_category@hpp DB 01H
__FCD69F0E_ios_state@hpp DB 01H
__32E57CF6_path@hpp DB 01H
__0269C046_errc@hpp DB 01H
__38C7FDF2_throws@hpp DB 01H
__B76B1A2C_system_error@hpp DB 01H
__8868518C_atomic_count_std_atomic@hpp DB 01H
__BFCE1B3F_intrusive_ref_counter@hpp DB 01H
__203D301F_exception@hpp DB 01H
__6D84B491_file_status@hpp DB 01H
__9E7B425B_directory@hpp DB 01H
__994C2822_operations@hpp DB 01H
__85CA39D3_convenience@hpp DB 01H
__54B77B77_fstream DB 01H
__819F9458_fstream@hpp DB 01H
__807252DF_string_file@hpp DB 01H
__1589CDA2_algorithm DB 01H
__2B558C5C_implementation_help@hpp DB 01H
__53FD89EC_noncopyable@hpp DB 01H
__249AC1FF_as_literal@hpp DB 01H
__CCA81496_classification@hpp DB 01H
__9E8302C5_classification@hpp DB 01H
__291069DD_compare@hpp DB 01H
__6E0894BC_finder@hpp DB 01H
__6005BCF8_finder@hpp DB 01H
__876C1A82_exception@hpp DB 01H
__C6048E53_current_function@hpp DB 01H
__550A1F1C_source_location@hpp DB 01H
__78E6F2C5_throw_exception@hpp DB 01H
__36989B12_demangle@hpp DB 01H
__DBA21239_stl_type_index@hpp DB 01H
__DFD8B503_function_base@hpp DB 01H
__0C0FE920_ratio DB 01H
__2D75401A___msvc_tzdb@hpp DB 01H
__7BF231E7_optional DB 01H
__324884E2_vector DB 01H
__1347750E_utility DB 01H
__20D3AEFC_forward_list DB 01H
__1B08F288_chrono DB 01H
__491EF713_xfilesystem_abi@h DB 01H
__2B6093AE_list DB 01H
__B111E740_filesystem DB 01H
__B26BA995_regex DB 01H
__B2A9EE53_InputStream@hpp DB 01H
__62DD75E3_NonCopyable@hpp DB 01H
__FC4CDF9C_Thread@inl DB 01H
__69958C8C_xtree DB 01H
__C78A343B_SoundFileReader@hpp DB 01H
__5D3957BC_SoundFileWriter@hpp DB 01H
__A5341E86_regex_workaround@hpp DB 01H
__84A6C509_regex_traits_defaults@hpp DB 01H
__C72864EE_pattern_except@hpp DB 01H
__8A32E06C_stop_token DB 01H
__1806803A_thread DB 01H
__1EA2E370_mutex DB 01H
__BC8232E2_cpp_regex_traits@hpp DB 01H
__EF9A24B2_c_regex_traits@hpp DB 01H
__79C7FC57_basetsd@h DB 01H
__D545DD43_guiddef@h DB 01H
__D5DDFBF3_winnt@h DB 01H
__439612F0_processthreadsapi@h DB 01H
__5733279A_memoryapi@h DB 01H
__D4435474_winerror@h DB 01H
__B3ED30D4_winbase@h DB 01H
__DB057BA3_winuser@h DB 01H
__A118E6DC_stralign@h DB 01H
__43AE03FC_w32_regex_traits@hpp DB 01H
__ED044598_match_flags@hpp DB 01H
__9829EA86_regex_raw_buffer@hpp DB 01H
__BA42420E_basic_regex@hpp DB 01H
__F162022C_set DB 01H
__3C41319C_indexed_bit_flag@hpp DB 01H
__A750400E_basic_regex_creator@hpp DB 01H
__CFA0C522_basic_regex_parser@hpp DB 01H
__23D98615_mem_block_cache@hpp DB 01H
__0A52C9A5_perl_matcher_non_recursive@hpp DB 01H
__C1A77E9F_perl_matcher@hpp DB 01H
__28BBFA9C_RessourcePack@h DB 01H
__3C1C7D88_ContextSettings@hpp DB 01H
__8D991C03_Drawable@hpp DB 01H
__896EE8A8_Glyph@hpp DB 01H
__E3A1A8C3_Font@hpp DB 01H
__0D6BD463_Character@h DB 01H
__372D2D08_initializer_list DB 01H
__E458E21C_xstddef DB 01H
__218DFE2C_Levels@h DB 01H
__9344C8DF_Block@h DB 01H
__7385D044_any DB 01H
__78BC29F0_TerrainConstructor@h DB 01H
__9D99E827_Terrain@h DB 01H
__B4613F23_Sprite@hpp DB 01H
__4FA62C6D_Univers@h DB 01H
__91E4D184_Univers@cpp DB 01H
__A2FF0B9E_istream DB 01H
__FA839AC8_operator_bool@hpp DB 01H
__0FFFED91_intrusive_ptr@hpp DB 01H
__B38B2551_iterator_facade@hpp DB 01H
__68A60A21_locale DB 01H
__C12F3EA4_ostream DB 01H
__74AB0D97_streambuf DB 01H
__038A2AA6_iterator DB 01H
__B30C2184_iosfwd DB 01H
__0A631FEE_Vector2@inl DB 01H
__CBE11649_Vector2@hpp DB 01H
__C23CD225_Rect@inl DB 01H
__03BEDB82_Rect@hpp DB 01H
__F1CBF088_type_index@hpp DB 01H
__68C17CDA_primary_transform@hpp DB 01H
__F54903A0_xatomic@h DB 01H
__1CB4EB11_addressof@hpp DB 01H
__1EB17C13_integral_constant@hpp DB 01H
msvcjmc	ENDS
PUBLIC	?__empty_global_delete@@YAXPAX@Z		; __empty_global_delete
PUBLIC	?__empty_global_delete@@YAXPAXI@Z		; __empty_global_delete
PUBLIC	?__empty_global_delete@@YAXPAXW4align_val_t@std@@@Z ; __empty_global_delete
PUBLIC	?__empty_global_delete@@YAXPAXIW4align_val_t@std@@@Z ; __empty_global_delete
PUBLIC	___local_stdio_printf_options
PUBLIC	__vfprintf_l
PUBLIC	_printf
PUBLIC	_wmemcpy
PUBLIC	?is_constant_evaluated@std@@YA_NXZ		; std::is_constant_evaluated
PUBLIC	?max@?$numeric_limits@H@std@@SAHXZ		; std::numeric_limits<int>::max
PUBLIC	??2@YAPAXIPAX@Z					; operator new
PUBLIC	??0exception@std@@QAE@QBDH@Z			; std::exception::exception
PUBLIC	??0exception@std@@QAE@ABV01@@Z			; std::exception::exception
PUBLIC	??1exception@std@@UAE@XZ			; std::exception::~exception
PUBLIC	?what@exception@std@@UBEPBDXZ			; std::exception::what
PUBLIC	??_Gexception@std@@UAEPAXI@Z			; std::exception::`scalar deleting destructor'
PUBLIC	??0bad_alloc@std@@AAE@QBD@Z			; std::bad_alloc::bad_alloc
PUBLIC	??1bad_alloc@std@@UAE@XZ			; std::bad_alloc::~bad_alloc
PUBLIC	??0bad_alloc@std@@QAE@ABV01@@Z			; std::bad_alloc::bad_alloc
PUBLIC	??_Gbad_alloc@std@@UAEPAXI@Z			; std::bad_alloc::`scalar deleting destructor'
PUBLIC	??0bad_array_new_length@std@@QAE@XZ		; std::bad_array_new_length::bad_array_new_length
PUBLIC	??1bad_array_new_length@std@@UAE@XZ		; std::bad_array_new_length::~bad_array_new_length
PUBLIC	??0bad_array_new_length@std@@QAE@ABV01@@Z	; std::bad_array_new_length::bad_array_new_length
PUBLIC	??_Gbad_array_new_length@std@@UAEPAXI@Z		; std::bad_array_new_length::`scalar deleting destructor'
PUBLIC	?_Throw_bad_array_new_length@std@@YAXXZ		; std::_Throw_bad_array_new_length
PUBLIC	??0?$tuple@$$V@std@@QAE@ABV01@@Z		; std::tuple<>::tuple<>
PUBLIC	?_Allocate@_Default_allocate_traits@std@@SAPAXI@Z ; std::_Default_allocate_traits::_Allocate
PUBLIC	?_Adjust_manually_vector_aligned@std@@YAXAAPAXAAI@Z ; std::_Adjust_manually_vector_aligned
PUBLIC	??$_Convert_size@I@std@@YAII@Z			; std::_Convert_size<unsigned int>
PUBLIC	??0_Container_proxy@std@@QAE@PAU_Container_base12@1@@Z ; std::_Container_proxy::_Container_proxy
PUBLIC	??0_Container_base12@std@@QAE@XZ		; std::_Container_base12::_Container_base12
PUBLIC	?_Orphan_all@_Container_base12@std@@QAEXXZ	; std::_Container_base12::_Orphan_all
PUBLIC	?_Orphan_all_unlocked_v3@_Container_base12@std@@AAEXXZ ; std::_Container_base12::_Orphan_all_unlocked_v3
PUBLIC	?_Orphan_all_locked_v3@_Container_base12@std@@AAEXXZ ; std::_Container_base12::_Orphan_all_locked_v3
PUBLIC	??0_Iterator_base12@std@@QAE@XZ			; std::_Iterator_base12::_Iterator_base12
PUBLIC	??0_Iterator_base12@std@@QAE@ABU01@@Z		; std::_Iterator_base12::_Iterator_base12
PUBLIC	??4_Iterator_base12@std@@QAEAAU01@ABU01@@Z	; std::_Iterator_base12::operator=
PUBLIC	??1_Iterator_base12@std@@QAE@XZ			; std::_Iterator_base12::~_Iterator_base12
PUBLIC	?_Adopt@_Iterator_base12@std@@QAEXPBU_Container_base12@2@@Z ; std::_Iterator_base12::_Adopt
PUBLIC	?_Getcont@_Iterator_base12@std@@QBEPBU_Container_base12@2@XZ ; std::_Iterator_base12::_Getcont
PUBLIC	?_Assign_unlocked@_Iterator_base12@std@@AAEXABU12@@Z ; std::_Iterator_base12::_Assign_unlocked
PUBLIC	?_Assign_locked@_Iterator_base12@std@@AAEXABU12@@Z ; std::_Iterator_base12::_Assign_locked
PUBLIC	?_Adopt_unlocked@_Iterator_base12@std@@AAEXPBU_Container_base12@2@@Z ; std::_Iterator_base12::_Adopt_unlocked
PUBLIC	?_Adopt_locked@_Iterator_base12@std@@AAEXPBU_Container_base12@2@@Z ; std::_Iterator_base12::_Adopt_locked
PUBLIC	?_Orphan_me_unlocked_v3@_Iterator_base12@std@@AAEXXZ ; std::_Iterator_base12::_Orphan_me_unlocked_v3
PUBLIC	?_Orphan_me_locked_v3@_Iterator_base12@std@@AAEXXZ ; std::_Iterator_base12::_Orphan_me_locked_v3
PUBLIC	?_Release@_Basic_container_proxy_ptr12@std@@QAEXXZ ; std::_Basic_container_proxy_ptr12::_Release
PUBLIC	??0_Basic_container_proxy_ptr12@std@@IAE@XZ	; std::_Basic_container_proxy_ptr12::_Basic_container_proxy_ptr12
PUBLIC	??$addressof@U_Container_base12@std@@@std@@YAPAU_Container_base12@0@AAU10@@Z ; std::addressof<std::_Container_base12>
PUBLIC	??$_Construct_in_place@U_Container_proxy@std@@PAU_Container_base12@2@@std@@YAXAAU_Container_proxy@0@$$QAPAU_Container_base12@0@@Z ; std::_Construct_in_place<std::_Container_proxy,std::_Container_base12 *>
PUBLIC	?copy@?$_Char_traits@DH@std@@SAPADQADQBDI@Z	; std::_Char_traits<char,int>::copy
PUBLIC	?move@?$_Char_traits@DH@std@@SAPADQADQBDI@Z	; std::_Char_traits<char,int>::move
PUBLIC	?assign@?$_Char_traits@DH@std@@SAPADQADID@Z	; std::_Char_traits<char,int>::assign
PUBLIC	?length@?$_Narrow_char_traits@DH@std@@SAIQBD@Z	; std::_Narrow_char_traits<char,int>::length
PUBLIC	?assign@?$_Narrow_char_traits@DH@std@@SAPADQADID@Z ; std::_Narrow_char_traits<char,int>::assign
PUBLIC	?assign@?$_Narrow_char_traits@DH@std@@SAXAADABD@Z ; std::_Narrow_char_traits<char,int>::assign
PUBLIC	?eq_int_type@?$_Narrow_char_traits@DH@std@@SA_NABH0@Z ; std::_Narrow_char_traits<char,int>::eq_int_type
PUBLIC	?eof@?$_Narrow_char_traits@DH@std@@SAHXZ	; std::_Narrow_char_traits<char,int>::eof
PUBLIC	?_Xlen_string@std@@YAXXZ			; std::_Xlen_string
PUBLIC	??0?$allocator@D@std@@QAE@XZ			; std::allocator<char>::allocator<char>
PUBLIC	?deallocate@?$allocator@D@std@@QAEXQADI@Z	; std::allocator<char>::deallocate
PUBLIC	?allocate@?$allocator@D@std@@QAEPADI@Z		; std::allocator<char>::allocate
PUBLIC	?max_size@?$_Default_allocator_traits@V?$allocator@D@std@@@std@@SAIABV?$allocator@D@2@@Z ; std::_Default_allocator_traits<std::allocator<char> >::max_size
PUBLIC	??0?$_String_val@U?$_Simple_types@D@std@@@std@@QAE@XZ ; std::_String_val<std::_Simple_types<char> >::_String_val<std::_Simple_types<char> >
PUBLIC	?_Myptr@?$_String_val@U?$_Simple_types@D@std@@@std@@QAEPADXZ ; std::_String_val<std::_Simple_types<char> >::_Myptr
PUBLIC	?_Large_string_engaged@?$_String_val@U?$_Simple_types@D@std@@@std@@QBE_NXZ ; std::_String_val<std::_Simple_types<char> >::_Large_string_engaged
PUBLIC	??0_Bxty@?$_String_val@U?$_Simple_types@D@std@@@std@@QAE@XZ ; std::_String_val<std::_Simple_types<char> >::_Bxty::_Bxty
PUBLIC	??1_Bxty@?$_String_val@U?$_Simple_types@D@std@@@std@@QAE@XZ ; std::_String_val<std::_Simple_types<char> >::_Bxty::~_Bxty
PUBLIC	??1?$_String_val@U?$_Simple_types@D@std@@@std@@QAE@XZ ; std::_String_val<std::_Simple_types<char> >::~_String_val<std::_Simple_types<char> >
PUBLIC	??0?$basic_string@DU?$char_traits@D@std@@V?$allocator@D@2@@std@@QAE@QBD@Z ; std::basic_string<char,std::char_traits<char>,std::allocator<char> >::basic_string<char,std::char_traits<char>,std::allocator<char> >
PUBLIC	?assign@?$basic_string@DU?$char_traits@D@std@@V?$allocator@D@2@@std@@QAEAAV12@QBDI@Z ; std::basic_string<char,std::char_traits<char>,std::allocator<char> >::assign
PUBLIC	?assign@?$basic_string@DU?$char_traits@D@std@@V?$allocator@D@2@@std@@QAEAAV12@QBD@Z ; std::basic_string<char,std::char_traits<char>,std::allocator<char> >::assign
PUBLIC	?max_size@?$basic_string@DU?$char_traits@D@std@@V?$allocator@D@2@@std@@QBEIXZ ; std::basic_string<char,std::char_traits<char>,std::allocator<char> >::max_size
PUBLIC	?_Calculate_growth@?$basic_string@DU?$char_traits@D@std@@V?$allocator@D@2@@std@@CAIIII@Z ; std::basic_string<char,std::char_traits<char>,std::allocator<char> >::_Calculate_growth
PUBLIC	?_Calculate_growth@?$basic_string@DU?$char_traits@D@std@@V?$allocator@D@2@@std@@ABEII@Z ; std::basic_string<char,std::char_traits<char>,std::allocator<char> >::_Calculate_growth
PUBLIC	?_Tidy_init@?$basic_string@DU?$char_traits@D@std@@V?$allocator@D@2@@std@@AAEXXZ ; std::basic_string<char,std::char_traits<char>,std::allocator<char> >::_Tidy_init
PUBLIC	?_Getal@?$basic_string@DU?$char_traits@D@std@@V?$allocator@D@2@@std@@AAEAAV?$allocator@D@2@XZ ; std::basic_string<char,std::char_traits<char>,std::allocator<char> >::_Getal
PUBLIC	?_Getal@?$basic_string@DU?$char_traits@D@std@@V?$allocator@D@2@@std@@ABEABV?$allocator@D@2@XZ ; std::basic_string<char,std::char_traits<char>,std::allocator<char> >::_Getal
PUBLIC	?_Get_first@?$_Compressed_pair@V?$allocator@D@std@@V?$_String_val@U?$_Simple_types@D@std@@@2@$00@std@@QAEAAV?$allocator@D@2@XZ ; std::_Compressed_pair<std::allocator<char>,std::_String_val<std::_Simple_types<char> >,1>::_Get_first
PUBLIC	?_Get_first@?$_Compressed_pair@V?$allocator@D@std@@V?$_String_val@U?$_Simple_types@D@std@@@2@$00@std@@QBEABV?$allocator@D@2@XZ ; std::_Compressed_pair<std::allocator<char>,std::_String_val<std::_Simple_types<char> >,1>::_Get_first
PUBLIC	??1?$_Compressed_pair@V?$allocator@D@std@@V?$_String_val@U?$_Simple_types@D@std@@@2@$00@std@@QAE@XZ ; std::_Compressed_pair<std::allocator<char>,std::_String_val<std::_Simple_types<char> >,1>::~_Compressed_pair<std::allocator<char>,std::_String_val<std::_Simple_types<char> >,1>
PUBLIC	??1logic_error@std@@UAE@XZ			; std::logic_error::~logic_error
PUBLIC	??1invalid_argument@std@@UAE@XZ			; std::invalid_argument::~invalid_argument
PUBLIC	??$forward@ABI@std@@YAABIABI@Z			; std::forward<unsigned int const &>
PUBLIC	??$_Maklocstr@_W@std@@YAPA_WPBDPA_WABU_Cvtvec@@@Z ; std::_Maklocstr<wchar_t>
PUBLIC	?_Maklocwcs@std@@YAPA_WPB_W@Z			; std::_Maklocwcs
PUBLIC	??$_Maklocstr@D@std@@YAPADPBDPADABU_Cvtvec@@@Z	; std::_Maklocstr<char>
PUBLIC	??$_Getvals@_W@?$time_get@DV?$istreambuf_iterator@DU?$char_traits@D@std@@@std@@@std@@IAEX_WABV_Locinfo@1@@Z ; std::time_get<char,std::istreambuf_iterator<char,std::char_traits<char> > >::_Getvals<wchar_t>
PUBLIC	??$_Getvals@_W@?$time_get@_WV?$istreambuf_iterator@_WU?$char_traits@_W@std@@@std@@@std@@IAEX_WABV_Locinfo@1@@Z ; std::time_get<wchar_t,std::istreambuf_iterator<wchar_t,std::char_traits<wchar_t> > >::_Getvals<wchar_t>
PUBLIC	??0?$Rect@H@sf@@QAE@ABV?$Vector2@H@1@0@Z	; sf::Rect<int>::Rect<int>
PUBLIC	??$max@I@std@@YAABIABI0@Z			; std::max<unsigned int>
PUBLIC	??0?$allocator@_N@std@@QAE@XZ			; std::allocator<bool>::allocator<bool>
PUBLIC	?deallocate@?$allocator@I@std@@QAEXQAII@Z	; std::allocator<unsigned int>::deallocate
PUBLIC	?allocate@?$allocator@I@std@@QAEPAII@Z		; std::allocator<unsigned int>::allocate
PUBLIC	?max_size@?$_Default_allocator_traits@V?$allocator@I@std@@@std@@SAIABV?$allocator@I@2@@Z ; std::_Default_allocator_traits<std::allocator<unsigned int> >::max_size
PUBLIC	?select_on_container_copy_construction@?$_Default_allocator_traits@V?$allocator@I@std@@@std@@SA?AV?$allocator@I@2@ABV32@@Z ; std::_Default_allocator_traits<std::allocator<unsigned int> >::select_on_container_copy_construction
PUBLIC	??0?$_Vb_val@V?$allocator@_N@std@@@std@@QAE@IAB_NABV?$allocator@_N@1@@Z ; std::_Vb_val<std::allocator<bool> >::_Vb_val<std::allocator<bool> >
PUBLIC	??0?$_Vb_val@V?$allocator@_N@std@@@std@@QAE@ABV01@@Z ; std::_Vb_val<std::allocator<bool> >::_Vb_val<std::allocator<bool> >
PUBLIC	??1?$_Vb_val@V?$allocator@_N@std@@@std@@QAE@XZ	; std::_Vb_val<std::allocator<bool> >::~_Vb_val<std::allocator<bool> >
PUBLIC	?_Getal@?$_Vb_val@V?$allocator@_N@std@@@std@@QAEAAV?$allocator@I@2@XZ ; std::_Vb_val<std::allocator<bool> >::_Getal
PUBLIC	?_Nw@?$_Vb_val@V?$allocator@_N@std@@@std@@SAII@Z ; std::_Vb_val<std::allocator<bool> >::_Nw
PUBLIC	??0?$vector@IV?$allocator@I@std@@@std@@QAE@IABIABV?$allocator@I@1@@Z ; std::vector<unsigned int,std::allocator<unsigned int> >::vector<unsigned int,std::allocator<unsigned int> >
PUBLIC	??0?$vector@IV?$allocator@I@std@@@std@@QAE@ABV01@@Z ; std::vector<unsigned int,std::allocator<unsigned int> >::vector<unsigned int,std::allocator<unsigned int> >
PUBLIC	??1?$vector@IV?$allocator@I@std@@@std@@QAE@XZ	; std::vector<unsigned int,std::allocator<unsigned int> >::~vector<unsigned int,std::allocator<unsigned int> >
PUBLIC	?erase@?$vector@IV?$allocator@I@std@@@std@@QAE?AV?$_Vector_iterator@V?$_Vector_val@U?$_Simple_types@I@std@@@std@@@2@V?$_Vector_const_iterator@V?$_Vector_val@U?$_Simple_types@I@std@@@std@@@2@0@Z ; std::vector<unsigned int,std::allocator<unsigned int> >::erase
PUBLIC	?data@?$vector@IV?$allocator@I@std@@@std@@QAEPAIXZ ; std::vector<unsigned int,std::allocator<unsigned int> >::data
PUBLIC	?data@?$vector@IV?$allocator@I@std@@@std@@QBEPBIXZ ; std::vector<unsigned int,std::allocator<unsigned int> >::data
PUBLIC	?begin@?$vector@IV?$allocator@I@std@@@std@@QAE?AV?$_Vector_iterator@V?$_Vector_val@U?$_Simple_types@I@std@@@std@@@2@XZ ; std::vector<unsigned int,std::allocator<unsigned int> >::begin
PUBLIC	?end@?$vector@IV?$allocator@I@std@@@std@@QAE?AV?$_Vector_iterator@V?$_Vector_val@U?$_Simple_types@I@std@@@std@@@2@XZ ; std::vector<unsigned int,std::allocator<unsigned int> >::end
PUBLIC	?size@?$vector@IV?$allocator@I@std@@@std@@QBEIXZ ; std::vector<unsigned int,std::allocator<unsigned int> >::size
PUBLIC	?max_size@?$vector@IV?$allocator@I@std@@@std@@QBEIXZ ; std::vector<unsigned int,std::allocator<unsigned int> >::max_size
PUBLIC	??A?$vector@IV?$allocator@I@std@@@std@@QAEAAII@Z ; std::vector<unsigned int,std::allocator<unsigned int> >::operator[]
PUBLIC	?_Ufill@?$vector@IV?$allocator@I@std@@@std@@AAEPAIPAIIABI@Z ; std::vector<unsigned int,std::allocator<unsigned int> >::_Ufill
PUBLIC	?_Destroy@?$vector@IV?$allocator@I@std@@@std@@AAEXPAI0@Z ; std::vector<unsigned int,std::allocator<unsigned int> >::_Destroy
PUBLIC	?_Buy_raw@?$vector@IV?$allocator@I@std@@@std@@AAEXI@Z ; std::vector<unsigned int,std::allocator<unsigned int> >::_Buy_raw
PUBLIC	?_Buy_nonzero@?$vector@IV?$allocator@I@std@@@std@@AAEXI@Z ; std::vector<unsigned int,std::allocator<unsigned int> >::_Buy_nonzero
PUBLIC	?_Tidy@?$vector@IV?$allocator@I@std@@@std@@AAEXXZ ; std::vector<unsigned int,std::allocator<unsigned int> >::_Tidy
PUBLIC	?_Xlength@?$vector@IV?$allocator@I@std@@@std@@CAXXZ ; std::vector<unsigned int,std::allocator<unsigned int> >::_Xlength
PUBLIC	?_Orphan_range_unlocked@?$vector@IV?$allocator@I@std@@@std@@ABEXPAI0@Z ; std::vector<unsigned int,std::allocator<unsigned int> >::_Orphan_range_unlocked
PUBLIC	?_Orphan_range_locked@?$vector@IV?$allocator@I@std@@@std@@ABEXPAI0@Z ; std::vector<unsigned int,std::allocator<unsigned int> >::_Orphan_range_locked
PUBLIC	?_Orphan_range@?$vector@IV?$allocator@I@std@@@std@@ABEXPAI0@Z ; std::vector<unsigned int,std::allocator<unsigned int> >::_Orphan_range
PUBLIC	?_Getal@?$vector@IV?$allocator@I@std@@@std@@AAEAAV?$allocator@I@2@XZ ; std::vector<unsigned int,std::allocator<unsigned int> >::_Getal
PUBLIC	?_Getal@?$vector@IV?$allocator@I@std@@@std@@ABEABV?$allocator@I@2@XZ ; std::vector<unsigned int,std::allocator<unsigned int> >::_Getal
PUBLIC	??0?$_Vector_val@U?$_Simple_types@I@std@@@std@@QAE@XZ ; std::_Vector_val<std::_Simple_types<unsigned int> >::_Vector_val<std::_Simple_types<unsigned int> >
PUBLIC	?_Get_first@?$_Compressed_pair@V?$allocator@I@std@@V?$_Vector_val@U?$_Simple_types@I@std@@@2@$00@std@@QAEAAV?$allocator@I@2@XZ ; std::_Compressed_pair<std::allocator<unsigned int>,std::_Vector_val<std::_Simple_types<unsigned int> >,1>::_Get_first
PUBLIC	?_Get_first@?$_Compressed_pair@V?$allocator@I@std@@V?$_Vector_val@U?$_Simple_types@I@std@@@2@$00@std@@QBEABV?$allocator@I@2@XZ ; std::_Compressed_pair<std::allocator<unsigned int>,std::_Vector_val<std::_Simple_types<unsigned int> >,1>::_Get_first
PUBLIC	??0?$vector@_NV?$allocator@_N@std@@@std@@QAE@IABV?$allocator@_N@1@@Z ; std::vector<bool,std::allocator<bool> >::vector<bool,std::allocator<bool> >
PUBLIC	??0?$vector@_NV?$allocator@_N@std@@@std@@QAE@ABV01@@Z ; std::vector<bool,std::allocator<bool> >::vector<bool,std::allocator<bool> >
PUBLIC	?begin@?$vector@_NV?$allocator@_N@std@@@std@@QAE?AV?$_Vb_iterator@U?$_Wrap_alloc@V?$allocator@I@std@@@std@@@2@XZ ; std::vector<bool,std::allocator<bool> >::begin
PUBLIC	?size@?$vector@_NV?$allocator@_N@std@@@std@@QBEIXZ ; std::vector<bool,std::allocator<bool> >::size
PUBLIC	?max_size@?$vector@_NV?$allocator@_N@std@@@std@@QBEIXZ ; std::vector<bool,std::allocator<bool> >::max_size
PUBLIC	?at@?$vector@_NV?$allocator@_N@std@@@std@@QAE?AV?$_Vb_reference@U?$_Wrap_alloc@V?$allocator@I@std@@@std@@@2@I@Z ; std::vector<bool,std::allocator<bool> >::at
PUBLIC	??A?$vector@_NV?$allocator@_N@std@@@std@@QAE?AV?$_Vb_reference@U?$_Wrap_alloc@V?$allocator@I@std@@@std@@@1@I@Z ; std::vector<bool,std::allocator<bool> >::operator[]
PUBLIC	?_Trim@?$vector@_NV?$allocator@_N@std@@@std@@QAEXI@Z ; std::vector<bool,std::allocator<bool> >::_Trim
PUBLIC	?_Xlen@?$vector@_NV?$allocator@_N@std@@@std@@QBEXXZ ; std::vector<bool,std::allocator<bool> >::_Xlen
PUBLIC	?_Xran@?$vector@_NV?$allocator@_N@std@@@std@@QBEXXZ ; std::vector<bool,std::allocator<bool> >::_Xran
PUBLIC	?__autoclassinit2@?$vector@_NV?$allocator@_N@std@@@std@@QAEXI@Z ; std::vector<bool,std::allocator<bool> >::__autoclassinit2
PUBLIC	??0?$allocator@H@std@@QAE@XZ			; std::allocator<int>::allocator<int>
PUBLIC	?deallocate@?$allocator@H@std@@QAEXQAHI@Z	; std::allocator<int>::deallocate
PUBLIC	?allocate@?$allocator@H@std@@QAEPAHI@Z		; std::allocator<int>::allocate
PUBLIC	?max_size@?$_Default_allocator_traits@V?$allocator@H@std@@@std@@SAIABV?$allocator@H@2@@Z ; std::_Default_allocator_traits<std::allocator<int> >::max_size
PUBLIC	?select_on_container_copy_construction@?$_Default_allocator_traits@V?$allocator@H@std@@@std@@SA?AV?$allocator@H@2@ABV32@@Z ; std::_Default_allocator_traits<std::allocator<int> >::select_on_container_copy_construction
PUBLIC	??0?$vector@HV?$allocator@H@std@@@std@@QAE@V?$initializer_list@H@1@ABV?$allocator@H@1@@Z ; std::vector<int,std::allocator<int> >::vector<int,std::allocator<int> >
PUBLIC	??0?$vector@HV?$allocator@H@std@@@std@@QAE@ABV01@@Z ; std::vector<int,std::allocator<int> >::vector<int,std::allocator<int> >
PUBLIC	??1?$vector@HV?$allocator@H@std@@@std@@QAE@XZ	; std::vector<int,std::allocator<int> >::~vector<int,std::allocator<int> >
PUBLIC	?max_size@?$vector@HV?$allocator@H@std@@@std@@QBEIXZ ; std::vector<int,std::allocator<int> >::max_size
PUBLIC	?_Destroy@?$vector@HV?$allocator@H@std@@@std@@AAEXPAH0@Z ; std::vector<int,std::allocator<int> >::_Destroy
PUBLIC	?_Buy_raw@?$vector@HV?$allocator@H@std@@@std@@AAEXI@Z ; std::vector<int,std::allocator<int> >::_Buy_raw
PUBLIC	?_Buy_nonzero@?$vector@HV?$allocator@H@std@@@std@@AAEXI@Z ; std::vector<int,std::allocator<int> >::_Buy_nonzero
PUBLIC	?_Tidy@?$vector@HV?$allocator@H@std@@@std@@AAEXXZ ; std::vector<int,std::allocator<int> >::_Tidy
PUBLIC	?_Xlength@?$vector@HV?$allocator@H@std@@@std@@CAXXZ ; std::vector<int,std::allocator<int> >::_Xlength
PUBLIC	?_Getal@?$vector@HV?$allocator@H@std@@@std@@AAEAAV?$allocator@H@2@XZ ; std::vector<int,std::allocator<int> >::_Getal
PUBLIC	?_Getal@?$vector@HV?$allocator@H@std@@@std@@ABEABV?$allocator@H@2@XZ ; std::vector<int,std::allocator<int> >::_Getal
PUBLIC	??0?$_Vector_val@U?$_Simple_types@H@std@@@std@@QAE@XZ ; std::_Vector_val<std::_Simple_types<int> >::_Vector_val<std::_Simple_types<int> >
PUBLIC	?_Get_first@?$_Compressed_pair@V?$allocator@H@std@@V?$_Vector_val@U?$_Simple_types@H@std@@@2@$00@std@@QAEAAV?$allocator@H@2@XZ ; std::_Compressed_pair<std::allocator<int>,std::_Vector_val<std::_Simple_types<int> >,1>::_Get_first
PUBLIC	?_Get_first@?$_Compressed_pair@V?$allocator@H@std@@V?$_Vector_val@U?$_Simple_types@H@std@@@2@$00@std@@QBEABV?$allocator@H@2@XZ ; std::_Compressed_pair<std::allocator<int>,std::_Vector_val<std::_Simple_types<int> >,1>::_Get_first
PUBLIC	??_G?$vector@HV?$allocator@H@std@@@std@@QAEPAXI@Z ; std::vector<int,std::allocator<int> >::`scalar deleting destructor'
PUBLIC	??0?$initializer_list@H@std@@QAE@PBH0@Z		; std::initializer_list<int>::initializer_list<int>
PUBLIC	?begin@?$initializer_list@H@std@@QBEPBHXZ	; std::initializer_list<int>::begin
PUBLIC	?end@?$initializer_list@H@std@@QBEPBHXZ		; std::initializer_list<int>::end
PUBLIC	??0?$_Vb_iter_base@U?$_Wrap_alloc@V?$allocator@I@std@@@std@@@std@@QAE@PBIIPBU_Container_base12@1@@Z ; std::_Vb_iter_base<std::_Wrap_alloc<std::allocator<unsigned int> > >::_Vb_iter_base<std::_Wrap_alloc<std::allocator<unsigned int> > >
PUBLIC	?_Advance@?$_Vb_iter_base@U?$_Wrap_alloc@V?$allocator@I@std@@@std@@@std@@QAEXI@Z ; std::_Vb_iter_base<std::_Wrap_alloc<std::allocator<unsigned int> > >::_Advance
PUBLIC	?_Total_off@?$_Vb_iter_base@U?$_Wrap_alloc@V?$allocator@I@std@@@std@@@std@@QBEHPBV?$vector@_NV?$allocator@_N@std@@@2@@Z ; std::_Vb_iter_base<std::_Wrap_alloc<std::allocator<unsigned int> > >::_Total_off
PUBLIC	??1?$_Vb_iter_base@U?$_Wrap_alloc@V?$allocator@I@std@@@std@@@std@@QAE@XZ ; std::_Vb_iter_base<std::_Wrap_alloc<std::allocator<unsigned int> > >::~_Vb_iter_base<std::_Wrap_alloc<std::allocator<unsigned int> > >
PUBLIC	??0?$_Vb_reference@U?$_Wrap_alloc@V?$allocator@I@std@@@std@@@std@@QAE@ABV?$_Vb_iter_base@U?$_Wrap_alloc@V?$allocator@I@std@@@std@@@1@@Z ; std::_Vb_reference<std::_Wrap_alloc<std::allocator<unsigned int> > >::_Vb_reference<std::_Wrap_alloc<std::allocator<unsigned int> > >
PUBLIC	??4?$_Vb_reference@U?$_Wrap_alloc@V?$allocator@I@std@@@std@@@std@@QAEAAV01@_N@Z ; std::_Vb_reference<std::_Wrap_alloc<std::allocator<unsigned int> > >::operator=
PUBLIC	?_Getptr@?$_Vb_reference@U?$_Wrap_alloc@V?$allocator@I@std@@@std@@@std@@QBEPBIXZ ; std::_Vb_reference<std::_Wrap_alloc<std::allocator<unsigned int> > >::_Getptr
PUBLIC	?_Mask@?$_Vb_reference@U?$_Wrap_alloc@V?$allocator@I@std@@@std@@@std@@IBEIXZ ; std::_Vb_reference<std::_Wrap_alloc<std::allocator<unsigned int> > >::_Mask
PUBLIC	??1?$_Vb_reference@U?$_Wrap_alloc@V?$allocator@I@std@@@std@@@std@@QAE@XZ ; std::_Vb_reference<std::_Wrap_alloc<std::allocator<unsigned int> > >::~_Vb_reference<std::_Wrap_alloc<std::allocator<unsigned int> > >
PUBLIC	?getImgBackground@RessourcePack@@QAEPAVImage@sf@@H@Z ; RessourcePack::getImgBackground
PUBLIC	?getLevelMusic@RessourcePack@@QAEPAVMusic@sf@@H@Z ; RessourcePack::getLevelMusic
PUBLIC	?at@?$vector@PAVImage@sf@@V?$allocator@PAVImage@sf@@@std@@@std@@QAEAAPAVImage@sf@@I@Z ; std::vector<sf::Image *,std::allocator<sf::Image *> >::at
PUBLIC	?_Xrange@?$vector@PAVImage@sf@@V?$allocator@PAVImage@sf@@@std@@@std@@CAXXZ ; std::vector<sf::Image *,std::allocator<sf::Image *> >::_Xrange
PUBLIC	?size@?$vector@PAVMusic@sf@@V?$allocator@PAVMusic@sf@@@std@@@std@@QBEIXZ ; std::vector<sf::Music *,std::allocator<sf::Music *> >::size
PUBLIC	?at@?$vector@PAVMusic@sf@@V?$allocator@PAVMusic@sf@@@std@@@std@@QAEAAPAVMusic@sf@@I@Z ; std::vector<sf::Music *,std::allocator<sf::Music *> >::at
PUBLIC	?_Xrange@?$vector@PAVMusic@sf@@V?$allocator@PAVMusic@sf@@@std@@@std@@CAXXZ ; std::vector<sf::Music *,std::allocator<sf::Music *> >::_Xrange
PUBLIC	??0?$Rect@M@sf@@QAE@MMMM@Z			; sf::Rect<float>::Rect<float>
PUBLIC	??_GSprite@sf@@UAEPAXI@Z			; sf::Sprite::`scalar deleting destructor'
PUBLIC	?show@Character@@QAEXPAVRenderWindow@sf@@@Z	; Character::show
PUBLIC	?getRect@Character@@QAE?AV?$Rect@H@sf@@XZ	; Character::getRect
PUBLIC	?getX@Character@@QAEMXZ				; Character::getX
PUBLIC	?getY@Character@@QAEMXZ				; Character::getY
PUBLIC	?setMaxX@Character@@QAEXH@Z			; Character::setMaxX
PUBLIC	?getSize@Character@@QAE?AV?$Vector2@I@sf@@XZ	; Character::getSize
PUBLIC	?at@?$vector@PAVSprite@sf@@V?$allocator@PAVSprite@sf@@@std@@@std@@QAEAAPAVSprite@sf@@I@Z ; std::vector<sf::Sprite *,std::allocator<sf::Sprite *> >::at
PUBLIC	?_Xrange@?$vector@PAVSprite@sf@@V?$allocator@PAVSprite@sf@@@std@@@std@@CAXXZ ; std::vector<sf::Sprite *,std::allocator<sf::Sprite *> >::_Xrange
PUBLIC	??0?$allocator@V?$vector@HV?$allocator@H@std@@@std@@@std@@QAE@XZ ; std::allocator<std::vector<int,std::allocator<int> > >::allocator<std::vector<int,std::allocator<int> > >
PUBLIC	?deallocate@?$allocator@V?$vector@HV?$allocator@H@std@@@std@@@std@@QAEXQAV?$vector@HV?$allocator@H@std@@@2@I@Z ; std::allocator<std::vector<int,std::allocator<int> > >::deallocate
PUBLIC	?allocate@?$allocator@V?$vector@HV?$allocator@H@std@@@std@@@std@@QAEPAV?$vector@HV?$allocator@H@std@@@2@I@Z ; std::allocator<std::vector<int,std::allocator<int> > >::allocate
PUBLIC	?max_size@?$_Default_allocator_traits@V?$allocator@V?$vector@HV?$allocator@H@std@@@std@@@std@@@std@@SAIABV?$allocator@V?$vector@HV?$allocator@H@std@@@std@@@2@@Z ; std::_Default_allocator_traits<std::allocator<std::vector<int,std::allocator<int> > > >::max_size
PUBLIC	??0?$vector@V?$vector@HV?$allocator@H@std@@@std@@V?$allocator@V?$vector@HV?$allocator@H@std@@@std@@@2@@std@@QAE@V?$initializer_list@V?$vector@HV?$allocator@H@std@@@std@@@1@ABV?$allocator@V?$vector@HV?$allocator@H@std@@@std@@@1@@Z ; std::vector<std::vector<int,std::allocator<int> >,std::allocator<std::vector<int,std::allocator<int> > > >::vector<std::vector<int,std::allocator<int> >,std::allocator<std::vector<int,std::allocator<int> > > >
PUBLIC	??1?$vector@V?$vector@HV?$allocator@H@std@@@std@@V?$allocator@V?$vector@HV?$allocator@H@std@@@std@@@2@@std@@QAE@XZ ; std::vector<std::vector<int,std::allocator<int> >,std::allocator<std::vector<int,std::allocator<int> > > >::~vector<std::vector<int,std::allocator<int> >,std::allocator<std::vector<int,std::allocator<int> > > >
PUBLIC	?max_size@?$vector@V?$vector@HV?$allocator@H@std@@@std@@V?$allocator@V?$vector@HV?$allocator@H@std@@@std@@@2@@std@@QBEIXZ ; std::vector<std::vector<int,std::allocator<int> >,std::allocator<std::vector<int,std::allocator<int> > > >::max_size
PUBLIC	?_Destroy@?$vector@V?$vector@HV?$allocator@H@std@@@std@@V?$allocator@V?$vector@HV?$allocator@H@std@@@std@@@2@@std@@AAEXPAV?$vector@HV?$allocator@H@std@@@2@0@Z ; std::vector<std::vector<int,std::allocator<int> >,std::allocator<std::vector<int,std::allocator<int> > > >::_Destroy
PUBLIC	?_Buy_raw@?$vector@V?$vector@HV?$allocator@H@std@@@std@@V?$allocator@V?$vector@HV?$allocator@H@std@@@std@@@2@@std@@AAEXI@Z ; std::vector<std::vector<int,std::allocator<int> >,std::allocator<std::vector<int,std::allocator<int> > > >::_Buy_raw
PUBLIC	?_Buy_nonzero@?$vector@V?$vector@HV?$allocator@H@std@@@std@@V?$allocator@V?$vector@HV?$allocator@H@std@@@std@@@2@@std@@AAEXI@Z ; std::vector<std::vector<int,std::allocator<int> >,std::allocator<std::vector<int,std::allocator<int> > > >::_Buy_nonzero
PUBLIC	?_Tidy@?$vector@V?$vector@HV?$allocator@H@std@@@std@@V?$allocator@V?$vector@HV?$allocator@H@std@@@std@@@2@@std@@AAEXXZ ; std::vector<std::vector<int,std::allocator<int> >,std::allocator<std::vector<int,std::allocator<int> > > >::_Tidy
PUBLIC	?_Xlength@?$vector@V?$vector@HV?$allocator@H@std@@@std@@V?$allocator@V?$vector@HV?$allocator@H@std@@@std@@@2@@std@@CAXXZ ; std::vector<std::vector<int,std::allocator<int> >,std::allocator<std::vector<int,std::allocator<int> > > >::_Xlength
PUBLIC	?_Getal@?$vector@V?$vector@HV?$allocator@H@std@@@std@@V?$allocator@V?$vector@HV?$allocator@H@std@@@std@@@2@@std@@AAEAAV?$allocator@V?$vector@HV?$allocator@H@std@@@std@@@2@XZ ; std::vector<std::vector<int,std::allocator<int> >,std::allocator<std::vector<int,std::allocator<int> > > >::_Getal
PUBLIC	?_Getal@?$vector@V?$vector@HV?$allocator@H@std@@@std@@V?$allocator@V?$vector@HV?$allocator@H@std@@@std@@@2@@std@@ABEABV?$allocator@V?$vector@HV?$allocator@H@std@@@std@@@2@XZ ; std::vector<std::vector<int,std::allocator<int> >,std::allocator<std::vector<int,std::allocator<int> > > >::_Getal
PUBLIC	??0?$_Vector_val@U?$_Simple_types@V?$vector@HV?$allocator@H@std@@@std@@@std@@@std@@QAE@XZ ; std::_Vector_val<std::_Simple_types<std::vector<int,std::allocator<int> > > >::_Vector_val<std::_Simple_types<std::vector<int,std::allocator<int> > > >
PUBLIC	?_Get_first@?$_Compressed_pair@V?$allocator@V?$vector@HV?$allocator@H@std@@@std@@@std@@V?$_Vector_val@U?$_Simple_types@V?$vector@HV?$allocator@H@std@@@std@@@std@@@2@$00@std@@QAEAAV?$allocator@V?$vector@HV?$allocator@H@std@@@std@@@2@XZ ; std::_Compressed_pair<std::allocator<std::vector<int,std::allocator<int> > >,std::_Vector_val<std::_Simple_types<std::vector<int,std::allocator<int> > > >,1>::_Get_first
PUBLIC	?_Get_first@?$_Compressed_pair@V?$allocator@V?$vector@HV?$allocator@H@std@@@std@@@std@@V?$_Vector_val@U?$_Simple_types@V?$vector@HV?$allocator@H@std@@@std@@@std@@@2@$00@std@@QBEABV?$allocator@V?$vector@HV?$allocator@H@std@@@std@@@2@XZ ; std::_Compressed_pair<std::allocator<std::vector<int,std::allocator<int> > >,std::_Vector_val<std::_Simple_types<std::vector<int,std::allocator<int> > > >,1>::_Get_first
PUBLIC	?__autoclassinit2@?$vector@V?$vector@HV?$allocator@H@std@@@std@@V?$allocator@V?$vector@HV?$allocator@H@std@@@std@@@2@@std@@QAEXI@Z ; std::vector<std::vector<int,std::allocator<int> >,std::allocator<std::vector<int,std::allocator<int> > > >::__autoclassinit2
PUBLIC	??0?$initializer_list@V?$vector@HV?$allocator@H@std@@@std@@@std@@QAE@PBV?$vector@HV?$allocator@H@std@@@1@0@Z ; std::initializer_list<std::vector<int,std::allocator<int> > >::initializer_list<std::vector<int,std::allocator<int> > >
PUBLIC	?begin@?$initializer_list@V?$vector@HV?$allocator@H@std@@@std@@@std@@QBEPBV?$vector@HV?$allocator@H@std@@@2@XZ ; std::initializer_list<std::vector<int,std::allocator<int> > >::begin
PUBLIC	?end@?$initializer_list@V?$vector@HV?$allocator@H@std@@@std@@@std@@QBEPBV?$vector@HV?$allocator@H@std@@@2@XZ ; std::initializer_list<std::vector<int,std::allocator<int> > >::end
PUBLIC	??$?0ABV?$allocator@H@std@@$$V@?$_Compressed_pair@V?$allocator@H@std@@V?$_Vector_val@U?$_Simple_types@H@std@@@2@$00@std@@QAE@U_One_then_variadic_args_t@1@ABV?$allocator@H@1@@Z ; std::_Compressed_pair<std::allocator<int>,std::_Vector_val<std::_Simple_types<int> >,1>::_Compressed_pair<std::allocator<int>,std::_Vector_val<std::_Simple_types<int> >,1><std::allocator<int> const &>
PUBLIC	?deallocate@?$allocator@U_Container_proxy@std@@@std@@QAEXQAU_Container_proxy@2@I@Z ; std::allocator<std::_Container_proxy>::deallocate
PUBLIC	?allocate@?$allocator@U_Container_proxy@std@@@std@@QAEPAU_Container_proxy@2@I@Z ; std::allocator<std::_Container_proxy>::allocate
PUBLIC	??$?0H@?$allocator@U_Container_proxy@std@@@std@@QAE@ABV?$allocator@H@1@@Z ; std::allocator<std::_Container_proxy>::allocator<std::_Container_proxy><int>
PUBLIC	??0?$_Container_proxy_ptr12@V?$allocator@U_Container_proxy@std@@@std@@@std@@QAE@AAV?$allocator@U_Container_proxy@std@@@1@AAU_Container_base12@1@@Z ; std::_Container_proxy_ptr12<std::allocator<std::_Container_proxy> >::_Container_proxy_ptr12<std::allocator<std::_Container_proxy> >
PUBLIC	??1?$_Container_proxy_ptr12@V?$allocator@U_Container_proxy@std@@@std@@@std@@QAE@XZ ; std::_Container_proxy_ptr12<std::allocator<std::_Container_proxy> >::~_Container_proxy_ptr12<std::allocator<std::_Container_proxy> >
PUBLIC	??$_Range_construct_or_tidy@PBH@?$vector@HV?$allocator@H@std@@@std@@AAEXPBH0Uforward_iterator_tag@1@@Z ; std::vector<int,std::allocator<int> >::_Range_construct_or_tidy<int const *>
PUBLIC	??$forward@ABV?$allocator@H@std@@@std@@YAABV?$allocator@H@0@ABV10@@Z ; std::forward<std::allocator<int> const &>
PUBLIC	??$_Unfancy@U_Container_proxy@std@@@std@@YAPAU_Container_proxy@0@PAU10@@Z ; std::_Unfancy<std::_Container_proxy>
PUBLIC	??$addressof@U_Container_proxy@std@@@std@@YAPAU_Container_proxy@0@AAU10@@Z ; std::addressof<std::_Container_proxy>
PUBLIC	??$forward@PAU_Container_base12@std@@@std@@YA$$QAPAU_Container_base12@0@AAPAU10@@Z ; std::forward<std::_Container_base12 *>
PUBLIC	??$construct_at@U_Container_proxy@std@@PAU_Container_base12@2@X@std@@YAPAU_Container_proxy@0@QAU10@$$QAPAU_Container_base12@0@@Z ; std::construct_at<std::_Container_proxy,std::_Container_base12 *,void>
PUBLIC	??$_Voidify_iter@PAU_Container_proxy@std@@@std@@YAPAXPAU_Container_proxy@0@@Z ; std::_Voidify_iter<std::_Container_proxy *>
PUBLIC	??$distance@PBH@std@@YAHPBH0@Z			; std::distance<int const *>
PUBLIC	??1?$_Tidy_guard@V?$vector@HV?$allocator@H@std@@@std@@@std@@QAE@XZ ; std::_Tidy_guard<std::vector<int,std::allocator<int> > >::~_Tidy_guard<std::vector<int,std::allocator<int> > >
PUBLIC	??$_Ucopy@PBH@?$vector@HV?$allocator@H@std@@@std@@AAEPAHPBH0PAH@Z ; std::vector<int,std::allocator<int> >::_Ucopy<int const *>
PUBLIC	??$min@I@std@@YAABIABI0@Z			; std::min<unsigned int>
PUBLIC	??$_Uninitialized_copy@PBHV?$allocator@H@std@@@std@@YAPAHQBH0PAHAAV?$allocator@H@0@@Z ; std::_Uninitialized_copy<int const *,std::allocator<int> >
PUBLIC	??$_Get_unwrapped@ABQBH@std@@YA?A_TABQBH@Z	; std::_Get_unwrapped<int const * const &>
PUBLIC	??$to_address@$$CBH@std@@YAPBHQBH@Z		; std::to_address<int const >
PUBLIC	??$to_address@H@std@@YAPAHQAH@Z			; std::to_address<int>
PUBLIC	??$_Unfancy@H@std@@YAPAHPAH@Z			; std::_Unfancy<int>
PUBLIC	??$_Copy_memmove@PBHPAH@std@@YAPAHPBH0PAH@Z	; std::_Copy_memmove<int const *,int *>
PUBLIC	??0?$_Uninitialized_backout_al@V?$allocator@H@std@@@std@@QAE@PAHAAV?$allocator@H@1@@Z ; std::_Uninitialized_backout_al<std::allocator<int> >::_Uninitialized_backout_al<std::allocator<int> >
PUBLIC	??1?$_Uninitialized_backout_al@V?$allocator@H@std@@@std@@QAE@XZ ; std::_Uninitialized_backout_al<std::allocator<int> >::~_Uninitialized_backout_al<std::allocator<int> >
PUBLIC	?_Release@?$_Uninitialized_backout_al@V?$allocator@H@std@@@std@@QAEPAHXZ ; std::_Uninitialized_backout_al<std::allocator<int> >::_Release
PUBLIC	?__autoclassinit2@?$_Uninitialized_backout_al@V?$allocator@H@std@@@std@@QAEXI@Z ; std::_Uninitialized_backout_al<std::allocator<int> >::__autoclassinit2
PUBLIC	??$_Emplace_back@ABH@?$_Uninitialized_backout_al@V?$allocator@H@std@@@std@@QAEXABH@Z ; std::_Uninitialized_backout_al<std::allocator<int> >::_Emplace_back<int const &>
PUBLIC	??$forward@ABH@std@@YAABHABH@Z			; std::forward<int const &>
PUBLIC	??$construct@HABH@?$_Default_allocator_traits@V?$allocator@H@std@@@std@@SAXAAV?$allocator@H@1@QAHABH@Z ; std::_Default_allocator_traits<std::allocator<int> >::construct<int,int const &>
PUBLIC	??$construct_at@HABHX@std@@YAPAHQAHABH@Z	; std::construct_at<int,int const &,void>
PUBLIC	??$_Voidify_iter@PAH@std@@YAPAXPAH@Z		; std::_Voidify_iter<int *>
PUBLIC	??$_Destroy_range@V?$allocator@H@std@@@std@@YAXPAHQAHAAV?$allocator@H@0@@Z ; std::_Destroy_range<std::allocator<int> >
PUBLIC	??$_Delete_plain_internal@V?$allocator@U_Container_proxy@std@@@std@@@std@@YAXAAV?$allocator@U_Container_proxy@std@@@0@QAU_Container_proxy@0@@Z ; std::_Delete_plain_internal<std::allocator<std::_Container_proxy> >
PUBLIC	??$?0ABV?$allocator@V?$vector@HV?$allocator@H@std@@@std@@@std@@$$V@?$_Compressed_pair@V?$allocator@V?$vector@HV?$allocator@H@std@@@std@@@std@@V?$_Vector_val@U?$_Simple_types@V?$vector@HV?$allocator@H@std@@@std@@@std@@@2@$00@std@@QAE@U_One_then_variadic_args_t@1@ABV?$allocator@V?$vector@HV?$allocator@H@std@@@std@@@1@@Z ; std::_Compressed_pair<std::allocator<std::vector<int,std::allocator<int> > >,std::_Vector_val<std::_Simple_types<std::vector<int,std::allocator<int> > > >,1>::_Compressed_pair<std::allocator<std::vector<int,std::allocator<int> > >,std::_Vector_val<std::_Simple_types<std::vector<int,std::allocator<int> > > >,1><std::allocator<std::vector<int,std::allocator<int> > > const &>
PUBLIC	??$?0V?$vector@HV?$allocator@H@std@@@std@@@?$allocator@U_Container_proxy@std@@@std@@QAE@ABV?$allocator@V?$vector@HV?$allocator@H@std@@@std@@@1@@Z ; std::allocator<std::_Container_proxy>::allocator<std::_Container_proxy><std::vector<int,std::allocator<int> > >
PUBLIC	??$_Range_construct_or_tidy@PBV?$vector@HV?$allocator@H@std@@@std@@@?$vector@V?$vector@HV?$allocator@H@std@@@std@@V?$allocator@V?$vector@HV?$allocator@H@std@@@std@@@2@@std@@AAEXPBV?$vector@HV?$allocator@H@std@@@1@0Uforward_iterator_tag@1@@Z ; std::vector<std::vector<int,std::allocator<int> >,std::allocator<std::vector<int,std::allocator<int> > > >::_Range_construct_or_tidy<std::vector<int,std::allocator<int> > const *>
PUBLIC	??$forward@ABV?$allocator@V?$vector@HV?$allocator@H@std@@@std@@@std@@@std@@YAABV?$allocator@V?$vector@HV?$allocator@H@std@@@std@@@0@ABV10@@Z ; std::forward<std::allocator<std::vector<int,std::allocator<int> > > const &>
PUBLIC	??$distance@PBV?$vector@HV?$allocator@H@std@@@std@@@std@@YAHPBV?$vector@HV?$allocator@H@std@@@0@0@Z ; std::distance<std::vector<int,std::allocator<int> > const *>
PUBLIC	??1?$_Tidy_guard@V?$vector@V?$vector@HV?$allocator@H@std@@@std@@V?$allocator@V?$vector@HV?$allocator@H@std@@@std@@@2@@std@@@std@@QAE@XZ ; std::_Tidy_guard<std::vector<std::vector<int,std::allocator<int> >,std::allocator<std::vector<int,std::allocator<int> > > > >::~_Tidy_guard<std::vector<std::vector<int,std::allocator<int> >,std::allocator<std::vector<int,std::allocator<int> > > > >
PUBLIC	??$_Ucopy@PBV?$vector@HV?$allocator@H@std@@@std@@@?$vector@V?$vector@HV?$allocator@H@std@@@std@@V?$allocator@V?$vector@HV?$allocator@H@std@@@std@@@2@@std@@AAEPAV?$vector@HV?$allocator@H@std@@@1@PBV21@0PAV21@@Z ; std::vector<std::vector<int,std::allocator<int> >,std::allocator<std::vector<int,std::allocator<int> > > >::_Ucopy<std::vector<int,std::allocator<int> > const *>
PUBLIC	??$_Uninitialized_copy@PBV?$vector@HV?$allocator@H@std@@@std@@V?$allocator@V?$vector@HV?$allocator@H@std@@@std@@@2@@std@@YAPAV?$vector@HV?$allocator@H@std@@@0@QBV10@0PAV10@AAV?$allocator@V?$vector@HV?$allocator@H@std@@@std@@@0@@Z ; std::_Uninitialized_copy<std::vector<int,std::allocator<int> > const *,std::allocator<std::vector<int,std::allocator<int> > > >
PUBLIC	??$_Get_unwrapped@ABQBV?$vector@HV?$allocator@H@std@@@std@@@std@@YA?A_TABQBV?$vector@HV?$allocator@H@std@@@0@@Z ; std::_Get_unwrapped<std::vector<int,std::allocator<int> > const * const &>
PUBLIC	??0?$_Uninitialized_backout_al@V?$allocator@V?$vector@HV?$allocator@H@std@@@std@@@std@@@std@@QAE@PAV?$vector@HV?$allocator@H@std@@@1@AAV?$allocator@V?$vector@HV?$allocator@H@std@@@std@@@1@@Z ; std::_Uninitialized_backout_al<std::allocator<std::vector<int,std::allocator<int> > > >::_Uninitialized_backout_al<std::allocator<std::vector<int,std::allocator<int> > > >
PUBLIC	??1?$_Uninitialized_backout_al@V?$allocator@V?$vector@HV?$allocator@H@std@@@std@@@std@@@std@@QAE@XZ ; std::_Uninitialized_backout_al<std::allocator<std::vector<int,std::allocator<int> > > >::~_Uninitialized_backout_al<std::allocator<std::vector<int,std::allocator<int> > > >
PUBLIC	?_Release@?$_Uninitialized_backout_al@V?$allocator@V?$vector@HV?$allocator@H@std@@@std@@@std@@@std@@QAEPAV?$vector@HV?$allocator@H@std@@@2@XZ ; std::_Uninitialized_backout_al<std::allocator<std::vector<int,std::allocator<int> > > >::_Release
PUBLIC	?__autoclassinit2@?$_Uninitialized_backout_al@V?$allocator@V?$vector@HV?$allocator@H@std@@@std@@@std@@@std@@QAEXI@Z ; std::_Uninitialized_backout_al<std::allocator<std::vector<int,std::allocator<int> > > >::__autoclassinit2
PUBLIC	??$_Emplace_back@ABV?$vector@HV?$allocator@H@std@@@std@@@?$_Uninitialized_backout_al@V?$allocator@V?$vector@HV?$allocator@H@std@@@std@@@std@@@std@@QAEXABV?$vector@HV?$allocator@H@std@@@1@@Z ; std::_Uninitialized_backout_al<std::allocator<std::vector<int,std::allocator<int> > > >::_Emplace_back<std::vector<int,std::allocator<int> > const &>
PUBLIC	??$_Unfancy@V?$vector@HV?$allocator@H@std@@@std@@@std@@YAPAV?$vector@HV?$allocator@H@std@@@0@PAV10@@Z ; std::_Unfancy<std::vector<int,std::allocator<int> > >
PUBLIC	??$forward@ABV?$vector@HV?$allocator@H@std@@@std@@@std@@YAABV?$vector@HV?$allocator@H@std@@@0@ABV10@@Z ; std::forward<std::vector<int,std::allocator<int> > const &>
PUBLIC	??$construct@V?$vector@HV?$allocator@H@std@@@std@@ABV12@@?$_Default_allocator_traits@V?$allocator@V?$vector@HV?$allocator@H@std@@@std@@@std@@@std@@SAXAAV?$allocator@V?$vector@HV?$allocator@H@std@@@std@@@1@QAV?$vector@HV?$allocator@H@std@@@1@ABV31@@Z ; std::_Default_allocator_traits<std::allocator<std::vector<int,std::allocator<int> > > >::construct<std::vector<int,std::allocator<int> >,std::vector<int,std::allocator<int> > const &>
PUBLIC	??$construct_at@V?$vector@HV?$allocator@H@std@@@std@@ABV12@X@std@@YAPAV?$vector@HV?$allocator@H@std@@@0@QAV10@ABV10@@Z ; std::construct_at<std::vector<int,std::allocator<int> >,std::vector<int,std::allocator<int> > const &,void>
PUBLIC	??$_Voidify_iter@PAV?$vector@HV?$allocator@H@std@@@std@@@std@@YAPAXPAV?$vector@HV?$allocator@H@std@@@0@@Z ; std::_Voidify_iter<std::vector<int,std::allocator<int> > *>
PUBLIC	??$?0V?$allocator@H@std@@$$V@?$_Compressed_pair@V?$allocator@H@std@@V?$_Vector_val@U?$_Simple_types@H@std@@@2@$00@std@@QAE@U_One_then_variadic_args_t@1@$$QAV?$allocator@H@1@@Z ; std::_Compressed_pair<std::allocator<int>,std::_Vector_val<std::_Simple_types<int> >,1>::_Compressed_pair<std::allocator<int>,std::_Vector_val<std::_Simple_types<int> >,1><std::allocator<int> >
PUBLIC	??$_Ucopy@PAH@?$vector@HV?$allocator@H@std@@@std@@AAEPAHPAH00@Z ; std::vector<int,std::allocator<int> >::_Ucopy<int *>
PUBLIC	??$forward@V?$allocator@H@std@@@std@@YA$$QAV?$allocator@H@0@AAV10@@Z ; std::forward<std::allocator<int> >
PUBLIC	??$_Uninitialized_copy@PAHV?$allocator@H@std@@@std@@YAPAHQAH0PAHAAV?$allocator@H@0@@Z ; std::_Uninitialized_copy<int *,std::allocator<int> >
PUBLIC	??$_Get_unwrapped@ABQAH@std@@YA?A_TABQAH@Z	; std::_Get_unwrapped<int * const &>
PUBLIC	??$_Copy_memmove@PAHPAH@std@@YAPAHPAH00@Z	; std::_Copy_memmove<int *,int *>
PUBLIC	??$_Emplace_back@AAH@?$_Uninitialized_backout_al@V?$allocator@H@std@@@std@@QAEXAAH@Z ; std::_Uninitialized_backout_al<std::allocator<int> >::_Emplace_back<int &>
PUBLIC	??$forward@AAH@std@@YAAAHAAH@Z			; std::forward<int &>
PUBLIC	??$construct@HAAH@?$_Default_allocator_traits@V?$allocator@H@std@@@std@@SAXAAV?$allocator@H@1@QAHAAH@Z ; std::_Default_allocator_traits<std::allocator<int> >::construct<int,int &>
PUBLIC	??$construct_at@HAAHX@std@@YAPAHQAHAAH@Z	; std::construct_at<int,int &,void>
PUBLIC	??$_Destroy_range@V?$allocator@V?$vector@HV?$allocator@H@std@@@std@@@std@@@std@@YAXPAV?$vector@HV?$allocator@H@std@@@0@QAV10@AAV?$allocator@V?$vector@HV?$allocator@H@std@@@std@@@0@@Z ; std::_Destroy_range<std::allocator<std::vector<int,std::allocator<int> > > >
PUBLIC	??$destroy@V?$vector@HV?$allocator@H@std@@@std@@@?$_Default_allocator_traits@V?$allocator@V?$vector@HV?$allocator@H@std@@@std@@@std@@@std@@SAXAAV?$allocator@V?$vector@HV?$allocator@H@std@@@std@@@1@QAV?$vector@HV?$allocator@H@std@@@1@@Z ; std::_Default_allocator_traits<std::allocator<std::vector<int,std::allocator<int> > > >::destroy<std::vector<int,std::allocator<int> > >
PUBLIC	?getX@Block@@QAEMXZ				; Block::getX
PUBLIC	?getY@Block@@QAEMXZ				; Block::getY
PUBLIC	?getPlayer@TerrainConstructor@@QAEPAVPlayer@@XZ	; TerrainConstructor::getPlayer
PUBLIC	?getTerrain@Terrain@@QAEPAV?$vector@PAVBlock@@V?$allocator@PAVBlock@@@std@@@std@@XZ ; Terrain::getTerrain
PUBLIC	?getPlayer@Terrain@@QAEPAVPlayer@@XZ		; Terrain::getPlayer
PUBLIC	?getElementAtPos@Terrain@@QAEPAVBlock@@H@Z	; Terrain::getElementAtPos
PUBLIC	?getSizeX@Terrain@@QAEIXZ			; Terrain::getSizeX
PUBLIC	?getSizeY@Terrain@@QAEIXZ			; Terrain::getSizeY
PUBLIC	?__autoclassinit2@Terrain@@QAEXI@Z		; Terrain::__autoclassinit2
PUBLIC	??_GTerrain@@QAEPAXI@Z				; Terrain::`scalar deleting destructor'
PUBLIC	?erase@?$vector@PAVBlock@@V?$allocator@PAVBlock@@@std@@@std@@QAE?AV?$_Vector_iterator@V?$_Vector_val@U?$_Simple_types@PAVBlock@@@std@@@std@@@2@V?$_Vector_const_iterator@V?$_Vector_val@U?$_Simple_types@PAVBlock@@@std@@@std@@@2@@Z ; std::vector<Block *,std::allocator<Block *> >::erase
PUBLIC	?begin@?$vector@PAVBlock@@V?$allocator@PAVBlock@@@std@@@std@@QAE?AV?$_Vector_iterator@V?$_Vector_val@U?$_Simple_types@PAVBlock@@@std@@@std@@@2@XZ ; std::vector<Block *,std::allocator<Block *> >::begin
PUBLIC	?_Unchecked_begin@?$vector@PAVBlock@@V?$allocator@PAVBlock@@@std@@@std@@QAEPAPAVBlock@@XZ ; std::vector<Block *,std::allocator<Block *> >::_Unchecked_begin
PUBLIC	?_Unchecked_end@?$vector@PAVBlock@@V?$allocator@PAVBlock@@@std@@@std@@QAEPAPAVBlock@@XZ ; std::vector<Block *,std::allocator<Block *> >::_Unchecked_end
PUBLIC	?size@?$vector@PAVBlock@@V?$allocator@PAVBlock@@@std@@@std@@QBEIXZ ; std::vector<Block *,std::allocator<Block *> >::size
PUBLIC	?at@?$vector@PAVBlock@@V?$allocator@PAVBlock@@@std@@@std@@QAEAAPAVBlock@@I@Z ; std::vector<Block *,std::allocator<Block *> >::at
PUBLIC	?_Xrange@?$vector@PAVBlock@@V?$allocator@PAVBlock@@@std@@@std@@CAXXZ ; std::vector<Block *,std::allocator<Block *> >::_Xrange
PUBLIC	?_Orphan_range_unlocked@?$vector@PAVBlock@@V?$allocator@PAVBlock@@@std@@@std@@ABEXPAPAVBlock@@0@Z ; std::vector<Block *,std::allocator<Block *> >::_Orphan_range_unlocked
PUBLIC	?_Orphan_range_locked@?$vector@PAVBlock@@V?$allocator@PAVBlock@@@std@@@std@@ABEXPAPAVBlock@@0@Z ; std::vector<Block *,std::allocator<Block *> >::_Orphan_range_locked
PUBLIC	?_Orphan_range@?$vector@PAVBlock@@V?$allocator@PAVBlock@@@std@@@std@@ABEXPAPAVBlock@@0@Z ; std::vector<Block *,std::allocator<Block *> >::_Orphan_range
PUBLIC	?_Getal@?$vector@PAVBlock@@V?$allocator@PAVBlock@@@std@@@std@@AAEAAV?$allocator@PAVBlock@@@2@XZ ; std::vector<Block *,std::allocator<Block *> >::_Getal
PUBLIC	?_Get_first@?$_Compressed_pair@V?$allocator@PAVBlock@@@std@@V?$_Vector_val@U?$_Simple_types@PAVBlock@@@std@@@2@$00@std@@QAEAAV?$allocator@PAVBlock@@@2@XZ ; std::_Compressed_pair<std::allocator<Block *>,std::_Vector_val<std::_Simple_types<Block *> >,1>::_Get_first
PUBLIC	??0?$tuple@W4DIRDEP@@@std@@QAE@ABV01@@Z		; std::tuple<enum DIRDEP>::tuple<enum DIRDEP>
PUBLIC	?_Get_rest@?$tuple@W4DIRDEP@@@std@@QAEAAV?$tuple@$$V@2@XZ ; std::tuple<enum DIRDEP>::_Get_rest
PUBLIC	??0?$tuple@W4DIRDEP@@W41@@std@@QAE@ABV01@@Z	; std::tuple<enum DIRDEP,enum DIRDEP>::tuple<enum DIRDEP,enum DIRDEP>
PUBLIC	?_Get_rest@?$tuple@W4DIRDEP@@W41@@std@@QAEAAV?$tuple@W4DIRDEP@@@2@XZ ; std::tuple<enum DIRDEP,enum DIRDEP>::_Get_rest
PUBLIC	??0Univers@@QAE@PAVRessourcePack@@PAVRenderWindow@sf@@@Z ; Univers::Univers
PUBLIC	?animate@Univers@@QAEXXZ			; Univers::animate
PUBLIC	?collision@Univers@@QAEPAV?$vector@_NV?$allocator@_N@std@@@std@@PAVCharacter@@@Z ; Univers::collision
PUBLIC	?loadTerrain@Univers@@QAEXH@Z			; Univers::loadTerrain
PUBLIC	??$?4V?$tuple@W4DIRDEP@@W41@@std@@W4DIRDEP@@$0A@@?$tuple@W4DIRDEP@@W41@@std@@QAEAAV01@$$QAV01@@Z ; std::tuple<enum DIRDEP,enum DIRDEP>::operator=<std::tuple<enum DIRDEP,enum DIRDEP>,enum DIRDEP,0>
PUBLIC	??$make_tuple@W4DIRDEP@@W41@@std@@YA?AV?$tuple@W4DIRDEP@@W41@@0@$$QAW4DIRDEP@@0@Z ; std::make_tuple<enum DIRDEP,enum DIRDEP>
PUBLIC	??$get@$0A@W4DIRDEP@@W41@@std@@YAAAW4DIRDEP@@AAV?$tuple@W4DIRDEP@@W41@@0@@Z ; std::get<0,enum DIRDEP,enum DIRDEP>
PUBLIC	??$make_tuple@AAW4DIRDEP@@W41@@std@@YA?AV?$tuple@W4DIRDEP@@W41@@0@AAW4DIRDEP@@$$QAW42@@Z ; std::make_tuple<enum DIRDEP &,enum DIRDEP>
PUBLIC	??$get@$00W4DIRDEP@@W41@@std@@YAAAW4DIRDEP@@AAV?$tuple@W4DIRDEP@@W41@@0@@Z ; std::get<1,enum DIRDEP,enum DIRDEP>
PUBLIC	??$make_tuple@W4DIRDEP@@AAW41@@std@@YA?AV?$tuple@W4DIRDEP@@W41@@0@$$QAW4DIRDEP@@AAW42@@Z ; std::make_tuple<enum DIRDEP,enum DIRDEP &>
PUBLIC	??0?$_Vector_const_iterator@V?$_Vector_val@U?$_Simple_types@PAVBlock@@@std@@@std@@@std@@QAE@PAPAVBlock@@PBU_Container_base12@1@@Z ; std::_Vector_const_iterator<std::_Vector_val<std::_Simple_types<Block *> > >::_Vector_const_iterator<std::_Vector_val<std::_Simple_types<Block *> > >
PUBLIC	?_Verify_offset@?$_Vector_const_iterator@V?$_Vector_val@U?$_Simple_types@PAVBlock@@@std@@@std@@@std@@QBEXH@Z ; std::_Vector_const_iterator<std::_Vector_val<std::_Simple_types<Block *> > >::_Verify_offset
PUBLIC	??Y?$_Vector_const_iterator@V?$_Vector_val@U?$_Simple_types@PAVBlock@@@std@@@std@@@std@@QAEAAV01@H@Z ; std::_Vector_const_iterator<std::_Vector_val<std::_Simple_types<Block *> > >::operator+=
PUBLIC	??1?$_Vector_const_iterator@V?$_Vector_val@U?$_Simple_types@PAVBlock@@@std@@@std@@@std@@QAE@XZ ; std::_Vector_const_iterator<std::_Vector_val<std::_Simple_types<Block *> > >::~_Vector_const_iterator<std::_Vector_val<std::_Simple_types<Block *> > >
PUBLIC	??0?$_Vector_const_iterator@V?$_Vector_val@U?$_Simple_types@PAVBlock@@@std@@@std@@@std@@QAE@ABV01@@Z ; std::_Vector_const_iterator<std::_Vector_val<std::_Simple_types<Block *> > >::_Vector_const_iterator<std::_Vector_val<std::_Simple_types<Block *> > >
PUBLIC	??Y?$_Vector_iterator@V?$_Vector_val@U?$_Simple_types@PAVBlock@@@std@@@std@@@std@@QAEAAV01@H@Z ; std::_Vector_iterator<std::_Vector_val<std::_Simple_types<Block *> > >::operator+=
PUBLIC	??H?$_Vector_iterator@V?$_Vector_val@U?$_Simple_types@PAVBlock@@@std@@@std@@@std@@QBE?AV01@H@Z ; std::_Vector_iterator<std::_Vector_val<std::_Simple_types<Block *> > >::operator+
PUBLIC	??1?$_Vector_iterator@V?$_Vector_val@U?$_Simple_types@PAVBlock@@@std@@@std@@@std@@QAE@XZ ; std::_Vector_iterator<std::_Vector_val<std::_Simple_types<Block *> > >::~_Vector_iterator<std::_Vector_val<std::_Simple_types<Block *> > >
PUBLIC	??0?$_Vector_iterator@V?$_Vector_val@U?$_Simple_types@PAVBlock@@@std@@@std@@@std@@QAE@ABV01@@Z ; std::_Vector_iterator<std::_Vector_val<std::_Simple_types<Block *> > >::_Vector_iterator<std::_Vector_val<std::_Simple_types<Block *> > >
PUBLIC	?__autoclassinit2@?$_Vector_iterator@V?$_Vector_val@U?$_Simple_types@PAVBlock@@@std@@@std@@@std@@QAEXI@Z ; std::_Vector_iterator<std::_Vector_val<std::_Simple_types<Block *> > >::__autoclassinit2
PUBLIC	??0?$_Vector_iterator@V?$_Vector_val@U?$_Simple_types@PAVBlock@@@std@@@std@@@std@@QAE@PAPAVBlock@@PBU_Container_base12@1@@Z ; std::_Vector_iterator<std::_Vector_val<std::_Simple_types<Block *> > >::_Vector_iterator<std::_Vector_val<std::_Simple_types<Block *> > >
PUBLIC	??0?$Vector2@H@sf@@QAE@HH@Z			; sf::Vector2<int>::Vector2<int>
PUBLIC	??$?6U?$char_traits@D@std@@@std@@YAAAV?$basic_ostream@DU?$char_traits@D@std@@@0@AAV10@PBD@Z ; std::operator<<<std::char_traits<char> >
PUBLIC	??$endl@DU?$char_traits@D@std@@@std@@YAAAV?$basic_ostream@DU?$char_traits@D@std@@@0@AAV10@@Z ; std::endl<char,std::char_traits<char> >
PUBLIC	??$addressof@V?$_Vector_val@U?$_Simple_types@PAVBlock@@@std@@@std@@@std@@YAPAV?$_Vector_val@U?$_Simple_types@PAVBlock@@@std@@@0@AAV10@@Z ; std::addressof<std::_Vector_val<std::_Simple_types<Block *> > >
PUBLIC	??$_Move_unchecked@PAPAVBlock@@PAPAV1@@std@@YAPAPAVBlock@@PAPAV1@00@Z ; std::_Move_unchecked<Block * *,Block * *>
PUBLIC	??$_Unfancy@PAVBlock@@@std@@YAPAPAVBlock@@PAPAV1@@Z ; std::_Unfancy<Block *>
PUBLIC	??$destroy@PAVBlock@@@?$_Default_allocator_traits@V?$allocator@PAVBlock@@@std@@@std@@SAXAAV?$allocator@PAVBlock@@@1@QAPAVBlock@@@Z ; std::_Default_allocator_traits<std::allocator<Block *> >::destroy<Block *>
PUBLIC	??$_Get_size_of_n@$07@std@@YAII@Z		; std::_Get_size_of_n<8>
PUBLIC	??$_Allocate@$07U_Default_allocate_traits@std@@$0A@@std@@YAPAXI@Z ; std::_Allocate<8,std::_Default_allocate_traits,0>
PUBLIC	??$exchange@PAU_Container_proxy@std@@$$T@std@@YAPAU_Container_proxy@0@AAPAU10@$$QA$$T@Z ; std::exchange<std::_Container_proxy *,std::nullptr_t>
PUBLIC	??$_Get_size_of_n@$0BA@@std@@YAII@Z		; std::_Get_size_of_n<16>
PUBLIC	??$_Alloc_proxy@V?$allocator@U_Container_proxy@std@@@std@@@_Container_base12@std@@QAEX$$QAV?$allocator@U_Container_proxy@std@@@1@@Z ; std::_Container_base12::_Alloc_proxy<std::allocator<std::_Container_proxy> >
PUBLIC	??$_Get_size_of_n@$03@std@@YAII@Z		; std::_Get_size_of_n<4>
PUBLIC	??0_Sentry_base@?$basic_ostream@DU?$char_traits@D@std@@@std@@QAE@AAV12@@Z ; std::basic_ostream<char,std::char_traits<char> >::_Sentry_base::_Sentry_base
PUBLIC	??1_Sentry_base@?$basic_ostream@DU?$char_traits@D@std@@@std@@QAE@XZ ; std::basic_ostream<char,std::char_traits<char> >::_Sentry_base::~_Sentry_base
PUBLIC	??0sentry@?$basic_ostream@DU?$char_traits@D@std@@@std@@QAE@AAV12@@Z ; std::basic_ostream<char,std::char_traits<char> >::sentry::sentry
PUBLIC	??1sentry@?$basic_ostream@DU?$char_traits@D@std@@@std@@QAE@XZ ; std::basic_ostream<char,std::char_traits<char> >::sentry::~sentry
PUBLIC	??Bsentry@?$basic_ostream@DU?$char_traits@D@std@@@std@@QBE_NXZ ; std::basic_ostream<char,std::char_traits<char> >::sentry::operator bool
PUBLIC	??$?0D@?$allocator@U_Container_proxy@std@@@std@@QAE@ABV?$allocator@D@1@@Z ; std::allocator<std::_Container_proxy>::allocator<std::_Container_proxy><char>
PUBLIC	??$?0$$V@?$_Compressed_pair@V?$allocator@D@std@@V?$_String_val@U?$_Simple_types@D@std@@@2@$00@std@@QAE@U_Zero_then_variadic_args_t@1@@Z ; std::_Compressed_pair<std::allocator<char>,std::_String_val<std::_Simple_types<char> >,1>::_Compressed_pair<std::allocator<char>,std::_String_val<std::_Simple_types<char> >,1><>
PUBLIC	??$_Deallocate@$07$0A@@std@@YAXPAXI@Z		; std::_Deallocate<8,0>
PUBLIC	??0?$_Vector_const_iterator@V?$_Vector_val@U?$_Simple_types@I@std@@@std@@@std@@QAE@PAIPBU_Container_base12@1@@Z ; std::_Vector_const_iterator<std::_Vector_val<std::_Simple_types<unsigned int> > >::_Vector_const_iterator<std::_Vector_val<std::_Simple_types<unsigned int> > >
PUBLIC	?_Verify_offset@?$_Vector_const_iterator@V?$_Vector_val@U?$_Simple_types@I@std@@@std@@@std@@QBEXH@Z ; std::_Vector_const_iterator<std::_Vector_val<std::_Simple_types<unsigned int> > >::_Verify_offset
PUBLIC	??Y?$_Vector_const_iterator@V?$_Vector_val@U?$_Simple_types@I@std@@@std@@@std@@QAEAAV01@H@Z ; std::_Vector_const_iterator<std::_Vector_val<std::_Simple_types<unsigned int> > >::operator+=
PUBLIC	??1?$_Vector_const_iterator@V?$_Vector_val@U?$_Simple_types@I@std@@@std@@@std@@QAE@XZ ; std::_Vector_const_iterator<std::_Vector_val<std::_Simple_types<unsigned int> > >::~_Vector_const_iterator<std::_Vector_val<std::_Simple_types<unsigned int> > >
PUBLIC	??0?$_Vector_const_iterator@V?$_Vector_val@U?$_Simple_types@I@std@@@std@@@std@@QAE@ABV01@@Z ; std::_Vector_const_iterator<std::_Vector_val<std::_Simple_types<unsigned int> > >::_Vector_const_iterator<std::_Vector_val<std::_Simple_types<unsigned int> > >
PUBLIC	??Y?$_Vector_iterator@V?$_Vector_val@U?$_Simple_types@I@std@@@std@@@std@@QAEAAV01@H@Z ; std::_Vector_iterator<std::_Vector_val<std::_Simple_types<unsigned int> > >::operator+=
PUBLIC	??H?$_Vector_iterator@V?$_Vector_val@U?$_Simple_types@I@std@@@std@@@std@@QBE?AV01@H@Z ; std::_Vector_iterator<std::_Vector_val<std::_Simple_types<unsigned int> > >::operator+
PUBLIC	??1?$_Vector_iterator@V?$_Vector_val@U?$_Simple_types@I@std@@@std@@@std@@QAE@XZ ; std::_Vector_iterator<std::_Vector_val<std::_Simple_types<unsigned int> > >::~_Vector_iterator<std::_Vector_val<std::_Simple_types<unsigned int> > >
PUBLIC	??0?$_Vector_iterator@V?$_Vector_val@U?$_Simple_types@I@std@@@std@@@std@@QAE@ABV01@@Z ; std::_Vector_iterator<std::_Vector_val<std::_Simple_types<unsigned int> > >::_Vector_iterator<std::_Vector_val<std::_Simple_types<unsigned int> > >
PUBLIC	?__autoclassinit2@?$_Vector_iterator@V?$_Vector_val@U?$_Simple_types@I@std@@@std@@@std@@QAEXI@Z ; std::_Vector_iterator<std::_Vector_val<std::_Simple_types<unsigned int> > >::__autoclassinit2
PUBLIC	??0?$_Vector_iterator@V?$_Vector_val@U?$_Simple_types@I@std@@@std@@@std@@QAE@PAIPBU_Container_base12@1@@Z ; std::_Vector_iterator<std::_Vector_val<std::_Simple_types<unsigned int> > >::_Vector_iterator<std::_Vector_val<std::_Simple_types<unsigned int> > >
PUBLIC	??0?$_Vb_const_iterator@U?$_Wrap_alloc@V?$allocator@I@std@@@std@@@std@@QAE@PBIPBU_Container_base12@1@@Z ; std::_Vb_const_iterator<std::_Wrap_alloc<std::allocator<unsigned int> > >::_Vb_const_iterator<std::_Wrap_alloc<std::allocator<unsigned int> > >
PUBLIC	??1?$_Vb_const_iterator@U?$_Wrap_alloc@V?$allocator@I@std@@@std@@@std@@QAE@XZ ; std::_Vb_const_iterator<std::_Wrap_alloc<std::allocator<unsigned int> > >::~_Vb_const_iterator<std::_Wrap_alloc<std::allocator<unsigned int> > >
PUBLIC	??D?$_Vb_iterator@U?$_Wrap_alloc@V?$allocator@I@std@@@std@@@std@@QBE?AV?$_Vb_reference@U?$_Wrap_alloc@V?$allocator@I@std@@@std@@@1@XZ ; std::_Vb_iterator<std::_Wrap_alloc<std::allocator<unsigned int> > >::operator*
PUBLIC	??1?$_Vb_iterator@U?$_Wrap_alloc@V?$allocator@I@std@@@std@@@std@@QAE@XZ ; std::_Vb_iterator<std::_Wrap_alloc<std::allocator<unsigned int> > >::~_Vb_iterator<std::_Wrap_alloc<std::allocator<unsigned int> > >
PUBLIC	?__autoclassinit2@?$_Vb_iterator@U?$_Wrap_alloc@V?$allocator@I@std@@@std@@@std@@QAEXI@Z ; std::_Vb_iterator<std::_Wrap_alloc<std::allocator<unsigned int> > >::__autoclassinit2
PUBLIC	??0?$_Vb_iterator@U?$_Wrap_alloc@V?$allocator@I@std@@@std@@@std@@QAE@PBIPBU_Container_base12@1@@Z ; std::_Vb_iterator<std::_Wrap_alloc<std::allocator<unsigned int> > >::_Vb_iterator<std::_Wrap_alloc<std::allocator<unsigned int> > >
PUBLIC	??$?0I@?$allocator@U_Container_proxy@std@@@std@@QAE@ABV?$allocator@I@1@@Z ; std::allocator<std::_Container_proxy>::allocator<std::_Container_proxy><unsigned int>
PUBLIC	??$?0_N@?$allocator@I@std@@QAE@ABV?$allocator@_N@1@@Z ; std::allocator<unsigned int>::allocator<unsigned int><bool>
PUBLIC	??$_Unfancy@D@std@@YAPADPAD@Z			; std::_Unfancy<char>
PUBLIC	??R<lambda_1>@?1??assign@?$basic_string@DU?$char_traits@D@std@@V?$allocator@D@2@@std@@QAEAAV23@QBDI@Z@QBE@QADI0@Z ; `std::basic_string<char,std::char_traits<char>,std::allocator<char> >::assign'::`2'::<lambda_1>::operator()
PUBLIC	??$_Reallocate_for@V<lambda_1>@?1??assign@?$basic_string@DU?$char_traits@D@std@@V?$allocator@D@2@@std@@QAEAAV34@QBDI@Z@PBD@?$basic_string@DU?$char_traits@D@std@@V?$allocator@D@2@@std@@AAEAAV01@IV<lambda_1>@?1??assign@01@QAEAAV01@QBDI@Z@PBD@Z ; std::basic_string<char,std::char_traits<char>,std::allocator<char> >::_Reallocate_for<`std::basic_string<char,std::char_traits<char>,std::allocator<char> >::assign'::`2'::<lambda_1>,char const *>
PUBLIC	??$_Construct_in_place@PADABQAD@std@@YAXAAPADABQAD@Z ; std::_Construct_in_place<char *,char * const &>
PUBLIC	??$addressof@V?$_Vector_val@U?$_Simple_types@I@std@@@std@@@std@@YAPAV?$_Vector_val@U?$_Simple_types@I@std@@@0@AAV10@@Z ; std::addressof<std::_Vector_val<std::_Simple_types<unsigned int> > >
PUBLIC	??$_Move_unchecked@PAIPAI@std@@YAPAIPAI00@Z	; std::_Move_unchecked<unsigned int *,unsigned int *>
PUBLIC	??$?0V?$allocator@I@std@@$$V@?$_Compressed_pair@V?$allocator@I@std@@V?$_Vector_val@U?$_Simple_types@I@std@@@2@$00@std@@QAE@U_One_then_variadic_args_t@1@$$QAV?$allocator@I@1@@Z ; std::_Compressed_pair<std::allocator<unsigned int>,std::_Vector_val<std::_Simple_types<unsigned int> >,1>::_Compressed_pair<std::allocator<unsigned int>,std::_Vector_val<std::_Simple_types<unsigned int> >,1><std::allocator<unsigned int> >
PUBLIC	??1?$_Tidy_guard@V?$vector@IV?$allocator@I@std@@@std@@@std@@QAE@XZ ; std::_Tidy_guard<std::vector<unsigned int,std::allocator<unsigned int> > >::~_Tidy_guard<std::vector<unsigned int,std::allocator<unsigned int> > >
PUBLIC	??$_Ucopy@PAI@?$vector@IV?$allocator@I@std@@@std@@AAEPAIPAI00@Z ; std::vector<unsigned int,std::allocator<unsigned int> >::_Ucopy<unsigned int *>
PUBLIC	??$?0ABV?$allocator@I@std@@$$V@?$_Compressed_pair@V?$allocator@I@std@@V?$_Vector_val@U?$_Simple_types@I@std@@@2@$00@std@@QAE@U_One_then_variadic_args_t@1@ABV?$allocator@I@1@@Z ; std::_Compressed_pair<std::allocator<unsigned int>,std::_Vector_val<std::_Simple_types<unsigned int> >,1>::_Compressed_pair<std::allocator<unsigned int>,std::_Vector_val<std::_Simple_types<unsigned int> >,1><std::allocator<unsigned int> const &>
PUBLIC	??$_Construct_n_copies_of_ty@I@?$vector@IV?$allocator@I@std@@@std@@AAEXIABI@Z ; std::vector<unsigned int,std::allocator<unsigned int> >::_Construct_n_copies_of_ty<unsigned int>
PUBLIC	??$_Get_size_of_n@$00@std@@YAII@Z		; std::_Get_size_of_n<1>
PUBLIC	??$construct_at@DABDX@std@@YAPADQADABD@Z	; std::construct_at<char,char const &,void>
PUBLIC	??$_Voidify_iter@PAD@std@@YAPAXPAD@Z		; std::_Voidify_iter<char *>
PUBLIC	??$forward@ABD@std@@YAABDABD@Z			; std::forward<char const &>
PUBLIC	??$_Destroy_range@V?$allocator@I@std@@@std@@YAXPAIQAIAAV?$allocator@I@0@@Z ; std::_Destroy_range<std::allocator<unsigned int> >
PUBLIC	??$_Unfancy_maybe_null@I@std@@YAPAIPAI@Z	; std::_Unfancy_maybe_null<unsigned int>
PUBLIC	??$_To_address@PBH@std@@YA?A_PABQBH@Z		; std::_To_address<int const *>
PUBLIC	??$_To_address@PAH@std@@YA?A_PABQAH@Z		; std::_To_address<int *>
PUBLIC	??$_Deallocate_plain@V?$allocator@U_Container_proxy@std@@@std@@@std@@YAXAAV?$allocator@U_Container_proxy@std@@@0@QAU_Container_proxy@0@@Z ; std::_Deallocate_plain<std::allocator<std::_Container_proxy> >
PUBLIC	??$destroy_at@V?$vector@HV?$allocator@H@std@@@std@@@std@@YAXQAV?$vector@HV?$allocator@H@std@@@0@@Z ; std::destroy_at<std::vector<int,std::allocator<int> > >
PUBLIC	??$forward@W4DIRDEP@@@std@@YA$$QAW4DIRDEP@@AAW41@@Z ; std::forward<enum DIRDEP>
PUBLIC	??$forward@V?$tuple@W4DIRDEP@@@std@@@std@@YA$$QAV?$tuple@W4DIRDEP@@@0@AAV10@@Z ; std::forward<std::tuple<enum DIRDEP> >
PUBLIC	??$?4V?$tuple@W4DIRDEP@@@std@@W4DIRDEP@@$0A@@?$tuple@W4DIRDEP@@@std@@QAEAAV01@$$QAV01@@Z ; std::tuple<enum DIRDEP>::operator=<std::tuple<enum DIRDEP>,enum DIRDEP,0>
PUBLIC	??$?0W4DIRDEP@@W40@$0A@@?$tuple@W4DIRDEP@@W41@@std@@QAE@$$QAW4DIRDEP@@0@Z ; std::tuple<enum DIRDEP,enum DIRDEP>::tuple<enum DIRDEP,enum DIRDEP><enum DIRDEP,enum DIRDEP,0>
PUBLIC	??$forward@AAW4DIRDEP@@@std@@YAAAW4DIRDEP@@AAW41@@Z ; std::forward<enum DIRDEP &>
PUBLIC	??$?0AAW4DIRDEP@@W40@$0A@@?$tuple@W4DIRDEP@@W41@@std@@QAE@AAW4DIRDEP@@$$QAW42@@Z ; std::tuple<enum DIRDEP,enum DIRDEP>::tuple<enum DIRDEP,enum DIRDEP><enum DIRDEP &,enum DIRDEP,0>
PUBLIC	??$?0W4DIRDEP@@AAW40@$0A@@?$tuple@W4DIRDEP@@W41@@std@@QAE@$$QAW4DIRDEP@@AAW42@@Z ; std::tuple<enum DIRDEP,enum DIRDEP>::tuple<enum DIRDEP,enum DIRDEP><enum DIRDEP,enum DIRDEP &,0>
PUBLIC	??$move@AAPAVBlock@@@std@@YA$$QAPAVBlock@@AAPAV1@@Z ; std::move<Block * &>
PUBLIC	??$to_address@PAVBlock@@@std@@YAPAPAVBlock@@QAPAV1@@Z ; std::to_address<Block *>
PUBLIC	??$_Copy_memmove@PAPAVBlock@@PAPAV1@@std@@YAPAPAVBlock@@PAPAV1@00@Z ; std::_Copy_memmove<Block * *,Block * *>
PUBLIC	??$destroy_at@PAVBlock@@@std@@YAXQAPAVBlock@@@Z	; std::destroy_at<Block *>
PUBLIC	??$_Allocate_manually_vector_aligned@U_Default_allocate_traits@std@@@std@@YAPAXI@Z ; std::_Allocate_manually_vector_aligned<std::_Default_allocate_traits>
PUBLIC	??$move@AAI@std@@YA$$QAIAAI@Z			; std::move<unsigned int &>
PUBLIC	??$addressof@PAD@std@@YAPAPADAAPAD@Z		; std::addressof<char *>
PUBLIC	??$forward@ABQAD@std@@YAABQADABQAD@Z		; std::forward<char * const &>
PUBLIC	??$construct_at@PADABQADX@std@@YAPAPADQAPADABQAD@Z ; std::construct_at<char *,char * const &,void>
PUBLIC	??$_Voidify_iter@PAPAD@std@@YAPAXPAPAD@Z	; std::_Voidify_iter<char * *>
PUBLIC	??$to_address@I@std@@YAPAIQAI@Z			; std::to_address<unsigned int>
PUBLIC	??$_Copy_memmove@PAIPAI@std@@YAPAIPAI00@Z	; std::_Copy_memmove<unsigned int *,unsigned int *>
PUBLIC	??$forward@V?$allocator@I@std@@@std@@YA$$QAV?$allocator@I@0@AAV10@@Z ; std::forward<std::allocator<unsigned int> >
PUBLIC	??$_Uninitialized_copy@PAIV?$allocator@I@std@@@std@@YAPAIQAI0PAIAAV?$allocator@I@0@@Z ; std::_Uninitialized_copy<unsigned int *,std::allocator<unsigned int> >
PUBLIC	??$forward@ABV?$allocator@I@std@@@std@@YAABV?$allocator@I@0@ABV10@@Z ; std::forward<std::allocator<unsigned int> const &>
PUBLIC	??$_Uninitialized_fill_n@V?$allocator@I@std@@@std@@YAPAIPAIIABIAAV?$allocator@I@0@@Z ; std::_Uninitialized_fill_n<std::allocator<unsigned int> >
PUBLIC	?deallocate@?$_Default_allocator_traits@V?$allocator@U_Container_proxy@std@@@std@@@std@@SAXAAV?$allocator@U_Container_proxy@std@@@2@QAU_Container_proxy@2@I@Z ; std::_Default_allocator_traits<std::allocator<std::_Container_proxy> >::deallocate
PUBLIC	??$forward@V?$tuple@$$V@std@@@std@@YA$$QAV?$tuple@$$V@0@AAV10@@Z ; std::forward<std::tuple<> >
PUBLIC	??$?0U_Exact_args_t@std@@W4DIRDEP@@W42@$0A@@?$tuple@W4DIRDEP@@W41@@std@@QAE@U_Exact_args_t@1@$$QAW4DIRDEP@@1@Z ; std::tuple<enum DIRDEP,enum DIRDEP>::tuple<enum DIRDEP,enum DIRDEP><std::_Exact_args_t,enum DIRDEP,enum DIRDEP,0>
PUBLIC	??$?0U_Exact_args_t@std@@AAW4DIRDEP@@W42@$0A@@?$tuple@W4DIRDEP@@W41@@std@@QAE@U_Exact_args_t@1@AAW4DIRDEP@@$$QAW43@@Z ; std::tuple<enum DIRDEP,enum DIRDEP>::tuple<enum DIRDEP,enum DIRDEP><std::_Exact_args_t,enum DIRDEP &,enum DIRDEP,0>
PUBLIC	??$?0U_Exact_args_t@std@@W4DIRDEP@@AAW42@$0A@@?$tuple@W4DIRDEP@@W41@@std@@QAE@U_Exact_args_t@1@$$QAW4DIRDEP@@AAW43@@Z ; std::tuple<enum DIRDEP,enum DIRDEP>::tuple<enum DIRDEP,enum DIRDEP><std::_Exact_args_t,enum DIRDEP,enum DIRDEP &,0>
PUBLIC	??$_To_address@PAPAVBlock@@@std@@YA?A_PABQAPAVBlock@@@Z ; std::_To_address<Block * *>
PUBLIC	??$_To_address@PAI@std@@YA?A_PABQAI@Z		; std::_To_address<unsigned int *>
PUBLIC	??$_Get_unwrapped@ABQAI@std@@YA?A_TABQAI@Z	; std::_Get_unwrapped<unsigned int * const &>
PUBLIC	??$_Unfancy@I@std@@YAPAIPAI@Z			; std::_Unfancy<unsigned int>
PUBLIC	??0?$_Uninitialized_backout_al@V?$allocator@I@std@@@std@@QAE@PAIAAV?$allocator@I@1@@Z ; std::_Uninitialized_backout_al<std::allocator<unsigned int> >::_Uninitialized_backout_al<std::allocator<unsigned int> >
PUBLIC	??1?$_Uninitialized_backout_al@V?$allocator@I@std@@@std@@QAE@XZ ; std::_Uninitialized_backout_al<std::allocator<unsigned int> >::~_Uninitialized_backout_al<std::allocator<unsigned int> >
PUBLIC	?_Release@?$_Uninitialized_backout_al@V?$allocator@I@std@@@std@@QAEPAIXZ ; std::_Uninitialized_backout_al<std::allocator<unsigned int> >::_Release
PUBLIC	?__autoclassinit2@?$_Uninitialized_backout_al@V?$allocator@I@std@@@std@@QAEXI@Z ; std::_Uninitialized_backout_al<std::allocator<unsigned int> >::__autoclassinit2
PUBLIC	??$_Emplace_back@AAI@?$_Uninitialized_backout_al@V?$allocator@I@std@@@std@@QAEXAAI@Z ; std::_Uninitialized_backout_al<std::allocator<unsigned int> >::_Emplace_back<unsigned int &>
PUBLIC	??$_Is_all_bits_zero@I@std@@YA_NABI@Z		; std::_Is_all_bits_zero<unsigned int>
PUBLIC	??$_Fill_zero_memset@PAI@std@@YAXPAII@Z		; std::_Fill_zero_memset<unsigned int *>
PUBLIC	??$_Emplace_back@ABI@?$_Uninitialized_backout_al@V?$allocator@I@std@@@std@@QAEXABI@Z ; std::_Uninitialized_backout_al<std::allocator<unsigned int> >::_Emplace_back<unsigned int const &>
PUBLIC	??$?0U_Exact_args_t@std@@W4DIRDEP@@$$V$0A@@?$tuple@W4DIRDEP@@@std@@QAE@U_Exact_args_t@1@$$QAW4DIRDEP@@@Z ; std::tuple<enum DIRDEP>::tuple<enum DIRDEP><std::_Exact_args_t,enum DIRDEP,0>
PUBLIC	??$?0W4DIRDEP@@@?$_Tuple_val@W4DIRDEP@@@std@@QAE@$$QAW4DIRDEP@@@Z ; std::_Tuple_val<enum DIRDEP>::_Tuple_val<enum DIRDEP><enum DIRDEP>
PUBLIC	??$?0AAW4DIRDEP@@@?$_Tuple_val@W4DIRDEP@@@std@@QAE@AAW4DIRDEP@@@Z ; std::_Tuple_val<enum DIRDEP>::_Tuple_val<enum DIRDEP><enum DIRDEP &>
PUBLIC	??$?0U_Exact_args_t@std@@AAW4DIRDEP@@$$V$0A@@?$tuple@W4DIRDEP@@@std@@QAE@U_Exact_args_t@1@AAW4DIRDEP@@@Z ; std::tuple<enum DIRDEP>::tuple<enum DIRDEP><std::_Exact_args_t,enum DIRDEP &,0>
PUBLIC	??$forward@AAI@std@@YAAAIAAI@Z			; std::forward<unsigned int &>
PUBLIC	??$construct@IAAI@?$_Default_allocator_traits@V?$allocator@I@std@@@std@@SAXAAV?$allocator@I@1@QAIAAI@Z ; std::_Default_allocator_traits<std::allocator<unsigned int> >::construct<unsigned int,unsigned int &>
PUBLIC	??$construct@IABI@?$_Default_allocator_traits@V?$allocator@I@std@@@std@@SAXAAV?$allocator@I@1@QAIABI@Z ; std::_Default_allocator_traits<std::allocator<unsigned int> >::construct<unsigned int,unsigned int const &>
PUBLIC	??$?0U_Exact_args_t@std@@$0A@@?$tuple@$$V@std@@QAE@U_Exact_args_t@1@@Z ; std::tuple<>::tuple<><std::_Exact_args_t,0>
PUBLIC	??$construct_at@IABIX@std@@YAPAIQAIABI@Z	; std::construct_at<unsigned int,unsigned int const &,void>
PUBLIC	??$_Voidify_iter@PAI@std@@YAPAXPAI@Z		; std::_Voidify_iter<unsigned int *>
PUBLIC	??$construct_at@IAAIX@std@@YAPAIQAIAAI@Z	; std::construct_at<unsigned int,unsigned int &,void>
PUBLIC	??_ESprite@sf@@W3AEPAXI@Z			; [thunk]:sf::Sprite::`vector deleting destructor'
PUBLIC	__JustMyCode_Default
PUBLIC	?_OptionsStorage@?1??__local_stdio_printf_options@@9@4_KA ; `__local_stdio_printf_options'::`2'::_OptionsStorage
PUBLIC	??_7exception@std@@6B@				; std::exception::`vftable'
PUBLIC	??_C@_0BC@EOODALEL@Unknown?5exception@		; `string'
PUBLIC	??_7bad_alloc@std@@6B@				; std::bad_alloc::`vftable'
PUBLIC	??_7bad_array_new_length@std@@6B@		; std::bad_array_new_length::`vftable'
PUBLIC	??_C@_0BF@KINCDENJ@bad?5array?5new?5length@	; `string'
PUBLIC	__TI3?AVbad_array_new_length@std@@
PUBLIC	__CTA3?AVbad_array_new_length@std@@
PUBLIC	??_R0?AVbad_array_new_length@std@@@8		; std::bad_array_new_length `RTTI Type Descriptor'
PUBLIC	__CT??_R0?AVbad_array_new_length@std@@@8??0bad_array_new_length@std@@QAE@ABV01@@Z12
PUBLIC	??_R0?AVbad_alloc@std@@@8			; std::bad_alloc `RTTI Type Descriptor'
PUBLIC	__CT??_R0?AVbad_alloc@std@@@8??0bad_alloc@std@@QAE@ABV01@@Z12
PUBLIC	??_R0?AVexception@std@@@8			; std::exception `RTTI Type Descriptor'
PUBLIC	__CT??_R0?AVexception@std@@@8??0exception@std@@QAE@ABV01@@Z12
PUBLIC	??_C@_0BB@FCMFBGOM@invalid?5argument@		; `string'
PUBLIC	??_C@_02DKCKIIND@?$CFs@				; `string'
PUBLIC	??_C@_0GI@MNEMJBML@C?3?2Program?5Files?5?$CIx86?$CJ?2Microsof@ ; `string'
PUBLIC	??_C@_1NA@MJBOBEJL@?$AAC?$AA?3?$AA?2?$AAP?$AAr?$AAo?$AAg?$AAr?$AAa?$AAm?$AA?5?$AAF?$AAi?$AAl?$AAe@ ; `string'
PUBLIC	??_C@_1EK@NIFDJFDG@?$AAs?$AAt?$AAd?$AA?3?$AA?3?$AA_?$AAA?$AAd?$AAj?$AAu?$AAs?$AAt?$AA_?$AAm?$AAa@ ; `string'
PUBLIC	??_C@_1CG@JNLFBNGN@?$AA?$CC?$AAi?$AAn?$AAv?$AAa?$AAl?$AAi?$AAd?$AA?5?$AAa?$AAr?$AAg?$AAu?$AAm?$AAe@ ; `string'
PUBLIC	??_C@_0BJ@LFDBABJJ@ITERATOR?5LIST?5CORRUPTED?$CB@ ; `string'
PUBLIC	??_C@_1FM@FOFDAEGI@?$AAs?$AAt?$AAd?$AA?3?$AA?3?$AA_?$AAI?$AAt?$AAe?$AAr?$AAa?$AAt?$AAo?$AAr?$AA_@ ; `string'
PUBLIC	??_C@_1DG@PLBPCAEM@?$AA?$CC?$AAI?$AAT?$AAE?$AAR?$AAA?$AAT?$AAO?$AAR?$AA?5?$AAL?$AAI?$AAS?$AAT?$AA?5@ ; `string'
PUBLIC	??_C@_0BA@JFNIOLAK@string?5too?5long@		; `string'
PUBLIC	??_C@_0GI@GFIAKDGM@C?3?2Program?5Files?5?$CIx86?$CJ?2Microsof@ ; `string'
PUBLIC	??_C@_0GI@OGMNKBMN@C?3?2Program?5Files?5?$CIx86?$CJ?2Microsof@ ; `string'
PUBLIC	??_SSprite@sf@@6BDrawable@1@@			; sf::Sprite::`local vftable'
PUBLIC	??_SSprite@sf@@6BTransformable@1@@		; sf::Sprite::`local vftable'
PUBLIC	?level1@@3V?$vector@V?$vector@HV?$allocator@H@std@@@std@@V?$allocator@V?$vector@HV?$allocator@H@std@@@std@@@2@@std@@A ; level1
PUBLIC	??_R0?AVBlock@@@8				; Block `RTTI Type Descriptor'
PUBLIC	??_R0?AVInteractiveObject@@@8			; InteractiveObject `RTTI Type Descriptor'
PUBLIC	??_R0?AVinvalid_argument@std@@@8		; std::invalid_argument `RTTI Type Descriptor'
PUBLIC	??_C@_0CE@EAMOGAIE@vector?5erase?5iterator?5outside?5r@ ; `string'
PUBLIC	??_C@_0GH@KMHDIFOI@C?3?2Program?5Files?5?$CIx86?$CJ?2Microsof@ ; `string'
PUBLIC	??_C@_1MO@NOHEJINP@?$AAC?$AA?3?$AA?2?$AAP?$AAr?$AAo?$AAg?$AAr?$AAa?$AAm?$AA?5?$AAF?$AAi?$AAl?$AAe@ ; `string'
PUBLIC	??_C@_1IO@JBEJNAIO@?$AAs?$AAt?$AAd?$AA?3?$AA?3?$AAv?$AAe?$AAc?$AAt?$AAo?$AAr?$AA?$DM?$AAc?$AAl?$AAa@ ; `string'
PUBLIC	??_C@_1EM@BEMPOGMM@?$AA?$CC?$AAv?$AAe?$AAc?$AAt?$AAo?$AAr?$AA?5?$AAe?$AAr?$AAa?$AAs?$AAe?$AA?5?$AAi@ ; `string'
PUBLIC	??_C@_0BA@FOIKENOD@vector?5too?5long@		; `string'
PUBLIC	??_C@_0N@LPFKKEBD@?3AM?3am?3PM?3pm@		; `string'
PUBLIC	??_C@_0BJ@DHFDPMIM@invalid?5vector?5subscript@	; `string'
PUBLIC	??_C@_0DL@EIIPGNKA@cannot?5dereference?5value?9initia@ ; `string'
PUBLIC	??_C@_1LG@CHICOEJ@?$AAs?$AAt?$AAd?$AA?3?$AA?3?$AA_?$AAV?$AAb?$AA_?$AAr?$AAe?$AAf?$AAe?$AAr?$AAe@ ; `string'
PUBLIC	??_C@_1HK@NLJEKNBE@?$AA?$CC?$AAc?$AAa?$AAn?$AAn?$AAo?$AAt?$AA?5?$AAd?$AAe?$AAr?$AAe?$AAf?$AAe?$AAr@ ; `string'
PUBLIC	??_C@_0CK@FLJLFEAD@vector?$DMbool?$DO?5iterator?5not?5deref@ ; `string'
PUBLIC	??_C@_1FI@IBAHAGLP@?$AA?$CC?$AAv?$AAe?$AAc?$AAt?$AAo?$AAr?$AA?$DM?$AAb?$AAo?$AAo?$AAl?$AA?$DO?$AA?5?$AAi@ ; `string'
PUBLIC	??_C@_0BP@BKHLLOGL@invalid?5vector?$DMbool?$DO?5subscript@ ; `string'
PUBLIC	??_C@_0CE@FFEOOBMH@vector?$DMbool?$DO?5subscript?5out?5of?5r@ ; `string'
PUBLIC	??_C@_1HG@KMENFMCO@?$AAs?$AAt?$AAd?$AA?3?$AA?3?$AAv?$AAe?$AAc?$AAt?$AAo?$AAr?$AA?$DM?$AAb?$AAo?$AAo@ ; `string'
PUBLIC	??_C@_1EM@HCHFCCIP@?$AA?$CC?$AAv?$AAe?$AAc?$AAt?$AAo?$AAr?$AA?$DM?$AAb?$AAo?$AAo?$AAl?$AA?$DO?$AA?5?$AAs@ ; `string'
PUBLIC	??_C@_1LK@OCBBIODL@?$AAs?$AAt?$AAd?$AA?3?$AA?3?$AA_?$AAV?$AAb?$AA_?$AAi?$AAt?$AAe?$AAr?$AAa?$AAt@ ; `string'
PUBLIC	??_C@_0BG@EOMJEIFA@vector?$DMbool?$DO?5too?5long@ ; `string'
PUBLIC	??_C@_0BO@PFKOHNJC@vector?5subscript?5out?5of?5range@ ; `string'
PUBLIC	??_C@_1JG@ILDNFCDK@?$AAs?$AAt?$AAd?$AA?3?$AA?3?$AAv?$AAe?$AAc?$AAt?$AAo?$AAr?$AA?$DM?$AAu?$AAn?$AAs@ ; `string'
PUBLIC	??_C@_1EA@LEKOKFNB@?$AA?$CC?$AAv?$AAe?$AAc?$AAt?$AAo?$AAr?$AA?5?$AAs?$AAu?$AAb?$AAs?$AAc?$AAr?$AAi@ ; `string'
PUBLIC	??_C@_1IK@JDPLIGFN@?$AAs?$AAt?$AAd?$AA?3?$AA?3?$AAv?$AAe?$AAc?$AAt?$AAo?$AAr?$AA?$DM?$AAu?$AAn?$AAs@ ; `string'
PUBLIC	??_C@_0CO@LHPFLLJB@cannot?5seek?5value?9initialized?5v@ ; `string'
PUBLIC	??_C@_1OA@FDIBPEPP@?$AAs?$AAt?$AAd?$AA?3?$AA?3?$AA_?$AAV?$AAe?$AAc?$AAt?$AAo?$AAr?$AA_?$AAc?$AAo@ ; `string'
PUBLIC	??_C@_1GA@EIHBFEJD@?$AA?$CC?$AAc?$AAa?$AAn?$AAn?$AAo?$AAt?$AA?5?$AAs?$AAe?$AAe?$AAk?$AA?5?$AAv?$AAa@ ; `string'
PUBLIC	??_C@_0CJ@DIFMEJBE@cannot?5seek?5vector?5iterator?5bef@ ; `string'
PUBLIC	??_C@_1FG@JCGKNFIB@?$AA?$CC?$AAc?$AAa?$AAn?$AAn?$AAo?$AAt?$AA?5?$AAs?$AAe?$AAe?$AAk?$AA?5?$AAv?$AAe@ ; `string'
PUBLIC	??_C@_0CG@JDIOCKHH@cannot?5seek?5vector?5iterator?5aft@ ; `string'
PUBLIC	??_C@_1FA@LCODAPOP@?$AA?$CC?$AAc?$AAa?$AAn?$AAn?$AAo?$AAt?$AA?5?$AAs?$AAe?$AAe?$AAk?$AA?5?$AAv?$AAe@ ; `string'
PUBLIC	??_C@_1NO@FMJOGJCJ@?$AAs?$AAt?$AAd?$AA?3?$AA?3?$AA_?$AAV?$AAe?$AAc?$AAt?$AAo?$AAr?$AA_?$AAc?$AAo@ ; `string'
PUBLIC	??_C@_1BK@MHIKGOKE@?$AA?3?$AAA?$AAM?$AA?3?$AAa?$AAm?$AA?3?$AAP?$AAM?$AA?3?$AAp?$AAm@ ; `string'
PUBLIC	??_R4exception@std@@6B@				; std::exception::`RTTI Complete Object Locator'
PUBLIC	??_R3exception@std@@8				; std::exception::`RTTI Class Hierarchy Descriptor'
PUBLIC	??_R2exception@std@@8				; std::exception::`RTTI Base Class Array'
PUBLIC	??_R1A@?0A@EA@exception@std@@8			; std::exception::`RTTI Base Class Descriptor at (0,-1,0,64)'
PUBLIC	??_R4bad_alloc@std@@6B@				; std::bad_alloc::`RTTI Complete Object Locator'
PUBLIC	??_R3bad_alloc@std@@8				; std::bad_alloc::`RTTI Class Hierarchy Descriptor'
PUBLIC	??_R2bad_alloc@std@@8				; std::bad_alloc::`RTTI Base Class Array'
PUBLIC	??_R1A@?0A@EA@bad_alloc@std@@8			; std::bad_alloc::`RTTI Base Class Descriptor at (0,-1,0,64)'
PUBLIC	??_R4bad_array_new_length@std@@6B@		; std::bad_array_new_length::`RTTI Complete Object Locator'
PUBLIC	??_R3bad_array_new_length@std@@8		; std::bad_array_new_length::`RTTI Class Hierarchy Descriptor'
PUBLIC	??_R2bad_array_new_length@std@@8		; std::bad_array_new_length::`RTTI Base Class Array'
PUBLIC	??_R1A@?0A@EA@bad_array_new_length@std@@8	; std::bad_array_new_length::`RTTI Base Class Descriptor at (0,-1,0,64)'
PUBLIC	??_R4Sprite@sf@@6BDrawable@1@@			; sf::Sprite::`RTTI Complete Object Locator'
PUBLIC	??_R0?AVSprite@sf@@@8				; sf::Sprite `RTTI Type Descriptor'
PUBLIC	??_R3Sprite@sf@@8				; sf::Sprite::`RTTI Class Hierarchy Descriptor'
PUBLIC	??_R2Sprite@sf@@8				; sf::Sprite::`RTTI Base Class Array'
PUBLIC	??_R1A@?0A@EA@Sprite@sf@@8			; sf::Sprite::`RTTI Base Class Descriptor at (0,-1,0,64)'
PUBLIC	??_R1A@?0A@EA@Drawable@sf@@8			; sf::Drawable::`RTTI Base Class Descriptor at (0,-1,0,64)'
PUBLIC	??_R0?AVDrawable@sf@@@8				; sf::Drawable `RTTI Type Descriptor'
PUBLIC	??_R3Drawable@sf@@8				; sf::Drawable::`RTTI Class Hierarchy Descriptor'
PUBLIC	??_R2Drawable@sf@@8				; sf::Drawable::`RTTI Base Class Array'
PUBLIC	??_R13?0A@EA@Transformable@sf@@8		; sf::Transformable::`RTTI Base Class Descriptor at (4,-1,0,64)'
PUBLIC	??_R0?AVTransformable@sf@@@8			; sf::Transformable `RTTI Type Descriptor'
PUBLIC	??_R3Transformable@sf@@8			; sf::Transformable::`RTTI Class Hierarchy Descriptor'
PUBLIC	??_R2Transformable@sf@@8			; sf::Transformable::`RTTI Base Class Array'
PUBLIC	??_R1A@?0A@EA@Transformable@sf@@8		; sf::Transformable::`RTTI Base Class Descriptor at (0,-1,0,64)'
PUBLIC	??_R4Sprite@sf@@6BTransformable@1@@		; sf::Sprite::`RTTI Complete Object Locator'
PUBLIC	__xmm@41f00000000000000000000000000000
EXTRN	??_M@YGXPAXIIP6EX0@Z@Z:PROC			; `eh vector destructor iterator'
EXTRN	??2@YAPAXI@Z:PROC				; operator new
EXTRN	??3@YAXPAX@Z:PROC				; operator delete
EXTRN	??3@YAXPAXI@Z:PROC				; operator delete
EXTRN	_atexit:PROC
EXTRN	__imp___invalid_parameter:PROC
EXTRN	__imp____acrt_iob_func:PROC
EXTRN	__imp____stdio_common_vfprintf:PROC
EXTRN	_memcmp:PROC
EXTRN	_memcpy:PROC
EXTRN	_memmove:PROC
EXTRN	_memset:PROC
EXTRN	__imp__wcslen:PROC
EXTRN	__imp___calloc_dbg:PROC
EXTRN	__imp___CrtDbgReport:PROC
EXTRN	__imp_??0_Lockit@std@@QAE@H@Z:PROC
EXTRN	__imp_??1_Lockit@std@@QAE@XZ:PROC
EXTRN	?uncaught_exceptions@std@@YAHXZ:PROC		; std::uncaught_exceptions
EXTRN	___std_exception_copy:PROC
EXTRN	___std_exception_destroy:PROC
EXTRN	??_Eexception@std@@UAEPAXI@Z:PROC		; std::exception::`vector deleting destructor'
EXTRN	??_Ebad_alloc@std@@UAEPAXI@Z:PROC		; std::bad_alloc::`vector deleting destructor'
EXTRN	??_Ebad_array_new_length@std@@UAEPAXI@Z:PROC	; std::bad_array_new_length::`vector deleting destructor'
EXTRN	_strlen:PROC
EXTRN	?_Xbad_alloc@std@@YAXXZ:PROC			; std::_Xbad_alloc
EXTRN	?_Xlength_error@std@@YAXPBD@Z:PROC		; std::_Xlength_error
EXTRN	?_Xout_of_range@std@@YAXPBD@Z:PROC		; std::_Xout_of_range
EXTRN	__Mbrtowc:PROC
EXTRN	__imp_?_Getcvt@_Locinfo@std@@QBE?AU_Cvtvec@@XZ:PROC
EXTRN	__imp_?_Getdays@_Locinfo@std@@QBEPBDXZ:PROC
EXTRN	__imp_?_Getmonths@_Locinfo@std@@QBEPBDXZ:PROC
EXTRN	__imp_?_W_Getdays@_Locinfo@std@@QBEPBGXZ:PROC
EXTRN	__imp_?_W_Getmonths@_Locinfo@std@@QBEPBGXZ:PROC
EXTRN	__imp_?good@ios_base@std@@QBE_NXZ:PROC
EXTRN	__imp_?flags@ios_base@std@@QBEHXZ:PROC
EXTRN	__imp_?width@ios_base@std@@QBE_JXZ:PROC
EXTRN	__imp_?width@ios_base@std@@QAE_J_J@Z:PROC
EXTRN	__imp_?sputc@?$basic_streambuf@DU?$char_traits@D@std@@@std@@QAEHD@Z:PROC
EXTRN	__imp_?sputn@?$basic_streambuf@DU?$char_traits@D@std@@@std@@QAE_JPBD_J@Z:PROC
EXTRN	__imp_?setstate@?$basic_ios@DU?$char_traits@D@std@@@std@@QAEXH_N@Z:PROC
EXTRN	__imp_?tie@?$basic_ios@DU?$char_traits@D@std@@@std@@QBEPAV?$basic_ostream@DU?$char_traits@D@std@@@2@XZ:PROC
EXTRN	__imp_?rdbuf@?$basic_ios@DU?$char_traits@D@std@@@std@@QBEPAV?$basic_streambuf@DU?$char_traits@D@std@@@2@XZ:PROC
EXTRN	__imp_?fill@?$basic_ios@DU?$char_traits@D@std@@@std@@QBEDXZ:PROC
EXTRN	__imp_?widen@?$basic_ios@DU?$char_traits@D@std@@@std@@QBEDD@Z:PROC
EXTRN	__imp_?_Osfx@?$basic_ostream@DU?$char_traits@D@std@@@std@@QAEXXZ:PROC
EXTRN	__imp_??6?$basic_ostream@DU?$char_traits@D@std@@@std@@QAEAAV01@P6AAAV01@AAV01@@Z@Z:PROC
EXTRN	__imp_?put@?$basic_ostream@DU?$char_traits@D@std@@@std@@QAEAAV12@D@Z:PROC
EXTRN	__imp_?flush@?$basic_ostream@DU?$char_traits@D@std@@@std@@QAEAAV12@XZ:PROC
EXTRN	__imp_??0Color@sf@@QAE@EEEE@Z:PROC
EXTRN	__imp_??0Clock@sf@@QAE@XZ:PROC
EXTRN	__imp_?setLoop@SoundStream@sf@@QAEX_N@Z:PROC
EXTRN	?generateImg@RessourcePack@@QAEXV?$basic_string@DU?$char_traits@D@std@@V?$allocator@D@2@@std@@@Z:PROC ; RessourcePack::generateImg
EXTRN	?generateBackgrounds@RessourcePack@@QAEXV?$basic_string@DU?$char_traits@D@std@@V?$allocator@D@2@@std@@@Z:PROC ; RessourcePack::generateBackgrounds
EXTRN	?generateAudioData@RessourcePack@@QAEXV?$basic_string@DU?$char_traits@D@std@@V?$allocator@D@2@@std@@@Z:PROC ; RessourcePack::generateAudioData
EXTRN	__imp_?close@Window@sf@@QAEXXZ:PROC
EXTRN	__imp_?isOpen@Window@sf@@QBE_NXZ:PROC
EXTRN	__imp_?pollEvent@Window@sf@@QAE_NAAVEvent@2@@Z:PROC
EXTRN	__imp_?display@Window@sf@@QAEXXZ:PROC
EXTRN	__imp_??0Texture@sf@@QAE@XZ:PROC
EXTRN	__imp_?loadFromImage@Texture@sf@@QAE_NABVImage@2@ABV?$Rect@H@2@@Z:PROC
EXTRN	__imp_?setSmooth@Texture@sf@@QAEX_N@Z:PROC
EXTRN	__imp_?setRepeated@Texture@sf@@QAEX_N@Z:PROC
EXTRN	__imp_??0View@sf@@QAE@ABV?$Rect@M@1@@Z:PROC
EXTRN	__imp_?clear@RenderTarget@sf@@QAEXABVColor@2@@Z:PROC
EXTRN	__imp_?setView@RenderTarget@sf@@QAEXABVView@2@@Z:PROC
EXTRN	__imp_?draw@RenderTarget@sf@@QAEXABVDrawable@2@ABVRenderStates@2@@Z:PROC
EXTRN	__imp_??0Sprite@sf@@QAE@ABVTexture@1@@Z:PROC
EXTRN	__imp_??1Sprite@sf@@UAE@XZ:PROC
EXTRN	??_ESprite@sf@@UAEPAXI@Z:PROC			; sf::Sprite::`vector deleting destructor'
EXTRN	?move@Character@@QAEXV?$tuple@W4DIRDEP@@W41@@std@@V?$vector@_NV?$allocator@_N@std@@@3@@Z:PROC ; Character::move
EXTRN	?show@Block@@QAEXPAVRenderWindow@sf@@@Z:PROC	; Block::show
EXTRN	?collide@Block@@QAE_NV?$Rect@H@sf@@@Z:PROC	; Block::collide
EXTRN	??0Terrain@@QAE@PAVRessourcePack@@@Z:PROC	; Terrain::Terrain
EXTRN	?loadTerrain@Terrain@@QAEXH@Z:PROC		; Terrain::loadTerrain
EXTRN	??1Terrain@@QAE@XZ:PROC				; Terrain::~Terrain
EXTRN	?draw@Sprite@sf@@EBEXAAVRenderTarget@2@VRenderStates@2@@Z:PROC ; sf::Sprite::draw
EXTRN	@__CheckForDebuggerJustMyCode@4:PROC
EXTRN	@__security_check_cookie@4:PROC
EXTRN	__CxxThrowException@8:PROC
EXTRN	__RTC_InitBase:PROC
EXTRN	__RTC_Shutdown:PROC
EXTRN	___CxxFrameHandler3:PROC
EXTRN	___RTDynamicCast:PROC
EXTRN	___asan_load4:PROC
EXTRN	___asan_loadN:PROC
EXTRN	___asan_memcpy:PROC
EXTRN	___asan_memset:PROC
EXTRN	___asan_report_load1:PROC
EXTRN	___asan_report_load16:PROC
EXTRN	___asan_report_load4:PROC
EXTRN	___asan_report_load8:PROC
EXTRN	___asan_report_store1:PROC
EXTRN	___asan_report_store16:PROC
EXTRN	___asan_report_store2:PROC
EXTRN	___asan_report_store4:PROC
EXTRN	___asan_report_store8:PROC
EXTRN	___asan_set_shadow_00:PROC
EXTRN	___asan_set_shadow_f8:PROC
EXTRN	___asan_store4:PROC
EXTRN	___asan_storeN:PROC
EXTRN	__ftol2_sse:PROC
EXTRN	??_7type_info@@6B@:QWORD			; type_info::`vftable'
EXTRN	__imp_?cerr@std@@3V?$basic_ostream@DU?$char_traits@D@std@@@1@A:BYTE
EXTRN	__imp_?Default@RenderStates@sf@@2V12@B:BYTE
EXTRN	___security_cookie:DWORD
EXTRN	__fltused:DWORD
;	COMDAT ?_OptionsStorage@?1??__local_stdio_printf_options@@9@4_KA
_BSS	SEGMENT
?_OptionsStorage@?1??__local_stdio_printf_options@@9@4_KA DQ 01H DUP (?) ; `__local_stdio_printf_options'::`2'::_OptionsStorage
___asan_rrz_?_OptionsStorage@?1??__local_stdio_printf_options@@9@4_KA DB 038H DUP (?)
_BSS	ENDS
;	COMDAT ?level1@@3V?$vector@V?$vector@HV?$allocator@H@std@@@std@@V?$allocator@V?$vector@HV?$allocator@H@std@@@std@@@2@@std@@A
_BSS	SEGMENT
?level1@@3V?$vector@V?$vector@HV?$allocator@H@std@@@std@@V?$allocator@V?$vector@HV?$allocator@H@std@@@std@@@2@@std@@A DB 010H DUP (?) ; level1
___asan_rrz_?level1@@3V?$vector@V?$vector@HV?$allocator@H@std@@@std@@V?$allocator@V?$vector@HV?$allocator@H@std@@@std@@@2@@std@@A DB 030H DUP (?)
_BSS	ENDS
;	COMDAT ??_C@_0BC@EOODALEL@Unknown?5exception@
CONST	SEGMENT
??_C@_0BC@EOODALEL@Unknown?5exception@ DB 'Unknown exception', 00H ; `string'
___asan_rrz_??_C@_0BC@EOODALEL@Unknown?5exception@ DD 0f9H
CONST	ENDS
;	COMDAT ??_C@_0BF@KINCDENJ@bad?5array?5new?5length@
CONST	SEGMENT
??_C@_0BF@KINCDENJ@bad?5array?5new?5length@ DB 'bad array new length', 00H ; `string'
___asan_rrz_??_C@_0BF@KINCDENJ@bad?5array?5new?5length@ DD 0f9H
CONST	ENDS
;	COMDAT ??_C@_0BB@FCMFBGOM@invalid?5argument@
CONST	SEGMENT
??_C@_0BB@FCMFBGOM@invalid?5argument@ DB 'invalid argument', 00H ; `string'
___asan_rrz_??_C@_0BB@FCMFBGOM@invalid?5argument@ DD 0f9H
CONST	ENDS
;	COMDAT ??_C@_02DKCKIIND@?$CFs@
CONST	SEGMENT
??_C@_02DKCKIIND@?$CFs@ DB '%s', 00H			; `string'
___asan_rrz_??_C@_02DKCKIIND@?$CFs@ DD 0f9H
CONST	ENDS
;	COMDAT ??_C@_0GI@MNEMJBML@C?3?2Program?5Files?5?$CIx86?$CJ?2Microsof@
CONST	SEGMENT
??_C@_0GI@MNEMJBML@C?3?2Program?5Files?5?$CIx86?$CJ?2Microsof@ DB 'C:\Pro'
	DB	'gram Files (x86)\Microsoft Visual Studio\2019\Community\VC\To'
	DB	'ols\MSVC\14.29.30133\include\xmemory', 00H	; `string'
___asan_rrz_??_C@_0GI@MNEMJBML@C?3?2Program?5Files?5?$CIx86?$CJ?2Microsof@ DD 0f9H
CONST	ENDS
;	COMDAT ??_C@_1NA@MJBOBEJL@?$AAC?$AA?3?$AA?2?$AAP?$AAr?$AAo?$AAg?$AAr?$AAa?$AAm?$AA?5?$AAF?$AAi?$AAl?$AAe@
CONST	SEGMENT
??_C@_1NA@MJBOBEJL@?$AAC?$AA?3?$AA?2?$AAP?$AAr?$AAo?$AAg?$AAr?$AAa?$AAm?$AA?5?$AAF?$AAi?$AAl?$AAe@ DB 'C'
	DB	00H, ':', 00H, '\', 00H, 'P', 00H, 'r', 00H, 'o', 00H, 'g', 00H
	DB	'r', 00H, 'a', 00H, 'm', 00H, ' ', 00H, 'F', 00H, 'i', 00H, 'l'
	DB	00H, 'e', 00H, 's', 00H, ' ', 00H, '(', 00H, 'x', 00H, '8', 00H
	DB	'6', 00H, ')', 00H, '\', 00H, 'M', 00H, 'i', 00H, 'c', 00H, 'r'
	DB	00H, 'o', 00H, 's', 00H, 'o', 00H, 'f', 00H, 't', 00H, ' ', 00H
	DB	'V', 00H, 'i', 00H, 's', 00H, 'u', 00H, 'a', 00H, 'l', 00H, ' '
	DB	00H, 'S', 00H, 't', 00H, 'u', 00H, 'd', 00H, 'i', 00H, 'o', 00H
	DB	'\', 00H, '2', 00H, '0', 00H, '1', 00H, '9', 00H, '\', 00H, 'C'
	DB	00H, 'o', 00H, 'm', 00H, 'm', 00H, 'u', 00H, 'n', 00H, 'i', 00H
	DB	't', 00H, 'y', 00H, '\', 00H, 'V', 00H, 'C', 00H, '\', 00H, 'T'
	DB	00H, 'o', 00H, 'o', 00H, 'l', 00H, 's', 00H, '\', 00H, 'M', 00H
	DB	'S', 00H, 'V', 00H, 'C', 00H, '\', 00H, '1', 00H, '4', 00H, '.'
	DB	00H, '2', 00H, '9', 00H, '.', 00H, '3', 00H, '0', 00H, '1', 00H
	DB	'3', 00H, '3', 00H, '\', 00H, 'i', 00H, 'n', 00H, 'c', 00H, 'l'
	DB	00H, 'u', 00H, 'd', 00H, 'e', 00H, '\', 00H, 'x', 00H, 'm', 00H
	DB	'e', 00H, 'm', 00H, 'o', 00H, 'r', 00H, 'y', 00H, 00H, 00H ; `string'
___asan_rrz_??_C@_1NA@MJBOBEJL@?$AAC?$AA?3?$AA?2?$AAP?$AAr?$AAo?$AAg?$AAr?$AAa?$AAm?$AA?5?$AAF?$AAi?$AAl?$AAe@ DD 0f9H
CONST	ENDS
;	COMDAT ??_C@_1EK@NIFDJFDG@?$AAs?$AAt?$AAd?$AA?3?$AA?3?$AA_?$AAA?$AAd?$AAj?$AAu?$AAs?$AAt?$AA_?$AAm?$AAa@
CONST	SEGMENT
??_C@_1EK@NIFDJFDG@?$AAs?$AAt?$AAd?$AA?3?$AA?3?$AA_?$AAA?$AAd?$AAj?$AAu?$AAs?$AAt?$AA_?$AAm?$AAa@ DB 's'
	DB	00H, 't', 00H, 'd', 00H, ':', 00H, ':', 00H, '_', 00H, 'A', 00H
	DB	'd', 00H, 'j', 00H, 'u', 00H, 's', 00H, 't', 00H, '_', 00H, 'm'
	DB	00H, 'a', 00H, 'n', 00H, 'u', 00H, 'a', 00H, 'l', 00H, 'l', 00H
	DB	'y', 00H, '_', 00H, 'v', 00H, 'e', 00H, 'c', 00H, 't', 00H, 'o'
	DB	00H, 'r', 00H, '_', 00H, 'a', 00H, 'l', 00H, 'i', 00H, 'g', 00H
	DB	'n', 00H, 'e', 00H, 'd', 00H, 00H, 00H	; `string'
___asan_rrz_??_C@_1EK@NIFDJFDG@?$AAs?$AAt?$AAd?$AA?3?$AA?3?$AA_?$AAA?$AAd?$AAj?$AAu?$AAs?$AAt?$AA_?$AAm?$AAa@ DD 0f9H
CONST	ENDS
;	COMDAT ??_C@_1CG@JNLFBNGN@?$AA?$CC?$AAi?$AAn?$AAv?$AAa?$AAl?$AAi?$AAd?$AA?5?$AAa?$AAr?$AAg?$AAu?$AAm?$AAe@
CONST	SEGMENT
??_C@_1CG@JNLFBNGN@?$AA?$CC?$AAi?$AAn?$AAv?$AAa?$AAl?$AAi?$AAd?$AA?5?$AAa?$AAr?$AAg?$AAu?$AAm?$AAe@ DB '"'
	DB	00H, 'i', 00H, 'n', 00H, 'v', 00H, 'a', 00H, 'l', 00H, 'i', 00H
	DB	'd', 00H, ' ', 00H, 'a', 00H, 'r', 00H, 'g', 00H, 'u', 00H, 'm'
	DB	00H, 'e', 00H, 'n', 00H, 't', 00H, '"', 00H, 00H, 00H ; `string'
___asan_rrz_??_C@_1CG@JNLFBNGN@?$AA?$CC?$AAi?$AAn?$AAv?$AAa?$AAl?$AAi?$AAd?$AA?5?$AAa?$AAr?$AAg?$AAu?$AAm?$AAe@ DD 0f9H
CONST	ENDS
;	COMDAT ??_C@_0BJ@LFDBABJJ@ITERATOR?5LIST?5CORRUPTED?$CB@
CONST	SEGMENT
??_C@_0BJ@LFDBABJJ@ITERATOR?5LIST?5CORRUPTED?$CB@ DB 'ITERATOR LIST CORRU'
	DB	'PTED!', 00H					; `string'
___asan_rrz_??_C@_0BJ@LFDBABJJ@ITERATOR?5LIST?5CORRUPTED?$CB@ DD 0f9H
CONST	ENDS
;	COMDAT ??_C@_1FM@FOFDAEGI@?$AAs?$AAt?$AAd?$AA?3?$AA?3?$AA_?$AAI?$AAt?$AAe?$AAr?$AAa?$AAt?$AAo?$AAr?$AA_@
CONST	SEGMENT
??_C@_1FM@FOFDAEGI@?$AAs?$AAt?$AAd?$AA?3?$AA?3?$AA_?$AAI?$AAt?$AAe?$AAr?$AAa?$AAt?$AAo?$AAr?$AA_@ DB 's'
	DB	00H, 't', 00H, 'd', 00H, ':', 00H, ':', 00H, '_', 00H, 'I', 00H
	DB	't', 00H, 'e', 00H, 'r', 00H, 'a', 00H, 't', 00H, 'o', 00H, 'r'
	DB	00H, '_', 00H, 'b', 00H, 'a', 00H, 's', 00H, 'e', 00H, '1', 00H
	DB	'2', 00H, ':', 00H, ':', 00H, '_', 00H, 'O', 00H, 'r', 00H, 'p'
	DB	00H, 'h', 00H, 'a', 00H, 'n', 00H, '_', 00H, 'm', 00H, 'e', 00H
	DB	'_', 00H, 'u', 00H, 'n', 00H, 'l', 00H, 'o', 00H, 'c', 00H, 'k'
	DB	00H, 'e', 00H, 'd', 00H, '_', 00H, 'v', 00H, '3', 00H, 00H, 00H ; `string'
___asan_rrz_??_C@_1FM@FOFDAEGI@?$AAs?$AAt?$AAd?$AA?3?$AA?3?$AA_?$AAI?$AAt?$AAe?$AAr?$AAa?$AAt?$AAo?$AAr?$AA_@ DD 0f9H
CONST	ENDS
;	COMDAT ??_C@_1DG@PLBPCAEM@?$AA?$CC?$AAI?$AAT?$AAE?$AAR?$AAA?$AAT?$AAO?$AAR?$AA?5?$AAL?$AAI?$AAS?$AAT?$AA?5@
CONST	SEGMENT
??_C@_1DG@PLBPCAEM@?$AA?$CC?$AAI?$AAT?$AAE?$AAR?$AAA?$AAT?$AAO?$AAR?$AA?5?$AAL?$AAI?$AAS?$AAT?$AA?5@ DB '"'
	DB	00H, 'I', 00H, 'T', 00H, 'E', 00H, 'R', 00H, 'A', 00H, 'T', 00H
	DB	'O', 00H, 'R', 00H, ' ', 00H, 'L', 00H, 'I', 00H, 'S', 00H, 'T'
	DB	00H, ' ', 00H, 'C', 00H, 'O', 00H, 'R', 00H, 'R', 00H, 'U', 00H
	DB	'P', 00H, 'T', 00H, 'E', 00H, 'D', 00H, '!', 00H, '"', 00H, 00H
	DB	00H						; `string'
___asan_rrz_??_C@_1DG@PLBPCAEM@?$AA?$CC?$AAI?$AAT?$AAE?$AAR?$AAA?$AAT?$AAO?$AAR?$AA?5?$AAL?$AAI?$AAS?$AAT?$AA?5@ DD 0f9H
CONST	ENDS
;	COMDAT ??_C@_0BA@JFNIOLAK@string?5too?5long@
CONST	SEGMENT
??_C@_0BA@JFNIOLAK@string?5too?5long@ DB 'string too long', 00H ; `string'
___asan_rrz_??_C@_0BA@JFNIOLAK@string?5too?5long@ DD 0f9H
CONST	ENDS
;	COMDAT ??_C@_0GI@GFIAKDGM@C?3?2Program?5Files?5?$CIx86?$CJ?2Microsof@
CONST	SEGMENT
??_C@_0GI@GFIAKDGM@C?3?2Program?5Files?5?$CIx86?$CJ?2Microsof@ DB 'C:\Pro'
	DB	'gram Files (x86)\Microsoft Visual Studio\2019\Community\VC\To'
	DB	'ols\MSVC\14.29.30133\include\xlocale', 00H	; `string'
___asan_rrz_??_C@_0GI@GFIAKDGM@C?3?2Program?5Files?5?$CIx86?$CJ?2Microsof@ DD 0f9H
CONST	ENDS
;	COMDAT ??_C@_0GI@OGMNKBMN@C?3?2Program?5Files?5?$CIx86?$CJ?2Microsof@
CONST	SEGMENT
??_C@_0GI@OGMNKBMN@C?3?2Program?5Files?5?$CIx86?$CJ?2Microsof@ DB 'C:\Pro'
	DB	'gram Files (x86)\Microsoft Visual Studio\2019\Community\VC\To'
	DB	'ols\MSVC\14.29.30133\include\xlocnum', 00H	; `string'
___asan_rrz_??_C@_0GI@OGMNKBMN@C?3?2Program?5Files?5?$CIx86?$CJ?2Microsof@ DD 0f9H
CONST	ENDS
;	COMDAT ??_C@_0CE@EAMOGAIE@vector?5erase?5iterator?5outside?5r@
CONST	SEGMENT
??_C@_0CE@EAMOGAIE@vector?5erase?5iterator?5outside?5r@ DB 'vector erase '
	DB	'iterator outside range', 00H		; `string'
___asan_rrz_??_C@_0CE@EAMOGAIE@vector?5erase?5iterator?5outside?5r@ DD 0f9H
CONST	ENDS
;	COMDAT ??_C@_0GH@KMHDIFOI@C?3?2Program?5Files?5?$CIx86?$CJ?2Microsof@
CONST	SEGMENT
??_C@_0GH@KMHDIFOI@C?3?2Program?5Files?5?$CIx86?$CJ?2Microsof@ DB 'C:\Pro'
	DB	'gram Files (x86)\Microsoft Visual Studio\2019\Community\VC\To'
	DB	'ols\MSVC\14.29.30133\include\vector', 00H	; `string'
___asan_rrz_??_C@_0GH@KMHDIFOI@C?3?2Program?5Files?5?$CIx86?$CJ?2Microsof@ DD 0f9H
CONST	ENDS
;	COMDAT ??_C@_1MO@NOHEJINP@?$AAC?$AA?3?$AA?2?$AAP?$AAr?$AAo?$AAg?$AAr?$AAa?$AAm?$AA?5?$AAF?$AAi?$AAl?$AAe@
CONST	SEGMENT
??_C@_1MO@NOHEJINP@?$AAC?$AA?3?$AA?2?$AAP?$AAr?$AAo?$AAg?$AAr?$AAa?$AAm?$AA?5?$AAF?$AAi?$AAl?$AAe@ DB 'C'
	DB	00H, ':', 00H, '\', 00H, 'P', 00H, 'r', 00H, 'o', 00H, 'g', 00H
	DB	'r', 00H, 'a', 00H, 'm', 00H, ' ', 00H, 'F', 00H, 'i', 00H, 'l'
	DB	00H, 'e', 00H, 's', 00H, ' ', 00H, '(', 00H, 'x', 00H, '8', 00H
	DB	'6', 00H, ')', 00H, '\', 00H, 'M', 00H, 'i', 00H, 'c', 00H, 'r'
	DB	00H, 'o', 00H, 's', 00H, 'o', 00H, 'f', 00H, 't', 00H, ' ', 00H
	DB	'V', 00H, 'i', 00H, 's', 00H, 'u', 00H, 'a', 00H, 'l', 00H, ' '
	DB	00H, 'S', 00H, 't', 00H, 'u', 00H, 'd', 00H, 'i', 00H, 'o', 00H
	DB	'\', 00H, '2', 00H, '0', 00H, '1', 00H, '9', 00H, '\', 00H, 'C'
	DB	00H, 'o', 00H, 'm', 00H, 'm', 00H, 'u', 00H, 'n', 00H, 'i', 00H
	DB	't', 00H, 'y', 00H, '\', 00H, 'V', 00H, 'C', 00H, '\', 00H, 'T'
	DB	00H, 'o', 00H, 'o', 00H, 'l', 00H, 's', 00H, '\', 00H, 'M', 00H
	DB	'S', 00H, 'V', 00H, 'C', 00H, '\', 00H, '1', 00H, '4', 00H, '.'
	DB	00H, '2', 00H, '9', 00H, '.', 00H, '3', 00H, '0', 00H, '1', 00H
	DB	'3', 00H, '3', 00H, '\', 00H, 'i', 00H, 'n', 00H, 'c', 00H, 'l'
	DB	00H, 'u', 00H, 'd', 00H, 'e', 00H, '\', 00H, 'v', 00H, 'e', 00H
	DB	'c', 00H, 't', 00H, 'o', 00H, 'r', 00H, 00H, 00H ; `string'
___asan_rrz_??_C@_1MO@NOHEJINP@?$AAC?$AA?3?$AA?2?$AAP?$AAr?$AAo?$AAg?$AAr?$AAa?$AAm?$AA?5?$AAF?$AAi?$AAl?$AAe@ DD 0f9H
CONST	ENDS
;	COMDAT ??_C@_1IO@JBEJNAIO@?$AAs?$AAt?$AAd?$AA?3?$AA?3?$AAv?$AAe?$AAc?$AAt?$AAo?$AAr?$AA?$DM?$AAc?$AAl?$AAa@
CONST	SEGMENT
??_C@_1IO@JBEJNAIO@?$AAs?$AAt?$AAd?$AA?3?$AA?3?$AAv?$AAe?$AAc?$AAt?$AAo?$AAr?$AA?$DM?$AAc?$AAl?$AAa@ DB 's'
	DB	00H, 't', 00H, 'd', 00H, ':', 00H, ':', 00H, 'v', 00H, 'e', 00H
	DB	'c', 00H, 't', 00H, 'o', 00H, 'r', 00H, '<', 00H, 'c', 00H, 'l'
	DB	00H, 'a', 00H, 's', 00H, 's', 00H, ' ', 00H, 'B', 00H, 'l', 00H
	DB	'o', 00H, 'c', 00H, 'k', 00H, ' ', 00H, '*', 00H, ',', 00H, 'c'
	DB	00H, 'l', 00H, 'a', 00H, 's', 00H, 's', 00H, ' ', 00H, 's', 00H
	DB	't', 00H, 'd', 00H, ':', 00H, ':', 00H, 'a', 00H, 'l', 00H, 'l'
	DB	00H, 'o', 00H, 'c', 00H, 'a', 00H, 't', 00H, 'o', 00H, 'r', 00H
	DB	'<', 00H, 'c', 00H, 'l', 00H, 'a', 00H, 's', 00H, 's', 00H, ' '
	DB	00H, 'B', 00H, 'l', 00H, 'o', 00H, 'c', 00H, 'k', 00H, ' ', 00H
	DB	'*', 00H, '>', 00H, ' ', 00H, '>', 00H, ':', 00H, ':', 00H, 'e'
	DB	00H, 'r', 00H, 'a', 00H, 's', 00H, 'e', 00H, 00H, 00H ; `string'
___asan_rrz_??_C@_1IO@JBEJNAIO@?$AAs?$AAt?$AAd?$AA?3?$AA?3?$AAv?$AAe?$AAc?$AAt?$AAo?$AAr?$AA?$DM?$AAc?$AAl?$AAa@ DD 0f9H
CONST	ENDS
;	COMDAT ??_C@_1EM@BEMPOGMM@?$AA?$CC?$AAv?$AAe?$AAc?$AAt?$AAo?$AAr?$AA?5?$AAe?$AAr?$AAa?$AAs?$AAe?$AA?5?$AAi@
CONST	SEGMENT
??_C@_1EM@BEMPOGMM@?$AA?$CC?$AAv?$AAe?$AAc?$AAt?$AAo?$AAr?$AA?5?$AAe?$AAr?$AAa?$AAs?$AAe?$AA?5?$AAi@ DB '"'
	DB	00H, 'v', 00H, 'e', 00H, 'c', 00H, 't', 00H, 'o', 00H, 'r', 00H
	DB	' ', 00H, 'e', 00H, 'r', 00H, 'a', 00H, 's', 00H, 'e', 00H, ' '
	DB	00H, 'i', 00H, 't', 00H, 'e', 00H, 'r', 00H, 'a', 00H, 't', 00H
	DB	'o', 00H, 'r', 00H, ' ', 00H, 'o', 00H, 'u', 00H, 't', 00H, 's'
	DB	00H, 'i', 00H, 'd', 00H, 'e', 00H, ' ', 00H, 'r', 00H, 'a', 00H
	DB	'n', 00H, 'g', 00H, 'e', 00H, '"', 00H, 00H, 00H ; `string'
___asan_rrz_??_C@_1EM@BEMPOGMM@?$AA?$CC?$AAv?$AAe?$AAc?$AAt?$AAo?$AAr?$AA?5?$AAe?$AAr?$AAa?$AAs?$AAe?$AA?5?$AAi@ DD 0f9H
CONST	ENDS
;	COMDAT ??_C@_0BA@FOIKENOD@vector?5too?5long@
CONST	SEGMENT
??_C@_0BA@FOIKENOD@vector?5too?5long@ DB 'vector too long', 00H ; `string'
___asan_rrz_??_C@_0BA@FOIKENOD@vector?5too?5long@ DD 0f9H
CONST	ENDS
;	COMDAT ??_C@_0N@LPFKKEBD@?3AM?3am?3PM?3pm@
CONST	SEGMENT
??_C@_0N@LPFKKEBD@?3AM?3am?3PM?3pm@ DB ':AM:am:PM:pm', 00H ; `string'
___asan_rrz_??_C@_0N@LPFKKEBD@?3AM?3am?3PM?3pm@ DD 0f9H
CONST	ENDS
;	COMDAT ??_C@_0BJ@DHFDPMIM@invalid?5vector?5subscript@
CONST	SEGMENT
??_C@_0BJ@DHFDPMIM@invalid?5vector?5subscript@ DB 'invalid vector subscri'
	DB	'pt', 00H					; `string'
___asan_rrz_??_C@_0BJ@DHFDPMIM@invalid?5vector?5subscript@ DD 0f9H
CONST	ENDS
;	COMDAT ??_C@_0DL@EIIPGNKA@cannot?5dereference?5value?9initia@
CONST	SEGMENT
??_C@_0DL@EIIPGNKA@cannot?5dereference?5value?9initia@ DB 'cannot derefer'
	DB	'ence value-initialized vector<bool> iterator', 00H ; `string'
___asan_rrz_??_C@_0DL@EIIPGNKA@cannot?5dereference?5value?9initia@ DD 0f9H
CONST	ENDS
;	COMDAT ??_C@_1LG@CHICOEJ@?$AAs?$AAt?$AAd?$AA?3?$AA?3?$AA_?$AAV?$AAb?$AA_?$AAr?$AAe?$AAf?$AAe?$AAr?$AAe@
CONST	SEGMENT
??_C@_1LG@CHICOEJ@?$AAs?$AAt?$AAd?$AA?3?$AA?3?$AA_?$AAV?$AAb?$AA_?$AAr?$AAe?$AAf?$AAe?$AAr?$AAe@ DB 's'
	DB	00H, 't', 00H, 'd', 00H, ':', 00H, ':', 00H, '_', 00H, 'V', 00H
	DB	'b', 00H, '_', 00H, 'r', 00H, 'e', 00H, 'f', 00H, 'e', 00H, 'r'
	DB	00H, 'e', 00H, 'n', 00H, 'c', 00H, 'e', 00H, '<', 00H, 's', 00H
	DB	't', 00H, 'r', 00H, 'u', 00H, 'c', 00H, 't', 00H, ' ', 00H, 's'
	DB	00H, 't', 00H, 'd', 00H, ':', 00H, ':', 00H, '_', 00H, 'W', 00H
	DB	'r', 00H, 'a', 00H, 'p', 00H, '_', 00H, 'a', 00H, 'l', 00H, 'l'
	DB	00H, 'o', 00H, 'c', 00H, '<', 00H, 'c', 00H, 'l', 00H, 'a', 00H
	DB	's', 00H, 's', 00H, ' ', 00H, 's', 00H, 't', 00H, 'd', 00H, ':'
	DB	00H, ':', 00H, 'a', 00H, 'l', 00H, 'l', 00H, 'o', 00H, 'c', 00H
	DB	'a', 00H, 't', 00H, 'o', 00H, 'r', 00H, '<', 00H, 'u', 00H, 'n'
	DB	00H, 's', 00H, 'i', 00H, 'g', 00H, 'n', 00H, 'e', 00H, 'd', 00H
	DB	' ', 00H, 'i', 00H, 'n', 00H, 't', 00H, '>', 00H, ' ', 00H, '>'
	DB	00H, ' ', 00H, '>', 00H, ':', 00H, ':', 00H, '_', 00H, 'G', 00H
	DB	'e', 00H, 't', 00H, 'p', 00H, 't', 00H, 'r', 00H, 00H, 00H ; `string'
___asan_rrz_??_C@_1LG@CHICOEJ@?$AAs?$AAt?$AAd?$AA?3?$AA?3?$AA_?$AAV?$AAb?$AA_?$AAr?$AAe?$AAf?$AAe?$AAr?$AAe@ DD 0f9H
CONST	ENDS
;	COMDAT ??_C@_1HK@NLJEKNBE@?$AA?$CC?$AAc?$AAa?$AAn?$AAn?$AAo?$AAt?$AA?5?$AAd?$AAe?$AAr?$AAe?$AAf?$AAe?$AAr@
CONST	SEGMENT
??_C@_1HK@NLJEKNBE@?$AA?$CC?$AAc?$AAa?$AAn?$AAn?$AAo?$AAt?$AA?5?$AAd?$AAe?$AAr?$AAe?$AAf?$AAe?$AAr@ DB '"'
	DB	00H, 'c', 00H, 'a', 00H, 'n', 00H, 'n', 00H, 'o', 00H, 't', 00H
	DB	' ', 00H, 'd', 00H, 'e', 00H, 'r', 00H, 'e', 00H, 'f', 00H, 'e'
	DB	00H, 'r', 00H, 'e', 00H, 'n', 00H, 'c', 00H, 'e', 00H, ' ', 00H
	DB	'v', 00H, 'a', 00H, 'l', 00H, 'u', 00H, 'e', 00H, '-', 00H, 'i'
	DB	00H, 'n', 00H, 'i', 00H, 't', 00H, 'i', 00H, 'a', 00H, 'l', 00H
	DB	'i', 00H, 'z', 00H, 'e', 00H, 'd', 00H, ' ', 00H, 'v', 00H, 'e'
	DB	00H, 'c', 00H, 't', 00H, 'o', 00H, 'r', 00H, '<', 00H, 'b', 00H
	DB	'o', 00H, 'o', 00H, 'l', 00H, '>', 00H, ' ', 00H, 'i', 00H, 't'
	DB	00H, 'e', 00H, 'r', 00H, 'a', 00H, 't', 00H, 'o', 00H, 'r', 00H
	DB	'"', 00H, 00H, 00H				; `string'
___asan_rrz_??_C@_1HK@NLJEKNBE@?$AA?$CC?$AAc?$AAa?$AAn?$AAn?$AAo?$AAt?$AA?5?$AAd?$AAe?$AAr?$AAe?$AAf?$AAe?$AAr@ DD 0f9H
CONST	ENDS
;	COMDAT ??_C@_0CK@FLJLFEAD@vector?$DMbool?$DO?5iterator?5not?5deref@
CONST	SEGMENT
??_C@_0CK@FLJLFEAD@vector?$DMbool?$DO?5iterator?5not?5deref@ DB 'vector<b'
	DB	'ool> iterator not dereferenceable', 00H	; `string'
___asan_rrz_??_C@_0CK@FLJLFEAD@vector?$DMbool?$DO?5iterator?5not?5deref@ DD 0f9H
CONST	ENDS
;	COMDAT ??_C@_1FI@IBAHAGLP@?$AA?$CC?$AAv?$AAe?$AAc?$AAt?$AAo?$AAr?$AA?$DM?$AAb?$AAo?$AAo?$AAl?$AA?$DO?$AA?5?$AAi@
CONST	SEGMENT
??_C@_1FI@IBAHAGLP@?$AA?$CC?$AAv?$AAe?$AAc?$AAt?$AAo?$AAr?$AA?$DM?$AAb?$AAo?$AAo?$AAl?$AA?$DO?$AA?5?$AAi@ DB '"'
	DB	00H, 'v', 00H, 'e', 00H, 'c', 00H, 't', 00H, 'o', 00H, 'r', 00H
	DB	'<', 00H, 'b', 00H, 'o', 00H, 'o', 00H, 'l', 00H, '>', 00H, ' '
	DB	00H, 'i', 00H, 't', 00H, 'e', 00H, 'r', 00H, 'a', 00H, 't', 00H
	DB	'o', 00H, 'r', 00H, ' ', 00H, 'n', 00H, 'o', 00H, 't', 00H, ' '
	DB	00H, 'd', 00H, 'e', 00H, 'r', 00H, 'e', 00H, 'f', 00H, 'e', 00H
	DB	'r', 00H, 'e', 00H, 'n', 00H, 'c', 00H, 'e', 00H, 'a', 00H, 'b'
	DB	00H, 'l', 00H, 'e', 00H, '"', 00H, 00H, 00H	; `string'
___asan_rrz_??_C@_1FI@IBAHAGLP@?$AA?$CC?$AAv?$AAe?$AAc?$AAt?$AAo?$AAr?$AA?$DM?$AAb?$AAo?$AAo?$AAl?$AA?$DO?$AA?5?$AAi@ DD 0f9H
CONST	ENDS
;	COMDAT ??_C@_0BP@BKHLLOGL@invalid?5vector?$DMbool?$DO?5subscript@
CONST	SEGMENT
??_C@_0BP@BKHLLOGL@invalid?5vector?$DMbool?$DO?5subscript@ DB 'invalid ve'
	DB	'ctor<bool> subscript', 00H			; `string'
___asan_rrz_??_C@_0BP@BKHLLOGL@invalid?5vector?$DMbool?$DO?5subscript@ DD 0f9H
CONST	ENDS
;	COMDAT ??_C@_0CE@FFEOOBMH@vector?$DMbool?$DO?5subscript?5out?5of?5r@
CONST	SEGMENT
??_C@_0CE@FFEOOBMH@vector?$DMbool?$DO?5subscript?5out?5of?5r@ DB 'vector<'
	DB	'bool> subscript out of range', 00H		; `string'
___asan_rrz_??_C@_0CE@FFEOOBMH@vector?$DMbool?$DO?5subscript?5out?5of?5r@ DD 0f9H
CONST	ENDS
;	COMDAT ??_C@_1HG@KMENFMCO@?$AAs?$AAt?$AAd?$AA?3?$AA?3?$AAv?$AAe?$AAc?$AAt?$AAo?$AAr?$AA?$DM?$AAb?$AAo?$AAo@
CONST	SEGMENT
??_C@_1HG@KMENFMCO@?$AAs?$AAt?$AAd?$AA?3?$AA?3?$AAv?$AAe?$AAc?$AAt?$AAo?$AAr?$AA?$DM?$AAb?$AAo?$AAo@ DB 's'
	DB	00H, 't', 00H, 'd', 00H, ':', 00H, ':', 00H, 'v', 00H, 'e', 00H
	DB	'c', 00H, 't', 00H, 'o', 00H, 'r', 00H, '<', 00H, 'b', 00H, 'o'
	DB	00H, 'o', 00H, 'l', 00H, ',', 00H, 'c', 00H, 'l', 00H, 'a', 00H
	DB	's', 00H, 's', 00H, ' ', 00H, 's', 00H, 't', 00H, 'd', 00H, ':'
	DB	00H, ':', 00H, 'a', 00H, 'l', 00H, 'l', 00H, 'o', 00H, 'c', 00H
	DB	'a', 00H, 't', 00H, 'o', 00H, 'r', 00H, '<', 00H, 'b', 00H, 'o'
	DB	00H, 'o', 00H, 'l', 00H, '>', 00H, ' ', 00H, '>', 00H, ':', 00H
	DB	':', 00H, 'o', 00H, 'p', 00H, 'e', 00H, 'r', 00H, 'a', 00H, 't'
	DB	00H, 'o', 00H, 'r', 00H, ' ', 00H, '[', 00H, ']', 00H, 00H, 00H ; `string'
___asan_rrz_??_C@_1HG@KMENFMCO@?$AAs?$AAt?$AAd?$AA?3?$AA?3?$AAv?$AAe?$AAc?$AAt?$AAo?$AAr?$AA?$DM?$AAb?$AAo?$AAo@ DD 0f9H
CONST	ENDS
;	COMDAT ??_C@_1EM@HCHFCCIP@?$AA?$CC?$AAv?$AAe?$AAc?$AAt?$AAo?$AAr?$AA?$DM?$AAb?$AAo?$AAo?$AAl?$AA?$DO?$AA?5?$AAs@
CONST	SEGMENT
??_C@_1EM@HCHFCCIP@?$AA?$CC?$AAv?$AAe?$AAc?$AAt?$AAo?$AAr?$AA?$DM?$AAb?$AAo?$AAo?$AAl?$AA?$DO?$AA?5?$AAs@ DB '"'
	DB	00H, 'v', 00H, 'e', 00H, 'c', 00H, 't', 00H, 'o', 00H, 'r', 00H
	DB	'<', 00H, 'b', 00H, 'o', 00H, 'o', 00H, 'l', 00H, '>', 00H, ' '
	DB	00H, 's', 00H, 'u', 00H, 'b', 00H, 's', 00H, 'c', 00H, 'r', 00H
	DB	'i', 00H, 'p', 00H, 't', 00H, ' ', 00H, 'o', 00H, 'u', 00H, 't'
	DB	00H, ' ', 00H, 'o', 00H, 'f', 00H, ' ', 00H, 'r', 00H, 'a', 00H
	DB	'n', 00H, 'g', 00H, 'e', 00H, '"', 00H, 00H, 00H ; `string'
___asan_rrz_??_C@_1EM@HCHFCCIP@?$AA?$CC?$AAv?$AAe?$AAc?$AAt?$AAo?$AAr?$AA?$DM?$AAb?$AAo?$AAo?$AAl?$AA?$DO?$AA?5?$AAs@ DD 0f9H
CONST	ENDS
;	COMDAT ??_C@_1LK@OCBBIODL@?$AAs?$AAt?$AAd?$AA?3?$AA?3?$AA_?$AAV?$AAb?$AA_?$AAi?$AAt?$AAe?$AAr?$AAa?$AAt@
CONST	SEGMENT
??_C@_1LK@OCBBIODL@?$AAs?$AAt?$AAd?$AA?3?$AA?3?$AA_?$AAV?$AAb?$AA_?$AAi?$AAt?$AAe?$AAr?$AAa?$AAt@ DB 's'
	DB	00H, 't', 00H, 'd', 00H, ':', 00H, ':', 00H, '_', 00H, 'V', 00H
	DB	'b', 00H, '_', 00H, 'i', 00H, 't', 00H, 'e', 00H, 'r', 00H, 'a'
	DB	00H, 't', 00H, 'o', 00H, 'r', 00H, '<', 00H, 's', 00H, 't', 00H
	DB	'r', 00H, 'u', 00H, 'c', 00H, 't', 00H, ' ', 00H, 's', 00H, 't'
	DB	00H, 'd', 00H, ':', 00H, ':', 00H, '_', 00H, 'W', 00H, 'r', 00H
	DB	'a', 00H, 'p', 00H, '_', 00H, 'a', 00H, 'l', 00H, 'l', 00H, 'o'
	DB	00H, 'c', 00H, '<', 00H, 'c', 00H, 'l', 00H, 'a', 00H, 's', 00H
	DB	's', 00H, ' ', 00H, 's', 00H, 't', 00H, 'd', 00H, ':', 00H, ':'
	DB	00H, 'a', 00H, 'l', 00H, 'l', 00H, 'o', 00H, 'c', 00H, 'a', 00H
	DB	't', 00H, 'o', 00H, 'r', 00H, '<', 00H, 'u', 00H, 'n', 00H, 's'
	DB	00H, 'i', 00H, 'g', 00H, 'n', 00H, 'e', 00H, 'd', 00H, ' ', 00H
	DB	'i', 00H, 'n', 00H, 't', 00H, '>', 00H, ' ', 00H, '>', 00H, ' '
	DB	00H, '>', 00H, ':', 00H, ':', 00H, 'o', 00H, 'p', 00H, 'e', 00H
	DB	'r', 00H, 'a', 00H, 't', 00H, 'o', 00H, 'r', 00H, ' ', 00H, '*'
	DB	00H, 00H, 00H				; `string'
___asan_rrz_??_C@_1LK@OCBBIODL@?$AAs?$AAt?$AAd?$AA?3?$AA?3?$AA_?$AAV?$AAb?$AA_?$AAi?$AAt?$AAe?$AAr?$AAa?$AAt@ DD 0f9H
CONST	ENDS
;	COMDAT ??_C@_0BG@EOMJEIFA@vector?$DMbool?$DO?5too?5long@
CONST	SEGMENT
??_C@_0BG@EOMJEIFA@vector?$DMbool?$DO?5too?5long@ DB 'vector<bool> too lo'
	DB	'ng', 00H					; `string'
___asan_rrz_??_C@_0BG@EOMJEIFA@vector?$DMbool?$DO?5too?5long@ DD 0f9H
CONST	ENDS
;	COMDAT ??_C@_0BO@PFKOHNJC@vector?5subscript?5out?5of?5range@
CONST	SEGMENT
??_C@_0BO@PFKOHNJC@vector?5subscript?5out?5of?5range@ DB 'vector subscrip'
	DB	't out of range', 00H			; `string'
___asan_rrz_??_C@_0BO@PFKOHNJC@vector?5subscript?5out?5of?5range@ DD 0f9H
CONST	ENDS
;	COMDAT ??_C@_1JG@ILDNFCDK@?$AAs?$AAt?$AAd?$AA?3?$AA?3?$AAv?$AAe?$AAc?$AAt?$AAo?$AAr?$AA?$DM?$AAu?$AAn?$AAs@
CONST	SEGMENT
??_C@_1JG@ILDNFCDK@?$AAs?$AAt?$AAd?$AA?3?$AA?3?$AAv?$AAe?$AAc?$AAt?$AAo?$AAr?$AA?$DM?$AAu?$AAn?$AAs@ DB 's'
	DB	00H, 't', 00H, 'd', 00H, ':', 00H, ':', 00H, 'v', 00H, 'e', 00H
	DB	'c', 00H, 't', 00H, 'o', 00H, 'r', 00H, '<', 00H, 'u', 00H, 'n'
	DB	00H, 's', 00H, 'i', 00H, 'g', 00H, 'n', 00H, 'e', 00H, 'd', 00H
	DB	' ', 00H, 'i', 00H, 'n', 00H, 't', 00H, ',', 00H, 'c', 00H, 'l'
	DB	00H, 'a', 00H, 's', 00H, 's', 00H, ' ', 00H, 's', 00H, 't', 00H
	DB	'd', 00H, ':', 00H, ':', 00H, 'a', 00H, 'l', 00H, 'l', 00H, 'o'
	DB	00H, 'c', 00H, 'a', 00H, 't', 00H, 'o', 00H, 'r', 00H, '<', 00H
	DB	'u', 00H, 'n', 00H, 's', 00H, 'i', 00H, 'g', 00H, 'n', 00H, 'e'
	DB	00H, 'd', 00H, ' ', 00H, 'i', 00H, 'n', 00H, 't', 00H, '>', 00H
	DB	' ', 00H, '>', 00H, ':', 00H, ':', 00H, 'o', 00H, 'p', 00H, 'e'
	DB	00H, 'r', 00H, 'a', 00H, 't', 00H, 'o', 00H, 'r', 00H, ' ', 00H
	DB	'[', 00H, ']', 00H, 00H, 00H			; `string'
___asan_rrz_??_C@_1JG@ILDNFCDK@?$AAs?$AAt?$AAd?$AA?3?$AA?3?$AAv?$AAe?$AAc?$AAt?$AAo?$AAr?$AA?$DM?$AAu?$AAn?$AAs@ DD 0f9H
CONST	ENDS
;	COMDAT ??_C@_1EA@LEKOKFNB@?$AA?$CC?$AAv?$AAe?$AAc?$AAt?$AAo?$AAr?$AA?5?$AAs?$AAu?$AAb?$AAs?$AAc?$AAr?$AAi@
CONST	SEGMENT
??_C@_1EA@LEKOKFNB@?$AA?$CC?$AAv?$AAe?$AAc?$AAt?$AAo?$AAr?$AA?5?$AAs?$AAu?$AAb?$AAs?$AAc?$AAr?$AAi@ DB '"'
	DB	00H, 'v', 00H, 'e', 00H, 'c', 00H, 't', 00H, 'o', 00H, 'r', 00H
	DB	' ', 00H, 's', 00H, 'u', 00H, 'b', 00H, 's', 00H, 'c', 00H, 'r'
	DB	00H, 'i', 00H, 'p', 00H, 't', 00H, ' ', 00H, 'o', 00H, 'u', 00H
	DB	't', 00H, ' ', 00H, 'o', 00H, 'f', 00H, ' ', 00H, 'r', 00H, 'a'
	DB	00H, 'n', 00H, 'g', 00H, 'e', 00H, '"', 00H, 00H, 00H ; `string'
___asan_rrz_??_C@_1EA@LEKOKFNB@?$AA?$CC?$AAv?$AAe?$AAc?$AAt?$AAo?$AAr?$AA?5?$AAs?$AAu?$AAb?$AAs?$AAc?$AAr?$AAi@ DD 0f9H
CONST	ENDS
;	COMDAT ??_C@_1IK@JDPLIGFN@?$AAs?$AAt?$AAd?$AA?3?$AA?3?$AAv?$AAe?$AAc?$AAt?$AAo?$AAr?$AA?$DM?$AAu?$AAn?$AAs@
CONST	SEGMENT
??_C@_1IK@JDPLIGFN@?$AAs?$AAt?$AAd?$AA?3?$AA?3?$AAv?$AAe?$AAc?$AAt?$AAo?$AAr?$AA?$DM?$AAu?$AAn?$AAs@ DB 's'
	DB	00H, 't', 00H, 'd', 00H, ':', 00H, ':', 00H, 'v', 00H, 'e', 00H
	DB	'c', 00H, 't', 00H, 'o', 00H, 'r', 00H, '<', 00H, 'u', 00H, 'n'
	DB	00H, 's', 00H, 'i', 00H, 'g', 00H, 'n', 00H, 'e', 00H, 'd', 00H
	DB	' ', 00H, 'i', 00H, 'n', 00H, 't', 00H, ',', 00H, 'c', 00H, 'l'
	DB	00H, 'a', 00H, 's', 00H, 's', 00H, ' ', 00H, 's', 00H, 't', 00H
	DB	'd', 00H, ':', 00H, ':', 00H, 'a', 00H, 'l', 00H, 'l', 00H, 'o'
	DB	00H, 'c', 00H, 'a', 00H, 't', 00H, 'o', 00H, 'r', 00H, '<', 00H
	DB	'u', 00H, 'n', 00H, 's', 00H, 'i', 00H, 'g', 00H, 'n', 00H, 'e'
	DB	00H, 'd', 00H, ' ', 00H, 'i', 00H, 'n', 00H, 't', 00H, '>', 00H
	DB	' ', 00H, '>', 00H, ':', 00H, ':', 00H, 'e', 00H, 'r', 00H, 'a'
	DB	00H, 's', 00H, 'e', 00H, 00H, 00H		; `string'
___asan_rrz_??_C@_1IK@JDPLIGFN@?$AAs?$AAt?$AAd?$AA?3?$AA?3?$AAv?$AAe?$AAc?$AAt?$AAo?$AAr?$AA?$DM?$AAu?$AAn?$AAs@ DD 0f9H
CONST	ENDS
;	COMDAT ??_C@_0CO@LHPFLLJB@cannot?5seek?5value?9initialized?5v@
CONST	SEGMENT
??_C@_0CO@LHPFLLJB@cannot?5seek?5value?9initialized?5v@ DB 'cannot seek v'
	DB	'alue-initialized vector iterator', 00H	; `string'
___asan_rrz_??_C@_0CO@LHPFLLJB@cannot?5seek?5value?9initialized?5v@ DD 0f9H
CONST	ENDS
;	COMDAT ??_C@_1OA@FDIBPEPP@?$AAs?$AAt?$AAd?$AA?3?$AA?3?$AA_?$AAV?$AAe?$AAc?$AAt?$AAo?$AAr?$AA_?$AAc?$AAo@
CONST	SEGMENT
??_C@_1OA@FDIBPEPP@?$AAs?$AAt?$AAd?$AA?3?$AA?3?$AA_?$AAV?$AAe?$AAc?$AAt?$AAo?$AAr?$AA_?$AAc?$AAo@ DB 's'
	DB	00H, 't', 00H, 'd', 00H, ':', 00H, ':', 00H, '_', 00H, 'V', 00H
	DB	'e', 00H, 'c', 00H, 't', 00H, 'o', 00H, 'r', 00H, '_', 00H, 'c'
	DB	00H, 'o', 00H, 'n', 00H, 's', 00H, 't', 00H, '_', 00H, 'i', 00H
	DB	't', 00H, 'e', 00H, 'r', 00H, 'a', 00H, 't', 00H, 'o', 00H, 'r'
	DB	00H, '<', 00H, 'c', 00H, 'l', 00H, 'a', 00H, 's', 00H, 's', 00H
	DB	' ', 00H, 's', 00H, 't', 00H, 'd', 00H, ':', 00H, ':', 00H, '_'
	DB	00H, 'V', 00H, 'e', 00H, 'c', 00H, 't', 00H, 'o', 00H, 'r', 00H
	DB	'_', 00H, 'v', 00H, 'a', 00H, 'l', 00H, '<', 00H, 's', 00H, 't'
	DB	00H, 'r', 00H, 'u', 00H, 'c', 00H, 't', 00H, ' ', 00H, 's', 00H
	DB	't', 00H, 'd', 00H, ':', 00H, ':', 00H, '_', 00H, 'S', 00H, 'i'
	DB	00H, 'm', 00H, 'p', 00H, 'l', 00H, 'e', 00H, '_', 00H, 't', 00H
	DB	'y', 00H, 'p', 00H, 'e', 00H, 's', 00H, '<', 00H, 'c', 00H, 'l'
	DB	00H, 'a', 00H, 's', 00H, 's', 00H, ' ', 00H, 'B', 00H, 'l', 00H
	DB	'o', 00H, 'c', 00H, 'k', 00H, ' ', 00H, '*', 00H, '>', 00H, ' '
	DB	00H, '>', 00H, ' ', 00H, '>', 00H, ':', 00H, ':', 00H, '_', 00H
	DB	'V', 00H, 'e', 00H, 'r', 00H, 'i', 00H, 'f', 00H, 'y', 00H, '_'
	DB	00H, 'o', 00H, 'f', 00H, 'f', 00H, 's', 00H, 'e', 00H, 't', 00H
	DB	00H, 00H					; `string'
___asan_rrz_??_C@_1OA@FDIBPEPP@?$AAs?$AAt?$AAd?$AA?3?$AA?3?$AA_?$AAV?$AAe?$AAc?$AAt?$AAo?$AAr?$AA_?$AAc?$AAo@ DD 0f9H
CONST	ENDS
;	COMDAT ??_C@_1GA@EIHBFEJD@?$AA?$CC?$AAc?$AAa?$AAn?$AAn?$AAo?$AAt?$AA?5?$AAs?$AAe?$AAe?$AAk?$AA?5?$AAv?$AAa@
CONST	SEGMENT
??_C@_1GA@EIHBFEJD@?$AA?$CC?$AAc?$AAa?$AAn?$AAn?$AAo?$AAt?$AA?5?$AAs?$AAe?$AAe?$AAk?$AA?5?$AAv?$AAa@ DB '"'
	DB	00H, 'c', 00H, 'a', 00H, 'n', 00H, 'n', 00H, 'o', 00H, 't', 00H
	DB	' ', 00H, 's', 00H, 'e', 00H, 'e', 00H, 'k', 00H, ' ', 00H, 'v'
	DB	00H, 'a', 00H, 'l', 00H, 'u', 00H, 'e', 00H, '-', 00H, 'i', 00H
	DB	'n', 00H, 'i', 00H, 't', 00H, 'i', 00H, 'a', 00H, 'l', 00H, 'i'
	DB	00H, 'z', 00H, 'e', 00H, 'd', 00H, ' ', 00H, 'v', 00H, 'e', 00H
	DB	'c', 00H, 't', 00H, 'o', 00H, 'r', 00H, ' ', 00H, 'i', 00H, 't'
	DB	00H, 'e', 00H, 'r', 00H, 'a', 00H, 't', 00H, 'o', 00H, 'r', 00H
	DB	'"', 00H, 00H, 00H				; `string'
___asan_rrz_??_C@_1GA@EIHBFEJD@?$AA?$CC?$AAc?$AAa?$AAn?$AAn?$AAo?$AAt?$AA?5?$AAs?$AAe?$AAe?$AAk?$AA?5?$AAv?$AAa@ DD 0f9H
CONST	ENDS
;	COMDAT ??_C@_0CJ@DIFMEJBE@cannot?5seek?5vector?5iterator?5bef@
CONST	SEGMENT
??_C@_0CJ@DIFMEJBE@cannot?5seek?5vector?5iterator?5bef@ DB 'cannot seek v'
	DB	'ector iterator before begin', 00H		; `string'
___asan_rrz_??_C@_0CJ@DIFMEJBE@cannot?5seek?5vector?5iterator?5bef@ DD 0f9H
CONST	ENDS
;	COMDAT ??_C@_1FG@JCGKNFIB@?$AA?$CC?$AAc?$AAa?$AAn?$AAn?$AAo?$AAt?$AA?5?$AAs?$AAe?$AAe?$AAk?$AA?5?$AAv?$AAe@
CONST	SEGMENT
??_C@_1FG@JCGKNFIB@?$AA?$CC?$AAc?$AAa?$AAn?$AAn?$AAo?$AAt?$AA?5?$AAs?$AAe?$AAe?$AAk?$AA?5?$AAv?$AAe@ DB '"'
	DB	00H, 'c', 00H, 'a', 00H, 'n', 00H, 'n', 00H, 'o', 00H, 't', 00H
	DB	' ', 00H, 's', 00H, 'e', 00H, 'e', 00H, 'k', 00H, ' ', 00H, 'v'
	DB	00H, 'e', 00H, 'c', 00H, 't', 00H, 'o', 00H, 'r', 00H, ' ', 00H
	DB	'i', 00H, 't', 00H, 'e', 00H, 'r', 00H, 'a', 00H, 't', 00H, 'o'
	DB	00H, 'r', 00H, ' ', 00H, 'b', 00H, 'e', 00H, 'f', 00H, 'o', 00H
	DB	'r', 00H, 'e', 00H, ' ', 00H, 'b', 00H, 'e', 00H, 'g', 00H, 'i'
	DB	00H, 'n', 00H, '"', 00H, 00H, 00H		; `string'
___asan_rrz_??_C@_1FG@JCGKNFIB@?$AA?$CC?$AAc?$AAa?$AAn?$AAn?$AAo?$AAt?$AA?5?$AAs?$AAe?$AAe?$AAk?$AA?5?$AAv?$AAe@ DD 0f9H
CONST	ENDS
;	COMDAT ??_C@_0CG@JDIOCKHH@cannot?5seek?5vector?5iterator?5aft@
CONST	SEGMENT
??_C@_0CG@JDIOCKHH@cannot?5seek?5vector?5iterator?5aft@ DB 'cannot seek v'
	DB	'ector iterator after end', 00H		; `string'
___asan_rrz_??_C@_0CG@JDIOCKHH@cannot?5seek?5vector?5iterator?5aft@ DD 0f9H
CONST	ENDS
;	COMDAT ??_C@_1FA@LCODAPOP@?$AA?$CC?$AAc?$AAa?$AAn?$AAn?$AAo?$AAt?$AA?5?$AAs?$AAe?$AAe?$AAk?$AA?5?$AAv?$AAe@
CONST	SEGMENT
??_C@_1FA@LCODAPOP@?$AA?$CC?$AAc?$AAa?$AAn?$AAn?$AAo?$AAt?$AA?5?$AAs?$AAe?$AAe?$AAk?$AA?5?$AAv?$AAe@ DB '"'
	DB	00H, 'c', 00H, 'a', 00H, 'n', 00H, 'n', 00H, 'o', 00H, 't', 00H
	DB	' ', 00H, 's', 00H, 'e', 00H, 'e', 00H, 'k', 00H, ' ', 00H, 'v'
	DB	00H, 'e', 00H, 'c', 00H, 't', 00H, 'o', 00H, 'r', 00H, ' ', 00H
	DB	'i', 00H, 't', 00H, 'e', 00H, 'r', 00H, 'a', 00H, 't', 00H, 'o'
	DB	00H, 'r', 00H, ' ', 00H, 'a', 00H, 'f', 00H, 't', 00H, 'e', 00H
	DB	'r', 00H, ' ', 00H, 'e', 00H, 'n', 00H, 'd', 00H, '"', 00H, 00H
	DB	00H						; `string'
___asan_rrz_??_C@_1FA@LCODAPOP@?$AA?$CC?$AAc?$AAa?$AAn?$AAn?$AAo?$AAt?$AA?5?$AAs?$AAe?$AAe?$AAk?$AA?5?$AAv?$AAe@ DD 0f9H
CONST	ENDS
;	COMDAT ??_C@_1NO@FMJOGJCJ@?$AAs?$AAt?$AAd?$AA?3?$AA?3?$AA_?$AAV?$AAe?$AAc?$AAt?$AAo?$AAr?$AA_?$AAc?$AAo@
CONST	SEGMENT
??_C@_1NO@FMJOGJCJ@?$AAs?$AAt?$AAd?$AA?3?$AA?3?$AA_?$AAV?$AAe?$AAc?$AAt?$AAo?$AAr?$AA_?$AAc?$AAo@ DB 's'
	DB	00H, 't', 00H, 'd', 00H, ':', 00H, ':', 00H, '_', 00H, 'V', 00H
	DB	'e', 00H, 'c', 00H, 't', 00H, 'o', 00H, 'r', 00H, '_', 00H, 'c'
	DB	00H, 'o', 00H, 'n', 00H, 's', 00H, 't', 00H, '_', 00H, 'i', 00H
	DB	't', 00H, 'e', 00H, 'r', 00H, 'a', 00H, 't', 00H, 'o', 00H, 'r'
	DB	00H, '<', 00H, 'c', 00H, 'l', 00H, 'a', 00H, 's', 00H, 's', 00H
	DB	' ', 00H, 's', 00H, 't', 00H, 'd', 00H, ':', 00H, ':', 00H, '_'
	DB	00H, 'V', 00H, 'e', 00H, 'c', 00H, 't', 00H, 'o', 00H, 'r', 00H
	DB	'_', 00H, 'v', 00H, 'a', 00H, 'l', 00H, '<', 00H, 's', 00H, 't'
	DB	00H, 'r', 00H, 'u', 00H, 'c', 00H, 't', 00H, ' ', 00H, 's', 00H
	DB	't', 00H, 'd', 00H, ':', 00H, ':', 00H, '_', 00H, 'S', 00H, 'i'
	DB	00H, 'm', 00H, 'p', 00H, 'l', 00H, 'e', 00H, '_', 00H, 't', 00H
	DB	'y', 00H, 'p', 00H, 'e', 00H, 's', 00H, '<', 00H, 'u', 00H, 'n'
	DB	00H, 's', 00H, 'i', 00H, 'g', 00H, 'n', 00H, 'e', 00H, 'd', 00H
	DB	' ', 00H, 'i', 00H, 'n', 00H, 't', 00H, '>', 00H, ' ', 00H, '>'
	DB	00H, ' ', 00H, '>', 00H, ':', 00H, ':', 00H, '_', 00H, 'V', 00H
	DB	'e', 00H, 'r', 00H, 'i', 00H, 'f', 00H, 'y', 00H, '_', 00H, 'o'
	DB	00H, 'f', 00H, 'f', 00H, 's', 00H, 'e', 00H, 't', 00H, 00H, 00H ; `string'
___asan_rrz_??_C@_1NO@FMJOGJCJ@?$AAs?$AAt?$AAd?$AA?3?$AA?3?$AA_?$AAV?$AAe?$AAc?$AAt?$AAo?$AAr?$AA_?$AAc?$AAo@ DD 0f9H
CONST	ENDS
;	COMDAT ??_C@_1BK@MHIKGOKE@?$AA?3?$AAA?$AAM?$AA?3?$AAa?$AAm?$AA?3?$AAP?$AAM?$AA?3?$AAp?$AAm@
CONST	SEGMENT
??_C@_1BK@MHIKGOKE@?$AA?3?$AAA?$AAM?$AA?3?$AAa?$AAm?$AA?3?$AAP?$AAM?$AA?3?$AAp?$AAm@ DB ':'
	DB	00H, 'A', 00H, 'M', 00H, ':', 00H, 'a', 00H, 'm', 00H, ':', 00H
	DB	'P', 00H, 'M', 00H, ':', 00H, 'p', 00H, 'm', 00H, 00H, 00H ; `string'
___asan_rrz_??_C@_1BK@MHIKGOKE@?$AA?3?$AAA?$AAM?$AA?3?$AAa?$AAm?$AA?3?$AAP?$AAM?$AA?3?$AAp?$AAm@ DD 0f9H
CONST	ENDS
;	COMDAT CRT$XCU
CRT$XCU	SEGMENT
?level1$initializer$@@3P6AXXZA DD FLAT:??__Elevel1@@YAXXZ ; level1$initializer$
CRT$XCU	ENDS
;	COMDAT ASAN$GL
ASAN$GL	SEGMENT
_L___asan_global_??_C@_1BK@MHIKGOKE@?$AA?3?$AAA?$AAM?$AA?3?$AAa?$AAm?$AA?3?$AAP?$AAM?$AA?3?$AAp?$AAm@ DD FLAT:??_C@_1BK@MHIKGOKE@?$AA?3?$AAA?$AAM?$AA?3?$AAa?$AAm?$AA?3?$AAP?$AAM?$AA?3?$AAp?$AAm@
	DD	01aH
	DD	040H
	DD	FLAT:_L___asan_gen_.100
	DD	FLAT:_L___asan_gen_.49
	DD	00H
	DD	FLAT:_L___asan_gen_.101
	DD	00H
ASAN$GL	ENDS
;	COMDAT CONST
CONST	SEGMENT
_L___asan_gen_.101 DD FLAT:_L___asan_gen_.49
	DD	0b4H
	DD	03eH
CONST	ENDS
;	COMDAT CONST
CONST	SEGMENT
_L___asan_gen_.100 DB '<C++ string literal>', 00H
CONST	ENDS
;	COMDAT ASAN$GL
ASAN$GL	SEGMENT
_L___asan_global_??_C@_1NO@FMJOGJCJ@?$AAs?$AAt?$AAd?$AA?3?$AA?3?$AA_?$AAV?$AAe?$AAc?$AAt?$AAo?$AAr?$AA_?$AAc?$AAo@ DD FLAT:??_C@_1NO@FMJOGJCJ@?$AAs?$AAt?$AAd?$AA?3?$AA?3?$AA_?$AAV?$AAe?$AAc?$AAt?$AAo?$AAr?$AA_?$AAc?$AAo@
	DD	0deH
	DD	0100H
	DD	FLAT:_L___asan_gen_.98
	DD	FLAT:_L___asan_gen_.36
	DD	00H
	DD	FLAT:_L___asan_gen_.99
	DD	00H
ASAN$GL	ENDS
;	COMDAT CONST
CONST	SEGMENT
_L___asan_gen_.99 DD FLAT:_L___asan_gen_.36
	DD	06eH
	DD	08H
CONST	ENDS
;	COMDAT CONST
CONST	SEGMENT
_L___asan_gen_.98 DB '<C++ string literal>', 00H
CONST	ENDS
;	COMDAT ASAN$GL
ASAN$GL	SEGMENT
_L___asan_global_??_C@_1FA@LCODAPOP@?$AA?$CC?$AAc?$AAa?$AAn?$AAn?$AAo?$AAt?$AA?5?$AAs?$AAe?$AAe?$AAk?$AA?5?$AAv?$AAe@ DD FLAT:??_C@_1FA@LCODAPOP@?$AA?$CC?$AAc?$AAa?$AAn?$AAn?$AAo?$AAt?$AA?5?$AAs?$AAe?$AAe?$AAk?$AA?5?$AAv?$AAe@
	DD	050H
	DD	080H
	DD	FLAT:_L___asan_gen_.96
	DD	FLAT:_L___asan_gen_.36
	DD	00H
	DD	FLAT:_L___asan_gen_.97
	DD	00H
ASAN$GL	ENDS
;	COMDAT CONST
CONST	SEGMENT
_L___asan_gen_.97 DD FLAT:_L___asan_gen_.36
	DD	074H
	DD	0cH
CONST	ENDS
;	COMDAT CONST
CONST	SEGMENT
_L___asan_gen_.96 DB '<C++ string literal>', 00H
CONST	ENDS
;	COMDAT ASAN$GL
ASAN$GL	SEGMENT
_L___asan_global_??_C@_0CG@JDIOCKHH@cannot?5seek?5vector?5iterator?5aft@ DD FLAT:??_C@_0CG@JDIOCKHH@cannot?5seek?5vector?5iterator?5aft@
	DD	026H
	DD	060H
	DD	FLAT:_L___asan_gen_.94
	DD	FLAT:_L___asan_gen_.36
	DD	00H
	DD	FLAT:_L___asan_gen_.95
	DD	00H
ASAN$GL	ENDS
;	COMDAT CONST
CONST	SEGMENT
_L___asan_gen_.95 DD FLAT:_L___asan_gen_.36
	DD	074H
	DD	0cH
CONST	ENDS
;	COMDAT CONST
CONST	SEGMENT
_L___asan_gen_.94 DB '<C++ string literal>', 00H
CONST	ENDS
;	COMDAT ASAN$GL
ASAN$GL	SEGMENT
_L___asan_global_??_C@_1FG@JCGKNFIB@?$AA?$CC?$AAc?$AAa?$AAn?$AAn?$AAo?$AAt?$AA?5?$AAs?$AAe?$AAe?$AAk?$AA?5?$AAv?$AAe@ DD FLAT:??_C@_1FG@JCGKNFIB@?$AA?$CC?$AAc?$AAa?$AAn?$AAn?$AAo?$AAt?$AA?5?$AAs?$AAe?$AAe?$AAk?$AA?5?$AAv?$AAe@
	DD	056H
	DD	080H
	DD	FLAT:_L___asan_gen_.92
	DD	FLAT:_L___asan_gen_.36
	DD	00H
	DD	FLAT:_L___asan_gen_.93
	DD	00H
ASAN$GL	ENDS
;	COMDAT CONST
CONST	SEGMENT
_L___asan_gen_.93 DD FLAT:_L___asan_gen_.36
	DD	070H
	DD	0cH
CONST	ENDS
;	COMDAT CONST
CONST	SEGMENT
_L___asan_gen_.92 DB '<C++ string literal>', 00H
CONST	ENDS
;	COMDAT ASAN$GL
ASAN$GL	SEGMENT
_L___asan_global_??_C@_0CJ@DIFMEJBE@cannot?5seek?5vector?5iterator?5bef@ DD FLAT:??_C@_0CJ@DIFMEJBE@cannot?5seek?5vector?5iterator?5bef@
	DD	029H
	DD	060H
	DD	FLAT:_L___asan_gen_.90
	DD	FLAT:_L___asan_gen_.36
	DD	00H
	DD	FLAT:_L___asan_gen_.91
	DD	00H
ASAN$GL	ENDS
;	COMDAT CONST
CONST	SEGMENT
_L___asan_gen_.91 DD FLAT:_L___asan_gen_.36
	DD	070H
	DD	0cH
CONST	ENDS
;	COMDAT CONST
CONST	SEGMENT
_L___asan_gen_.90 DB '<C++ string literal>', 00H
CONST	ENDS
;	COMDAT ASAN$GL
ASAN$GL	SEGMENT
_L___asan_global_??_C@_1GA@EIHBFEJD@?$AA?$CC?$AAc?$AAa?$AAn?$AAn?$AAo?$AAt?$AA?5?$AAs?$AAe?$AAe?$AAk?$AA?5?$AAv?$AAa@ DD FLAT:??_C@_1GA@EIHBFEJD@?$AA?$CC?$AAc?$AAa?$AAn?$AAn?$AAo?$AAt?$AA?5?$AAs?$AAe?$AAe?$AAk?$AA?5?$AAv?$AAa@
	DD	060H
	DD	080H
	DD	FLAT:_L___asan_gen_.88
	DD	FLAT:_L___asan_gen_.36
	DD	00H
	DD	FLAT:_L___asan_gen_.89
	DD	00H
ASAN$GL	ENDS
;	COMDAT CONST
CONST	SEGMENT
_L___asan_gen_.89 DD FLAT:_L___asan_gen_.36
	DD	06eH
	DD	08H
CONST	ENDS
;	COMDAT CONST
CONST	SEGMENT
_L___asan_gen_.88 DB '<C++ string literal>', 00H
CONST	ENDS
;	COMDAT ASAN$GL
ASAN$GL	SEGMENT
_L___asan_global_??_C@_1OA@FDIBPEPP@?$AAs?$AAt?$AAd?$AA?3?$AA?3?$AA_?$AAV?$AAe?$AAc?$AAt?$AAo?$AAr?$AA_?$AAc?$AAo@ DD FLAT:??_C@_1OA@FDIBPEPP@?$AAs?$AAt?$AAd?$AA?3?$AA?3?$AA_?$AAV?$AAe?$AAc?$AAt?$AAo?$AAr?$AA_?$AAc?$AAo@
	DD	0e0H
	DD	0100H
	DD	FLAT:_L___asan_gen_.86
	DD	FLAT:_L___asan_gen_.36
	DD	00H
	DD	FLAT:_L___asan_gen_.87
	DD	00H
ASAN$GL	ENDS
;	COMDAT CONST
CONST	SEGMENT
_L___asan_gen_.87 DD FLAT:_L___asan_gen_.36
	DD	06eH
	DD	08H
CONST	ENDS
;	COMDAT CONST
CONST	SEGMENT
_L___asan_gen_.86 DB '<C++ string literal>', 00H
CONST	ENDS
;	COMDAT ASAN$GL
ASAN$GL	SEGMENT
_L___asan_global_??_C@_0CO@LHPFLLJB@cannot?5seek?5value?9initialized?5v@ DD FLAT:??_C@_0CO@LHPFLLJB@cannot?5seek?5value?9initialized?5v@
	DD	02eH
	DD	060H
	DD	FLAT:_L___asan_gen_.84
	DD	FLAT:_L___asan_gen_.36
	DD	00H
	DD	FLAT:_L___asan_gen_.85
	DD	00H
ASAN$GL	ENDS
;	COMDAT CONST
CONST	SEGMENT
_L___asan_gen_.85 DD FLAT:_L___asan_gen_.36
	DD	06eH
	DD	08H
CONST	ENDS
;	COMDAT CONST
CONST	SEGMENT
_L___asan_gen_.84 DB '<C++ string literal>', 00H
CONST	ENDS
;	COMDAT ASAN$GL
ASAN$GL	SEGMENT
_L___asan_global_??_C@_1IK@JDPLIGFN@?$AAs?$AAt?$AAd?$AA?3?$AA?3?$AAv?$AAe?$AAc?$AAt?$AAo?$AAr?$AA?$DM?$AAu?$AAn?$AAs@ DD FLAT:??_C@_1IK@JDPLIGFN@?$AAs?$AAt?$AAd?$AA?3?$AA?3?$AAv?$AAe?$AAc?$AAt?$AAo?$AAr?$AA?$DM?$AAu?$AAn?$AAs@
	DD	08aH
	DD	0c0H
	DD	FLAT:_L___asan_gen_.82
	DD	FLAT:_L___asan_gen_.36
	DD	00H
	DD	FLAT:_L___asan_gen_.83
	DD	00H
ASAN$GL	ENDS
;	COMDAT CONST
CONST	SEGMENT
_L___asan_gen_.83 DD FLAT:_L___asan_gen_.36
	DD	059bH
	DD	00H
CONST	ENDS
;	COMDAT CONST
CONST	SEGMENT
_L___asan_gen_.82 DB '<C++ string literal>', 00H
CONST	ENDS
;	COMDAT ASAN$GL
ASAN$GL	SEGMENT
_L___asan_global_??_C@_1EA@LEKOKFNB@?$AA?$CC?$AAv?$AAe?$AAc?$AAt?$AAo?$AAr?$AA?5?$AAs?$AAu?$AAb?$AAs?$AAc?$AAr?$AAi@ DD FLAT:??_C@_1EA@LEKOKFNB@?$AA?$CC?$AAv?$AAe?$AAc?$AAt?$AAo?$AAr?$AA?5?$AAs?$AAu?$AAb?$AAs?$AAc?$AAr?$AAi@
	DD	040H
	DD	060H
	DD	FLAT:_L___asan_gen_.80
	DD	FLAT:_L___asan_gen_.36
	DD	00H
	DD	FLAT:_L___asan_gen_.81
	DD	00H
ASAN$GL	ENDS
;	COMDAT CONST
CONST	SEGMENT
_L___asan_gen_.81 DD FLAT:_L___asan_gen_.36
	DD	061dH
	DD	00H
CONST	ENDS
;	COMDAT CONST
CONST	SEGMENT
_L___asan_gen_.80 DB '<C++ string literal>', 00H
CONST	ENDS
;	COMDAT ASAN$GL
ASAN$GL	SEGMENT
_L___asan_global_??_C@_1JG@ILDNFCDK@?$AAs?$AAt?$AAd?$AA?3?$AA?3?$AAv?$AAe?$AAc?$AAt?$AAo?$AAr?$AA?$DM?$AAu?$AAn?$AAs@ DD FLAT:??_C@_1JG@ILDNFCDK@?$AAs?$AAt?$AAd?$AA?3?$AA?3?$AAv?$AAe?$AAc?$AAt?$AAo?$AAr?$AA?$DM?$AAu?$AAn?$AAs@
	DD	096H
	DD	0c0H
	DD	FLAT:_L___asan_gen_.78
	DD	FLAT:_L___asan_gen_.36
	DD	00H
	DD	FLAT:_L___asan_gen_.79
	DD	00H
ASAN$GL	ENDS
;	COMDAT CONST
CONST	SEGMENT
_L___asan_gen_.79 DD FLAT:_L___asan_gen_.36
	DD	061eH
	DD	00H
CONST	ENDS
;	COMDAT CONST
CONST	SEGMENT
_L___asan_gen_.78 DB '<C++ string literal>', 00H
CONST	ENDS
;	COMDAT ASAN$GL
ASAN$GL	SEGMENT
_L___asan_global_??_C@_0BO@PFKOHNJC@vector?5subscript?5out?5of?5range@ DD FLAT:??_C@_0BO@PFKOHNJC@vector?5subscript?5out?5of?5range@
	DD	01eH
	DD	040H
	DD	FLAT:_L___asan_gen_.76
	DD	FLAT:_L___asan_gen_.36
	DD	00H
	DD	FLAT:_L___asan_gen_.77
	DD	00H
ASAN$GL	ENDS
;	COMDAT CONST
CONST	SEGMENT
_L___asan_gen_.77 DD FLAT:_L___asan_gen_.36
	DD	061dH
	DD	00H
CONST	ENDS
;	COMDAT CONST
CONST	SEGMENT
_L___asan_gen_.76 DB '<C++ string literal>', 00H
CONST	ENDS
;	COMDAT ASAN$GL
ASAN$GL	SEGMENT
_L___asan_global_??_C@_0BG@EOMJEIFA@vector?$DMbool?$DO?5too?5long@ DD FLAT:??_C@_0BG@EOMJEIFA@vector?$DMbool?$DO?5too?5long@
	DD	016H
	DD	040H
	DD	FLAT:_L___asan_gen_.74
	DD	FLAT:_L___asan_gen_.36
	DD	00H
	DD	FLAT:_L___asan_gen_.75
	DD	00H
ASAN$GL	ENDS
;	COMDAT CONST
CONST	SEGMENT
_L___asan_gen_.75 DD FLAT:_L___asan_gen_.36
	DD	0c15H
	DD	017H
CONST	ENDS
;	COMDAT CONST
CONST	SEGMENT
_L___asan_gen_.74 DB '<C++ string literal>', 00H
CONST	ENDS
;	COMDAT ASAN$GL
ASAN$GL	SEGMENT
_L___asan_global_??_C@_1LK@OCBBIODL@?$AAs?$AAt?$AAd?$AA?3?$AA?3?$AA_?$AAV?$AAb?$AA_?$AAi?$AAt?$AAe?$AAr?$AAa?$AAt@ DD FLAT:??_C@_1LK@OCBBIODL@?$AAs?$AAt?$AAd?$AA?3?$AA?3?$AA_?$AAV?$AAb?$AA_?$AAi?$AAt?$AAe?$AAr?$AAa?$AAt@
	DD	0baH
	DD	0e0H
	DD	FLAT:_L___asan_gen_.72
	DD	FLAT:_L___asan_gen_.36
	DD	00H
	DD	FLAT:_L___asan_gen_.73
	DD	00H
ASAN$GL	ENDS
;	COMDAT CONST
CONST	SEGMENT
_L___asan_gen_.73 DD FLAT:_L___asan_gen_.36
	DD	091cH
	DD	08H
CONST	ENDS
;	COMDAT CONST
CONST	SEGMENT
_L___asan_gen_.72 DB '<C++ string literal>', 00H
CONST	ENDS
;	COMDAT ASAN$GL
ASAN$GL	SEGMENT
_L___asan_global_??_C@_1EM@HCHFCCIP@?$AA?$CC?$AAv?$AAe?$AAc?$AAt?$AAo?$AAr?$AA?$DM?$AAb?$AAo?$AAo?$AAl?$AA?$DO?$AA?5?$AAs@ DD FLAT:??_C@_1EM@HCHFCCIP@?$AA?$CC?$AAv?$AAe?$AAc?$AAt?$AAo?$AAr?$AA?$DM?$AAb?$AAo?$AAo?$AAl?$AA?$DO?$AA?5?$AAs@
	DD	04cH
	DD	080H
	DD	FLAT:_L___asan_gen_.70
	DD	FLAT:_L___asan_gen_.36
	DD	00H
	DD	FLAT:_L___asan_gen_.71
	DD	00H
ASAN$GL	ENDS
;	COMDAT CONST
CONST	SEGMENT
_L___asan_gen_.71 DD FLAT:_L___asan_gen_.36
	DD	0b14H
	DD	08H
CONST	ENDS
;	COMDAT CONST
CONST	SEGMENT
_L___asan_gen_.70 DB '<C++ string literal>', 00H
CONST	ENDS
;	COMDAT ASAN$GL
ASAN$GL	SEGMENT
_L___asan_global_??_C@_1HG@KMENFMCO@?$AAs?$AAt?$AAd?$AA?3?$AA?3?$AAv?$AAe?$AAc?$AAt?$AAo?$AAr?$AA?$DM?$AAb?$AAo?$AAo@ DD FLAT:??_C@_1HG@KMENFMCO@?$AAs?$AAt?$AAd?$AA?3?$AA?3?$AAv?$AAe?$AAc?$AAt?$AAo?$AAr?$AA?$DM?$AAb?$AAo?$AAo@
	DD	076H
	DD	0a0H
	DD	FLAT:_L___asan_gen_.68
	DD	FLAT:_L___asan_gen_.36
	DD	00H
	DD	FLAT:_L___asan_gen_.69
	DD	00H
ASAN$GL	ENDS
;	COMDAT CONST
CONST	SEGMENT
_L___asan_gen_.69 DD FLAT:_L___asan_gen_.36
	DD	0b14H
	DD	08H
CONST	ENDS
;	COMDAT CONST
CONST	SEGMENT
_L___asan_gen_.68 DB '<C++ string literal>', 00H
CONST	ENDS
;	COMDAT ASAN$GL
ASAN$GL	SEGMENT
_L___asan_global_??_C@_0CE@FFEOOBMH@vector?$DMbool?$DO?5subscript?5out?5of?5r@ DD FLAT:??_C@_0CE@FFEOOBMH@vector?$DMbool?$DO?5subscript?5out?5of?5r@
	DD	024H
	DD	060H
	DD	FLAT:_L___asan_gen_.66
	DD	FLAT:_L___asan_gen_.36
	DD	00H
	DD	FLAT:_L___asan_gen_.67
	DD	00H
ASAN$GL	ENDS
;	COMDAT CONST
CONST	SEGMENT
_L___asan_gen_.67 DD FLAT:_L___asan_gen_.36
	DD	0b14H
	DD	08H
CONST	ENDS
;	COMDAT CONST
CONST	SEGMENT
_L___asan_gen_.66 DB '<C++ string literal>', 00H
CONST	ENDS
;	COMDAT ASAN$GL
ASAN$GL	SEGMENT
_L___asan_global_??_C@_0BP@BKHLLOGL@invalid?5vector?$DMbool?$DO?5subscript@ DD FLAT:??_C@_0BP@BKHLLOGL@invalid?5vector?$DMbool?$DO?5subscript@
	DD	01fH
	DD	040H
	DD	FLAT:_L___asan_gen_.64
	DD	FLAT:_L___asan_gen_.36
	DD	00H
	DD	FLAT:_L___asan_gen_.65
	DD	00H
ASAN$GL	ENDS
;	COMDAT CONST
CONST	SEGMENT
_L___asan_gen_.65 DD FLAT:_L___asan_gen_.36
	DD	0c19H
	DD	017H
CONST	ENDS
;	COMDAT CONST
CONST	SEGMENT
_L___asan_gen_.64 DB '<C++ string literal>', 00H
CONST	ENDS
;	COMDAT ASAN$GL
ASAN$GL	SEGMENT
_L___asan_global_??_C@_1FI@IBAHAGLP@?$AA?$CC?$AAv?$AAe?$AAc?$AAt?$AAo?$AAr?$AA?$DM?$AAb?$AAo?$AAo?$AAl?$AA?$DO?$AA?5?$AAi@ DD FLAT:??_C@_1FI@IBAHAGLP@?$AA?$CC?$AAv?$AAe?$AAc?$AAt?$AAo?$AAr?$AA?$DM?$AAb?$AAo?$AAo?$AAl?$AA?$DO?$AA?5?$AAi@
	DD	058H
	DD	080H
	DD	FLAT:_L___asan_gen_.62
	DD	FLAT:_L___asan_gen_.36
	DD	00H
	DD	FLAT:_L___asan_gen_.63
	DD	00H
ASAN$GL	ENDS
;	COMDAT CONST
CONST	SEGMENT
_L___asan_gen_.63 DD FLAT:_L___asan_gen_.36
	DD	0824H
	DD	00H
CONST	ENDS
;	COMDAT CONST
CONST	SEGMENT
_L___asan_gen_.62 DB '<C++ string literal>', 00H
CONST	ENDS
;	COMDAT ASAN$GL
ASAN$GL	SEGMENT
_L___asan_global_??_C@_0CK@FLJLFEAD@vector?$DMbool?$DO?5iterator?5not?5deref@ DD FLAT:??_C@_0CK@FLJLFEAD@vector?$DMbool?$DO?5iterator?5not?5deref@
	DD	02aH
	DD	060H
	DD	FLAT:_L___asan_gen_.60
	DD	FLAT:_L___asan_gen_.36
	DD	00H
	DD	FLAT:_L___asan_gen_.61
	DD	00H
ASAN$GL	ENDS
;	COMDAT CONST
CONST	SEGMENT
_L___asan_gen_.61 DD FLAT:_L___asan_gen_.36
	DD	0824H
	DD	00H
CONST	ENDS
;	COMDAT CONST
CONST	SEGMENT
_L___asan_gen_.60 DB '<C++ string literal>', 00H
CONST	ENDS
;	COMDAT ASAN$GL
ASAN$GL	SEGMENT
_L___asan_global_??_C@_1HK@NLJEKNBE@?$AA?$CC?$AAc?$AAa?$AAn?$AAn?$AAo?$AAt?$AA?5?$AAd?$AAe?$AAr?$AAe?$AAf?$AAe?$AAr@ DD FLAT:??_C@_1HK@NLJEKNBE@?$AA?$CC?$AAc?$AAa?$AAn?$AAn?$AAo?$AAt?$AA?5?$AAd?$AAe?$AAr?$AAe?$AAf?$AAe?$AAr@
	DD	07aH
	DD	0a0H
	DD	FLAT:_L___asan_gen_.58
	DD	FLAT:_L___asan_gen_.36
	DD	00H
	DD	FLAT:_L___asan_gen_.59
	DD	00H
ASAN$GL	ENDS
;	COMDAT CONST
CONST	SEGMENT
_L___asan_gen_.59 DD FLAT:_L___asan_gen_.36
	DD	0823H
	DD	08H
CONST	ENDS
;	COMDAT CONST
CONST	SEGMENT
_L___asan_gen_.58 DB '<C++ string literal>', 00H
CONST	ENDS
;	COMDAT ASAN$GL
ASAN$GL	SEGMENT
_L___asan_global_??_C@_1LG@CHICOEJ@?$AAs?$AAt?$AAd?$AA?3?$AA?3?$AA_?$AAV?$AAb?$AA_?$AAr?$AAe?$AAf?$AAe?$AAr?$AAe@ DD FLAT:??_C@_1LG@CHICOEJ@?$AAs?$AAt?$AAd?$AA?3?$AA?3?$AA_?$AAV?$AAb?$AA_?$AAr?$AAe?$AAf?$AAe?$AAr?$AAe@
	DD	0b6H
	DD	0e0H
	DD	FLAT:_L___asan_gen_.56
	DD	FLAT:_L___asan_gen_.36
	DD	00H
	DD	FLAT:_L___asan_gen_.57
	DD	00H
ASAN$GL	ENDS
;	COMDAT CONST
CONST	SEGMENT
_L___asan_gen_.57 DD FLAT:_L___asan_gen_.36
	DD	0823H
	DD	08H
CONST	ENDS
;	COMDAT CONST
CONST	SEGMENT
_L___asan_gen_.56 DB '<C++ string literal>', 00H
CONST	ENDS
;	COMDAT ASAN$GL
ASAN$GL	SEGMENT
_L___asan_global_??_C@_0DL@EIIPGNKA@cannot?5dereference?5value?9initia@ DD FLAT:??_C@_0DL@EIIPGNKA@cannot?5dereference?5value?9initia@
	DD	03bH
	DD	060H
	DD	FLAT:_L___asan_gen_.54
	DD	FLAT:_L___asan_gen_.36
	DD	00H
	DD	FLAT:_L___asan_gen_.55
	DD	00H
ASAN$GL	ENDS
;	COMDAT CONST
CONST	SEGMENT
_L___asan_gen_.55 DD FLAT:_L___asan_gen_.36
	DD	0823H
	DD	08H
CONST	ENDS
;	COMDAT CONST
CONST	SEGMENT
_L___asan_gen_.54 DB '<C++ string literal>', 00H
CONST	ENDS
;	COMDAT ASAN$GL
ASAN$GL	SEGMENT
_L___asan_global_??_C@_0BJ@DHFDPMIM@invalid?5vector?5subscript@ DD FLAT:??_C@_0BJ@DHFDPMIM@invalid?5vector?5subscript@
	DD	019H
	DD	040H
	DD	FLAT:_L___asan_gen_.52
	DD	FLAT:_L___asan_gen_.36
	DD	00H
	DD	FLAT:_L___asan_gen_.53
	DD	00H
ASAN$GL	ENDS
;	COMDAT CONST
CONST	SEGMENT
_L___asan_gen_.53 DD FLAT:_L___asan_gen_.36
	DD	06f2H
	DD	017H
CONST	ENDS
;	COMDAT CONST
CONST	SEGMENT
_L___asan_gen_.52 DB '<C++ string literal>', 00H
CONST	ENDS
;	COMDAT ASAN$GL
ASAN$GL	SEGMENT
_L___asan_global_??_C@_0N@LPFKKEBD@?3AM?3am?3PM?3pm@ DD FLAT:??_C@_0N@LPFKKEBD@?3AM?3am?3PM?3pm@
	DD	0dH
	DD	040H
	DD	FLAT:_L___asan_gen_.50
	DD	FLAT:_L___asan_gen_.49
	DD	00H
	DD	FLAT:_L___asan_gen_.51
	DD	00H
ASAN$GL	ENDS
;	COMDAT CONST
CONST	SEGMENT
_L___asan_gen_.51 DD FLAT:_L___asan_gen_.49
	DD	01b7H
	DD	030H
CONST	ENDS
;	COMDAT CONST
CONST	SEGMENT
_L___asan_gen_.50 DB '<C++ string literal>', 00H
CONST	ENDS
;	COMDAT CONST
CONST	SEGMENT
_L___asan_gen_.49 DB 'xloctime', 00H
CONST	ENDS
;	COMDAT ASAN$GL
ASAN$GL	SEGMENT
_L___asan_global_??_C@_0BA@FOIKENOD@vector?5too?5long@ DD FLAT:??_C@_0BA@FOIKENOD@vector?5too?5long@
	DD	010H
	DD	040H
	DD	FLAT:_L___asan_gen_.47
	DD	FLAT:_L___asan_gen_.36
	DD	00H
	DD	FLAT:_L___asan_gen_.48
	DD	00H
ASAN$GL	ENDS
;	COMDAT CONST
CONST	SEGMENT
_L___asan_gen_.48 DD FLAT:_L___asan_gen_.36
	DD	06eeH
	DD	017H
CONST	ENDS
;	COMDAT CONST
CONST	SEGMENT
_L___asan_gen_.47 DB '<C++ string literal>', 00H
CONST	ENDS
;	COMDAT ASAN$GL
ASAN$GL	SEGMENT
_L___asan_global_??_C@_1EM@BEMPOGMM@?$AA?$CC?$AAv?$AAe?$AAc?$AAt?$AAo?$AAr?$AA?5?$AAe?$AAr?$AAa?$AAs?$AAe?$AA?5?$AAi@ DD FLAT:??_C@_1EM@BEMPOGMM@?$AA?$CC?$AAv?$AAe?$AAc?$AAt?$AAo?$AAr?$AA?5?$AAe?$AAr?$AAa?$AAs?$AAe?$AA?5?$AAi@
	DD	04cH
	DD	080H
	DD	FLAT:_L___asan_gen_.45
	DD	FLAT:_L___asan_gen_.36
	DD	00H
	DD	FLAT:_L___asan_gen_.46
	DD	00H
ASAN$GL	ENDS
;	COMDAT CONST
CONST	SEGMENT
_L___asan_gen_.46 DD FLAT:_L___asan_gen_.36
	DD	0585H
	DD	00H
CONST	ENDS
;	COMDAT CONST
CONST	SEGMENT
_L___asan_gen_.45 DB '<C++ string literal>', 00H
CONST	ENDS
;	COMDAT ASAN$GL
ASAN$GL	SEGMENT
_L___asan_global_??_C@_1IO@JBEJNAIO@?$AAs?$AAt?$AAd?$AA?3?$AA?3?$AAv?$AAe?$AAc?$AAt?$AAo?$AAr?$AA?$DM?$AAc?$AAl?$AAa@ DD FLAT:??_C@_1IO@JBEJNAIO@?$AAs?$AAt?$AAd?$AA?3?$AA?3?$AAv?$AAe?$AAc?$AAt?$AAo?$AAr?$AA?$DM?$AAc?$AAl?$AAa@
	DD	08eH
	DD	0c0H
	DD	FLAT:_L___asan_gen_.43
	DD	FLAT:_L___asan_gen_.36
	DD	00H
	DD	FLAT:_L___asan_gen_.44
	DD	00H
ASAN$GL	ENDS
;	COMDAT CONST
CONST	SEGMENT
_L___asan_gen_.44 DD FLAT:_L___asan_gen_.36
	DD	0587H
	DD	00H
CONST	ENDS
;	COMDAT CONST
CONST	SEGMENT
_L___asan_gen_.43 DB '<C++ string literal>', 00H
CONST	ENDS
;	COMDAT ASAN$GL
ASAN$GL	SEGMENT
_L___asan_global_??_C@_1MO@NOHEJINP@?$AAC?$AA?3?$AA?2?$AAP?$AAr?$AAo?$AAg?$AAr?$AAa?$AAm?$AA?5?$AAF?$AAi?$AAl?$AAe@ DD FLAT:??_C@_1MO@NOHEJINP@?$AAC?$AA?3?$AA?2?$AAP?$AAr?$AAo?$AAg?$AAr?$AAa?$AAm?$AA?5?$AAF?$AAi?$AAl?$AAe@
	DD	0ceH
	DD	0100H
	DD	FLAT:_L___asan_gen_.41
	DD	FLAT:_L___asan_gen_.36
	DD	00H
	DD	FLAT:_L___asan_gen_.42
	DD	00H
ASAN$GL	ENDS
;	COMDAT CONST
CONST	SEGMENT
_L___asan_gen_.42 DD FLAT:_L___asan_gen_.36
	DD	0585H
	DD	00H
CONST	ENDS
;	COMDAT CONST
CONST	SEGMENT
_L___asan_gen_.41 DB '<C++ string literal>', 00H
CONST	ENDS
;	COMDAT ASAN$GL
ASAN$GL	SEGMENT
_L___asan_global_??_C@_0GH@KMHDIFOI@C?3?2Program?5Files?5?$CIx86?$CJ?2Microsof@ DD FLAT:??_C@_0GH@KMHDIFOI@C?3?2Program?5Files?5?$CIx86?$CJ?2Microsof@
	DD	067H
	DD	0a0H
	DD	FLAT:_L___asan_gen_.39
	DD	FLAT:_L___asan_gen_.36
	DD	00H
	DD	FLAT:_L___asan_gen_.40
	DD	00H
ASAN$GL	ENDS
;	COMDAT CONST
CONST	SEGMENT
_L___asan_gen_.40 DD FLAT:_L___asan_gen_.36
	DD	0585H
	DD	00H
CONST	ENDS
;	COMDAT CONST
CONST	SEGMENT
_L___asan_gen_.39 DB '<C++ string literal>', 00H
CONST	ENDS
;	COMDAT ASAN$GL
ASAN$GL	SEGMENT
_L___asan_global_??_C@_0CE@EAMOGAIE@vector?5erase?5iterator?5outside?5r@ DD FLAT:??_C@_0CE@EAMOGAIE@vector?5erase?5iterator?5outside?5r@
	DD	024H
	DD	060H
	DD	FLAT:_L___asan_gen_.37
	DD	FLAT:_L___asan_gen_.36
	DD	00H
	DD	FLAT:_L___asan_gen_.38
	DD	00H
ASAN$GL	ENDS
;	COMDAT CONST
CONST	SEGMENT
_L___asan_gen_.38 DD FLAT:_L___asan_gen_.36
	DD	0585H
	DD	00H
CONST	ENDS
;	COMDAT CONST
CONST	SEGMENT
_L___asan_gen_.37 DB '<C++ string literal>', 00H
CONST	ENDS
;	COMDAT CONST
CONST	SEGMENT
_L___asan_gen_.36 DB 'vector', 00H
CONST	ENDS
;	COMDAT ASAN$GL
ASAN$GL	SEGMENT
_L___asan_global_??_C@_0GI@OGMNKBMN@C?3?2Program?5Files?5?$CIx86?$CJ?2Microsof@ DD FLAT:??_C@_0GI@OGMNKBMN@C?3?2Program?5Files?5?$CIx86?$CJ?2Microsof@
	DD	068H
	DD	0a0H
	DD	FLAT:_L___asan_gen_.34
	DD	FLAT:_L___asan_gen_.33
	DD	00H
	DD	FLAT:_L___asan_gen_.35
	DD	00H
ASAN$GL	ENDS
;	COMDAT CONST
CONST	SEGMENT
_L___asan_gen_.35 DD FLAT:_L___asan_gen_.33
	DD	05dH
	DD	05fH
CONST	ENDS
;	COMDAT CONST
CONST	SEGMENT
_L___asan_gen_.34 DB '<C++ string literal>', 00H
CONST	ENDS
;	COMDAT CONST
CONST	SEGMENT
_L___asan_gen_.33 DB 'xlocnum', 00H
CONST	ENDS
;	COMDAT ASAN$GL
ASAN$GL	SEGMENT
_L___asan_global_??_C@_0GI@GFIAKDGM@C?3?2Program?5Files?5?$CIx86?$CJ?2Microsof@ DD FLAT:??_C@_0GI@GFIAKDGM@C?3?2Program?5Files?5?$CIx86?$CJ?2Microsof@
	DD	068H
	DD	0a0H
	DD	FLAT:_L___asan_gen_.31
	DD	FLAT:_L___asan_gen_.30
	DD	00H
	DD	FLAT:_L___asan_gen_.32
	DD	00H
ASAN$GL	ENDS
;	COMDAT CONST
CONST	SEGMENT
_L___asan_gen_.32 DD FLAT:_L___asan_gen_.30
	DD	049H
	DD	03eH
CONST	ENDS
;	COMDAT CONST
CONST	SEGMENT
_L___asan_gen_.31 DB '<C++ string literal>', 00H
CONST	ENDS
;	COMDAT CONST
CONST	SEGMENT
_L___asan_gen_.30 DB 'xlocale', 00H
CONST	ENDS
;	COMDAT ASAN$GL
ASAN$GL	SEGMENT
_L___asan_global_??_C@_0BA@JFNIOLAK@string?5too?5long@ DD FLAT:??_C@_0BA@JFNIOLAK@string?5too?5long@
	DD	010H
	DD	040H
	DD	FLAT:_L___asan_gen_.28
	DD	FLAT:_L___asan_gen_.27
	DD	00H
	DD	FLAT:_L___asan_gen_.29
	DD	00H
ASAN$GL	ENDS
;	COMDAT CONST
CONST	SEGMENT
_L___asan_gen_.29 DD FLAT:_L___asan_gen_.27
	DD	0946H
	DD	013H
CONST	ENDS
;	COMDAT CONST
CONST	SEGMENT
_L___asan_gen_.28 DB '<C++ string literal>', 00H
CONST	ENDS
;	COMDAT CONST
CONST	SEGMENT
_L___asan_gen_.27 DB 'xstring', 00H
CONST	ENDS
;	COMDAT ASAN$GL
ASAN$GL	SEGMENT
_L___asan_global_??_C@_1DG@PLBPCAEM@?$AA?$CC?$AAI?$AAT?$AAE?$AAR?$AAA?$AAT?$AAO?$AAR?$AA?5?$AAL?$AAI?$AAS?$AAT?$AA?5@ DD FLAT:??_C@_1DG@PLBPCAEM@?$AA?$CC?$AAI?$AAT?$AAE?$AAR?$AAA?$AAT?$AAO?$AAR?$AA?5?$AAL?$AAI?$AAS?$AAT?$AA?5@
	DD	036H
	DD	060H
	DD	FLAT:_L___asan_gen_.25
	DD	FLAT:_L___asan_gen_.8
	DD	00H
	DD	FLAT:_L___asan_gen_.26
	DD	00H
ASAN$GL	ENDS
;	COMDAT CONST
CONST	SEGMENT
_L___asan_gen_.26 DD FLAT:_L___asan_gen_.8
	DD	04c8H
	DD	08H
CONST	ENDS
;	COMDAT CONST
CONST	SEGMENT
_L___asan_gen_.25 DB '<C++ string literal>', 00H
CONST	ENDS
;	COMDAT ASAN$GL
ASAN$GL	SEGMENT
_L___asan_global_??_C@_1FM@FOFDAEGI@?$AAs?$AAt?$AAd?$AA?3?$AA?3?$AA_?$AAI?$AAt?$AAe?$AAr?$AAa?$AAt?$AAo?$AAr?$AA_@ DD FLAT:??_C@_1FM@FOFDAEGI@?$AAs?$AAt?$AAd?$AA?3?$AA?3?$AA_?$AAI?$AAt?$AAe?$AAr?$AAa?$AAt?$AAo?$AAr?$AA_@
	DD	05cH
	DD	080H
	DD	FLAT:_L___asan_gen_.23
	DD	FLAT:_L___asan_gen_.8
	DD	00H
	DD	FLAT:_L___asan_gen_.24
	DD	00H
ASAN$GL	ENDS
;	COMDAT CONST
CONST	SEGMENT
_L___asan_gen_.24 DD FLAT:_L___asan_gen_.8
	DD	04c8H
	DD	08H
CONST	ENDS
;	COMDAT CONST
CONST	SEGMENT
_L___asan_gen_.23 DB '<C++ string literal>', 00H
CONST	ENDS
;	COMDAT ASAN$GL
ASAN$GL	SEGMENT
_L___asan_global_??_C@_0BJ@LFDBABJJ@ITERATOR?5LIST?5CORRUPTED?$CB@ DD FLAT:??_C@_0BJ@LFDBABJJ@ITERATOR?5LIST?5CORRUPTED?$CB@
	DD	019H
	DD	040H
	DD	FLAT:_L___asan_gen_.21
	DD	FLAT:_L___asan_gen_.8
	DD	00H
	DD	FLAT:_L___asan_gen_.22
	DD	00H
ASAN$GL	ENDS
;	COMDAT CONST
CONST	SEGMENT
_L___asan_gen_.22 DD FLAT:_L___asan_gen_.8
	DD	04c8H
	DD	08H
CONST	ENDS
;	COMDAT CONST
CONST	SEGMENT
_L___asan_gen_.21 DB '<C++ string literal>', 00H
CONST	ENDS
;	COMDAT ASAN$GL
ASAN$GL	SEGMENT
_L___asan_global_??_C@_1CG@JNLFBNGN@?$AA?$CC?$AAi?$AAn?$AAv?$AAa?$AAl?$AAi?$AAd?$AA?5?$AAa?$AAr?$AAg?$AAu?$AAm?$AAe@ DD FLAT:??_C@_1CG@JNLFBNGN@?$AA?$CC?$AAi?$AAn?$AAv?$AAa?$AAl?$AAi?$AAd?$AA?5?$AAa?$AAr?$AAg?$AAu?$AAm?$AAe@
	DD	026H
	DD	060H
	DD	FLAT:_L___asan_gen_.19
	DD	FLAT:_L___asan_gen_.8
	DD	00H
	DD	FLAT:_L___asan_gen_.20
	DD	00H
ASAN$GL	ENDS
;	COMDAT CONST
CONST	SEGMENT
_L___asan_gen_.20 DD FLAT:_L___asan_gen_.8
	DD	0a2H
	DD	04H
CONST	ENDS
;	COMDAT CONST
CONST	SEGMENT
_L___asan_gen_.19 DB '<C++ string literal>', 00H
CONST	ENDS
;	COMDAT ASAN$GL
ASAN$GL	SEGMENT
_L___asan_global_??_C@_1EK@NIFDJFDG@?$AAs?$AAt?$AAd?$AA?3?$AA?3?$AA_?$AAA?$AAd?$AAj?$AAu?$AAs?$AAt?$AA_?$AAm?$AAa@ DD FLAT:??_C@_1EK@NIFDJFDG@?$AAs?$AAt?$AAd?$AA?3?$AA?3?$AA_?$AAA?$AAd?$AAj?$AAu?$AAs?$AAt?$AA_?$AAm?$AAa@
	DD	04aH
	DD	080H
	DD	FLAT:_L___asan_gen_.17
	DD	FLAT:_L___asan_gen_.8
	DD	00H
	DD	FLAT:_L___asan_gen_.18
	DD	00H
ASAN$GL	ENDS
;	COMDAT CONST
CONST	SEGMENT
_L___asan_gen_.18 DD FLAT:_L___asan_gen_.8
	DD	0a2H
	DD	04H
CONST	ENDS
;	COMDAT CONST
CONST	SEGMENT
_L___asan_gen_.17 DB '<C++ string literal>', 00H
CONST	ENDS
;	COMDAT ASAN$GL
ASAN$GL	SEGMENT
_L___asan_global_??_C@_1NA@MJBOBEJL@?$AAC?$AA?3?$AA?2?$AAP?$AAr?$AAo?$AAg?$AAr?$AAa?$AAm?$AA?5?$AAF?$AAi?$AAl?$AAe@ DD FLAT:??_C@_1NA@MJBOBEJL@?$AAC?$AA?3?$AA?2?$AAP?$AAr?$AAo?$AAg?$AAr?$AAa?$AAm?$AA?5?$AAF?$AAi?$AAl?$AAe@
	DD	0d0H
	DD	0100H
	DD	FLAT:_L___asan_gen_.15
	DD	FLAT:_L___asan_gen_.8
	DD	00H
	DD	FLAT:_L___asan_gen_.16
	DD	00H
ASAN$GL	ENDS
;	COMDAT CONST
CONST	SEGMENT
_L___asan_gen_.16 DD FLAT:_L___asan_gen_.8
	DD	0a2H
	DD	04H
CONST	ENDS
;	COMDAT CONST
CONST	SEGMENT
_L___asan_gen_.15 DB '<C++ string literal>', 00H
CONST	ENDS
;	COMDAT ASAN$GL
ASAN$GL	SEGMENT
_L___asan_global_??_C@_0GI@MNEMJBML@C?3?2Program?5Files?5?$CIx86?$CJ?2Microsof@ DD FLAT:??_C@_0GI@MNEMJBML@C?3?2Program?5Files?5?$CIx86?$CJ?2Microsof@
	DD	068H
	DD	0a0H
	DD	FLAT:_L___asan_gen_.13
	DD	FLAT:_L___asan_gen_.8
	DD	00H
	DD	FLAT:_L___asan_gen_.14
	DD	00H
ASAN$GL	ENDS
;	COMDAT CONST
CONST	SEGMENT
_L___asan_gen_.14 DD FLAT:_L___asan_gen_.8
	DD	0a2H
	DD	04H
CONST	ENDS
;	COMDAT CONST
CONST	SEGMENT
_L___asan_gen_.13 DB '<C++ string literal>', 00H
CONST	ENDS
;	COMDAT ASAN$GL
ASAN$GL	SEGMENT
_L___asan_global_??_C@_02DKCKIIND@?$CFs@ DD FLAT:??_C@_02DKCKIIND@?$CFs@
	DD	03H
	DD	040H
	DD	FLAT:_L___asan_gen_.11
	DD	FLAT:_L___asan_gen_.8
	DD	00H
	DD	FLAT:_L___asan_gen_.12
	DD	00H
ASAN$GL	ENDS
;	COMDAT CONST
CONST	SEGMENT
_L___asan_gen_.12 DD FLAT:_L___asan_gen_.8
	DD	0a2H
	DD	04H
CONST	ENDS
;	COMDAT CONST
CONST	SEGMENT
_L___asan_gen_.11 DB '<C++ string literal>', 00H
CONST	ENDS
;	COMDAT ASAN$GL
ASAN$GL	SEGMENT
_L___asan_global_??_C@_0BB@FCMFBGOM@invalid?5argument@ DD FLAT:??_C@_0BB@FCMFBGOM@invalid?5argument@
	DD	011H
	DD	040H
	DD	FLAT:_L___asan_gen_.9
	DD	FLAT:_L___asan_gen_.8
	DD	00H
	DD	FLAT:_L___asan_gen_.10
	DD	00H
ASAN$GL	ENDS
;	COMDAT CONST
CONST	SEGMENT
_L___asan_gen_.10 DD FLAT:_L___asan_gen_.8
	DD	0a2H
	DD	04H
CONST	ENDS
;	COMDAT CONST
CONST	SEGMENT
_L___asan_gen_.9 DB '<C++ string literal>', 00H
CONST	ENDS
;	COMDAT CONST
CONST	SEGMENT
_L___asan_gen_.8 DB 'xmemory', 00H
CONST	ENDS
;	COMDAT ASAN$GL
ASAN$GL	SEGMENT
_L___asan_global_??_C@_0BF@KINCDENJ@bad?5array?5new?5length@ DD FLAT:??_C@_0BF@KINCDENJ@bad?5array?5new?5length@
	DD	015H
	DD	040H
	DD	FLAT:_L___asan_gen_.6
	DD	FLAT:_L___asan_gen_.3
	DD	00H
	DD	FLAT:_L___asan_gen_.7
	DD	00H
ASAN$GL	ENDS
;	COMDAT CONST
CONST	SEGMENT
_L___asan_gen_.7 DD FLAT:_L___asan_gen_.3
	DD	08cH
	DD	014H
CONST	ENDS
;	COMDAT CONST
CONST	SEGMENT
_L___asan_gen_.6 DB '<C++ string literal>', 00H
CONST	ENDS
;	COMDAT ASAN$GL
ASAN$GL	SEGMENT
_L___asan_global_??_C@_0BC@EOODALEL@Unknown?5exception@ DD FLAT:??_C@_0BC@EOODALEL@Unknown?5exception@
	DD	012H
	DD	040H
	DD	FLAT:_L___asan_gen_.4
	DD	FLAT:_L___asan_gen_.3
	DD	00H
	DD	FLAT:_L___asan_gen_.5
	DD	00H
ASAN$GL	ENDS
;	COMDAT CONST
CONST	SEGMENT
_L___asan_gen_.5 DD FLAT:_L___asan_gen_.3
	DD	05fH
	DD	02bH
CONST	ENDS
;	COMDAT CONST
CONST	SEGMENT
_L___asan_gen_.4 DB '<C++ string literal>', 00H
CONST	ENDS
;	COMDAT CONST
CONST	SEGMENT
_L___asan_gen_.3 DB 'vcruntime_exception.h', 00H
CONST	ENDS
;	COMDAT ASAN$GL
ASAN$GL	SEGMENT
_L___asan_global_?_OptionsStorage@?1??__local_stdio_printf_options@@9@4_KA DD FLAT:?_OptionsStorage@?1??__local_stdio_printf_options@@9@4_KA
	DD	08H
	DD	040H
	DD	FLAT:_L___asan_gen_.1
	DD	FLAT:_L___asan_gen_.0
	DD	00H
	DD	FLAT:_L___asan_gen_.2
	DD	00H
ASAN$GL	ENDS
;	COMDAT CONST
CONST	SEGMENT
_L___asan_gen_.2 DD FLAT:_L___asan_gen_.0
	DD	05bH
	DD	020H
CONST	ENDS
;	COMDAT CONST
CONST	SEGMENT
_L___asan_gen_.1 DB '`__local_stdio_printf_options''::`2''::_OptionsStora'
	DB	'ge', 00H
CONST	ENDS
;	COMDAT CONST
CONST	SEGMENT
_L___asan_gen_.0 DB 'corecrt_stdio_config.h', 00H
CONST	ENDS
;	COMDAT __xmm@41f00000000000000000000000000000
CONST	SEGMENT
__xmm@41f00000000000000000000000000000 DB 00H, 00H, 00H, 00H, 00H, 00H, 00H
	DB	00H, 00H, 00H, 00H, 00H, 00H, 00H, 0f0H, 'A'
CONST	ENDS
;	COMDAT rtc$TMZ
rtc$TMZ	SEGMENT
__RTC_Shutdown.rtc$TMZ DD FLAT:__RTC_Shutdown
rtc$TMZ	ENDS
;	COMDAT rtc$IMZ
rtc$IMZ	SEGMENT
__RTC_InitBase.rtc$IMZ DD FLAT:__RTC_InitBase
rtc$IMZ	ENDS
;	COMDAT ??_R4Sprite@sf@@6BTransformable@1@@
rdata$r	SEGMENT
??_R4Sprite@sf@@6BTransformable@1@@ DD 00H		; sf::Sprite::`RTTI Complete Object Locator'
	DD	04H
	DD	00H
	DD	FLAT:??_R0?AVSprite@sf@@@8
	DD	FLAT:??_R3Sprite@sf@@8
rdata$r	ENDS
;	COMDAT ??_R1A@?0A@EA@Transformable@sf@@8
rdata$r	SEGMENT
??_R1A@?0A@EA@Transformable@sf@@8 DD FLAT:??_R0?AVTransformable@sf@@@8 ; sf::Transformable::`RTTI Base Class Descriptor at (0,-1,0,64)'
	DD	00H
	DD	00H
	DD	0ffffffffH
	DD	00H
	DD	040H
	DD	FLAT:??_R3Transformable@sf@@8
rdata$r	ENDS
;	COMDAT ??_R2Transformable@sf@@8
rdata$r	SEGMENT
??_R2Transformable@sf@@8 DD FLAT:??_R1A@?0A@EA@Transformable@sf@@8 ; sf::Transformable::`RTTI Base Class Array'
rdata$r	ENDS
;	COMDAT ??_R3Transformable@sf@@8
rdata$r	SEGMENT
??_R3Transformable@sf@@8 DD 00H				; sf::Transformable::`RTTI Class Hierarchy Descriptor'
	DD	00H
	DD	01H
	DD	FLAT:??_R2Transformable@sf@@8
rdata$r	ENDS
;	COMDAT ??_R0?AVTransformable@sf@@@8
data$rs	SEGMENT
??_R0?AVTransformable@sf@@@8 DD FLAT:??_7type_info@@6B@	; sf::Transformable `RTTI Type Descriptor'
	DD	00H
	DB	'.?AVTransformable@sf@@', 00H
data$rs	ENDS
;	COMDAT ??_R13?0A@EA@Transformable@sf@@8
rdata$r	SEGMENT
??_R13?0A@EA@Transformable@sf@@8 DD FLAT:??_R0?AVTransformable@sf@@@8 ; sf::Transformable::`RTTI Base Class Descriptor at (4,-1,0,64)'
	DD	00H
	DD	04H
	DD	0ffffffffH
	DD	00H
	DD	040H
	DD	FLAT:??_R3Transformable@sf@@8
rdata$r	ENDS
;	COMDAT ??_R2Drawable@sf@@8
rdata$r	SEGMENT
??_R2Drawable@sf@@8 DD FLAT:??_R1A@?0A@EA@Drawable@sf@@8 ; sf::Drawable::`RTTI Base Class Array'
rdata$r	ENDS
;	COMDAT ??_R3Drawable@sf@@8
rdata$r	SEGMENT
??_R3Drawable@sf@@8 DD 00H				; sf::Drawable::`RTTI Class Hierarchy Descriptor'
	DD	00H
	DD	01H
	DD	FLAT:??_R2Drawable@sf@@8
rdata$r	ENDS
;	COMDAT ??_R0?AVDrawable@sf@@@8
data$rs	SEGMENT
??_R0?AVDrawable@sf@@@8 DD FLAT:??_7type_info@@6B@	; sf::Drawable `RTTI Type Descriptor'
	DD	00H
	DB	'.?AVDrawable@sf@@', 00H
data$rs	ENDS
;	COMDAT ??_R1A@?0A@EA@Drawable@sf@@8
rdata$r	SEGMENT
??_R1A@?0A@EA@Drawable@sf@@8 DD FLAT:??_R0?AVDrawable@sf@@@8 ; sf::Drawable::`RTTI Base Class Descriptor at (0,-1,0,64)'
	DD	00H
	DD	00H
	DD	0ffffffffH
	DD	00H
	DD	040H
	DD	FLAT:??_R3Drawable@sf@@8
rdata$r	ENDS
;	COMDAT ??_R1A@?0A@EA@Sprite@sf@@8
rdata$r	SEGMENT
??_R1A@?0A@EA@Sprite@sf@@8 DD FLAT:??_R0?AVSprite@sf@@@8 ; sf::Sprite::`RTTI Base Class Descriptor at (0,-1,0,64)'
	DD	02H
	DD	00H
	DD	0ffffffffH
	DD	00H
	DD	040H
	DD	FLAT:??_R3Sprite@sf@@8
rdata$r	ENDS
;	COMDAT ??_R2Sprite@sf@@8
rdata$r	SEGMENT
??_R2Sprite@sf@@8 DD FLAT:??_R1A@?0A@EA@Sprite@sf@@8	; sf::Sprite::`RTTI Base Class Array'
	DD	FLAT:??_R1A@?0A@EA@Drawable@sf@@8
	DD	FLAT:??_R13?0A@EA@Transformable@sf@@8
rdata$r	ENDS
;	COMDAT ??_R3Sprite@sf@@8
rdata$r	SEGMENT
??_R3Sprite@sf@@8 DD 00H				; sf::Sprite::`RTTI Class Hierarchy Descriptor'
	DD	01H
	DD	03H
	DD	FLAT:??_R2Sprite@sf@@8
rdata$r	ENDS
;	COMDAT ??_R0?AVSprite@sf@@@8
data$rs	SEGMENT
??_R0?AVSprite@sf@@@8 DD FLAT:??_7type_info@@6B@	; sf::Sprite `RTTI Type Descriptor'
	DD	00H
	DB	'.?AVSprite@sf@@', 00H
data$rs	ENDS
;	COMDAT ??_R4Sprite@sf@@6BDrawable@1@@
rdata$r	SEGMENT
??_R4Sprite@sf@@6BDrawable@1@@ DD 00H			; sf::Sprite::`RTTI Complete Object Locator'
	DD	00H
	DD	00H
	DD	FLAT:??_R0?AVSprite@sf@@@8
	DD	FLAT:??_R3Sprite@sf@@8
rdata$r	ENDS
;	COMDAT ??_R1A@?0A@EA@bad_array_new_length@std@@8
rdata$r	SEGMENT
??_R1A@?0A@EA@bad_array_new_length@std@@8 DD FLAT:??_R0?AVbad_array_new_length@std@@@8 ; std::bad_array_new_length::`RTTI Base Class Descriptor at (0,-1,0,64)'
	DD	02H
	DD	00H
	DD	0ffffffffH
	DD	00H
	DD	040H
	DD	FLAT:??_R3bad_array_new_length@std@@8
rdata$r	ENDS
;	COMDAT ??_R2bad_array_new_length@std@@8
rdata$r	SEGMENT
??_R2bad_array_new_length@std@@8 DD FLAT:??_R1A@?0A@EA@bad_array_new_length@std@@8 ; std::bad_array_new_length::`RTTI Base Class Array'
	DD	FLAT:??_R1A@?0A@EA@bad_alloc@std@@8
	DD	FLAT:??_R1A@?0A@EA@exception@std@@8
rdata$r	ENDS
;	COMDAT ??_R3bad_array_new_length@std@@8
rdata$r	SEGMENT
??_R3bad_array_new_length@std@@8 DD 00H			; std::bad_array_new_length::`RTTI Class Hierarchy Descriptor'
	DD	00H
	DD	03H
	DD	FLAT:??_R2bad_array_new_length@std@@8
rdata$r	ENDS
;	COMDAT ??_R4bad_array_new_length@std@@6B@
rdata$r	SEGMENT
??_R4bad_array_new_length@std@@6B@ DD 00H		; std::bad_array_new_length::`RTTI Complete Object Locator'
	DD	00H
	DD	00H
	DD	FLAT:??_R0?AVbad_array_new_length@std@@@8
	DD	FLAT:??_R3bad_array_new_length@std@@8
rdata$r	ENDS
;	COMDAT ??_R1A@?0A@EA@bad_alloc@std@@8
rdata$r	SEGMENT
??_R1A@?0A@EA@bad_alloc@std@@8 DD FLAT:??_R0?AVbad_alloc@std@@@8 ; std::bad_alloc::`RTTI Base Class Descriptor at (0,-1,0,64)'
	DD	01H
	DD	00H
	DD	0ffffffffH
	DD	00H
	DD	040H
	DD	FLAT:??_R3bad_alloc@std@@8
rdata$r	ENDS
;	COMDAT ??_R2bad_alloc@std@@8
rdata$r	SEGMENT
??_R2bad_alloc@std@@8 DD FLAT:??_R1A@?0A@EA@bad_alloc@std@@8 ; std::bad_alloc::`RTTI Base Class Array'
	DD	FLAT:??_R1A@?0A@EA@exception@std@@8
rdata$r	ENDS
;	COMDAT ??_R3bad_alloc@std@@8
rdata$r	SEGMENT
??_R3bad_alloc@std@@8 DD 00H				; std::bad_alloc::`RTTI Class Hierarchy Descriptor'
	DD	00H
	DD	02H
	DD	FLAT:??_R2bad_alloc@std@@8
rdata$r	ENDS
;	COMDAT ??_R4bad_alloc@std@@6B@
rdata$r	SEGMENT
??_R4bad_alloc@std@@6B@ DD 00H				; std::bad_alloc::`RTTI Complete Object Locator'
	DD	00H
	DD	00H
	DD	FLAT:??_R0?AVbad_alloc@std@@@8
	DD	FLAT:??_R3bad_alloc@std@@8
rdata$r	ENDS
;	COMDAT ??_R1A@?0A@EA@exception@std@@8
rdata$r	SEGMENT
??_R1A@?0A@EA@exception@std@@8 DD FLAT:??_R0?AVexception@std@@@8 ; std::exception::`RTTI Base Class Descriptor at (0,-1,0,64)'
	DD	00H
	DD	00H
	DD	0ffffffffH
	DD	00H
	DD	040H
	DD	FLAT:??_R3exception@std@@8
rdata$r	ENDS
;	COMDAT ??_R2exception@std@@8
rdata$r	SEGMENT
??_R2exception@std@@8 DD FLAT:??_R1A@?0A@EA@exception@std@@8 ; std::exception::`RTTI Base Class Array'
rdata$r	ENDS
;	COMDAT ??_R3exception@std@@8
rdata$r	SEGMENT
??_R3exception@std@@8 DD 00H				; std::exception::`RTTI Class Hierarchy Descriptor'
	DD	00H
	DD	01H
	DD	FLAT:??_R2exception@std@@8
rdata$r	ENDS
;	COMDAT ??_R4exception@std@@6B@
rdata$r	SEGMENT
??_R4exception@std@@6B@ DD 00H				; std::exception::`RTTI Complete Object Locator'
	DD	00H
	DD	00H
	DD	FLAT:??_R0?AVexception@std@@@8
	DD	FLAT:??_R3exception@std@@8
rdata$r	ENDS
;	COMDAT ??_R0?AVinvalid_argument@std@@@8
data$r	SEGMENT
??_R0?AVinvalid_argument@std@@@8 DD FLAT:??_7type_info@@6B@ ; std::invalid_argument `RTTI Type Descriptor'
	DD	00H
	DB	'.?AVinvalid_argument@std@@', 00H
data$r	ENDS
;	COMDAT ??_R0?AVInteractiveObject@@@8
data$r	SEGMENT
??_R0?AVInteractiveObject@@@8 DD FLAT:??_7type_info@@6B@ ; InteractiveObject `RTTI Type Descriptor'
	DD	00H
	DB	'.?AVInteractiveObject@@', 00H
data$r	ENDS
;	COMDAT ??_R0?AVBlock@@@8
data$r	SEGMENT
??_R0?AVBlock@@@8 DD FLAT:??_7type_info@@6B@		; Block `RTTI Type Descriptor'
	DD	00H
	DB	'.?AVBlock@@', 00H
data$r	ENDS
;	COMDAT ??_SSprite@sf@@6BTransformable@1@@
CONST	SEGMENT
??_SSprite@sf@@6BTransformable@1@@ DD FLAT:??_R4Sprite@sf@@6BTransformable@1@@ ; sf::Sprite::`local vftable'
	DD	FLAT:??_ESprite@sf@@W3AEPAXI@Z
CONST	ENDS
;	COMDAT ??_SSprite@sf@@6BDrawable@1@@
CONST	SEGMENT
??_SSprite@sf@@6BDrawable@1@@ DD FLAT:??_R4Sprite@sf@@6BDrawable@1@@ ; sf::Sprite::`local vftable'
	DD	FLAT:??_ESprite@sf@@UAEPAXI@Z
	DD	FLAT:?draw@Sprite@sf@@EBEXAAVRenderTarget@2@VRenderStates@2@@Z
CONST	ENDS
;	COMDAT __CT??_R0?AVexception@std@@@8??0exception@std@@QAE@ABV01@@Z12
xdata$x	SEGMENT
__CT??_R0?AVexception@std@@@8??0exception@std@@QAE@ABV01@@Z12 DD 00H
	DD	FLAT:??_R0?AVexception@std@@@8
	DD	00H
	DD	0ffffffffH
	ORG $+4
	DD	0cH
	DD	FLAT:??0exception@std@@QAE@ABV01@@Z
xdata$x	ENDS
;	COMDAT ??_R0?AVexception@std@@@8
data$r	SEGMENT
??_R0?AVexception@std@@@8 DD FLAT:??_7type_info@@6B@	; std::exception `RTTI Type Descriptor'
	DD	00H
	DB	'.?AVexception@std@@', 00H
data$r	ENDS
;	COMDAT __CT??_R0?AVbad_alloc@std@@@8??0bad_alloc@std@@QAE@ABV01@@Z12
xdata$x	SEGMENT
__CT??_R0?AVbad_alloc@std@@@8??0bad_alloc@std@@QAE@ABV01@@Z12 DD 010H
	DD	FLAT:??_R0?AVbad_alloc@std@@@8
	DD	00H
	DD	0ffffffffH
	ORG $+4
	DD	0cH
	DD	FLAT:??0bad_alloc@std@@QAE@ABV01@@Z
xdata$x	ENDS
;	COMDAT ??_R0?AVbad_alloc@std@@@8
data$r	SEGMENT
??_R0?AVbad_alloc@std@@@8 DD FLAT:??_7type_info@@6B@	; std::bad_alloc `RTTI Type Descriptor'
	DD	00H
	DB	'.?AVbad_alloc@std@@', 00H
data$r	ENDS
;	COMDAT __CT??_R0?AVbad_array_new_length@std@@@8??0bad_array_new_length@std@@QAE@ABV01@@Z12
xdata$x	SEGMENT
__CT??_R0?AVbad_array_new_length@std@@@8??0bad_array_new_length@std@@QAE@ABV01@@Z12 DD 00H
	DD	FLAT:??_R0?AVbad_array_new_length@std@@@8
	DD	00H
	DD	0ffffffffH
	ORG $+4
	DD	0cH
	DD	FLAT:??0bad_array_new_length@std@@QAE@ABV01@@Z
xdata$x	ENDS
;	COMDAT ??_R0?AVbad_array_new_length@std@@@8
data$r	SEGMENT
??_R0?AVbad_array_new_length@std@@@8 DD FLAT:??_7type_info@@6B@ ; std::bad_array_new_length `RTTI Type Descriptor'
	DD	00H
	DB	'.?AVbad_array_new_length@std@@', 00H
data$r	ENDS
;	COMDAT __CTA3?AVbad_array_new_length@std@@
xdata$x	SEGMENT
__CTA3?AVbad_array_new_length@std@@ DD 03H
	DD	FLAT:__CT??_R0?AVbad_array_new_length@std@@@8??0bad_array_new_length@std@@QAE@ABV01@@Z12
	DD	FLAT:__CT??_R0?AVbad_alloc@std@@@8??0bad_alloc@std@@QAE@ABV01@@Z12
	DD	FLAT:__CT??_R0?AVexception@std@@@8??0exception@std@@QAE@ABV01@@Z12
xdata$x	ENDS
;	COMDAT __TI3?AVbad_array_new_length@std@@
xdata$x	SEGMENT
__TI3?AVbad_array_new_length@std@@ DD 00H
	DD	FLAT:??1bad_array_new_length@std@@UAE@XZ
	DD	00H
	DD	FLAT:__CTA3?AVbad_array_new_length@std@@
xdata$x	ENDS
;	COMDAT ??_7bad_array_new_length@std@@6B@
CONST	SEGMENT
??_7bad_array_new_length@std@@6B@ DD FLAT:??_R4bad_array_new_length@std@@6B@ ; std::bad_array_new_length::`vftable'
	DD	FLAT:??_Ebad_array_new_length@std@@UAEPAXI@Z
	DD	FLAT:?what@exception@std@@UBEPBDXZ
CONST	ENDS
;	COMDAT ??_7bad_alloc@std@@6B@
CONST	SEGMENT
??_7bad_alloc@std@@6B@ DD FLAT:??_R4bad_alloc@std@@6B@	; std::bad_alloc::`vftable'
	DD	FLAT:??_Ebad_alloc@std@@UAEPAXI@Z
	DD	FLAT:?what@exception@std@@UBEPBDXZ
CONST	ENDS
;	COMDAT ??_7exception@std@@6B@
CONST	SEGMENT
??_7exception@std@@6B@ DD FLAT:??_R4exception@std@@6B@	; std::exception::`vftable'
	DD	FLAT:??_Eexception@std@@UAEPAXI@Z
	DD	FLAT:?what@exception@std@@UBEPBDXZ
CONST	ENDS
;	COMDAT voltbl
voltbl	SEGMENT
_volmd	DW	020H
	DW	0106H
voltbl	ENDS
;	COMDAT CONST
CONST	SEGMENT
__L__asan_gen_.??$_Is_all_bits_zero@I@std@@YA_NABI@Z DB '1 16 4 5 _Zero'
CONST	ENDS
;	COMDAT voltbl
voltbl	SEGMENT
_volmd	DB	016H
	DB	020H
voltbl	ENDS
;	COMDAT voltbl
voltbl	SEGMENT
_volmd	DW	02fH
	DW	0187H
voltbl	ENDS
;	COMDAT xdata$x
xdata$x	SEGMENT
__unwindtable$??$_Uninitialized_fill_n@V?$allocator@I@std@@@std@@YAPAIPAIIABIAAV?$allocator@I@0@@Z DD 0ffffffffH
	DD	FLAT:__unwindfunclet$??$_Uninitialized_fill_n@V?$allocator@I@std@@@std@@YAPAIPAIIABIAAV?$allocator@I@0@@Z$0
__ehfuncinfo$??$_Uninitialized_fill_n@V?$allocator@I@std@@@std@@YAPAIPAIIABIAAV?$allocator@I@0@@Z DD 019930522H
	DD	01H
	DD	FLAT:__unwindtable$??$_Uninitialized_fill_n@V?$allocator@I@std@@@std@@YAPAIPAIIABIAAV?$allocator@I@0@@Z
	DD	2 DUP(00H)
	DD	2 DUP(00H)
	DD	00H
	DD	01H
xdata$x	ENDS
;	COMDAT CONST
CONST	SEGMENT
__L__asan_gen_.??$_Uninitialized_fill_n@V?$allocator@I@std@@@std@@YAPAIPAIIABIAAV?$allocator@I@0@@Z DB '1'
	DB	' 16 12 8 _Backout'
CONST	ENDS
;	COMDAT voltbl
voltbl	SEGMENT
_volmd	DB	016H
	DB	023H
voltbl	ENDS
;	COMDAT voltbl
voltbl	SEGMENT
_volmd	DW	032H
	DW	01bdH
voltbl	ENDS
;	COMDAT xdata$x
xdata$x	SEGMENT
__unwindtable$??$_Uninitialized_copy@PAIV?$allocator@I@std@@@std@@YAPAIQAI0PAIAAV?$allocator@I@0@@Z DD 0ffffffffH
	DD	FLAT:__unwindfunclet$??$_Uninitialized_copy@PAIV?$allocator@I@std@@@std@@YAPAIQAI0PAIAAV?$allocator@I@0@@Z$0
__ehfuncinfo$??$_Uninitialized_copy@PAIV?$allocator@I@std@@@std@@YAPAIQAI0PAIAAV?$allocator@I@0@@Z DD 019930522H
	DD	01H
	DD	FLAT:__unwindtable$??$_Uninitialized_copy@PAIV?$allocator@I@std@@@std@@YAPAIQAI0PAIAAV?$allocator@I@0@@Z
	DD	2 DUP(00H)
	DD	2 DUP(00H)
	DD	00H
	DD	01H
xdata$x	ENDS
;	COMDAT CONST
CONST	SEGMENT
__L__asan_gen_.??$_Uninitialized_copy@PAIV?$allocator@I@std@@@std@@YAPAIQAI0PAIAAV?$allocator@I@0@@Z DB '1'
	DB	' 16 12 8 _Backout'
CONST	ENDS
;	COMDAT voltbl
voltbl	SEGMENT
_volmd	DB	09H
voltbl	ENDS
;	COMDAT xdata$x
xdata$x	SEGMENT
__ehfuncinfo$??$?0W4DIRDEP@@AAW40@$0A@@?$tuple@W4DIRDEP@@W41@@std@@QAE@$$QAW4DIRDEP@@AAW42@@Z DD 019930522H
	DD	00H
	DD	00H
	DD	2 DUP(00H)
	DD	2 DUP(00H)
	DD	00H
	DD	05H
xdata$x	ENDS
;	COMDAT voltbl
voltbl	SEGMENT
_volmd	DB	09H
voltbl	ENDS
;	COMDAT xdata$x
xdata$x	SEGMENT
__ehfuncinfo$??$?0AAW4DIRDEP@@W40@$0A@@?$tuple@W4DIRDEP@@W41@@std@@QAE@AAW4DIRDEP@@$$QAW42@@Z DD 019930522H
	DD	00H
	DD	00H
	DD	2 DUP(00H)
	DD	2 DUP(00H)
	DD	00H
	DD	05H
xdata$x	ENDS
;	COMDAT voltbl
voltbl	SEGMENT
_volmd	DB	09H
voltbl	ENDS
;	COMDAT xdata$x
xdata$x	SEGMENT
__ehfuncinfo$??$?0W4DIRDEP@@W40@$0A@@?$tuple@W4DIRDEP@@W41@@std@@QAE@$$QAW4DIRDEP@@0@Z DD 019930522H
	DD	00H
	DD	00H
	DD	2 DUP(00H)
	DD	2 DUP(00H)
	DD	00H
	DD	05H
xdata$x	ENDS
;	COMDAT voltbl
voltbl	SEGMENT
_volmd	DB	09H
voltbl	ENDS
;	COMDAT xdata$x
xdata$x	SEGMENT
__ehfuncinfo$??$_Deallocate_plain@V?$allocator@U_Container_proxy@std@@@std@@@std@@YAXAAV?$allocator@U_Container_proxy@std@@@0@QAU_Container_proxy@0@@Z DD 019930522H
	DD	00H
	DD	00H
	DD	2 DUP(00H)
	DD	2 DUP(00H)
	DD	00H
	DD	05H
xdata$x	ENDS
;	COMDAT voltbl
voltbl	SEGMENT
_volmd	DB	021H
	DB	02eH
voltbl	ENDS
;	COMDAT voltbl
voltbl	SEGMENT
_volmd	DW	032H
	DW	0255H
voltbl	ENDS
;	COMDAT xdata$x
xdata$x	SEGMENT
__unwindtable$??$_Construct_n_copies_of_ty@I@?$vector@IV?$allocator@I@std@@@std@@AAEXIABI@Z DD 0ffffffffH
	DD	FLAT:__unwindfunclet$??$_Construct_n_copies_of_ty@I@?$vector@IV?$allocator@I@std@@@std@@AAEXIABI@Z$0
	DD	00H
	DD	FLAT:__unwindfunclet$??$_Construct_n_copies_of_ty@I@?$vector@IV?$allocator@I@std@@@std@@AAEXIABI@Z$1
__ehfuncinfo$??$_Construct_n_copies_of_ty@I@?$vector@IV?$allocator@I@std@@@std@@AAEXIABI@Z DD 019930522H
	DD	02H
	DD	FLAT:__unwindtable$??$_Construct_n_copies_of_ty@I@?$vector@IV?$allocator@I@std@@@std@@AAEXIABI@Z
	DD	2 DUP(00H)
	DD	2 DUP(00H)
	DD	00H
	DD	01H
xdata$x	ENDS
;	COMDAT CONST
CONST	SEGMENT
__L__asan_gen_.??$_Construct_n_copies_of_ty@I@?$vector@IV?$allocator@I@std@@@std@@AAEXIABI@Z DB '3'
	DB	' 16 1 4 $S48 32 8 6 _Proxy 48 4 6 _Guard'
CONST	ENDS
;	COMDAT voltbl
voltbl	SEGMENT
_volmd	DW	023H
	DW	030dH
voltbl	ENDS
;	COMDAT CONST
CONST	SEGMENT
__L__asan_gen_.??$_Reallocate_for@V<lambda_1>@?1??assign@?$basic_string@DU?$char_traits@D@std@@V?$allocator@D@2@@std@@QAEAAV34@QBDI@Z@PBD@?$basic_string@DU?$char_traits@D@std@@V?$allocator@D@2@@std@@AAEAAV01@IV<lambda_1>@?1??assign@01@QAEAAV01@QBDI@Z@PBD@Z DB '1'
	DB	' 16 4 8 _New_ptr'
CONST	ENDS
;	COMDAT CONST
CONST	SEGMENT
__L__asan_gen_.??R<lambda_1>@?1??assign@?$basic_string@DU?$char_traits@D@std@@V?$allocator@D@2@@std@@QAEAAV23@QBDI@Z@QBE@QADI0@Z DB '1'
	DB	' 16 1 18 compiler temporary'
CONST	ENDS
;	COMDAT voltbl
voltbl	SEGMENT
_volmd	DB	020H
	DB	0d3H
voltbl	ENDS
;	COMDAT CONST
CONST	SEGMENT
__L__asan_gen_.??H?$_Vector_iterator@V?$_Vector_val@U?$_Simple_types@I@std@@@std@@@std@@QBE?AV01@H@Z DB '1'
	DB	' 16 12 4 _Tmp'
CONST	ENDS
;	COMDAT voltbl
voltbl	SEGMENT
_volmd	DB	09H
voltbl	ENDS
;	COMDAT xdata$x
xdata$x	SEGMENT
__ehfuncinfo$??$_Deallocate@$07$0A@@std@@YAXPAXI@Z DD 019930522H
	DD	00H
	DD	00H
	DD	2 DUP(00H)
	DD	2 DUP(00H)
	DD	00H
	DD	05H
xdata$x	ENDS
;	COMDAT voltbl
voltbl	SEGMENT
_volmd	DB	09H
voltbl	ENDS
;	COMDAT xdata$x
xdata$x	SEGMENT
__ehfuncinfo$??1sentry@?$basic_ostream@DU?$char_traits@D@std@@@std@@QAE@XZ DD 019930522H
	DD	00H
	DD	00H
	DD	2 DUP(00H)
	DD	2 DUP(00H)
	DD	00H
	DD	05H
xdata$x	ENDS
;	COMDAT voltbl
voltbl	SEGMENT
_volmd	DB	016H
voltbl	ENDS
;	COMDAT xdata$x
xdata$x	SEGMENT
__unwindtable$??0sentry@?$basic_ostream@DU?$char_traits@D@std@@@std@@QAE@AAV12@@Z DD 0ffffffffH
	DD	FLAT:__unwindfunclet$??0sentry@?$basic_ostream@DU?$char_traits@D@std@@@std@@QAE@AAV12@@Z$0
__ehfuncinfo$??0sentry@?$basic_ostream@DU?$char_traits@D@std@@@std@@QAE@AAV12@@Z DD 019930522H
	DD	01H
	DD	FLAT:__unwindtable$??0sentry@?$basic_ostream@DU?$char_traits@D@std@@@std@@QAE@AAV12@@Z
	DD	2 DUP(00H)
	DD	2 DUP(00H)
	DD	00H
	DD	01H
xdata$x	ENDS
;	COMDAT voltbl
voltbl	SEGMENT
_volmd	DB	09H
voltbl	ENDS
;	COMDAT xdata$x
xdata$x	SEGMENT
__ehfuncinfo$??1_Sentry_base@?$basic_ostream@DU?$char_traits@D@std@@@std@@QAE@XZ DD 019930522H
	DD	00H
	DD	00H
	DD	2 DUP(00H)
	DD	2 DUP(00H)
	DD	00H
	DD	05H
xdata$x	ENDS
;	COMDAT CONST
CONST	SEGMENT
__L__asan_gen_.??$_Alloc_proxy@V?$allocator@U_Container_proxy@std@@@std@@@_Container_base12@std@@QAEX$$QAV?$allocator@U_Container_proxy@std@@@1@@Z DB '1'
	DB	' 16 4 18 compiler temporary'
CONST	ENDS
;	COMDAT voltbl
voltbl	SEGMENT
_volmd	DB	019H
	DB	026H
voltbl	ENDS
;	COMDAT voltbl
voltbl	SEGMENT
_volmd	DW	033H
	DW	07e9H
voltbl	ENDS
;	COMDAT xdata$x
xdata$x	SEGMENT
__catchsym$??$?6U?$char_traits@D@std@@@std@@YAAAV?$basic_ostream@DU?$char_traits@D@std@@@0@AAV10@PBD@Z$3 DD 040H
	DD	00H
	DD	00H
	DD	FLAT:__catch$??$?6U?$char_traits@D@std@@@std@@YAAAV?$basic_ostream@DU?$char_traits@D@std@@@0@AAV10@PBD@Z$0
__tryblocktable$??$?6U?$char_traits@D@std@@@std@@YAAAV?$basic_ostream@DU?$char_traits@D@std@@@0@AAV10@PBD@Z DD 01H
	DD	01H
	DD	02H
	DD	01H
	DD	FLAT:__catchsym$??$?6U?$char_traits@D@std@@@std@@YAAAV?$basic_ostream@DU?$char_traits@D@std@@@0@AAV10@PBD@Z$3
__unwindtable$??$?6U?$char_traits@D@std@@@std@@YAAAV?$basic_ostream@DU?$char_traits@D@std@@@0@AAV10@PBD@Z DD 0ffffffffH
	DD	FLAT:__unwindfunclet$??$?6U?$char_traits@D@std@@@std@@YAAAV?$basic_ostream@DU?$char_traits@D@std@@@0@AAV10@PBD@Z$2
	DD	00H
	DD	00H
	DD	00H
	DD	00H
__ehfuncinfo$??$?6U?$char_traits@D@std@@@std@@YAAAV?$basic_ostream@DU?$char_traits@D@std@@@0@AAV10@PBD@Z DD 019930522H
	DD	03H
	DD	FLAT:__unwindtable$??$?6U?$char_traits@D@std@@@std@@YAAAV?$basic_ostream@DU?$char_traits@D@std@@@0@AAV10@PBD@Z
	DD	01H
	DD	FLAT:__tryblocktable$??$?6U?$char_traits@D@std@@@std@@YAAAV?$basic_ostream@DU?$char_traits@D@std@@@0@AAV10@PBD@Z
	DD	2 DUP(00H)
	DD	00H
	DD	01H
xdata$x	ENDS
;	COMDAT CONST
CONST	SEGMENT
__L__asan_gen_.??$?6U?$char_traits@D@std@@@std@@YAAAV?$basic_ostream@DU?$char_traits@D@std@@@0@AAV10@PBD@Z DB '5'
	DB	' 16 8 3 _Ok 32 4 18 compiler temporary 48 4 18 compiler tempo'
	DB	'rary 64 4 18 compiler temporary 80 4 18 compiler temporary'
CONST	ENDS
;	COMDAT voltbl
voltbl	SEGMENT
_volmd	DB	020H
	DB	0d3H
voltbl	ENDS
;	COMDAT CONST
CONST	SEGMENT
__L__asan_gen_.??H?$_Vector_iterator@V?$_Vector_val@U?$_Simple_types@PAVBlock@@@std@@@std@@@std@@QBE?AV01@H@Z DB '1'
	DB	' 16 12 4 _Tmp'
CONST	ENDS
voltbl	SEGMENT
_volmd	DD	0ffffffffH
	DDSymXIndex: 	FLAT:__unwindfunclet$?loadTerrain@Univers@@QAEXH@Z$0
	DD	047H
	DD	054H
_volmd	DD	0ffffffffH
	DDSymXIndex: 	FLAT:?loadTerrain@Univers@@QAEXH@Z
	DD	032H
	DD	08c9H
_volmd	DD	0ffffffffH
	DDSymXIndex: 	FLAT:?collision@Univers@@QAEPAV?$vector@_NV?$allocator@_N@std@@@std@@PAVCharacter@@@Z
	DD	023H
	DD	0b85H
_volmd	DD	0ffffffffH
	DDSymXIndex: 	FLAT:__unwindfunclet$?animate@Univers@@QAEXXZ$2
	DD	019H
	DD	026H
_volmd	DD	0ffffffffH
	DDSymXIndex: 	FLAT:?animate@Univers@@QAEXXZ
	DD	033H
	DD	0c3eH
_volmd	DD	0ffffffffH
	DDSymXIndex: 	FLAT:__unwindfunclet$??0Univers@@QAE@PAVRessourcePack@@PAVRenderWindow@sf@@@Z$2
	DD	02bH
	DD	038H
_volmd	DD	0ffffffffH
	DDSymXIndex: 	FLAT:??0Univers@@QAE@PAVRessourcePack@@PAVRenderWindow@sf@@@Z
	DD	033H
	DD	06faH
voltbl	ENDS
xdata$x	SEGMENT
__catchsym$?animate@Univers@@QAEXXZ$4 DD 00H
	DD	FLAT:??_R0?AVexception@std@@@8
	DD	0fffffd90H
	DD	FLAT:__catch$?animate@Univers@@QAEXXZ$0
__catchsym$??0Univers@@QAE@PAVRessourcePack@@PAVRenderWindow@sf@@@Z$7 DD 00H
	DD	FLAT:??_R0?AVinvalid_argument@std@@@8
	DD	0ffffff00H
	DD	FLAT:__catch$??0Univers@@QAE@PAVRessourcePack@@PAVRenderWindow@sf@@@Z$0
__tryblocktable$?animate@Univers@@QAEXXZ DD 00H
	DD	00H
	DD	02H
	DD	01H
	DD	FLAT:__catchsym$?animate@Univers@@QAEXXZ$4
__tryblocktable$??0Univers@@QAE@PAVRessourcePack@@PAVRenderWindow@sf@@@Z DD 01H
	DD	01H
	DD	03H
	DD	01H
	DD	FLAT:__catchsym$??0Univers@@QAE@PAVRessourcePack@@PAVRenderWindow@sf@@@Z$7
__unwindtable$?loadTerrain@Univers@@QAEXH@Z DD 0ffffffffH
	DD	FLAT:__unwindfunclet$?loadTerrain@Univers@@QAEXH@Z$0
	DD	0ffffffffH
	DD	FLAT:__unwindfunclet$?loadTerrain@Univers@@QAEXH@Z$1
	DD	0ffffffffH
	DD	FLAT:__unwindfunclet$?loadTerrain@Univers@@QAEXH@Z$2
__unwindtable$?animate@Univers@@QAEXXZ DD 0ffffffffH
	DD	00H
	DD	0ffffffffH
	DD	00H
	DD	01H
	DD	FLAT:__unwindfunclet$?animate@Univers@@QAEXXZ$2
__unwindtable$??0Univers@@QAE@PAVRessourcePack@@PAVRenderWindow@sf@@@Z DD 0ffffffffH
	DD	FLAT:__unwindfunclet$??0Univers@@QAE@PAVRessourcePack@@PAVRenderWindow@sf@@@Z$2
	DD	0ffffffffH
	DD	00H
	DD	0ffffffffH
	DD	00H
	DD	02H
	DD	FLAT:__unwindfunclet$??0Univers@@QAE@PAVRessourcePack@@PAVRenderWindow@sf@@@Z$6
__ehfuncinfo$?loadTerrain@Univers@@QAEXH@Z DD 019930522H
	DD	03H
	DD	FLAT:__unwindtable$?loadTerrain@Univers@@QAEXH@Z
	DD	2 DUP(00H)
	DD	2 DUP(00H)
	DD	00H
	DD	01H
__ehfuncinfo$?animate@Univers@@QAEXXZ DD 019930522H
	DD	03H
	DD	FLAT:__unwindtable$?animate@Univers@@QAEXXZ
	DD	01H
	DD	FLAT:__tryblocktable$?animate@Univers@@QAEXXZ
	DD	2 DUP(00H)
	DD	00H
	DD	01H
__ehfuncinfo$??0Univers@@QAE@PAVRessourcePack@@PAVRenderWindow@sf@@@Z DD 019930522H
	DD	04H
	DD	FLAT:__unwindtable$??0Univers@@QAE@PAVRessourcePack@@PAVRenderWindow@sf@@@Z
	DD	01H
	DD	FLAT:__tryblocktable$??0Univers@@QAE@PAVRessourcePack@@PAVRenderWindow@sf@@@Z
	DD	2 DUP(00H)
	DD	00H
	DD	01H
xdata$x	ENDS
CONST	SEGMENT
	ORG $+4
__L__asan_gen_.??0Univers@@QAE@PAVRessourcePack@@PAVRenderWindow@sf@@@Z DB '4'
	DB	' 16 4 18 compiler temporary 32 4 18 compiler temporary 48 1 1'
	DB	'8 compiler temporary 64 12 1 e'
	ORG $+4
__L__asan_gen_.?animate@Univers@@QAEXXZ DB '20 16 8 5 clock 32 12 1 e 48 '
	DB	'4 18 compiler temporary 64 20 5 event 80 4 18 compiler tempor'
	DB	'ary 96 8 18 compiler temporary 112 4 18 compiler temporary 12'
	DB	'8 8 18 compiler temporary 144 4 18 compiler temporary 160 8 1'
	DB	'8 compiler temporary 176 4 18 compiler temporary 192 8 18 com'
	DB	'piler temporary 208 4 18 compiler temporary 224 8 18 compiler'
	DB	' temporary 240 4 18 compiler temporary 256 8 18 compiler temp'
	DB	'orary 272 4 18 compiler temporary 288 8 18 compiler temporary'
	DB	' 304 4 18 compiler temporary 320 8 18 compiler temporary'
__L__asan_gen_.?collision@Univers@@QAEPAV?$vector@_NV?$allocator@_N@std@@@std@@PAVCharacter@@@Z DB '1'
	DB	'1 16 16 18 compiler temporary 32 16 18 compiler temporary 48 '
	DB	'12 18 compiler temporary 64 12 18 compiler temporary 80 12 18'
	DB	' compiler temporary 96 8 4 size 112 16 18 compiler temporary '
	DB	'128 16 18 compiler temporary 144 16 18 compiler temporary 160'
	DB	' 16 18 compiler temporary 176 16 18 compiler temporary'
	ORG $+5
__L__asan_gen_.?loadTerrain@Univers@@QAEXH@Z DB '5 16 168 4 View 32 8 2 s'
	DB	'i 48 16 18 compiler temporary 64 8 18 compiler temporary 80 1'
	DB	'6 18 compiler temporary'
CONST	ENDS
;	COMDAT voltbl
voltbl	SEGMENT
_volmd	DB	017H
	DB	021H
voltbl	ENDS
;	COMDAT voltbl
voltbl	SEGMENT
_volmd	DB	02fH
	DB	0f6H
voltbl	ENDS
;	COMDAT xdata$x
xdata$x	SEGMENT
__unwindtable$?_Orphan_range_locked@?$vector@PAVBlock@@V?$allocator@PAVBlock@@@std@@@std@@ABEXPAPAVBlock@@0@Z DD 0ffffffffH
	DD	FLAT:__unwindfunclet$?_Orphan_range_locked@?$vector@PAVBlock@@V?$allocator@PAVBlock@@@std@@@std@@ABEXPAPAVBlock@@0@Z$0
__ehfuncinfo$?_Orphan_range_locked@?$vector@PAVBlock@@V?$allocator@PAVBlock@@@std@@@std@@ABEXPAPAVBlock@@0@Z DD 019930522H
	DD	01H
	DD	FLAT:__unwindtable$?_Orphan_range_locked@?$vector@PAVBlock@@V?$allocator@PAVBlock@@@std@@@std@@ABEXPAPAVBlock@@0@Z
	DD	2 DUP(00H)
	DD	2 DUP(00H)
	DD	00H
	DD	01H
xdata$x	ENDS
;	COMDAT CONST
CONST	SEGMENT
__L__asan_gen_.?_Orphan_range_locked@?$vector@PAVBlock@@V?$allocator@PAVBlock@@@std@@@std@@ABEXPAPAVBlock@@0@Z DB '1'
	DB	' 16 4 5 _Lock'
CONST	ENDS
;	COMDAT voltbl
voltbl	SEGMENT
_volmd	DB	09H
voltbl	ENDS
;	COMDAT xdata$x
xdata$x	SEGMENT
__ehfuncinfo$?erase@?$vector@PAVBlock@@V?$allocator@PAVBlock@@@std@@@std@@QAE?AV?$_Vector_iterator@V?$_Vector_val@U?$_Simple_types@PAVBlock@@@std@@@std@@@2@V?$_Vector_const_iterator@V?$_Vector_val@U?$_Simple_types@PAVBlock@@@std@@@std@@@2@@Z DD 019930522H
	DD	00H
	DD	00H
	DD	2 DUP(00H)
	DD	2 DUP(00H)
	DD	00H
	DD	05H
xdata$x	ENDS
;	COMDAT voltbl
voltbl	SEGMENT
_volmd	DB	0b3H
voltbl	ENDS
;	COMDAT xdata$x
xdata$x	SEGMENT
__ehfuncinfo$??__Elevel1@@YAXXZ DD 019930522H
	DD	0eH
	DD	FLAT:__unwindtable$??__Elevel1@@YAXXZ
	DD	2 DUP(00H)
	DD	2 DUP(00H)
	DD	00H
	DD	01H
__unwindtable$??__Elevel1@@YAXXZ DD 0ffffffffH
	DD	FLAT:__unwindfunclet$??__Elevel1@@YAXXZ$0
	DD	00H
	DD	FLAT:__unwindfunclet$??__Elevel1@@YAXXZ$1
	DD	01H
	DD	FLAT:__unwindfunclet$??__Elevel1@@YAXXZ$2
	DD	02H
	DD	FLAT:__unwindfunclet$??__Elevel1@@YAXXZ$3
	DD	03H
	DD	FLAT:__unwindfunclet$??__Elevel1@@YAXXZ$4
	DD	04H
	DD	FLAT:__unwindfunclet$??__Elevel1@@YAXXZ$5
	DD	05H
	DD	FLAT:__unwindfunclet$??__Elevel1@@YAXXZ$6
	DD	06H
	DD	FLAT:__unwindfunclet$??__Elevel1@@YAXXZ$7
	DD	07H
	DD	FLAT:__unwindfunclet$??__Elevel1@@YAXXZ$8
	DD	08H
	DD	FLAT:__unwindfunclet$??__Elevel1@@YAXXZ$9
	DD	09H
	DD	FLAT:__unwindfunclet$??__Elevel1@@YAXXZ$10
	DD	0aH
	DD	FLAT:__unwindfunclet$??__Elevel1@@YAXXZ$11
	DD	0bH
	DD	FLAT:__unwindfunclet$??__Elevel1@@YAXXZ$12
	DD	0ffffffffH
	DD	FLAT:__unwindfunclet$??__Elevel1@@YAXXZ$14
xdata$x	ENDS
;	COMDAT CONST
CONST	SEGMENT
__L__asan_gen_.??__Elevel1@@YAXXZ DB '45 16 224 18 compiler temporary 32 '
	DB	'36 18 compiler temporary 48 36 18 compiler temporary 64 36 18'
	DB	' compiler temporary 80 36 18 compiler temporary 96 36 18 comp'
	DB	'iler temporary 112 36 18 compiler temporary 128 36 18 compile'
	DB	'r temporary 144 36 18 compiler temporary 160 36 18 compiler t'
	DB	'emporary 176 36 18 compiler temporary 192 36 18 compiler temp'
	DB	'orary 208 36 18 compiler temporary 224 36 18 compiler tempora'
	DB	'ry 240 36 18 compiler temporary 256 1 18 compiler temporary 2'
	DB	'72 1 18 compiler temporary 288 8 18 compiler temporary 304 1 '
	DB	'18 compiler temporary 320 8 18 compiler temporary 336 1 18 co'
	DB	'mpiler temporary 352 8 18 compiler temporary 368 1 18 compile'
	DB	'r temporary 384 8 18 compiler temporary 400 1 18 compiler tem'
	DB	'porary 416 8 18 compiler temporary 432 1 18 compiler temporar'
	DB	'y 448 8 18 compiler temporary 464 1 18 compiler temporary 480'
	DB	' 8 18 compiler temporary 496 1 18 compiler temporary 512 8 18'
	DB	' compiler temporary 528 1 18 compiler temporary 544 8 18 comp'
	DB	'iler temporary 560 1 18 compiler temporary 576 8 18 compiler '
	DB	'temporary 592 1 18 compiler temporary 608 8 18 compiler tempo'
	DB	'rary 624 1 18 compiler temporary 640 8 18 compiler temporary '
	DB	'656 1 18 compiler temporary 672 8 18 compiler temporary 688 1'
	DB	' 18 compiler temporary 704 8 18 compiler temporary 720 8 18 c'
	DB	'ompiler temporary'
CONST	ENDS
;	COMDAT voltbl
voltbl	SEGMENT
_volmd	DB	09H
voltbl	ENDS
;	COMDAT xdata$x
xdata$x	SEGMENT
__ehfuncinfo$??$_Destroy_range@V?$allocator@V?$vector@HV?$allocator@H@std@@@std@@@std@@@std@@YAXPAV?$vector@HV?$allocator@H@std@@@0@QAV10@AAV?$allocator@V?$vector@HV?$allocator@H@std@@@std@@@0@@Z DD 019930522H
	DD	00H
	DD	00H
	DD	2 DUP(00H)
	DD	2 DUP(00H)
	DD	00H
	DD	05H
xdata$x	ENDS
;	COMDAT voltbl
voltbl	SEGMENT
_volmd	DB	016H
	DB	023H
voltbl	ENDS
;	COMDAT voltbl
voltbl	SEGMENT
_volmd	DW	032H
	DW	01bdH
voltbl	ENDS
;	COMDAT xdata$x
xdata$x	SEGMENT
__unwindtable$??$_Uninitialized_copy@PAHV?$allocator@H@std@@@std@@YAPAHQAH0PAHAAV?$allocator@H@0@@Z DD 0ffffffffH
	DD	FLAT:__unwindfunclet$??$_Uninitialized_copy@PAHV?$allocator@H@std@@@std@@YAPAHQAH0PAHAAV?$allocator@H@0@@Z$0
__ehfuncinfo$??$_Uninitialized_copy@PAHV?$allocator@H@std@@@std@@YAPAHQAH0PAHAAV?$allocator@H@0@@Z DD 019930522H
	DD	01H
	DD	FLAT:__unwindtable$??$_Uninitialized_copy@PAHV?$allocator@H@std@@@std@@YAPAHQAH0PAHAAV?$allocator@H@0@@Z
	DD	2 DUP(00H)
	DD	2 DUP(00H)
	DD	00H
	DD	01H
xdata$x	ENDS
;	COMDAT CONST
CONST	SEGMENT
__L__asan_gen_.??$_Uninitialized_copy@PAHV?$allocator@H@std@@@std@@YAPAHQAH0PAHAAV?$allocator@H@0@@Z DB '1'
	DB	' 16 12 8 _Backout'
CONST	ENDS
;	COMDAT voltbl
voltbl	SEGMENT
_volmd	DB	016H
	DB	020H
voltbl	ENDS
;	COMDAT voltbl
voltbl	SEGMENT
_volmd	DW	02fH
	DW	0137H
voltbl	ENDS
;	COMDAT xdata$x
xdata$x	SEGMENT
__unwindtable$??$_Uninitialized_copy@PBV?$vector@HV?$allocator@H@std@@@std@@V?$allocator@V?$vector@HV?$allocator@H@std@@@std@@@2@@std@@YAPAV?$vector@HV?$allocator@H@std@@@0@QBV10@0PAV10@AAV?$allocator@V?$vector@HV?$allocator@H@std@@@std@@@0@@Z DD 0ffffffffH
	DD	FLAT:__unwindfunclet$??$_Uninitialized_copy@PBV?$vector@HV?$allocator@H@std@@@std@@V?$allocator@V?$vector@HV?$allocator@H@std@@@std@@@2@@std@@YAPAV?$vector@HV?$allocator@H@std@@@0@QBV10@0PAV10@AAV?$allocator@V?$vector@HV?$allocator@H@std@@@std@@@0@@Z$0
__ehfuncinfo$??$_Uninitialized_copy@PBV?$vector@HV?$allocator@H@std@@@std@@V?$allocator@V?$vector@HV?$allocator@H@std@@@std@@@2@@std@@YAPAV?$vector@HV?$allocator@H@std@@@0@QBV10@0PAV10@AAV?$allocator@V?$vector@HV?$allocator@H@std@@@std@@@0@@Z DD 019930522H
	DD	01H
	DD	FLAT:__unwindtable$??$_Uninitialized_copy@PBV?$vector@HV?$allocator@H@std@@@std@@V?$allocator@V?$vector@HV?$allocator@H@std@@@std@@@2@@std@@YAPAV?$vector@HV?$allocator@H@std@@@0@QBV10@0PAV10@AAV?$allocator@V?$vector@HV?$allocator@H@std@@@std@@@0@@Z
	DD	2 DUP(00H)
	DD	2 DUP(00H)
	DD	00H
	DD	01H
xdata$x	ENDS
;	COMDAT CONST
CONST	SEGMENT
__L__asan_gen_.??$_Uninitialized_copy@PBV?$vector@HV?$allocator@H@std@@@std@@V?$allocator@V?$vector@HV?$allocator@H@std@@@std@@@2@@std@@YAPAV?$vector@HV?$allocator@H@std@@@0@QBV10@0PAV10@AAV?$allocator@V?$vector@HV?$allocator@H@std@@@std@@@0@@Z DB '1'
	DB	' 16 12 8 _Backout'
CONST	ENDS
;	COMDAT voltbl
voltbl	SEGMENT
_volmd	DB	019H
	DB	026H
voltbl	ENDS
;	COMDAT voltbl
voltbl	SEGMENT
_volmd	DW	032H
	DW	0268H
voltbl	ENDS
;	COMDAT xdata$x
xdata$x	SEGMENT
__unwindtable$??$_Range_construct_or_tidy@PBV?$vector@HV?$allocator@H@std@@@std@@@?$vector@V?$vector@HV?$allocator@H@std@@@std@@V?$allocator@V?$vector@HV?$allocator@H@std@@@std@@@2@@std@@AAEXPBV?$vector@HV?$allocator@H@std@@@1@0Uforward_iterator_tag@1@@Z DD 0ffffffffH
	DD	FLAT:__unwindfunclet$??$_Range_construct_or_tidy@PBV?$vector@HV?$allocator@H@std@@@std@@@?$vector@V?$vector@HV?$allocator@H@std@@@std@@V?$allocator@V?$vector@HV?$allocator@H@std@@@std@@@2@@std@@AAEXPBV?$vector@HV?$allocator@H@std@@@1@0Uforward_iterator_tag@1@@Z$0
__ehfuncinfo$??$_Range_construct_or_tidy@PBV?$vector@HV?$allocator@H@std@@@std@@@?$vector@V?$vector@HV?$allocator@H@std@@@std@@V?$allocator@V?$vector@HV?$allocator@H@std@@@std@@@2@@std@@AAEXPBV?$vector@HV?$allocator@H@std@@@1@0Uforward_iterator_tag@1@@Z DD 019930522H
	DD	01H
	DD	FLAT:__unwindtable$??$_Range_construct_or_tidy@PBV?$vector@HV?$allocator@H@std@@@std@@@?$vector@V?$vector@HV?$allocator@H@std@@@std@@V?$allocator@V?$vector@HV?$allocator@H@std@@@std@@@2@@std@@AAEXPBV?$vector@HV?$allocator@H@std@@@1@0Uforward_iterator_tag@1@@Z
	DD	2 DUP(00H)
	DD	2 DUP(00H)
	DD	00H
	DD	01H
xdata$x	ENDS
;	COMDAT CONST
CONST	SEGMENT
__L__asan_gen_.??$_Range_construct_or_tidy@PBV?$vector@HV?$allocator@H@std@@@std@@@?$vector@V?$vector@HV?$allocator@H@std@@@std@@V?$allocator@V?$vector@HV?$allocator@H@std@@@std@@@2@@std@@AAEXPBV?$vector@HV?$allocator@H@std@@@1@0Uforward_iterator_tag@1@@Z DB '1'
	DB	' 16 4 6 _Guard'
CONST	ENDS
;	COMDAT voltbl
voltbl	SEGMENT
_volmd	DB	016H
	DB	023H
voltbl	ENDS
;	COMDAT voltbl
voltbl	SEGMENT
_volmd	DW	032H
	DW	01bdH
voltbl	ENDS
;	COMDAT xdata$x
xdata$x	SEGMENT
__unwindtable$??$_Uninitialized_copy@PBHV?$allocator@H@std@@@std@@YAPAHQBH0PAHAAV?$allocator@H@0@@Z DD 0ffffffffH
	DD	FLAT:__unwindfunclet$??$_Uninitialized_copy@PBHV?$allocator@H@std@@@std@@YAPAHQBH0PAHAAV?$allocator@H@0@@Z$0
__ehfuncinfo$??$_Uninitialized_copy@PBHV?$allocator@H@std@@@std@@YAPAHQBH0PAHAAV?$allocator@H@0@@Z DD 019930522H
	DD	01H
	DD	FLAT:__unwindtable$??$_Uninitialized_copy@PBHV?$allocator@H@std@@@std@@YAPAHQBH0PAHAAV?$allocator@H@0@@Z
	DD	2 DUP(00H)
	DD	2 DUP(00H)
	DD	00H
	DD	01H
xdata$x	ENDS
;	COMDAT CONST
CONST	SEGMENT
__L__asan_gen_.??$_Uninitialized_copy@PBHV?$allocator@H@std@@@std@@YAPAHQBH0PAHAAV?$allocator@H@0@@Z DB '1'
	DB	' 16 12 8 _Backout'
CONST	ENDS
;	COMDAT voltbl
voltbl	SEGMENT
_volmd	DB	019H
	DB	026H
voltbl	ENDS
;	COMDAT voltbl
voltbl	SEGMENT
_volmd	DW	032H
	DW	0268H
voltbl	ENDS
;	COMDAT xdata$x
xdata$x	SEGMENT
__unwindtable$??$_Range_construct_or_tidy@PBH@?$vector@HV?$allocator@H@std@@@std@@AAEXPBH0Uforward_iterator_tag@1@@Z DD 0ffffffffH
	DD	FLAT:__unwindfunclet$??$_Range_construct_or_tidy@PBH@?$vector@HV?$allocator@H@std@@@std@@AAEXPBH0Uforward_iterator_tag@1@@Z$0
__ehfuncinfo$??$_Range_construct_or_tidy@PBH@?$vector@HV?$allocator@H@std@@@std@@AAEXPBH0Uforward_iterator_tag@1@@Z DD 019930522H
	DD	01H
	DD	FLAT:__unwindtable$??$_Range_construct_or_tidy@PBH@?$vector@HV?$allocator@H@std@@@std@@AAEXPBH0Uforward_iterator_tag@1@@Z
	DD	2 DUP(00H)
	DD	2 DUP(00H)
	DD	00H
	DD	01H
xdata$x	ENDS
;	COMDAT CONST
CONST	SEGMENT
__L__asan_gen_.??$_Range_construct_or_tidy@PBH@?$vector@HV?$allocator@H@std@@@std@@AAEXPBH0Uforward_iterator_tag@1@@Z DB '1'
	DB	' 16 4 6 _Guard'
CONST	ENDS
;	COMDAT CONST
CONST	SEGMENT
__L__asan_gen_.??0?$_Container_proxy_ptr12@V?$allocator@U_Container_proxy@std@@@std@@@std@@QAE@AAV?$allocator@U_Container_proxy@std@@@1@AAU_Container_base12@1@@Z DB '1'
	DB	' 16 4 18 compiler temporary'
CONST	ENDS
;	COMDAT voltbl
voltbl	SEGMENT
_volmd	DB	09H
voltbl	ENDS
;	COMDAT xdata$x
xdata$x	SEGMENT
__ehfuncinfo$?_Tidy@?$vector@V?$vector@HV?$allocator@H@std@@@std@@V?$allocator@V?$vector@HV?$allocator@H@std@@@std@@@2@@std@@AAEXXZ DD 019930522H
	DD	00H
	DD	00H
	DD	2 DUP(00H)
	DD	2 DUP(00H)
	DD	00H
	DD	05H
xdata$x	ENDS
;	COMDAT CONST
CONST	SEGMENT
__L__asan_gen_.?max_size@?$vector@V?$vector@HV?$allocator@H@std@@@std@@V?$allocator@V?$vector@HV?$allocator@H@std@@@std@@@2@@std@@QBEIXZ DB '2'
	DB	' 16 4 18 compiler temporary 32 4 18 compiler temporary'
CONST	ENDS
;	COMDAT voltbl
voltbl	SEGMENT
_volmd	DW	023H
	DW	0133H
voltbl	ENDS
;	COMDAT CONST
CONST	SEGMENT
__L__asan_gen_.??1?$vector@V?$vector@HV?$allocator@H@std@@@std@@V?$allocator@V?$vector@HV?$allocator@H@std@@@std@@@2@@std@@QAE@XZ DB '2'
	DB	' 16 1 4 $S10 32 4 18 compiler temporary'
CONST	ENDS
;	COMDAT voltbl
voltbl	SEGMENT
_volmd	DB	019H
	DB	026H
voltbl	ENDS
;	COMDAT voltbl
voltbl	SEGMENT
_volmd	DW	032H
	DW	01d2H
voltbl	ENDS
;	COMDAT xdata$x
xdata$x	SEGMENT
__unwindtable$??0?$vector@V?$vector@HV?$allocator@H@std@@@std@@V?$allocator@V?$vector@HV?$allocator@H@std@@@std@@@2@@std@@QAE@V?$initializer_list@V?$vector@HV?$allocator@H@std@@@std@@@1@ABV?$allocator@V?$vector@HV?$allocator@H@std@@@std@@@1@@Z DD 0ffffffffH
	DD	FLAT:__unwindfunclet$??0?$vector@V?$vector@HV?$allocator@H@std@@@std@@V?$allocator@V?$vector@HV?$allocator@H@std@@@std@@@2@@std@@QAE@V?$initializer_list@V?$vector@HV?$allocator@H@std@@@std@@@1@ABV?$allocator@V?$vector@HV?$allocator@H@std@@@std@@@1@@Z$0
__ehfuncinfo$??0?$vector@V?$vector@HV?$allocator@H@std@@@std@@V?$allocator@V?$vector@HV?$allocator@H@std@@@std@@@2@@std@@QAE@V?$initializer_list@V?$vector@HV?$allocator@H@std@@@std@@@1@ABV?$allocator@V?$vector@HV?$allocator@H@std@@@std@@@1@@Z DD 019930522H
	DD	01H
	DD	FLAT:__unwindtable$??0?$vector@V?$vector@HV?$allocator@H@std@@@std@@V?$allocator@V?$vector@HV?$allocator@H@std@@@std@@@2@@std@@QAE@V?$initializer_list@V?$vector@HV?$allocator@H@std@@@std@@@1@ABV?$allocator@V?$vector@HV?$allocator@H@std@@@std@@@1@@Z
	DD	2 DUP(00H)
	DD	2 DUP(00H)
	DD	00H
	DD	01H
xdata$x	ENDS
;	COMDAT CONST
CONST	SEGMENT
__L__asan_gen_.??0?$vector@V?$vector@HV?$allocator@H@std@@@std@@V?$allocator@V?$vector@HV?$allocator@H@std@@@std@@@2@@std@@QAE@V?$initializer_list@V?$vector@HV?$allocator@H@std@@@std@@@1@ABV?$allocator@V?$vector@HV?$allocator@H@std@@@std@@@1@@Z DB '3'
	DB	' 16 1 3 $S8 32 8 6 _Proxy 48 1 18 compiler temporary'
CONST	ENDS
;	COMDAT voltbl
voltbl	SEGMENT
_volmd	DB	09H
voltbl	ENDS
;	COMDAT xdata$x
xdata$x	SEGMENT
__ehfuncinfo$?_Tidy@?$vector@HV?$allocator@H@std@@@std@@AAEXXZ DD 019930522H
	DD	00H
	DD	00H
	DD	2 DUP(00H)
	DD	2 DUP(00H)
	DD	00H
	DD	05H
xdata$x	ENDS
;	COMDAT CONST
CONST	SEGMENT
__L__asan_gen_.?max_size@?$vector@HV?$allocator@H@std@@@std@@QBEIXZ DB '2'
	DB	' 16 4 18 compiler temporary 32 4 18 compiler temporary'
CONST	ENDS
;	COMDAT voltbl
voltbl	SEGMENT
_volmd	DW	023H
	DW	0133H
voltbl	ENDS
;	COMDAT CONST
CONST	SEGMENT
__L__asan_gen_.??1?$vector@HV?$allocator@H@std@@@std@@QAE@XZ DB '2 16 1 4'
	DB	' $S13 32 4 18 compiler temporary'
CONST	ENDS
;	COMDAT voltbl
voltbl	SEGMENT
_volmd	DB	024H
	DB	031H
voltbl	ENDS
;	COMDAT voltbl
voltbl	SEGMENT
_volmd	DW	032H
	DW	03f7H
voltbl	ENDS
;	COMDAT xdata$x
xdata$x	SEGMENT
__unwindtable$??0?$vector@HV?$allocator@H@std@@@std@@QAE@ABV01@@Z DD 0ffffffffH
	DD	FLAT:__unwindfunclet$??0?$vector@HV?$allocator@H@std@@@std@@QAE@ABV01@@Z$0
	DD	00H
	DD	FLAT:__unwindfunclet$??0?$vector@HV?$allocator@H@std@@@std@@QAE@ABV01@@Z$1
__ehfuncinfo$??0?$vector@HV?$allocator@H@std@@@std@@QAE@ABV01@@Z DD 019930522H
	DD	02H
	DD	FLAT:__unwindtable$??0?$vector@HV?$allocator@H@std@@@std@@QAE@ABV01@@Z
	DD	2 DUP(00H)
	DD	2 DUP(00H)
	DD	00H
	DD	01H
xdata$x	ENDS
;	COMDAT CONST
CONST	SEGMENT
__L__asan_gen_.??0?$vector@HV?$allocator@H@std@@@std@@QAE@ABV01@@Z DB '4 '
	DB	'16 1 18 compiler temporary 32 1 3 $S9 48 8 6 _Proxy 64 4 6 _G'
	DB	'uard'
CONST	ENDS
;	COMDAT voltbl
voltbl	SEGMENT
_volmd	DB	019H
	DB	026H
voltbl	ENDS
;	COMDAT voltbl
voltbl	SEGMENT
_volmd	DW	032H
	DW	01d2H
voltbl	ENDS
;	COMDAT xdata$x
xdata$x	SEGMENT
__unwindtable$??0?$vector@HV?$allocator@H@std@@@std@@QAE@V?$initializer_list@H@1@ABV?$allocator@H@1@@Z DD 0ffffffffH
	DD	FLAT:__unwindfunclet$??0?$vector@HV?$allocator@H@std@@@std@@QAE@V?$initializer_list@H@1@ABV?$allocator@H@1@@Z$0
__ehfuncinfo$??0?$vector@HV?$allocator@H@std@@@std@@QAE@V?$initializer_list@H@1@ABV?$allocator@H@1@@Z DD 019930522H
	DD	01H
	DD	FLAT:__unwindtable$??0?$vector@HV?$allocator@H@std@@@std@@QAE@V?$initializer_list@H@1@ABV?$allocator@H@1@@Z
	DD	2 DUP(00H)
	DD	2 DUP(00H)
	DD	00H
	DD	01H
xdata$x	ENDS
;	COMDAT CONST
CONST	SEGMENT
__L__asan_gen_.??0?$vector@HV?$allocator@H@std@@@std@@QAE@V?$initializer_list@H@1@ABV?$allocator@H@1@@Z DB '3'
	DB	' 16 1 3 $S7 32 8 6 _Proxy 48 1 18 compiler temporary'
CONST	ENDS
;	COMDAT CONST
CONST	SEGMENT
__L__asan_gen_.?_Trim@?$vector@_NV?$allocator@_N@std@@@std@@QAEXI@Z DB '4'
	DB	' 16 12 18 compiler temporary 32 12 18 compiler temporary 48 1'
	DB	'2 18 compiler temporary 64 12 18 compiler temporary'
CONST	ENDS
;	COMDAT voltbl
voltbl	SEGMENT
_volmd	DW	023H
	DW	0172H
voltbl	ENDS
;	COMDAT CONST
CONST	SEGMENT
__L__asan_gen_.??A?$vector@_NV?$allocator@_N@std@@@std@@QAE?AV?$_Vb_reference@U?$_Wrap_alloc@V?$allocator@I@std@@@std@@@1@I@Z DB '1'
	DB	' 16 16 3 _It'
CONST	ENDS
;	COMDAT voltbl
voltbl	SEGMENT
_volmd	DB	016H
voltbl	ENDS
;	COMDAT xdata$x
xdata$x	SEGMENT
__unwindtable$??0?$vector@_NV?$allocator@_N@std@@@std@@QAE@IABV?$allocator@_N@1@@Z DD 0ffffffffH
	DD	FLAT:__unwindfunclet$??0?$vector@_NV?$allocator@_N@std@@@std@@QAE@IABV?$allocator@_N@1@@Z$0
__ehfuncinfo$??0?$vector@_NV?$allocator@_N@std@@@std@@QAE@IABV?$allocator@_N@1@@Z DD 019930522H
	DD	01H
	DD	FLAT:__unwindtable$??0?$vector@_NV?$allocator@_N@std@@@std@@QAE@IABV?$allocator@_N@1@@Z
	DD	2 DUP(00H)
	DD	2 DUP(00H)
	DD	00H
	DD	01H
xdata$x	ENDS
;	COMDAT CONST
CONST	SEGMENT
__L__asan_gen_.??0?$vector@_NV?$allocator@_N@std@@@std@@QAE@IABV?$allocator@_N@1@@Z DB '1'
	DB	' 16 1 18 compiler temporary'
CONST	ENDS
;	COMDAT voltbl
voltbl	SEGMENT
_volmd	DB	017H
	DB	021H
voltbl	ENDS
;	COMDAT voltbl
voltbl	SEGMENT
_volmd	DB	02fH
	DB	0f6H
voltbl	ENDS
;	COMDAT xdata$x
xdata$x	SEGMENT
__unwindtable$?_Orphan_range_locked@?$vector@IV?$allocator@I@std@@@std@@ABEXPAI0@Z DD 0ffffffffH
	DD	FLAT:__unwindfunclet$?_Orphan_range_locked@?$vector@IV?$allocator@I@std@@@std@@ABEXPAI0@Z$0
__ehfuncinfo$?_Orphan_range_locked@?$vector@IV?$allocator@I@std@@@std@@ABEXPAI0@Z DD 019930522H
	DD	01H
	DD	FLAT:__unwindtable$?_Orphan_range_locked@?$vector@IV?$allocator@I@std@@@std@@ABEXPAI0@Z
	DD	2 DUP(00H)
	DD	2 DUP(00H)
	DD	00H
	DD	01H
xdata$x	ENDS
;	COMDAT CONST
CONST	SEGMENT
__L__asan_gen_.?_Orphan_range_locked@?$vector@IV?$allocator@I@std@@@std@@ABEXPAI0@Z DB '1'
	DB	' 16 4 5 _Lock'
CONST	ENDS
;	COMDAT voltbl
voltbl	SEGMENT
_volmd	DB	09H
voltbl	ENDS
;	COMDAT xdata$x
xdata$x	SEGMENT
__ehfuncinfo$?_Tidy@?$vector@IV?$allocator@I@std@@@std@@AAEXXZ DD 019930522H
	DD	00H
	DD	00H
	DD	2 DUP(00H)
	DD	2 DUP(00H)
	DD	00H
	DD	05H
xdata$x	ENDS
;	COMDAT CONST
CONST	SEGMENT
__L__asan_gen_.?max_size@?$vector@IV?$allocator@I@std@@@std@@QBEIXZ DB '2'
	DB	' 16 4 18 compiler temporary 32 4 18 compiler temporary'
CONST	ENDS
;	COMDAT voltbl
voltbl	SEGMENT
_volmd	DB	09H
voltbl	ENDS
;	COMDAT xdata$x
xdata$x	SEGMENT
__ehfuncinfo$?erase@?$vector@IV?$allocator@I@std@@@std@@QAE?AV?$_Vector_iterator@V?$_Vector_val@U?$_Simple_types@I@std@@@std@@@2@V?$_Vector_const_iterator@V?$_Vector_val@U?$_Simple_types@I@std@@@std@@@2@0@Z DD 019930522H
	DD	00H
	DD	00H
	DD	2 DUP(00H)
	DD	2 DUP(00H)
	DD	00H
	DD	05H
xdata$x	ENDS
;	COMDAT voltbl
voltbl	SEGMENT
_volmd	DW	023H
	DW	0133H
voltbl	ENDS
;	COMDAT CONST
CONST	SEGMENT
__L__asan_gen_.??1?$vector@IV?$allocator@I@std@@@std@@QAE@XZ DB '2 16 1 4'
	DB	' $S42 32 4 18 compiler temporary'
CONST	ENDS
;	COMDAT voltbl
voltbl	SEGMENT
_volmd	DB	024H
	DB	031H
voltbl	ENDS
;	COMDAT voltbl
voltbl	SEGMENT
_volmd	DW	032H
	DW	03f7H
voltbl	ENDS
;	COMDAT xdata$x
xdata$x	SEGMENT
__unwindtable$??0?$vector@IV?$allocator@I@std@@@std@@QAE@ABV01@@Z DD 0ffffffffH
	DD	FLAT:__unwindfunclet$??0?$vector@IV?$allocator@I@std@@@std@@QAE@ABV01@@Z$0
	DD	00H
	DD	FLAT:__unwindfunclet$??0?$vector@IV?$allocator@I@std@@@std@@QAE@ABV01@@Z$1
__ehfuncinfo$??0?$vector@IV?$allocator@I@std@@@std@@QAE@ABV01@@Z DD 019930522H
	DD	02H
	DD	FLAT:__unwindtable$??0?$vector@IV?$allocator@I@std@@@std@@QAE@ABV01@@Z
	DD	2 DUP(00H)
	DD	2 DUP(00H)
	DD	00H
	DD	01H
xdata$x	ENDS
;	COMDAT CONST
CONST	SEGMENT
__L__asan_gen_.??0?$vector@IV?$allocator@I@std@@@std@@QAE@ABV01@@Z DB '4 '
	DB	'16 1 18 compiler temporary 32 1 4 $S43 48 8 6 _Proxy 64 4 6 _'
	DB	'Guard'
CONST	ENDS
;	COMDAT voltbl
voltbl	SEGMENT
_volmd	DW	023H
	DW	013eH
voltbl	ENDS
;	COMDAT CONST
CONST	SEGMENT
__L__asan_gen_.??1?$_Vb_val@V?$allocator@_N@std@@@std@@QAE@XZ DB '2 16 1 '
	DB	'4 $S39 32 4 18 compiler temporary'
CONST	ENDS
;	COMDAT voltbl
voltbl	SEGMENT
_volmd	DB	019H
voltbl	ENDS
;	COMDAT xdata$x
xdata$x	SEGMENT
__unwindtable$??0?$_Vb_val@V?$allocator@_N@std@@@std@@QAE@ABV01@@Z DD 0ffffffffH
	DD	FLAT:__unwindfunclet$??0?$_Vb_val@V?$allocator@_N@std@@@std@@QAE@ABV01@@Z$0
__ehfuncinfo$??0?$_Vb_val@V?$allocator@_N@std@@@std@@QAE@ABV01@@Z DD 019930522H
	DD	01H
	DD	FLAT:__unwindtable$??0?$_Vb_val@V?$allocator@_N@std@@@std@@QAE@ABV01@@Z
	DD	2 DUP(00H)
	DD	2 DUP(00H)
	DD	00H
	DD	01H
xdata$x	ENDS
;	COMDAT CONST
CONST	SEGMENT
__L__asan_gen_.??0?$_Vb_val@V?$allocator@_N@std@@@std@@QAE@ABV01@@Z DB '1'
	DB	' 16 1 18 compiler temporary'
CONST	ENDS
;	COMDAT voltbl
voltbl	SEGMENT
_volmd	DB	019H
voltbl	ENDS
;	COMDAT xdata$x
xdata$x	SEGMENT
__unwindtable$??0?$_Vb_val@V?$allocator@_N@std@@@std@@QAE@IAB_NABV?$allocator@_N@1@@Z DD 0ffffffffH
	DD	FLAT:__unwindfunclet$??0?$_Vb_val@V?$allocator@_N@std@@@std@@QAE@IAB_NABV?$allocator@_N@1@@Z$0
__ehfuncinfo$??0?$_Vb_val@V?$allocator@_N@std@@@std@@QAE@IAB_NABV?$allocator@_N@1@@Z DD 019930522H
	DD	01H
	DD	FLAT:__unwindtable$??0?$_Vb_val@V?$allocator@_N@std@@@std@@QAE@IAB_NABV?$allocator@_N@1@@Z
	DD	2 DUP(00H)
	DD	2 DUP(00H)
	DD	00H
	DD	01H
xdata$x	ENDS
;	COMDAT CONST
CONST	SEGMENT
__L__asan_gen_.??0?$_Vb_val@V?$allocator@_N@std@@@std@@QAE@IAB_NABV?$allocator@_N@1@@Z DB '3'
	DB	' 16 1 18 compiler temporary 32 4 18 compiler temporary 48 1 1'
	DB	'8 compiler temporary'
CONST	ENDS
;	COMDAT CONST
CONST	SEGMENT
__L__asan_gen_.??$_Getvals@_W@?$time_get@_WV?$istreambuf_iterator@_WU?$char_traits@_W@std@@@std@@@std@@IAEX_WABV_Locinfo@1@@Z DB '1'
	DB	' 16 44 18 compiler temporary'
CONST	ENDS
;	COMDAT CONST
CONST	SEGMENT
__L__asan_gen_.??$_Getvals@_W@?$time_get@DV?$istreambuf_iterator@DU?$char_traits@D@std@@@std@@@std@@IAEX_WABV_Locinfo@1@@Z DB '1'
	DB	' 16 44 18 compiler temporary'
CONST	ENDS
;	COMDAT voltbl
voltbl	SEGMENT
_volmd	DW	023H
	DW	022dH
voltbl	ENDS
;	COMDAT CONST
CONST	SEGMENT
__L__asan_gen_.??$_Maklocstr@_W@std@@YAPA_WPBDPA_WABU_Cvtvec@@@Z DB '3 16'
	DB	' 8 6 _Mbst1 32 2 3 _Wc 48 8 6 _Mbst2'
CONST	ENDS
;	COMDAT voltbl
voltbl	SEGMENT
_volmd	DB	09H
voltbl	ENDS
;	COMDAT xdata$x
xdata$x	SEGMENT
__ehfuncinfo$?_Tidy_init@?$basic_string@DU?$char_traits@D@std@@V?$allocator@D@2@@std@@AAEXXZ DD 019930522H
	DD	00H
	DD	00H
	DD	2 DUP(00H)
	DD	2 DUP(00H)
	DD	00H
	DD	05H
xdata$x	ENDS
;	COMDAT CONST
CONST	SEGMENT
__L__asan_gen_.?_Tidy_init@?$basic_string@DU?$char_traits@D@std@@V?$allocator@D@2@@std@@AAEXXZ DB '1'
	DB	' 16 1 18 compiler temporary'
CONST	ENDS
;	COMDAT voltbl
voltbl	SEGMENT
_volmd	DW	023H
	DW	0253H
voltbl	ENDS
;	COMDAT CONST
CONST	SEGMENT
__L__asan_gen_.?_Calculate_growth@?$basic_string@DU?$char_traits@D@std@@V?$allocator@D@2@@std@@CAIIII@Z DB '2'
	DB	' 16 4 7 _Masked 32 4 18 compiler temporary'
CONST	ENDS
;	COMDAT voltbl
voltbl	SEGMENT
_volmd	DW	023H
	DW	02c7H
voltbl	ENDS
;	COMDAT CONST
CONST	SEGMENT
__L__asan_gen_.?max_size@?$basic_string@DU?$char_traits@D@std@@V?$allocator@D@2@@std@@QBEIXZ DB '4'
	DB	' 16 4 10 _Alloc_max 32 4 18 compiler temporary 48 4 18 compil'
	DB	'er temporary 64 4 18 compiler temporary'
CONST	ENDS
;	COMDAT CONST
CONST	SEGMENT
__L__asan_gen_.?assign@?$basic_string@DU?$char_traits@D@std@@V?$allocator@D@2@@std@@QAEAAV12@QBDI@Z DB '1'
	DB	' 16 1 18 compiler temporary'
CONST	ENDS
;	COMDAT voltbl
voltbl	SEGMENT
_volmd	DB	01eH
	DB	02bH
voltbl	ENDS
;	COMDAT voltbl
voltbl	SEGMENT
_volmd	DW	032H
	DW	0153H
voltbl	ENDS
;	COMDAT xdata$x
xdata$x	SEGMENT
__unwindtable$??0?$basic_string@DU?$char_traits@D@std@@V?$allocator@D@2@@std@@QAE@QBD@Z DD 0ffffffffH
	DD	FLAT:__unwindfunclet$??0?$basic_string@DU?$char_traits@D@std@@V?$allocator@D@2@@std@@QAE@QBD@Z$0
	DD	00H
	DD	FLAT:__unwindfunclet$??0?$basic_string@DU?$char_traits@D@std@@V?$allocator@D@2@@std@@QAE@QBD@Z$1
__ehfuncinfo$??0?$basic_string@DU?$char_traits@D@std@@V?$allocator@D@2@@std@@QAE@QBD@Z DD 019930522H
	DD	02H
	DD	FLAT:__unwindtable$??0?$basic_string@DU?$char_traits@D@std@@V?$allocator@D@2@@std@@QAE@QBD@Z
	DD	2 DUP(00H)
	DD	2 DUP(00H)
	DD	00H
	DD	01H
xdata$x	ENDS
;	COMDAT CONST
CONST	SEGMENT
__L__asan_gen_.??0?$basic_string@DU?$char_traits@D@std@@V?$allocator@D@2@@std@@QAE@QBD@Z DB '2'
	DB	' 16 1 4 $S36 32 8 6 _Proxy'
CONST	ENDS
;	COMDAT voltbl
voltbl	SEGMENT
_volmd	DB	020H
	DB	0bbH
voltbl	ENDS
;	COMDAT CONST
CONST	SEGMENT
__L__asan_gen_.?_Orphan_me_locked_v3@_Iterator_base12@std@@AAEXXZ DB '1 1'
	DB	'6 4 5 _Lock'
CONST	ENDS
;	COMDAT voltbl
voltbl	SEGMENT
_volmd	DB	020H
	DB	0c0H
voltbl	ENDS
;	COMDAT CONST
CONST	SEGMENT
__L__asan_gen_.?_Adopt_locked@_Iterator_base12@std@@AAEXPBU_Container_base12@2@@Z DB '1'
	DB	' 16 4 5 _Lock'
CONST	ENDS
;	COMDAT voltbl
voltbl	SEGMENT
_volmd	DB	020H
	DB	0c0H
voltbl	ENDS
;	COMDAT CONST
CONST	SEGMENT
__L__asan_gen_.?_Assign_locked@_Iterator_base12@std@@AAEXABU12@@Z DB '1 1'
	DB	'6 4 5 _Lock'
CONST	ENDS
;	COMDAT voltbl
voltbl	SEGMENT
_volmd	DB	020H
	DB	0bbH
voltbl	ENDS
;	COMDAT CONST
CONST	SEGMENT
__L__asan_gen_.?_Orphan_all_locked_v3@_Container_base12@std@@AAEXXZ DB '1'
	DB	' 16 4 5 _Lock'
CONST	ENDS
;	COMDAT CONST
CONST	SEGMENT
__L__asan_gen_.?_Throw_bad_array_new_length@std@@YAXXZ DB '1 16 12 18 com'
	DB	'piler temporary'
CONST	ENDS
; Function compile flags: /Odt
;	COMDAT __JustMyCode_Default
_TEXT	SEGMENT
__JustMyCode_Default PROC				; COMDAT
  00000	55		 push	 ebp
  00001	8b ec		 mov	 ebp, esp
  00003	5d		 pop	 ebp
  00004	c3		 ret	 0
__JustMyCode_Default ENDP
_TEXT	ENDS
; Function compile flags: /Odsp /RTCu
;	COMDAT ??_ESprite@sf@@W3AEPAXI@Z
_TEXT	SEGMENT
??_ESprite@sf@@W3AEPAXI@Z PROC				; [thunk]:sf::Sprite::`vector deleting destructor', COMDAT
  00000	83 e9 04	 sub	 ecx, 4
  00003	e9 00 00 00 00	 jmp	 ??_ESprite@sf@@UAEPAXI@Z
??_ESprite@sf@@W3AEPAXI@Z ENDP				; [thunk]:sf::Sprite::`vector deleting destructor'
_TEXT	ENDS
; Function compile flags: /Odtp /RTCu
; File C:\Program Files (x86)\Microsoft Visual Studio\2019\Community\VC\Tools\MSVC\14.29.30133\include\xutility
;	COMDAT ??$construct_at@IAAIX@std@@YAPAIQAIAAI@Z
_TEXT	SEGMENT
tv77 = -24						; size = 4
tv72 = -20						; size = 4
$T1 = -16						; size = 4
tv80 = -12						; size = 4
tv90 = -8						; size = 4
tv83 = -2						; size = 1
tv93 = -1						; size = 1
__Location$ = 8						; size = 4
_<_Args_0>$ = 12					; size = 4
??$construct_at@IAAIX@std@@YAPAIQAIAAI@Z PROC		; std::construct_at<unsigned int,unsigned int &,void>, COMDAT

; 143  :     noexcept(::new (_Voidify_iter(_Location)) _Ty(_STD forward<_Types>(_Args)...))) /* strengthened */ {

  00000	55		 push	 ebp
  00001	8b ec		 mov	 ebp, esp
  00003	83 ec 18	 sub	 esp, 24			; 00000018H
  00006	b9 00 00 00 00	 mov	 ecx, OFFSET __12269DE6_xutility
  0000b	e8 00 00 00 00	 call	 @__CheckForDebuggerJustMyCode@4

; 144  :     return ::new (_Voidify_iter(_Location)) _Ty(_STD forward<_Types>(_Args)...);

  00010	8b 45 08	 mov	 eax, DWORD PTR __Location$[ebp]
  00013	50		 push	 eax
  00014	e8 00 00 00 00	 call	 ??$_Voidify_iter@PAI@std@@YAPAXPAI@Z ; std::_Voidify_iter<unsigned int *>
  00019	83 c4 04	 add	 esp, 4
  0001c	50		 push	 eax
  0001d	6a 04		 push	 4
  0001f	e8 00 00 00 00	 call	 ??2@YAPAXIPAX@Z		; operator new
  00024	83 c4 08	 add	 esp, 8
  00027	89 45 f0	 mov	 DWORD PTR $T1[ebp], eax
  0002a	8b 4d 0c	 mov	 ecx, DWORD PTR _<_Args_0>$[ebp]
  0002d	51		 push	 ecx
  0002e	e8 00 00 00 00	 call	 ??$forward@AAI@std@@YAAAIAAI@Z ; std::forward<unsigned int &>
  00033	83 c4 04	 add	 esp, 4
  00036	89 45 ec	 mov	 DWORD PTR tv72[ebp], eax
  00039	8b 55 ec	 mov	 edx, DWORD PTR tv72[ebp]
  0003c	89 55 f8	 mov	 DWORD PTR tv90[ebp], edx
  0003f	8b 45 f8	 mov	 eax, DWORD PTR tv90[ebp]
  00042	c1 e8 03	 shr	 eax, 3
  00045	8a 88 00 00 00
	30		 mov	 cl, BYTE PTR [eax+805306368]
  0004b	88 4d ff	 mov	 BYTE PTR tv93[ebp], cl
  0004e	80 7d ff 00	 cmp	 BYTE PTR tv93[ebp], 0
  00052	74 1a		 je	 SHORT $LN4@construct_
  00054	8a 55 f8	 mov	 dl, BYTE PTR tv90[ebp]
  00057	80 e2 07	 and	 dl, 7
  0005a	80 c2 03	 add	 dl, 3
  0005d	3a 55 ff	 cmp	 dl, BYTE PTR tv93[ebp]
  00060	7c 0c		 jl	 SHORT $LN4@construct_
  00062	8b 45 f8	 mov	 eax, DWORD PTR tv90[ebp]
  00065	50		 push	 eax
  00066	e8 00 00 00 00	 call	 ___asan_report_load4
  0006b	83 c4 04	 add	 esp, 4
$LN4@construct_:
  0006e	8b 4d f0	 mov	 ecx, DWORD PTR $T1[ebp]
  00071	89 4d e8	 mov	 DWORD PTR tv77[ebp], ecx
  00074	8b 55 e8	 mov	 edx, DWORD PTR tv77[ebp]
  00077	89 55 f4	 mov	 DWORD PTR tv80[ebp], edx
  0007a	8b 45 f4	 mov	 eax, DWORD PTR tv80[ebp]
  0007d	c1 e8 03	 shr	 eax, 3
  00080	8a 88 00 00 00
	30		 mov	 cl, BYTE PTR [eax+805306368]
  00086	88 4d fe	 mov	 BYTE PTR tv83[ebp], cl
  00089	80 7d fe 00	 cmp	 BYTE PTR tv83[ebp], 0
  0008d	74 1a		 je	 SHORT $LN3@construct_
  0008f	8a 55 f4	 mov	 dl, BYTE PTR tv80[ebp]
  00092	80 e2 07	 and	 dl, 7
  00095	80 c2 03	 add	 dl, 3
  00098	3a 55 fe	 cmp	 dl, BYTE PTR tv83[ebp]
  0009b	7c 0c		 jl	 SHORT $LN3@construct_
  0009d	8b 45 f4	 mov	 eax, DWORD PTR tv80[ebp]
  000a0	50		 push	 eax
  000a1	e8 00 00 00 00	 call	 ___asan_report_store4
  000a6	83 c4 04	 add	 esp, 4
$LN3@construct_:
  000a9	8b 4d f0	 mov	 ecx, DWORD PTR $T1[ebp]
  000ac	8b 55 ec	 mov	 edx, DWORD PTR tv72[ebp]
  000af	8b 02		 mov	 eax, DWORD PTR [edx]
  000b1	89 01		 mov	 DWORD PTR [ecx], eax
  000b3	8b 45 f0	 mov	 eax, DWORD PTR $T1[ebp]

; 145  : }

  000b6	8b e5		 mov	 esp, ebp
  000b8	5d		 pop	 ebp
  000b9	c3		 ret	 0
??$construct_at@IAAIX@std@@YAPAIQAIAAI@Z ENDP		; std::construct_at<unsigned int,unsigned int &,void>
_TEXT	ENDS
; Function compile flags: /Odtp /RTCu
; File C:\Program Files (x86)\Microsoft Visual Studio\2019\Community\VC\Tools\MSVC\14.29.30133\include\xutility
;	COMDAT ??$_Voidify_iter@PAI@std@@YAPAXPAI@Z
_TEXT	SEGMENT
__It$ = 8						; size = 4
??$_Voidify_iter@PAI@std@@YAPAXPAI@Z PROC		; std::_Voidify_iter<unsigned int *>, COMDAT

; 130  : _NODISCARD constexpr void* _Voidify_iter(_Iter _It) noexcept {

  00000	55		 push	 ebp
  00001	8b ec		 mov	 ebp, esp
  00003	b9 00 00 00 00	 mov	 ecx, OFFSET __12269DE6_xutility
  00008	e8 00 00 00 00	 call	 @__CheckForDebuggerJustMyCode@4

; 131  :     if constexpr (is_pointer_v<_Iter>) {
; 132  :         return const_cast<void*>(static_cast<const volatile void*>(_It));

  0000d	8b 45 08	 mov	 eax, DWORD PTR __It$[ebp]

; 133  :     } else {
; 134  :         return const_cast<void*>(static_cast<const volatile void*>(_STD addressof(*_It)));
; 135  :     }
; 136  : }

  00010	5d		 pop	 ebp
  00011	c3		 ret	 0
??$_Voidify_iter@PAI@std@@YAPAXPAI@Z ENDP		; std::_Voidify_iter<unsigned int *>
_TEXT	ENDS
; Function compile flags: /Odtp /RTCu
; File C:\Program Files (x86)\Microsoft Visual Studio\2019\Community\VC\Tools\MSVC\14.29.30133\include\xutility
;	COMDAT ??$construct_at@IABIX@std@@YAPAIQAIABI@Z
_TEXT	SEGMENT
tv77 = -24						; size = 4
tv72 = -20						; size = 4
$T1 = -16						; size = 4
tv80 = -12						; size = 4
tv90 = -8						; size = 4
tv83 = -2						; size = 1
tv93 = -1						; size = 1
__Location$ = 8						; size = 4
_<_Args_0>$ = 12					; size = 4
??$construct_at@IABIX@std@@YAPAIQAIABI@Z PROC		; std::construct_at<unsigned int,unsigned int const &,void>, COMDAT

; 143  :     noexcept(::new (_Voidify_iter(_Location)) _Ty(_STD forward<_Types>(_Args)...))) /* strengthened */ {

  00000	55		 push	 ebp
  00001	8b ec		 mov	 ebp, esp
  00003	83 ec 18	 sub	 esp, 24			; 00000018H
  00006	b9 00 00 00 00	 mov	 ecx, OFFSET __12269DE6_xutility
  0000b	e8 00 00 00 00	 call	 @__CheckForDebuggerJustMyCode@4

; 144  :     return ::new (_Voidify_iter(_Location)) _Ty(_STD forward<_Types>(_Args)...);

  00010	8b 45 08	 mov	 eax, DWORD PTR __Location$[ebp]
  00013	50		 push	 eax
  00014	e8 00 00 00 00	 call	 ??$_Voidify_iter@PAI@std@@YAPAXPAI@Z ; std::_Voidify_iter<unsigned int *>
  00019	83 c4 04	 add	 esp, 4
  0001c	50		 push	 eax
  0001d	6a 04		 push	 4
  0001f	e8 00 00 00 00	 call	 ??2@YAPAXIPAX@Z		; operator new
  00024	83 c4 08	 add	 esp, 8
  00027	89 45 f0	 mov	 DWORD PTR $T1[ebp], eax
  0002a	8b 4d 0c	 mov	 ecx, DWORD PTR _<_Args_0>$[ebp]
  0002d	51		 push	 ecx
  0002e	e8 00 00 00 00	 call	 ??$forward@ABI@std@@YAABIABI@Z ; std::forward<unsigned int const &>
  00033	83 c4 04	 add	 esp, 4
  00036	89 45 ec	 mov	 DWORD PTR tv72[ebp], eax
  00039	8b 55 ec	 mov	 edx, DWORD PTR tv72[ebp]
  0003c	89 55 f8	 mov	 DWORD PTR tv90[ebp], edx
  0003f	8b 45 f8	 mov	 eax, DWORD PTR tv90[ebp]
  00042	c1 e8 03	 shr	 eax, 3
  00045	8a 88 00 00 00
	30		 mov	 cl, BYTE PTR [eax+805306368]
  0004b	88 4d ff	 mov	 BYTE PTR tv93[ebp], cl
  0004e	80 7d ff 00	 cmp	 BYTE PTR tv93[ebp], 0
  00052	74 1a		 je	 SHORT $LN4@construct_
  00054	8a 55 f8	 mov	 dl, BYTE PTR tv90[ebp]
  00057	80 e2 07	 and	 dl, 7
  0005a	80 c2 03	 add	 dl, 3
  0005d	3a 55 ff	 cmp	 dl, BYTE PTR tv93[ebp]
  00060	7c 0c		 jl	 SHORT $LN4@construct_
  00062	8b 45 f8	 mov	 eax, DWORD PTR tv90[ebp]
  00065	50		 push	 eax
  00066	e8 00 00 00 00	 call	 ___asan_report_load4
  0006b	83 c4 04	 add	 esp, 4
$LN4@construct_:
  0006e	8b 4d f0	 mov	 ecx, DWORD PTR $T1[ebp]
  00071	89 4d e8	 mov	 DWORD PTR tv77[ebp], ecx
  00074	8b 55 e8	 mov	 edx, DWORD PTR tv77[ebp]
  00077	89 55 f4	 mov	 DWORD PTR tv80[ebp], edx
  0007a	8b 45 f4	 mov	 eax, DWORD PTR tv80[ebp]
  0007d	c1 e8 03	 shr	 eax, 3
  00080	8a 88 00 00 00
	30		 mov	 cl, BYTE PTR [eax+805306368]
  00086	88 4d fe	 mov	 BYTE PTR tv83[ebp], cl
  00089	80 7d fe 00	 cmp	 BYTE PTR tv83[ebp], 0
  0008d	74 1a		 je	 SHORT $LN3@construct_
  0008f	8a 55 f4	 mov	 dl, BYTE PTR tv80[ebp]
  00092	80 e2 07	 and	 dl, 7
  00095	80 c2 03	 add	 dl, 3
  00098	3a 55 fe	 cmp	 dl, BYTE PTR tv83[ebp]
  0009b	7c 0c		 jl	 SHORT $LN3@construct_
  0009d	8b 45 f4	 mov	 eax, DWORD PTR tv80[ebp]
  000a0	50		 push	 eax
  000a1	e8 00 00 00 00	 call	 ___asan_report_store4
  000a6	83 c4 04	 add	 esp, 4
$LN3@construct_:
  000a9	8b 4d f0	 mov	 ecx, DWORD PTR $T1[ebp]
  000ac	8b 55 ec	 mov	 edx, DWORD PTR tv72[ebp]
  000af	8b 02		 mov	 eax, DWORD PTR [edx]
  000b1	89 01		 mov	 DWORD PTR [ecx], eax
  000b3	8b 45 f0	 mov	 eax, DWORD PTR $T1[ebp]

; 145  : }

  000b6	8b e5		 mov	 esp, ebp
  000b8	5d		 pop	 ebp
  000b9	c3		 ret	 0
??$construct_at@IABIX@std@@YAPAIQAIABI@Z ENDP		; std::construct_at<unsigned int,unsigned int const &,void>
_TEXT	ENDS
; Function compile flags: /Odtp /RTCu
; File C:\Program Files (x86)\Microsoft Visual Studio\2019\Community\VC\Tools\MSVC\14.29.30133\include\tuple
;	COMDAT ??$?0U_Exact_args_t@std@@$0A@@?$tuple@$$V@std@@QAE@U_Exact_args_t@1@@Z
_TEXT	SEGMENT
_this$ = -4						; size = 4
___formal$ = 8						; size = 1
??$?0U_Exact_args_t@std@@$0A@@?$tuple@$$V@std@@QAE@U_Exact_args_t@1@@Z PROC ; std::tuple<>::tuple<><std::_Exact_args_t,0>, COMDAT
; _this$ = ecx

; 226  :     constexpr tuple(_Tag) noexcept /* strengthened */ {}

  00000	55		 push	 ebp
  00001	8b ec		 mov	 ebp, esp
  00003	51		 push	 ecx
  00004	89 4d fc	 mov	 DWORD PTR _this$[ebp], ecx
  00007	b9 00 00 00 00	 mov	 ecx, OFFSET __C69F69CF_tuple
  0000c	e8 00 00 00 00	 call	 @__CheckForDebuggerJustMyCode@4
  00011	8b 45 fc	 mov	 eax, DWORD PTR _this$[ebp]
  00014	8b e5		 mov	 esp, ebp
  00016	5d		 pop	 ebp
  00017	c2 04 00	 ret	 4
??$?0U_Exact_args_t@std@@$0A@@?$tuple@$$V@std@@QAE@U_Exact_args_t@1@@Z ENDP ; std::tuple<>::tuple<><std::_Exact_args_t,0>
_TEXT	ENDS
; Function compile flags: /Odtp /RTCu
; File C:\Program Files (x86)\Microsoft Visual Studio\2019\Community\VC\Tools\MSVC\14.29.30133\include\xmemory
;	COMDAT ??$construct@IABI@?$_Default_allocator_traits@V?$allocator@I@std@@@std@@SAXAAV?$allocator@I@1@QAIABI@Z
_TEXT	SEGMENT
tv84 = -24						; size = 4
tv79 = -20						; size = 4
$T1 = -16						; size = 4
tv87 = -12						; size = 4
tv129 = -8						; size = 4
tv90 = -2						; size = 1
tv132 = -1						; size = 1
___formal$ = 8						; size = 4
__Ptr$ = 12						; size = 4
_<_Args_0>$ = 16					; size = 4
??$construct@IABI@?$_Default_allocator_traits@V?$allocator@I@std@@@std@@SAXAAV?$allocator@I@1@QAIABI@Z PROC ; std::_Default_allocator_traits<std::allocator<unsigned int> >::construct<unsigned int,unsigned int const &>, COMDAT

; 707  :     static _CONSTEXPR20_DYNALLOC void construct(_Alloc&, _Objty* const _Ptr, _Types&&... _Args) {

  00000	55		 push	 ebp
  00001	8b ec		 mov	 ebp, esp
  00003	83 ec 18	 sub	 esp, 24			; 00000018H
  00006	b9 00 00 00 00	 mov	 ecx, OFFSET __79D216CD_xmemory
  0000b	e8 00 00 00 00	 call	 @__CheckForDebuggerJustMyCode@4

; 708  : #ifdef __cpp_lib_constexpr_dynamic_alloc
; 709  :         if (_STD is_constant_evaluated()) {

  00010	e8 00 00 00 00	 call	 ?is_constant_evaluated@std@@YA_NXZ ; std::is_constant_evaluated
  00015	0f b6 c0	 movzx	 eax, al
  00018	85 c0		 test	 eax, eax
  0001a	74 1e		 je	 SHORT $LN2@construct

; 710  :             _STD construct_at(_Ptr, _STD forward<_Types>(_Args)...);

  0001c	8b 4d 10	 mov	 ecx, DWORD PTR _<_Args_0>$[ebp]
  0001f	51		 push	 ecx
  00020	e8 00 00 00 00	 call	 ??$forward@ABI@std@@YAABIABI@Z ; std::forward<unsigned int const &>
  00025	83 c4 04	 add	 esp, 4
  00028	50		 push	 eax
  00029	8b 55 0c	 mov	 edx, DWORD PTR __Ptr$[ebp]
  0002c	52		 push	 edx
  0002d	e8 00 00 00 00	 call	 ??$construct_at@IABIX@std@@YAPAIQAIABI@Z ; std::construct_at<unsigned int,unsigned int const &,void>
  00032	83 c4 08	 add	 esp, 8

; 711  :         } else

  00035	e9 a3 00 00 00	 jmp	 $LN1@construct
$LN2@construct:

; 707  :     static _CONSTEXPR20_DYNALLOC void construct(_Alloc&, _Objty* const _Ptr, _Types&&... _Args) {

  0003a	8b 45 0c	 mov	 eax, DWORD PTR __Ptr$[ebp]
  0003d	50		 push	 eax
  0003e	e8 00 00 00 00	 call	 ??$_Voidify_iter@PAI@std@@YAPAXPAI@Z ; std::_Voidify_iter<unsigned int *>
  00043	83 c4 04	 add	 esp, 4
  00046	50		 push	 eax
  00047	6a 04		 push	 4
  00049	e8 00 00 00 00	 call	 ??2@YAPAXIPAX@Z		; operator new
  0004e	83 c4 08	 add	 esp, 8
  00051	89 45 f0	 mov	 DWORD PTR $T1[ebp], eax
  00054	8b 4d 10	 mov	 ecx, DWORD PTR _<_Args_0>$[ebp]
  00057	51		 push	 ecx
  00058	e8 00 00 00 00	 call	 ??$forward@ABI@std@@YAABIABI@Z ; std::forward<unsigned int const &>
  0005d	83 c4 04	 add	 esp, 4
  00060	89 45 ec	 mov	 DWORD PTR tv79[ebp], eax
  00063	8b 55 ec	 mov	 edx, DWORD PTR tv79[ebp]
  00066	89 55 f8	 mov	 DWORD PTR tv129[ebp], edx
  00069	8b 45 f8	 mov	 eax, DWORD PTR tv129[ebp]
  0006c	c1 e8 03	 shr	 eax, 3
  0006f	8a 88 00 00 00
	30		 mov	 cl, BYTE PTR [eax+805306368]
  00075	88 4d ff	 mov	 BYTE PTR tv132[ebp], cl
  00078	80 7d ff 00	 cmp	 BYTE PTR tv132[ebp], 0
  0007c	74 1a		 je	 SHORT $LN6@construct
  0007e	8a 55 f8	 mov	 dl, BYTE PTR tv129[ebp]
  00081	80 e2 07	 and	 dl, 7
  00084	80 c2 03	 add	 dl, 3
  00087	3a 55 ff	 cmp	 dl, BYTE PTR tv132[ebp]
  0008a	7c 0c		 jl	 SHORT $LN6@construct
  0008c	8b 45 f8	 mov	 eax, DWORD PTR tv129[ebp]
  0008f	50		 push	 eax
  00090	e8 00 00 00 00	 call	 ___asan_report_load4
  00095	83 c4 04	 add	 esp, 4
$LN6@construct:
  00098	8b 4d f0	 mov	 ecx, DWORD PTR $T1[ebp]
  0009b	89 4d e8	 mov	 DWORD PTR tv84[ebp], ecx
  0009e	8b 55 e8	 mov	 edx, DWORD PTR tv84[ebp]
  000a1	89 55 f4	 mov	 DWORD PTR tv87[ebp], edx
  000a4	8b 45 f4	 mov	 eax, DWORD PTR tv87[ebp]
  000a7	c1 e8 03	 shr	 eax, 3
  000aa	8a 88 00 00 00
	30		 mov	 cl, BYTE PTR [eax+805306368]
  000b0	88 4d fe	 mov	 BYTE PTR tv90[ebp], cl
  000b3	80 7d fe 00	 cmp	 BYTE PTR tv90[ebp], 0
  000b7	74 1a		 je	 SHORT $LN5@construct
  000b9	8a 55 f4	 mov	 dl, BYTE PTR tv87[ebp]
  000bc	80 e2 07	 and	 dl, 7
  000bf	80 c2 03	 add	 dl, 3
  000c2	3a 55 fe	 cmp	 dl, BYTE PTR tv90[ebp]
  000c5	7c 0c		 jl	 SHORT $LN5@construct
  000c7	8b 45 f4	 mov	 eax, DWORD PTR tv87[ebp]
  000ca	50		 push	 eax
  000cb	e8 00 00 00 00	 call	 ___asan_report_store4
  000d0	83 c4 04	 add	 esp, 4
$LN5@construct:
  000d3	8b 4d f0	 mov	 ecx, DWORD PTR $T1[ebp]
  000d6	8b 55 ec	 mov	 edx, DWORD PTR tv79[ebp]
  000d9	8b 02		 mov	 eax, DWORD PTR [edx]
  000db	89 01		 mov	 DWORD PTR [ecx], eax
$LN1@construct:

; 712  : #endif // __cpp_lib_constexpr_dynamic_alloc
; 713  :         {
; 714  :             ::new (_Voidify_iter(_Ptr)) _Objty(_STD forward<_Types>(_Args)...);
; 715  :         }
; 716  :     }

  000dd	8b e5		 mov	 esp, ebp
  000df	5d		 pop	 ebp
  000e0	c3		 ret	 0
??$construct@IABI@?$_Default_allocator_traits@V?$allocator@I@std@@@std@@SAXAAV?$allocator@I@1@QAIABI@Z ENDP ; std::_Default_allocator_traits<std::allocator<unsigned int> >::construct<unsigned int,unsigned int const &>
_TEXT	ENDS
; Function compile flags: /Odtp /RTCu
; File C:\Program Files (x86)\Microsoft Visual Studio\2019\Community\VC\Tools\MSVC\14.29.30133\include\xmemory
;	COMDAT ??$construct@IAAI@?$_Default_allocator_traits@V?$allocator@I@std@@@std@@SAXAAV?$allocator@I@1@QAIAAI@Z
_TEXT	SEGMENT
tv84 = -24						; size = 4
tv79 = -20						; size = 4
$T1 = -16						; size = 4
tv87 = -12						; size = 4
tv129 = -8						; size = 4
tv90 = -2						; size = 1
tv132 = -1						; size = 1
___formal$ = 8						; size = 4
__Ptr$ = 12						; size = 4
_<_Args_0>$ = 16					; size = 4
??$construct@IAAI@?$_Default_allocator_traits@V?$allocator@I@std@@@std@@SAXAAV?$allocator@I@1@QAIAAI@Z PROC ; std::_Default_allocator_traits<std::allocator<unsigned int> >::construct<unsigned int,unsigned int &>, COMDAT

; 707  :     static _CONSTEXPR20_DYNALLOC void construct(_Alloc&, _Objty* const _Ptr, _Types&&... _Args) {

  00000	55		 push	 ebp
  00001	8b ec		 mov	 ebp, esp
  00003	83 ec 18	 sub	 esp, 24			; 00000018H
  00006	b9 00 00 00 00	 mov	 ecx, OFFSET __79D216CD_xmemory
  0000b	e8 00 00 00 00	 call	 @__CheckForDebuggerJustMyCode@4

; 708  : #ifdef __cpp_lib_constexpr_dynamic_alloc
; 709  :         if (_STD is_constant_evaluated()) {

  00010	e8 00 00 00 00	 call	 ?is_constant_evaluated@std@@YA_NXZ ; std::is_constant_evaluated
  00015	0f b6 c0	 movzx	 eax, al
  00018	85 c0		 test	 eax, eax
  0001a	74 1e		 je	 SHORT $LN2@construct

; 710  :             _STD construct_at(_Ptr, _STD forward<_Types>(_Args)...);

  0001c	8b 4d 10	 mov	 ecx, DWORD PTR _<_Args_0>$[ebp]
  0001f	51		 push	 ecx
  00020	e8 00 00 00 00	 call	 ??$forward@AAI@std@@YAAAIAAI@Z ; std::forward<unsigned int &>
  00025	83 c4 04	 add	 esp, 4
  00028	50		 push	 eax
  00029	8b 55 0c	 mov	 edx, DWORD PTR __Ptr$[ebp]
  0002c	52		 push	 edx
  0002d	e8 00 00 00 00	 call	 ??$construct_at@IAAIX@std@@YAPAIQAIAAI@Z ; std::construct_at<unsigned int,unsigned int &,void>
  00032	83 c4 08	 add	 esp, 8

; 711  :         } else

  00035	e9 a3 00 00 00	 jmp	 $LN1@construct
$LN2@construct:

; 707  :     static _CONSTEXPR20_DYNALLOC void construct(_Alloc&, _Objty* const _Ptr, _Types&&... _Args) {

  0003a	8b 45 0c	 mov	 eax, DWORD PTR __Ptr$[ebp]
  0003d	50		 push	 eax
  0003e	e8 00 00 00 00	 call	 ??$_Voidify_iter@PAI@std@@YAPAXPAI@Z ; std::_Voidify_iter<unsigned int *>
  00043	83 c4 04	 add	 esp, 4
  00046	50		 push	 eax
  00047	6a 04		 push	 4
  00049	e8 00 00 00 00	 call	 ??2@YAPAXIPAX@Z		; operator new
  0004e	83 c4 08	 add	 esp, 8
  00051	89 45 f0	 mov	 DWORD PTR $T1[ebp], eax
  00054	8b 4d 10	 mov	 ecx, DWORD PTR _<_Args_0>$[ebp]
  00057	51		 push	 ecx
  00058	e8 00 00 00 00	 call	 ??$forward@AAI@std@@YAAAIAAI@Z ; std::forward<unsigned int &>
  0005d	83 c4 04	 add	 esp, 4
  00060	89 45 ec	 mov	 DWORD PTR tv79[ebp], eax
  00063	8b 55 ec	 mov	 edx, DWORD PTR tv79[ebp]
  00066	89 55 f8	 mov	 DWORD PTR tv129[ebp], edx
  00069	8b 45 f8	 mov	 eax, DWORD PTR tv129[ebp]
  0006c	c1 e8 03	 shr	 eax, 3
  0006f	8a 88 00 00 00
	30		 mov	 cl, BYTE PTR [eax+805306368]
  00075	88 4d ff	 mov	 BYTE PTR tv132[ebp], cl
  00078	80 7d ff 00	 cmp	 BYTE PTR tv132[ebp], 0
  0007c	74 1a		 je	 SHORT $LN6@construct
  0007e	8a 55 f8	 mov	 dl, BYTE PTR tv129[ebp]
  00081	80 e2 07	 and	 dl, 7
  00084	80 c2 03	 add	 dl, 3
  00087	3a 55 ff	 cmp	 dl, BYTE PTR tv132[ebp]
  0008a	7c 0c		 jl	 SHORT $LN6@construct
  0008c	8b 45 f8	 mov	 eax, DWORD PTR tv129[ebp]
  0008f	50		 push	 eax
  00090	e8 00 00 00 00	 call	 ___asan_report_load4
  00095	83 c4 04	 add	 esp, 4
$LN6@construct:
  00098	8b 4d f0	 mov	 ecx, DWORD PTR $T1[ebp]
  0009b	89 4d e8	 mov	 DWORD PTR tv84[ebp], ecx
  0009e	8b 55 e8	 mov	 edx, DWORD PTR tv84[ebp]
  000a1	89 55 f4	 mov	 DWORD PTR tv87[ebp], edx
  000a4	8b 45 f4	 mov	 eax, DWORD PTR tv87[ebp]
  000a7	c1 e8 03	 shr	 eax, 3
  000aa	8a 88 00 00 00
	30		 mov	 cl, BYTE PTR [eax+805306368]
  000b0	88 4d fe	 mov	 BYTE PTR tv90[ebp], cl
  000b3	80 7d fe 00	 cmp	 BYTE PTR tv90[ebp], 0
  000b7	74 1a		 je	 SHORT $LN5@construct
  000b9	8a 55 f4	 mov	 dl, BYTE PTR tv87[ebp]
  000bc	80 e2 07	 and	 dl, 7
  000bf	80 c2 03	 add	 dl, 3
  000c2	3a 55 fe	 cmp	 dl, BYTE PTR tv90[ebp]
  000c5	7c 0c		 jl	 SHORT $LN5@construct
  000c7	8b 45 f4	 mov	 eax, DWORD PTR tv87[ebp]
  000ca	50		 push	 eax
  000cb	e8 00 00 00 00	 call	 ___asan_report_store4
  000d0	83 c4 04	 add	 esp, 4
$LN5@construct:
  000d3	8b 4d f0	 mov	 ecx, DWORD PTR $T1[ebp]
  000d6	8b 55 ec	 mov	 edx, DWORD PTR tv79[ebp]
  000d9	8b 02		 mov	 eax, DWORD PTR [edx]
  000db	89 01		 mov	 DWORD PTR [ecx], eax
$LN1@construct:

; 712  : #endif // __cpp_lib_constexpr_dynamic_alloc
; 713  :         {
; 714  :             ::new (_Voidify_iter(_Ptr)) _Objty(_STD forward<_Types>(_Args)...);
; 715  :         }
; 716  :     }

  000dd	8b e5		 mov	 esp, ebp
  000df	5d		 pop	 ebp
  000e0	c3		 ret	 0
??$construct@IAAI@?$_Default_allocator_traits@V?$allocator@I@std@@@std@@SAXAAV?$allocator@I@1@QAIAAI@Z ENDP ; std::_Default_allocator_traits<std::allocator<unsigned int> >::construct<unsigned int,unsigned int &>
_TEXT	ENDS
; Function compile flags: /Odtp /RTCu
; File C:\Program Files (x86)\Microsoft Visual Studio\2019\Community\VC\Tools\MSVC\14.29.30133\include\type_traits
;	COMDAT ??$forward@AAI@std@@YAAAIAAI@Z
_TEXT	SEGMENT
__Arg$ = 8						; size = 4
??$forward@AAI@std@@YAAAIAAI@Z PROC			; std::forward<unsigned int &>, COMDAT

; 1443 :     remove_reference_t<_Ty>& _Arg) noexcept { // forward an lvalue as either an lvalue or an rvalue

  00000	55		 push	 ebp
  00001	8b ec		 mov	 ebp, esp
  00003	b9 00 00 00 00	 mov	 ecx, OFFSET __589FA321_type_traits
  00008	e8 00 00 00 00	 call	 @__CheckForDebuggerJustMyCode@4

; 1444 :     return static_cast<_Ty&&>(_Arg);

  0000d	8b 45 08	 mov	 eax, DWORD PTR __Arg$[ebp]

; 1445 : }

  00010	5d		 pop	 ebp
  00011	c3		 ret	 0
??$forward@AAI@std@@YAAAIAAI@Z ENDP			; std::forward<unsigned int &>
_TEXT	ENDS
; Function compile flags: /Odtp /RTCu
; File C:\Program Files (x86)\Microsoft Visual Studio\2019\Community\VC\Tools\MSVC\14.29.30133\include\tuple
;	COMDAT ??$?0U_Exact_args_t@std@@AAW4DIRDEP@@$$V$0A@@?$tuple@W4DIRDEP@@@std@@QAE@U_Exact_args_t@1@AAW4DIRDEP@@@Z
_TEXT	SEGMENT
tv77 = -12						; size = 4
_this$ = -8						; size = 4
$T1 = -1						; size = 1
___formal$ = 8						; size = 1
__This_arg$ = 12					; size = 4
??$?0U_Exact_args_t@std@@AAW4DIRDEP@@$$V$0A@@?$tuple@W4DIRDEP@@@std@@QAE@U_Exact_args_t@1@AAW4DIRDEP@@@Z PROC ; std::tuple<enum DIRDEP>::tuple<enum DIRDEP><std::_Exact_args_t,enum DIRDEP &,0>, COMDAT
; _this$ = ecx

; 258  :         : _Mybase(_Exact_args_t{}, _STD forward<_Rest2>(_Rest_arg)...), _Myfirst(_STD forward<_This2>(_This_arg)) {}

  00000	55		 push	 ebp
  00001	8b ec		 mov	 ebp, esp
  00003	83 ec 0c	 sub	 esp, 12			; 0000000cH
  00006	89 4d f8	 mov	 DWORD PTR _this$[ebp], ecx
  00009	b9 00 00 00 00	 mov	 ecx, OFFSET __C69F69CF_tuple
  0000e	e8 00 00 00 00	 call	 @__CheckForDebuggerJustMyCode@4
  00013	0f b6 45 ff	 movzx	 eax, BYTE PTR $T1[ebp]
  00017	50		 push	 eax
  00018	8b 4d f8	 mov	 ecx, DWORD PTR _this$[ebp]
  0001b	e8 00 00 00 00	 call	 ??$?0U_Exact_args_t@std@@$0A@@?$tuple@$$V@std@@QAE@U_Exact_args_t@1@@Z ; std::tuple<>::tuple<><std::_Exact_args_t,0>
  00020	8b 4d f8	 mov	 ecx, DWORD PTR _this$[ebp]
  00023	89 4d f4	 mov	 DWORD PTR tv77[ebp], ecx
  00026	8b 55 0c	 mov	 edx, DWORD PTR __This_arg$[ebp]
  00029	52		 push	 edx
  0002a	e8 00 00 00 00	 call	 ??$forward@AAW4DIRDEP@@@std@@YAAAW4DIRDEP@@AAW41@@Z ; std::forward<enum DIRDEP &>
  0002f	83 c4 04	 add	 esp, 4
  00032	50		 push	 eax
  00033	8b 4d f4	 mov	 ecx, DWORD PTR tv77[ebp]
  00036	e8 00 00 00 00	 call	 ??$?0AAW4DIRDEP@@@?$_Tuple_val@W4DIRDEP@@@std@@QAE@AAW4DIRDEP@@@Z ; std::_Tuple_val<enum DIRDEP>::_Tuple_val<enum DIRDEP><enum DIRDEP &>
  0003b	8b 45 f8	 mov	 eax, DWORD PTR _this$[ebp]
  0003e	8b e5		 mov	 esp, ebp
  00040	5d		 pop	 ebp
  00041	c2 08 00	 ret	 8
??$?0U_Exact_args_t@std@@AAW4DIRDEP@@$$V$0A@@?$tuple@W4DIRDEP@@@std@@QAE@U_Exact_args_t@1@AAW4DIRDEP@@@Z ENDP ; std::tuple<enum DIRDEP>::tuple<enum DIRDEP><std::_Exact_args_t,enum DIRDEP &,0>
_TEXT	ENDS
; Function compile flags: /Odtp /RTCu
; File C:\Program Files (x86)\Microsoft Visual Studio\2019\Community\VC\Tools\MSVC\14.29.30133\include\tuple
;	COMDAT ??$?0AAW4DIRDEP@@@?$_Tuple_val@W4DIRDEP@@@std@@QAE@AAW4DIRDEP@@@Z
_TEXT	SEGMENT
_this$ = -24						; size = 4
tv65 = -20						; size = 4
tv64 = -16						; size = 4
tv72 = -12						; size = 4
tv82 = -8						; size = 4
tv75 = -2						; size = 1
tv85 = -1						; size = 1
__Arg$ = 8						; size = 4
??$?0AAW4DIRDEP@@@?$_Tuple_val@W4DIRDEP@@@std@@QAE@AAW4DIRDEP@@@Z PROC ; std::_Tuple_val<enum DIRDEP>::_Tuple_val<enum DIRDEP><enum DIRDEP &>, COMDAT
; _this$ = ecx

; 170  :     constexpr _Tuple_val(_Other&& _Arg) : _Val(_STD forward<_Other>(_Arg)) {}

  00000	55		 push	 ebp
  00001	8b ec		 mov	 ebp, esp
  00003	83 ec 18	 sub	 esp, 24			; 00000018H
  00006	89 4d e8	 mov	 DWORD PTR _this$[ebp], ecx
  00009	b9 00 00 00 00	 mov	 ecx, OFFSET __C69F69CF_tuple
  0000e	e8 00 00 00 00	 call	 @__CheckForDebuggerJustMyCode@4
  00013	8b 45 08	 mov	 eax, DWORD PTR __Arg$[ebp]
  00016	50		 push	 eax
  00017	e8 00 00 00 00	 call	 ??$forward@AAW4DIRDEP@@@std@@YAAAW4DIRDEP@@AAW41@@Z ; std::forward<enum DIRDEP &>
  0001c	83 c4 04	 add	 esp, 4
  0001f	89 45 ec	 mov	 DWORD PTR tv65[ebp], eax
  00022	8b 4d e8	 mov	 ecx, DWORD PTR _this$[ebp]
  00025	89 4d f0	 mov	 DWORD PTR tv64[ebp], ecx
  00028	8b 55 ec	 mov	 edx, DWORD PTR tv65[ebp]
  0002b	89 55 f8	 mov	 DWORD PTR tv82[ebp], edx
  0002e	8b 45 f8	 mov	 eax, DWORD PTR tv82[ebp]
  00031	c1 e8 03	 shr	 eax, 3
  00034	8a 88 00 00 00
	30		 mov	 cl, BYTE PTR [eax+805306368]
  0003a	88 4d ff	 mov	 BYTE PTR tv85[ebp], cl
  0003d	80 7d ff 00	 cmp	 BYTE PTR tv85[ebp], 0
  00041	74 1a		 je	 SHORT $LN4@Tuple_val
  00043	8a 55 f8	 mov	 dl, BYTE PTR tv82[ebp]
  00046	80 e2 07	 and	 dl, 7
  00049	80 c2 03	 add	 dl, 3
  0004c	3a 55 ff	 cmp	 dl, BYTE PTR tv85[ebp]
  0004f	7c 0c		 jl	 SHORT $LN4@Tuple_val
  00051	8b 45 f8	 mov	 eax, DWORD PTR tv82[ebp]
  00054	50		 push	 eax
  00055	e8 00 00 00 00	 call	 ___asan_report_load4
  0005a	83 c4 04	 add	 esp, 4
$LN4@Tuple_val:
  0005d	8b 4d f0	 mov	 ecx, DWORD PTR tv64[ebp]
  00060	89 4d f4	 mov	 DWORD PTR tv72[ebp], ecx
  00063	8b 55 f4	 mov	 edx, DWORD PTR tv72[ebp]
  00066	c1 ea 03	 shr	 edx, 3
  00069	8a 82 00 00 00
	30		 mov	 al, BYTE PTR [edx+805306368]
  0006f	88 45 fe	 mov	 BYTE PTR tv75[ebp], al
  00072	80 7d fe 00	 cmp	 BYTE PTR tv75[ebp], 0
  00076	74 1a		 je	 SHORT $LN3@Tuple_val
  00078	8a 4d f4	 mov	 cl, BYTE PTR tv72[ebp]
  0007b	80 e1 07	 and	 cl, 7
  0007e	80 c1 03	 add	 cl, 3
  00081	3a 4d fe	 cmp	 cl, BYTE PTR tv75[ebp]
  00084	7c 0c		 jl	 SHORT $LN3@Tuple_val
  00086	8b 55 f4	 mov	 edx, DWORD PTR tv72[ebp]
  00089	52		 push	 edx
  0008a	e8 00 00 00 00	 call	 ___asan_report_store4
  0008f	83 c4 04	 add	 esp, 4
$LN3@Tuple_val:
  00092	8b 45 f0	 mov	 eax, DWORD PTR tv64[ebp]
  00095	8b 4d ec	 mov	 ecx, DWORD PTR tv65[ebp]
  00098	8b 11		 mov	 edx, DWORD PTR [ecx]
  0009a	89 10		 mov	 DWORD PTR [eax], edx
  0009c	8b 45 e8	 mov	 eax, DWORD PTR _this$[ebp]
  0009f	8b e5		 mov	 esp, ebp
  000a1	5d		 pop	 ebp
  000a2	c2 04 00	 ret	 4
??$?0AAW4DIRDEP@@@?$_Tuple_val@W4DIRDEP@@@std@@QAE@AAW4DIRDEP@@@Z ENDP ; std::_Tuple_val<enum DIRDEP>::_Tuple_val<enum DIRDEP><enum DIRDEP &>
_TEXT	ENDS
; Function compile flags: /Odtp /RTCu
; File C:\Program Files (x86)\Microsoft Visual Studio\2019\Community\VC\Tools\MSVC\14.29.30133\include\tuple
;	COMDAT ??$?0W4DIRDEP@@@?$_Tuple_val@W4DIRDEP@@@std@@QAE@$$QAW4DIRDEP@@@Z
_TEXT	SEGMENT
_this$ = -24						; size = 4
tv65 = -20						; size = 4
tv64 = -16						; size = 4
tv72 = -12						; size = 4
tv82 = -8						; size = 4
tv75 = -2						; size = 1
tv85 = -1						; size = 1
__Arg$ = 8						; size = 4
??$?0W4DIRDEP@@@?$_Tuple_val@W4DIRDEP@@@std@@QAE@$$QAW4DIRDEP@@@Z PROC ; std::_Tuple_val<enum DIRDEP>::_Tuple_val<enum DIRDEP><enum DIRDEP>, COMDAT
; _this$ = ecx

; 170  :     constexpr _Tuple_val(_Other&& _Arg) : _Val(_STD forward<_Other>(_Arg)) {}

  00000	55		 push	 ebp
  00001	8b ec		 mov	 ebp, esp
  00003	83 ec 18	 sub	 esp, 24			; 00000018H
  00006	89 4d e8	 mov	 DWORD PTR _this$[ebp], ecx
  00009	b9 00 00 00 00	 mov	 ecx, OFFSET __C69F69CF_tuple
  0000e	e8 00 00 00 00	 call	 @__CheckForDebuggerJustMyCode@4
  00013	8b 45 08	 mov	 eax, DWORD PTR __Arg$[ebp]
  00016	50		 push	 eax
  00017	e8 00 00 00 00	 call	 ??$forward@W4DIRDEP@@@std@@YA$$QAW4DIRDEP@@AAW41@@Z ; std::forward<enum DIRDEP>
  0001c	83 c4 04	 add	 esp, 4
  0001f	89 45 ec	 mov	 DWORD PTR tv65[ebp], eax
  00022	8b 4d e8	 mov	 ecx, DWORD PTR _this$[ebp]
  00025	89 4d f0	 mov	 DWORD PTR tv64[ebp], ecx
  00028	8b 55 ec	 mov	 edx, DWORD PTR tv65[ebp]
  0002b	89 55 f8	 mov	 DWORD PTR tv82[ebp], edx
  0002e	8b 45 f8	 mov	 eax, DWORD PTR tv82[ebp]
  00031	c1 e8 03	 shr	 eax, 3
  00034	8a 88 00 00 00
	30		 mov	 cl, BYTE PTR [eax+805306368]
  0003a	88 4d ff	 mov	 BYTE PTR tv85[ebp], cl
  0003d	80 7d ff 00	 cmp	 BYTE PTR tv85[ebp], 0
  00041	74 1a		 je	 SHORT $LN4@Tuple_val
  00043	8a 55 f8	 mov	 dl, BYTE PTR tv82[ebp]
  00046	80 e2 07	 and	 dl, 7
  00049	80 c2 03	 add	 dl, 3
  0004c	3a 55 ff	 cmp	 dl, BYTE PTR tv85[ebp]
  0004f	7c 0c		 jl	 SHORT $LN4@Tuple_val
  00051	8b 45 f8	 mov	 eax, DWORD PTR tv82[ebp]
  00054	50		 push	 eax
  00055	e8 00 00 00 00	 call	 ___asan_report_load4
  0005a	83 c4 04	 add	 esp, 4
$LN4@Tuple_val:
  0005d	8b 4d f0	 mov	 ecx, DWORD PTR tv64[ebp]
  00060	89 4d f4	 mov	 DWORD PTR tv72[ebp], ecx
  00063	8b 55 f4	 mov	 edx, DWORD PTR tv72[ebp]
  00066	c1 ea 03	 shr	 edx, 3
  00069	8a 82 00 00 00
	30		 mov	 al, BYTE PTR [edx+805306368]
  0006f	88 45 fe	 mov	 BYTE PTR tv75[ebp], al
  00072	80 7d fe 00	 cmp	 BYTE PTR tv75[ebp], 0
  00076	74 1a		 je	 SHORT $LN3@Tuple_val
  00078	8a 4d f4	 mov	 cl, BYTE PTR tv72[ebp]
  0007b	80 e1 07	 and	 cl, 7
  0007e	80 c1 03	 add	 cl, 3
  00081	3a 4d fe	 cmp	 cl, BYTE PTR tv75[ebp]
  00084	7c 0c		 jl	 SHORT $LN3@Tuple_val
  00086	8b 55 f4	 mov	 edx, DWORD PTR tv72[ebp]
  00089	52		 push	 edx
  0008a	e8 00 00 00 00	 call	 ___asan_report_store4
  0008f	83 c4 04	 add	 esp, 4
$LN3@Tuple_val:
  00092	8b 45 f0	 mov	 eax, DWORD PTR tv64[ebp]
  00095	8b 4d ec	 mov	 ecx, DWORD PTR tv65[ebp]
  00098	8b 11		 mov	 edx, DWORD PTR [ecx]
  0009a	89 10		 mov	 DWORD PTR [eax], edx
  0009c	8b 45 e8	 mov	 eax, DWORD PTR _this$[ebp]
  0009f	8b e5		 mov	 esp, ebp
  000a1	5d		 pop	 ebp
  000a2	c2 04 00	 ret	 4
??$?0W4DIRDEP@@@?$_Tuple_val@W4DIRDEP@@@std@@QAE@$$QAW4DIRDEP@@@Z ENDP ; std::_Tuple_val<enum DIRDEP>::_Tuple_val<enum DIRDEP><enum DIRDEP>
_TEXT	ENDS
; Function compile flags: /Odtp /RTCu
; File C:\Program Files (x86)\Microsoft Visual Studio\2019\Community\VC\Tools\MSVC\14.29.30133\include\tuple
;	COMDAT ??$?0U_Exact_args_t@std@@W4DIRDEP@@$$V$0A@@?$tuple@W4DIRDEP@@@std@@QAE@U_Exact_args_t@1@$$QAW4DIRDEP@@@Z
_TEXT	SEGMENT
tv77 = -12						; size = 4
_this$ = -8						; size = 4
$T1 = -1						; size = 1
___formal$ = 8						; size = 1
__This_arg$ = 12					; size = 4
??$?0U_Exact_args_t@std@@W4DIRDEP@@$$V$0A@@?$tuple@W4DIRDEP@@@std@@QAE@U_Exact_args_t@1@$$QAW4DIRDEP@@@Z PROC ; std::tuple<enum DIRDEP>::tuple<enum DIRDEP><std::_Exact_args_t,enum DIRDEP,0>, COMDAT
; _this$ = ecx

; 258  :         : _Mybase(_Exact_args_t{}, _STD forward<_Rest2>(_Rest_arg)...), _Myfirst(_STD forward<_This2>(_This_arg)) {}

  00000	55		 push	 ebp
  00001	8b ec		 mov	 ebp, esp
  00003	83 ec 0c	 sub	 esp, 12			; 0000000cH
  00006	89 4d f8	 mov	 DWORD PTR _this$[ebp], ecx
  00009	b9 00 00 00 00	 mov	 ecx, OFFSET __C69F69CF_tuple
  0000e	e8 00 00 00 00	 call	 @__CheckForDebuggerJustMyCode@4
  00013	0f b6 45 ff	 movzx	 eax, BYTE PTR $T1[ebp]
  00017	50		 push	 eax
  00018	8b 4d f8	 mov	 ecx, DWORD PTR _this$[ebp]
  0001b	e8 00 00 00 00	 call	 ??$?0U_Exact_args_t@std@@$0A@@?$tuple@$$V@std@@QAE@U_Exact_args_t@1@@Z ; std::tuple<>::tuple<><std::_Exact_args_t,0>
  00020	8b 4d f8	 mov	 ecx, DWORD PTR _this$[ebp]
  00023	89 4d f4	 mov	 DWORD PTR tv77[ebp], ecx
  00026	8b 55 0c	 mov	 edx, DWORD PTR __This_arg$[ebp]
  00029	52		 push	 edx
  0002a	e8 00 00 00 00	 call	 ??$forward@W4DIRDEP@@@std@@YA$$QAW4DIRDEP@@AAW41@@Z ; std::forward<enum DIRDEP>
  0002f	83 c4 04	 add	 esp, 4
  00032	50		 push	 eax
  00033	8b 4d f4	 mov	 ecx, DWORD PTR tv77[ebp]
  00036	e8 00 00 00 00	 call	 ??$?0W4DIRDEP@@@?$_Tuple_val@W4DIRDEP@@@std@@QAE@$$QAW4DIRDEP@@@Z ; std::_Tuple_val<enum DIRDEP>::_Tuple_val<enum DIRDEP><enum DIRDEP>
  0003b	8b 45 f8	 mov	 eax, DWORD PTR _this$[ebp]
  0003e	8b e5		 mov	 esp, ebp
  00040	5d		 pop	 ebp
  00041	c2 08 00	 ret	 8
??$?0U_Exact_args_t@std@@W4DIRDEP@@$$V$0A@@?$tuple@W4DIRDEP@@@std@@QAE@U_Exact_args_t@1@$$QAW4DIRDEP@@@Z ENDP ; std::tuple<enum DIRDEP>::tuple<enum DIRDEP><std::_Exact_args_t,enum DIRDEP,0>
_TEXT	ENDS
; Function compile flags: /Odtp /RTCu
; File C:\Program Files (x86)\Microsoft Visual Studio\2019\Community\VC\Tools\MSVC\14.29.30133\include\xmemory
;	COMDAT ??$_Emplace_back@ABI@?$_Uninitialized_backout_al@V?$allocator@I@std@@@std@@QAEXABI@Z
_TEXT	SEGMENT
tv81 = -56						; size = 4
tv74 = -52						; size = 4
tv76 = -48						; size = 4
tv78 = -44						; size = 4
tv80 = -40						; size = 4
tv79 = -36						; size = 4
tv71 = -32						; size = 4
tv68 = -28						; size = 4
tv91 = -24						; size = 4
tv133 = -20						; size = 4
tv143 = -16						; size = 4
tv153 = -12						; size = 4
_this$ = -8						; size = 4
tv94 = -4						; size = 1
tv136 = -3						; size = 1
tv146 = -2						; size = 1
tv156 = -1						; size = 1
_<_Vals_0>$ = 8						; size = 4
??$_Emplace_back@ABI@?$_Uninitialized_backout_al@V?$allocator@I@std@@@std@@QAEXABI@Z PROC ; std::_Uninitialized_backout_al<std::allocator<unsigned int> >::_Emplace_back<unsigned int const &>, COMDAT
; _this$ = ecx

; 1630 :     _CONSTEXPR20_DYNALLOC void _Emplace_back(_Types&&... _Vals) { // construct a new element at *_Last and increment

  00000	55		 push	 ebp
  00001	8b ec		 mov	 ebp, esp
  00003	83 ec 38	 sub	 esp, 56			; 00000038H
  00006	89 4d f8	 mov	 DWORD PTR _this$[ebp], ecx
  00009	b9 00 00 00 00	 mov	 ecx, OFFSET __79D216CD_xmemory
  0000e	e8 00 00 00 00	 call	 @__CheckForDebuggerJustMyCode@4

; 1631 :         allocator_traits<_Alloc>::construct(_Al, _Unfancy(_Last), _STD forward<_Types>(_Vals)...);

  00013	8b 45 08	 mov	 eax, DWORD PTR _<_Vals_0>$[ebp]
  00016	50		 push	 eax
  00017	e8 00 00 00 00	 call	 ??$forward@ABI@std@@YAABIABI@Z ; std::forward<unsigned int const &>
  0001c	83 c4 04	 add	 esp, 4
  0001f	89 45 d4	 mov	 DWORD PTR tv78[ebp], eax
  00022	8b 4d f8	 mov	 ecx, DWORD PTR _this$[ebp]
  00025	83 c1 04	 add	 ecx, 4
  00028	89 4d e4	 mov	 DWORD PTR tv68[ebp], ecx
  0002b	8b 55 e4	 mov	 edx, DWORD PTR tv68[ebp]
  0002e	89 55 f4	 mov	 DWORD PTR tv153[ebp], edx
  00031	8b 45 f4	 mov	 eax, DWORD PTR tv153[ebp]
  00034	c1 e8 03	 shr	 eax, 3
  00037	8a 88 00 00 00
	30		 mov	 cl, BYTE PTR [eax+805306368]
  0003d	88 4d ff	 mov	 BYTE PTR tv156[ebp], cl
  00040	80 7d ff 00	 cmp	 BYTE PTR tv156[ebp], 0
  00044	74 1a		 je	 SHORT $LN6@Emplace_ba
  00046	8a 55 f4	 mov	 dl, BYTE PTR tv153[ebp]
  00049	80 e2 07	 and	 dl, 7
  0004c	80 c2 03	 add	 dl, 3
  0004f	3a 55 ff	 cmp	 dl, BYTE PTR tv156[ebp]
  00052	7c 0c		 jl	 SHORT $LN6@Emplace_ba
  00054	8b 45 f4	 mov	 eax, DWORD PTR tv153[ebp]
  00057	50		 push	 eax
  00058	e8 00 00 00 00	 call	 ___asan_report_load4
  0005d	83 c4 04	 add	 esp, 4
$LN6@Emplace_ba:
  00060	8b 4d e4	 mov	 ecx, DWORD PTR tv68[ebp]
  00063	8b 11		 mov	 edx, DWORD PTR [ecx]
  00065	52		 push	 edx
  00066	e8 00 00 00 00	 call	 ??$_Unfancy@I@std@@YAPAIPAI@Z ; std::_Unfancy<unsigned int>
  0006b	83 c4 04	 add	 esp, 4
  0006e	89 45 d0	 mov	 DWORD PTR tv76[ebp], eax
  00071	8b 45 f8	 mov	 eax, DWORD PTR _this$[ebp]
  00074	83 c0 08	 add	 eax, 8
  00077	89 45 e0	 mov	 DWORD PTR tv71[ebp], eax
  0007a	8b 4d e0	 mov	 ecx, DWORD PTR tv71[ebp]
  0007d	89 4d f0	 mov	 DWORD PTR tv143[ebp], ecx
  00080	8b 55 f0	 mov	 edx, DWORD PTR tv143[ebp]
  00083	c1 ea 03	 shr	 edx, 3
  00086	8a 82 00 00 00
	30		 mov	 al, BYTE PTR [edx+805306368]
  0008c	88 45 fe	 mov	 BYTE PTR tv146[ebp], al
  0008f	80 7d fe 00	 cmp	 BYTE PTR tv146[ebp], 0
  00093	74 1a		 je	 SHORT $LN5@Emplace_ba
  00095	8a 4d f0	 mov	 cl, BYTE PTR tv143[ebp]
  00098	80 e1 07	 and	 cl, 7
  0009b	80 c1 03	 add	 cl, 3
  0009e	3a 4d fe	 cmp	 cl, BYTE PTR tv146[ebp]
  000a1	7c 0c		 jl	 SHORT $LN5@Emplace_ba
  000a3	8b 55 f0	 mov	 edx, DWORD PTR tv143[ebp]
  000a6	52		 push	 edx
  000a7	e8 00 00 00 00	 call	 ___asan_report_load4
  000ac	83 c4 04	 add	 esp, 4
$LN5@Emplace_ba:
  000af	8b 45 e0	 mov	 eax, DWORD PTR tv71[ebp]
  000b2	8b 08		 mov	 ecx, DWORD PTR [eax]
  000b4	89 4d cc	 mov	 DWORD PTR tv74[ebp], ecx
  000b7	8b 55 d4	 mov	 edx, DWORD PTR tv78[ebp]
  000ba	52		 push	 edx
  000bb	8b 45 d0	 mov	 eax, DWORD PTR tv76[ebp]
  000be	50		 push	 eax
  000bf	8b 4d cc	 mov	 ecx, DWORD PTR tv74[ebp]
  000c2	51		 push	 ecx
  000c3	e8 00 00 00 00	 call	 ??$construct@IABI@?$_Default_allocator_traits@V?$allocator@I@std@@@std@@SAXAAV?$allocator@I@1@QAIABI@Z ; std::_Default_allocator_traits<std::allocator<unsigned int> >::construct<unsigned int,unsigned int const &>
  000c8	83 c4 0c	 add	 esp, 12			; 0000000cH

; 1632 :         ++_Last;

  000cb	8b 55 f8	 mov	 edx, DWORD PTR _this$[ebp]
  000ce	83 c2 04	 add	 edx, 4
  000d1	89 55 dc	 mov	 DWORD PTR tv79[ebp], edx
  000d4	8b 45 dc	 mov	 eax, DWORD PTR tv79[ebp]
  000d7	89 45 ec	 mov	 DWORD PTR tv133[ebp], eax
  000da	8b 4d ec	 mov	 ecx, DWORD PTR tv133[ebp]
  000dd	c1 e9 03	 shr	 ecx, 3
  000e0	8a 91 00 00 00
	30		 mov	 dl, BYTE PTR [ecx+805306368]
  000e6	88 55 fd	 mov	 BYTE PTR tv136[ebp], dl
  000e9	80 7d fd 00	 cmp	 BYTE PTR tv136[ebp], 0
  000ed	74 18		 je	 SHORT $LN4@Emplace_ba
  000ef	8a 45 ec	 mov	 al, BYTE PTR tv133[ebp]
  000f2	24 07		 and	 al, 7
  000f4	04 03		 add	 al, 3
  000f6	3a 45 fd	 cmp	 al, BYTE PTR tv136[ebp]
  000f9	7c 0c		 jl	 SHORT $LN4@Emplace_ba
  000fb	8b 4d ec	 mov	 ecx, DWORD PTR tv133[ebp]
  000fe	51		 push	 ecx
  000ff	e8 00 00 00 00	 call	 ___asan_report_load4
  00104	83 c4 04	 add	 esp, 4
$LN4@Emplace_ba:
  00107	8b 55 dc	 mov	 edx, DWORD PTR tv79[ebp]
  0010a	8b 02		 mov	 eax, DWORD PTR [edx]
  0010c	83 c0 04	 add	 eax, 4
  0010f	89 45 c8	 mov	 DWORD PTR tv81[ebp], eax
  00112	8b 4d f8	 mov	 ecx, DWORD PTR _this$[ebp]
  00115	83 c1 04	 add	 ecx, 4
  00118	89 4d d8	 mov	 DWORD PTR tv80[ebp], ecx
  0011b	8b 55 d8	 mov	 edx, DWORD PTR tv80[ebp]
  0011e	89 55 e8	 mov	 DWORD PTR tv91[ebp], edx
  00121	8b 45 e8	 mov	 eax, DWORD PTR tv91[ebp]
  00124	c1 e8 03	 shr	 eax, 3
  00127	8a 88 00 00 00
	30		 mov	 cl, BYTE PTR [eax+805306368]
  0012d	88 4d fc	 mov	 BYTE PTR tv94[ebp], cl
  00130	80 7d fc 00	 cmp	 BYTE PTR tv94[ebp], 0
  00134	74 1a		 je	 SHORT $LN3@Emplace_ba
  00136	8a 55 e8	 mov	 dl, BYTE PTR tv91[ebp]
  00139	80 e2 07	 and	 dl, 7
  0013c	80 c2 03	 add	 dl, 3
  0013f	3a 55 fc	 cmp	 dl, BYTE PTR tv94[ebp]
  00142	7c 0c		 jl	 SHORT $LN3@Emplace_ba
  00144	8b 45 e8	 mov	 eax, DWORD PTR tv91[ebp]
  00147	50		 push	 eax
  00148	e8 00 00 00 00	 call	 ___asan_report_store4
  0014d	83 c4 04	 add	 esp, 4
$LN3@Emplace_ba:
  00150	8b 4d d8	 mov	 ecx, DWORD PTR tv80[ebp]
  00153	8b 55 c8	 mov	 edx, DWORD PTR tv81[ebp]
  00156	89 11		 mov	 DWORD PTR [ecx], edx

; 1633 :     }

  00158	8b e5		 mov	 esp, ebp
  0015a	5d		 pop	 ebp
  0015b	c2 04 00	 ret	 4
??$_Emplace_back@ABI@?$_Uninitialized_backout_al@V?$allocator@I@std@@@std@@QAEXABI@Z ENDP ; std::_Uninitialized_backout_al<std::allocator<unsigned int> >::_Emplace_back<unsigned int const &>
_TEXT	ENDS
; Function compile flags: /Odtp /RTCu
; File C:\Program Files (x86)\Microsoft Visual Studio\2019\Community\VC\Tools\MSVC\14.29.30133\include\xutility
;	COMDAT ??$_Fill_zero_memset@PAI@std@@YAXPAII@Z
_TEXT	SEGMENT
__Dest$ = 8						; size = 4
__Count$ = 12						; size = 4
??$_Fill_zero_memset@PAI@std@@YAXPAII@Z PROC		; std::_Fill_zero_memset<unsigned int *>, COMDAT

; 4558 : void _Fill_zero_memset(_CtgIt _Dest, const size_t _Count) {

  00000	55		 push	 ebp
  00001	8b ec		 mov	 ebp, esp
  00003	b9 00 00 00 00	 mov	 ecx, OFFSET __12269DE6_xutility
  00008	e8 00 00 00 00	 call	 @__CheckForDebuggerJustMyCode@4

; 4559 :     _CSTD memset(_To_address(_Dest), 0, _Count * sizeof(_Iter_value_t<_CtgIt>));

  0000d	8b 45 0c	 mov	 eax, DWORD PTR __Count$[ebp]
  00010	c1 e0 02	 shl	 eax, 2
  00013	50		 push	 eax
  00014	6a 00		 push	 0
  00016	8d 4d 08	 lea	 ecx, DWORD PTR __Dest$[ebp]
  00019	51		 push	 ecx
  0001a	e8 00 00 00 00	 call	 ??$_To_address@PAI@std@@YA?A_PABQAI@Z ; std::_To_address<unsigned int *>
  0001f	83 c4 04	 add	 esp, 4
  00022	50		 push	 eax
  00023	e8 00 00 00 00	 call	 _memset
  00028	83 c4 0c	 add	 esp, 12			; 0000000cH

; 4560 : }

  0002b	5d		 pop	 ebp
  0002c	c3		 ret	 0
??$_Fill_zero_memset@PAI@std@@YAXPAII@Z ENDP		; std::_Fill_zero_memset<unsigned int *>
_TEXT	ENDS
; Function compile flags: /Odtp /RTCu
; File C:\Program Files (x86)\Microsoft Visual Studio\2019\Community\VC\Tools\MSVC\14.29.30133\include\xutility
;	COMDAT ??$_Is_all_bits_zero@I@std@@YA_NABI@Z
_TEXT	SEGMENT
__asan_gen_0$ = -88					; size = 4
__asan_gen_1$ = -84					; size = 4
__asan_gen_2$ = -80					; size = 4
__Zero$ = -72						; size = 4
tv87 = -26						; size = 1
tv72 = -25						; size = 1
tv77 = -24						; size = 4
tv84 = -20						; size = 4
tv69 = -16						; size = 4
tv75 = -12						; size = 4
tv80 = -8						; size = 4
__$ArrayPad$ = -4					; size = 4
__Val$ = 8						; size = 4
??$_Is_all_bits_zero@I@std@@YA_NABI@Z PROC		; std::_Is_all_bits_zero<unsigned int>, COMDAT

; 4563 : _NODISCARD bool _Is_all_bits_zero(const _Ty& _Val) {

  00000	53		 push	 ebx
  00001	8b dc		 mov	 ebx, esp
  00003	83 ec 08	 sub	 esp, 8
  00006	83 e4 e0	 and	 esp, -32		; ffffffe0H
  00009	83 c4 04	 add	 esp, 4
  0000c	55		 push	 ebp
  0000d	8b 6b 04	 mov	 ebp, DWORD PTR [ebx+4]
  00010	89 6c 24 04	 mov	 DWORD PTR [esp+4], ebp
  00014	8b ec		 mov	 ebp, esp
  00016	83 ec 60	 sub	 esp, 96			; 00000060H
  00019	a1 00 00 00 00	 mov	 eax, DWORD PTR ___security_cookie
  0001e	33 c5		 xor	 eax, ebp
  00020	89 45 fc	 mov	 DWORD PTR __$ArrayPad$[ebp], eax
  00023	c7 45 a8 b3 8a
	b5 41		 mov	 DWORD PTR __asan_gen_0$[ebp], 1102416563 ; 41b58ab3H
  0002a	c7 45 ac 00 00
	00 00		 mov	 DWORD PTR __asan_gen_1$[ebp], OFFSET __L__asan_gen_.??$_Is_all_bits_zero@I@std@@YA_NABI@Z
  00031	c7 45 b0 00 00
	00 00		 mov	 DWORD PTR __asan_gen_2$[ebp], OFFSET ??$_Is_all_bits_zero@I@std@@YA_NABI@Z ; std::_Is_all_bits_zero<unsigned int>
  00038	8d 45 a8	 lea	 eax, DWORD PTR __asan_gen_0$[ebp]
  0003b	89 45 f4	 mov	 DWORD PTR tv75[ebp], eax
  0003e	8b 4d f4	 mov	 ecx, DWORD PTR tv75[ebp]
  00041	c1 e9 03	 shr	 ecx, 3
  00044	81 c1 00 00 00
	30		 add	 ecx, 805306368		; 30000000H
  0004a	89 4d e8	 mov	 DWORD PTR tv77[ebp], ecx
  0004d	8b 55 e8	 mov	 edx, DWORD PTR tv77[ebp]
  00050	c7 02 f1 f1 04
	f3		 mov	 DWORD PTR [edx], -217779727 ; f304f1f1H
  00056	83 45 e8 04	 add	 DWORD PTR tv77[ebp], 4
  0005a	b8 f3 f3 00 00	 mov	 eax, 62451		; 0000f3f3H
  0005f	8b 4d e8	 mov	 ecx, DWORD PTR tv77[ebp]
  00062	66 89 01	 mov	 WORD PTR [ecx], ax
  00065	83 45 e8 02	 add	 DWORD PTR tv77[ebp], 2
  00069	8b 55 e8	 mov	 edx, DWORD PTR tv77[ebp]
  0006c	c6 02 f3	 mov	 BYTE PTR [edx], 243	; 000000f3H
  0006f	b9 00 00 00 00	 mov	 ecx, OFFSET __12269DE6_xutility
  00074	e8 00 00 00 00	 call	 @__CheckForDebuggerJustMyCode@4

; 4564 :     // checks if scalar type has all bits set to zero
; 4565 :     _STL_INTERNAL_STATIC_ASSERT(is_scalar_v<_Ty> && !is_member_pointer_v<_Ty>);
; 4566 :     constexpr _Ty _Zero{};

  00079	8d 45 b8	 lea	 eax, DWORD PTR __Zero$[ebp]
  0007c	89 45 ec	 mov	 DWORD PTR tv84[ebp], eax
  0007f	8b 4d ec	 mov	 ecx, DWORD PTR tv84[ebp]
  00082	c1 e9 03	 shr	 ecx, 3
  00085	8a 91 00 00 00
	30		 mov	 dl, BYTE PTR [ecx+805306368]
  0008b	88 55 e6	 mov	 BYTE PTR tv87[ebp], dl
  0008e	80 7d e6 00	 cmp	 BYTE PTR tv87[ebp], 0
  00092	74 18		 je	 SHORT $LN5@Is_all_bit
  00094	8a 45 ec	 mov	 al, BYTE PTR tv84[ebp]
  00097	24 07		 and	 al, 7
  00099	04 03		 add	 al, 3
  0009b	3a 45 e6	 cmp	 al, BYTE PTR tv87[ebp]
  0009e	7c 0c		 jl	 SHORT $LN5@Is_all_bit
  000a0	8b 4d ec	 mov	 ecx, DWORD PTR tv84[ebp]
  000a3	51		 push	 ecx
  000a4	e8 00 00 00 00	 call	 ___asan_report_store4
  000a9	83 c4 04	 add	 esp, 4
$LN5@Is_all_bit:
  000ac	c7 45 b8 00 00
	00 00		 mov	 DWORD PTR __Zero$[ebp], 0

; 4567 :     return _CSTD memcmp(&_Val, &_Zero, sizeof(_Ty)) == 0;

  000b3	6a 04		 push	 4
  000b5	8d 55 b8	 lea	 edx, DWORD PTR __Zero$[ebp]
  000b8	52		 push	 edx
  000b9	8b 43 08	 mov	 eax, DWORD PTR __Val$[ebx]
  000bc	50		 push	 eax
  000bd	e8 00 00 00 00	 call	 _memcmp
  000c2	83 c4 0c	 add	 esp, 12			; 0000000cH
  000c5	85 c0		 test	 eax, eax
  000c7	75 09		 jne	 SHORT $LN3@Is_all_bit
  000c9	c7 45 f0 01 00
	00 00		 mov	 DWORD PTR tv69[ebp], 1
  000d0	eb 07		 jmp	 SHORT $LN4@Is_all_bit
$LN3@Is_all_bit:
  000d2	c7 45 f0 00 00
	00 00		 mov	 DWORD PTR tv69[ebp], 0
$LN4@Is_all_bit:
  000d9	8a 4d f0	 mov	 cl, BYTE PTR tv69[ebp]
  000dc	88 4d e7	 mov	 BYTE PTR tv72[ebp], cl
  000df	c7 45 a8 0e 36
	e0 45		 mov	 DWORD PTR __asan_gen_0$[ebp], 1172321806 ; 45e0360eH
  000e6	8d 55 a8	 lea	 edx, DWORD PTR __asan_gen_0$[ebp]
  000e9	c1 ea 03	 shr	 edx, 3
  000ec	81 c2 00 00 00
	30		 add	 edx, 805306368		; 30000000H
  000f2	89 55 f8	 mov	 DWORD PTR tv80[ebp], edx
  000f5	6a 07		 push	 7
  000f7	8b 45 f8	 mov	 eax, DWORD PTR tv80[ebp]
  000fa	50		 push	 eax
  000fb	e8 00 00 00 00	 call	 ___asan_set_shadow_00
  00100	83 c4 08	 add	 esp, 8
  00103	8a 45 e7	 mov	 al, BYTE PTR tv72[ebp]

; 4568 : }

  00106	8b 4d fc	 mov	 ecx, DWORD PTR __$ArrayPad$[ebp]
  00109	33 cd		 xor	 ecx, ebp
  0010b	e8 00 00 00 00	 call	 @__security_check_cookie@4
  00110	8b e5		 mov	 esp, ebp
  00112	5d		 pop	 ebp
  00113	8b e3		 mov	 esp, ebx
  00115	5b		 pop	 ebx
  00116	c3		 ret	 0
??$_Is_all_bits_zero@I@std@@YA_NABI@Z ENDP		; std::_Is_all_bits_zero<unsigned int>
_TEXT	ENDS
; Function compile flags: /Odtp /RTCu
; File C:\Program Files (x86)\Microsoft Visual Studio\2019\Community\VC\Tools\MSVC\14.29.30133\include\xmemory
;	COMDAT ??$_Emplace_back@AAI@?$_Uninitialized_backout_al@V?$allocator@I@std@@@std@@QAEXAAI@Z
_TEXT	SEGMENT
tv81 = -56						; size = 4
tv74 = -52						; size = 4
tv76 = -48						; size = 4
tv78 = -44						; size = 4
tv80 = -40						; size = 4
tv79 = -36						; size = 4
tv71 = -32						; size = 4
tv68 = -28						; size = 4
tv91 = -24						; size = 4
tv133 = -20						; size = 4
tv143 = -16						; size = 4
tv153 = -12						; size = 4
_this$ = -8						; size = 4
tv94 = -4						; size = 1
tv136 = -3						; size = 1
tv146 = -2						; size = 1
tv156 = -1						; size = 1
_<_Vals_0>$ = 8						; size = 4
??$_Emplace_back@AAI@?$_Uninitialized_backout_al@V?$allocator@I@std@@@std@@QAEXAAI@Z PROC ; std::_Uninitialized_backout_al<std::allocator<unsigned int> >::_Emplace_back<unsigned int &>, COMDAT
; _this$ = ecx

; 1630 :     _CONSTEXPR20_DYNALLOC void _Emplace_back(_Types&&... _Vals) { // construct a new element at *_Last and increment

  00000	55		 push	 ebp
  00001	8b ec		 mov	 ebp, esp
  00003	83 ec 38	 sub	 esp, 56			; 00000038H
  00006	89 4d f8	 mov	 DWORD PTR _this$[ebp], ecx
  00009	b9 00 00 00 00	 mov	 ecx, OFFSET __79D216CD_xmemory
  0000e	e8 00 00 00 00	 call	 @__CheckForDebuggerJustMyCode@4

; 1631 :         allocator_traits<_Alloc>::construct(_Al, _Unfancy(_Last), _STD forward<_Types>(_Vals)...);

  00013	8b 45 08	 mov	 eax, DWORD PTR _<_Vals_0>$[ebp]
  00016	50		 push	 eax
  00017	e8 00 00 00 00	 call	 ??$forward@AAI@std@@YAAAIAAI@Z ; std::forward<unsigned int &>
  0001c	83 c4 04	 add	 esp, 4
  0001f	89 45 d4	 mov	 DWORD PTR tv78[ebp], eax
  00022	8b 4d f8	 mov	 ecx, DWORD PTR _this$[ebp]
  00025	83 c1 04	 add	 ecx, 4
  00028	89 4d e4	 mov	 DWORD PTR tv68[ebp], ecx
  0002b	8b 55 e4	 mov	 edx, DWORD PTR tv68[ebp]
  0002e	89 55 f4	 mov	 DWORD PTR tv153[ebp], edx
  00031	8b 45 f4	 mov	 eax, DWORD PTR tv153[ebp]
  00034	c1 e8 03	 shr	 eax, 3
  00037	8a 88 00 00 00
	30		 mov	 cl, BYTE PTR [eax+805306368]
  0003d	88 4d ff	 mov	 BYTE PTR tv156[ebp], cl
  00040	80 7d ff 00	 cmp	 BYTE PTR tv156[ebp], 0
  00044	74 1a		 je	 SHORT $LN6@Emplace_ba
  00046	8a 55 f4	 mov	 dl, BYTE PTR tv153[ebp]
  00049	80 e2 07	 and	 dl, 7
  0004c	80 c2 03	 add	 dl, 3
  0004f	3a 55 ff	 cmp	 dl, BYTE PTR tv156[ebp]
  00052	7c 0c		 jl	 SHORT $LN6@Emplace_ba
  00054	8b 45 f4	 mov	 eax, DWORD PTR tv153[ebp]
  00057	50		 push	 eax
  00058	e8 00 00 00 00	 call	 ___asan_report_load4
  0005d	83 c4 04	 add	 esp, 4
$LN6@Emplace_ba:
  00060	8b 4d e4	 mov	 ecx, DWORD PTR tv68[ebp]
  00063	8b 11		 mov	 edx, DWORD PTR [ecx]
  00065	52		 push	 edx
  00066	e8 00 00 00 00	 call	 ??$_Unfancy@I@std@@YAPAIPAI@Z ; std::_Unfancy<unsigned int>
  0006b	83 c4 04	 add	 esp, 4
  0006e	89 45 d0	 mov	 DWORD PTR tv76[ebp], eax
  00071	8b 45 f8	 mov	 eax, DWORD PTR _this$[ebp]
  00074	83 c0 08	 add	 eax, 8
  00077	89 45 e0	 mov	 DWORD PTR tv71[ebp], eax
  0007a	8b 4d e0	 mov	 ecx, DWORD PTR tv71[ebp]
  0007d	89 4d f0	 mov	 DWORD PTR tv143[ebp], ecx
  00080	8b 55 f0	 mov	 edx, DWORD PTR tv143[ebp]
  00083	c1 ea 03	 shr	 edx, 3
  00086	8a 82 00 00 00
	30		 mov	 al, BYTE PTR [edx+805306368]
  0008c	88 45 fe	 mov	 BYTE PTR tv146[ebp], al
  0008f	80 7d fe 00	 cmp	 BYTE PTR tv146[ebp], 0
  00093	74 1a		 je	 SHORT $LN5@Emplace_ba
  00095	8a 4d f0	 mov	 cl, BYTE PTR tv143[ebp]
  00098	80 e1 07	 and	 cl, 7
  0009b	80 c1 03	 add	 cl, 3
  0009e	3a 4d fe	 cmp	 cl, BYTE PTR tv146[ebp]
  000a1	7c 0c		 jl	 SHORT $LN5@Emplace_ba
  000a3	8b 55 f0	 mov	 edx, DWORD PTR tv143[ebp]
  000a6	52		 push	 edx
  000a7	e8 00 00 00 00	 call	 ___asan_report_load4
  000ac	83 c4 04	 add	 esp, 4
$LN5@Emplace_ba:
  000af	8b 45 e0	 mov	 eax, DWORD PTR tv71[ebp]
  000b2	8b 08		 mov	 ecx, DWORD PTR [eax]
  000b4	89 4d cc	 mov	 DWORD PTR tv74[ebp], ecx
  000b7	8b 55 d4	 mov	 edx, DWORD PTR tv78[ebp]
  000ba	52		 push	 edx
  000bb	8b 45 d0	 mov	 eax, DWORD PTR tv76[ebp]
  000be	50		 push	 eax
  000bf	8b 4d cc	 mov	 ecx, DWORD PTR tv74[ebp]
  000c2	51		 push	 ecx
  000c3	e8 00 00 00 00	 call	 ??$construct@IAAI@?$_Default_allocator_traits@V?$allocator@I@std@@@std@@SAXAAV?$allocator@I@1@QAIAAI@Z ; std::_Default_allocator_traits<std::allocator<unsigned int> >::construct<unsigned int,unsigned int &>
  000c8	83 c4 0c	 add	 esp, 12			; 0000000cH

; 1632 :         ++_Last;

  000cb	8b 55 f8	 mov	 edx, DWORD PTR _this$[ebp]
  000ce	83 c2 04	 add	 edx, 4
  000d1	89 55 dc	 mov	 DWORD PTR tv79[ebp], edx
  000d4	8b 45 dc	 mov	 eax, DWORD PTR tv79[ebp]
  000d7	89 45 ec	 mov	 DWORD PTR tv133[ebp], eax
  000da	8b 4d ec	 mov	 ecx, DWORD PTR tv133[ebp]
  000dd	c1 e9 03	 shr	 ecx, 3
  000e0	8a 91 00 00 00
	30		 mov	 dl, BYTE PTR [ecx+805306368]
  000e6	88 55 fd	 mov	 BYTE PTR tv136[ebp], dl
  000e9	80 7d fd 00	 cmp	 BYTE PTR tv136[ebp], 0
  000ed	74 18		 je	 SHORT $LN4@Emplace_ba
  000ef	8a 45 ec	 mov	 al, BYTE PTR tv133[ebp]
  000f2	24 07		 and	 al, 7
  000f4	04 03		 add	 al, 3
  000f6	3a 45 fd	 cmp	 al, BYTE PTR tv136[ebp]
  000f9	7c 0c		 jl	 SHORT $LN4@Emplace_ba
  000fb	8b 4d ec	 mov	 ecx, DWORD PTR tv133[ebp]
  000fe	51		 push	 ecx
  000ff	e8 00 00 00 00	 call	 ___asan_report_load4
  00104	83 c4 04	 add	 esp, 4
$LN4@Emplace_ba:
  00107	8b 55 dc	 mov	 edx, DWORD PTR tv79[ebp]
  0010a	8b 02		 mov	 eax, DWORD PTR [edx]
  0010c	83 c0 04	 add	 eax, 4
  0010f	89 45 c8	 mov	 DWORD PTR tv81[ebp], eax
  00112	8b 4d f8	 mov	 ecx, DWORD PTR _this$[ebp]
  00115	83 c1 04	 add	 ecx, 4
  00118	89 4d d8	 mov	 DWORD PTR tv80[ebp], ecx
  0011b	8b 55 d8	 mov	 edx, DWORD PTR tv80[ebp]
  0011e	89 55 e8	 mov	 DWORD PTR tv91[ebp], edx
  00121	8b 45 e8	 mov	 eax, DWORD PTR tv91[ebp]
  00124	c1 e8 03	 shr	 eax, 3
  00127	8a 88 00 00 00
